ARM GAS  C:\Users\jorti\AppData\Local\Temp\ccwKMiun.s 			page 1


   1              		.syntax unified
   2              		.cpu cortex-m3
   3              		.fpu softvfp
   4              		.eabi_attribute 20, 1
   5              		.eabi_attribute 21, 1
   6              		.eabi_attribute 23, 3
   7              		.eabi_attribute 24, 1
   8              		.eabi_attribute 25, 1
   9              		.eabi_attribute 26, 1
  10              		.eabi_attribute 30, 1
  11              		.eabi_attribute 34, 1
  12              		.eabi_attribute 18, 4
  13              		.thumb
  14              		.syntax unified
  15              		.file	"app.c"
  16              		.text
  17              	.Ltext0:
  18              		.cfi_sections	.debug_frame
  19              		.section	.text.App_TaskCreate,"ax",%progbits
  20              		.align	2
  21              		.thumb
  22              		.thumb_func
  23              		.type	App_TaskCreate, %function
  24              	App_TaskCreate:
  25              	.LFB3:
  26              		.file 1 "APP\\app.c"
   1:APP/app.c     **** /*
   2:APP/app.c     **** ***************************************************************************************************
   3:APP/app.c     **** *
   4:APP/app.c     **** *                                       MES1 Embedded Software (RTOS)
   5:APP/app.c     **** *
   6:APP/app.c     **** * Filename      : app.c
   7:APP/app.c     **** * Version       : V1.00
   8:APP/app.c     **** * Programmer(s) : Joaquin Ortiz, Ervin, Ana
   9:APP/app.c     **** 
  10:APP/app.c     **** ***************************************************************************************************
  11:APP/app.c     **** */
  12:APP/app.c     **** 
  13:APP/app.c     **** /*
  14:APP/app.c     **** ***************************************************************************************************
  15:APP/app.c     **** *                                             INCLUDE FILES
  16:APP/app.c     **** ***************************************************************************************************
  17:APP/app.c     **** */
  18:APP/app.c     **** 
  19:APP/app.c     **** #include <includes.h>
  20:APP/app.c     **** #include <cyapicallbacks.h>
  21:APP/app.c     **** 
  22:APP/app.c     **** #include <thumbstick_task.h>
  23:APP/app.c     **** #include <dshot_task.h>
  24:APP/app.c     **** #include <com_task.h>
  25:APP/app.c     **** 
  26:APP/app.c     **** 
  27:APP/app.c     **** /*
  28:APP/app.c     **** ***************************************************************************************************
  29:APP/app.c     **** *                                             LOCAL DEFINES
  30:APP/app.c     **** ***************************************************************************************************
  31:APP/app.c     **** */
ARM GAS  C:\Users\jorti\AppData\Local\Temp\ccwKMiun.s 			page 2


  32:APP/app.c     **** 
  33:APP/app.c     **** #define APP_USER_IF_SIGN_ON 0u
  34:APP/app.c     **** #define APP_USER_IF_VER_TICK_RATE 1u
  35:APP/app.c     **** #define APP_USER_IF_CPU 2u
  36:APP/app.c     **** #define APP_USER_IF_CTXSW 3u
  37:APP/app.c     **** #define APP_USER_IF_STATE_MAX 4u
  38:APP/app.c     **** 
  39:APP/app.c     **** #define USE_BSP_TOGGLE 1u
  40:APP/app.c     **** 
  41:APP/app.c     **** /*
  42:APP/app.c     **** ***************************************************************************************************
  43:APP/app.c     **** *                                            LOCAL VARIABLES
  44:APP/app.c     **** ***************************************************************************************************
  45:APP/app.c     **** */
  46:APP/app.c     **** static OS_TCB App_TaskStartTCB;
  47:APP/app.c     **** static CPU_STK App_TaskStartStk[APP_CFG_TASK_START_STK_SIZE];
  48:APP/app.c     **** 
  49:APP/app.c     **** /*
  50:APP/app.c     **** ***************************************************************************************************
  51:APP/app.c     **** *                                         FUNCTION PROTOTYPES
  52:APP/app.c     **** ***************************************************************************************************
  53:APP/app.c     **** */
  54:APP/app.c     **** static void App_TaskStart(void *p_arg);
  55:APP/app.c     **** static void App_TaskCreate(void);
  56:APP/app.c     **** static void App_ObjCreate(void);
  57:APP/app.c     **** 
  58:APP/app.c     **** 
  59:APP/app.c     **** /*
  60:APP/app.c     **** ***************************************************************************************************
  61:APP/app.c     **** *                                                main()
  62:APP/app.c     **** *
  63:APP/app.c     **** * Description : This is the standard entry point for C code.  It is assumed that your code will cal
  64:APP/app.c     **** *               main() once you have performed all necessary initialization. In this functions, the
  65:APP/app.c     **** *               and cos lookup tables are initialized and the start task is created.
  66:APP/app.c     **** *
  67:APP/app.c     **** * Argument(s) : none
  68:APP/app.c     **** *
  69:APP/app.c     **** * Return(s)   : none
  70:APP/app.c     **** *
  71:APP/app.c     **** * Caller(s)   : Startup Code.
  72:APP/app.c     **** *
  73:APP/app.c     **** * Note(s)     : none.
  74:APP/app.c     **** ***************************************************************************************************
  75:APP/app.c     **** */
  76:APP/app.c     **** 
  77:APP/app.c     **** int main(void)
  78:APP/app.c     **** {
  79:APP/app.c     ****   OS_ERR os_err;
  80:APP/app.c     **** 
  81:APP/app.c     ****   BSP_PreInit(); /* Perform BSP pre-initialization.                      */
  82:APP/app.c     **** 
  83:APP/app.c     ****   CPU_Init(); /* Initialize the uC/CPU services                       */
  84:APP/app.c     **** 
  85:APP/app.c     ****   OSInit(&os_err); /* Init uC/OS-III.                                      */
  86:APP/app.c     **** 
  87:APP/app.c     ****   OSTaskCreate((OS_TCB *)&App_TaskStartTCB, /* Create the start task                               
  88:APP/app.c     ****                (CPU_CHAR *)"Start",
ARM GAS  C:\Users\jorti\AppData\Local\Temp\ccwKMiun.s 			page 3


  89:APP/app.c     ****                (OS_TASK_PTR)App_TaskStart,
  90:APP/app.c     ****                (void *)0,
  91:APP/app.c     ****                (OS_PRIO)APP_CFG_TASK_START_PRIO,
  92:APP/app.c     ****                (CPU_STK *)&App_TaskStartStk[0],
  93:APP/app.c     ****                (CPU_STK_SIZE)APP_CFG_TASK_START_STK_SIZE_LIMIT,
  94:APP/app.c     ****                (CPU_STK_SIZE)APP_CFG_TASK_START_STK_SIZE,
  95:APP/app.c     ****                (OS_MSG_QTY)0u,
  96:APP/app.c     ****                (OS_TICK)0u,
  97:APP/app.c     ****                (void *)0,
  98:APP/app.c     ****                (OS_OPT)(OS_OPT_TASK_STK_CHK | OS_OPT_TASK_STK_CLR),
  99:APP/app.c     ****                (OS_ERR *)&os_err);
 100:APP/app.c     **** 
 101:APP/app.c     ****   OSStart(&os_err); /* Start multitasking (i.e. give control to uC/OS-III).  */
 102:APP/app.c     **** }
 103:APP/app.c     **** 
 104:APP/app.c     **** /*
 105:APP/app.c     **** ***************************************************************************************************
 106:APP/app.c     **** *                                          App_TaskStart()
 107:APP/app.c     **** *
 108:APP/app.c     **** * Description : This is an example of a startup task.  As mentioned in the book's text, you MUST
 109:APP/app.c     **** *               initialize the ticker only once multitasking has started.
 110:APP/app.c     **** *
 111:APP/app.c     **** * Argument(s) : p_arg   is the argument passed to 'App_TaskStart()' by 'OSTaskCreate()'.
 112:APP/app.c     **** *
 113:APP/app.c     **** * Return(s)   : none
 114:APP/app.c     **** *
 115:APP/app.c     **** * Note(s)     : 1) The first line of code is used to prevent a compiler warning because 'p_arg' is 
 116:APP/app.c     **** *                  used.  The compiler should not generate any code for this statement.
 117:APP/app.c     **** ***************************************************************************************************
 118:APP/app.c     **** */
 119:APP/app.c     **** 
 120:APP/app.c     **** static void App_TaskStart(void *p_arg)
 121:APP/app.c     **** {
 122:APP/app.c     ****   OS_ERR err;
 123:APP/app.c     **** 
 124:APP/app.c     ****   (void)p_arg;
 125:APP/app.c     **** 
 126:APP/app.c     ****   BSP_PostInit(); /* Perform BSP post-initialization functions.       */
 127:APP/app.c     **** 
 128:APP/app.c     ****   BSP_CPU_TickInit(); /* Perfrom Tick Initialization                      */
 129:APP/app.c     **** 
 130:APP/app.c     **** #if (OS_CFG_STAT_TASK_EN > 0u)
 131:APP/app.c     ****   OSStatTaskCPUUsageInit(&err);
 132:APP/app.c     **** #endif
 133:APP/app.c     **** 
 134:APP/app.c     **** #ifdef CPU_CFG_INT_DIS_MEAS_EN
 135:APP/app.c     ****   CPU_IntDisMeasMaxCurReset();
 136:APP/app.c     **** #endif
 137:APP/app.c     **** 
 138:APP/app.c     ****   App_TaskCreate(); /* Create application tasks.                        */
 139:APP/app.c     **** 
 140:APP/app.c     ****   App_ObjCreate(); /* Create kernel objects                            */
 141:APP/app.c     **** 
 142:APP/app.c     ****   while (DEF_TRUE)
 143:APP/app.c     ****   { /* Task body, always written as an infinite loop.   */
 144:APP/app.c     ****     OSTimeDlyHMSM(0, 0, 0, GENERAL_TASK_DELAY_MS,
 145:APP/app.c     ****                   OS_OPT_TIME_HMSM_STRICT,
ARM GAS  C:\Users\jorti\AppData\Local\Temp\ccwKMiun.s 			page 4


 146:APP/app.c     ****                   &err);
 147:APP/app.c     ****   }
 148:APP/app.c     **** }
 149:APP/app.c     **** 
 150:APP/app.c     **** /*
 151:APP/app.c     **** ***************************************************************************************************
 152:APP/app.c     **** *                                          App_TaskCreate()
 153:APP/app.c     **** *
 154:APP/app.c     **** * Description : Create application tasks.
 155:APP/app.c     **** *
 156:APP/app.c     **** * Argument(s) : none
 157:APP/app.c     **** *
 158:APP/app.c     **** * Return(s)   : none
 159:APP/app.c     **** *
 160:APP/app.c     **** * Caller(s)   : AppTaskStart()
 161:APP/app.c     **** *
 162:APP/app.c     **** * Note(s)     : none.
 163:APP/app.c     **** ***************************************************************************************************
 164:APP/app.c     **** */
 165:APP/app.c     **** 
 166:APP/app.c     **** static void App_TaskCreate(void)
 167:APP/app.c     **** {
  27              		.loc 1 167 0
  28              		.cfi_startproc
  29              		@ args = 0, pretend = 0, frame = 8
  30              		@ frame_needed = 0, uses_anonymous_args = 0
  31 0000 2DE9F043 		push	{r4, r5, r6, r7, r8, r9, lr}
  32              		.cfi_def_cfa_offset 28
  33              		.cfi_offset 4, -28
  34              		.cfi_offset 5, -24
  35              		.cfi_offset 6, -20
  36              		.cfi_offset 7, -16
  37              		.cfi_offset 8, -12
  38              		.cfi_offset 9, -8
  39              		.cfi_offset 14, -4
  40 0004 8DB0     		sub	sp, sp, #52
  41              		.cfi_def_cfa_offset 80
 168:APP/app.c     ****   /* declare and define function local variables */
 169:APP/app.c     ****   OS_ERR os_err;
 170:APP/app.c     **** 
 171:APP/app.c     ****   /* create Adc Task channel*/
 172:APP/app.c     ****   OSTaskCreate((OS_TCB *)GetThumbstickTaskTCB(),
  42              		.loc 1 172 0
  43 0006 FFF7FEFF 		bl	GetThumbstickTaskTCB
  44              	.LVL0:
  45 000a 8146     		mov	r9, r0
  46 000c FFF7FEFF 		bl	GetThumbstickTaskStk
  47              	.LVL1:
  48 0010 0DF12E08 		add	r8, sp, #46
  49 0014 CDF82080 		str	r8, [sp, #32]
  50 0018 0325     		movs	r5, #3
  51 001a 0795     		str	r5, [sp, #28]
  52 001c 0024     		movs	r4, #0
  53 001e 0694     		str	r4, [sp, #24]
  54 0020 0594     		str	r4, [sp, #20]
  55 0022 0494     		str	r4, [sp, #16]
  56 0024 4FF48077 		mov	r7, #256
ARM GAS  C:\Users\jorti\AppData\Local\Temp\ccwKMiun.s 			page 5


  57 0028 0397     		str	r7, [sp, #12]
  58 002a 1926     		movs	r6, #25
  59 002c 0296     		str	r6, [sp, #8]
  60 002e 0190     		str	r0, [sp, #4]
  61 0030 0423     		movs	r3, #4
  62 0032 0093     		str	r3, [sp]
  63 0034 2346     		mov	r3, r4
  64 0036 194A     		ldr	r2, .L3
  65 0038 1949     		ldr	r1, .L3+4
  66 003a 4846     		mov	r0, r9
  67 003c FFF7FEFF 		bl	OSTaskCreate
  68              	.LVL2:
 173:APP/app.c     ****                (CPU_CHAR *)"TaskThumbstick",
 174:APP/app.c     ****                (OS_TASK_PTR)App_TaskThumbstick,
 175:APP/app.c     ****                (void *)0,
 176:APP/app.c     ****                (OS_PRIO)APP_CFG_TASK_CMD_PRIO,
 177:APP/app.c     ****                (CPU_STK *)GetThumbstickTaskStk(),
 178:APP/app.c     ****                (CPU_STK_SIZE)APP_CFG_TASK_THUMBSTICK_STK_SIZE_LIMIT,
 179:APP/app.c     ****                (CPU_STK_SIZE)APP_CFG_TASK_THUMBSTICK_STK_SIZE,
 180:APP/app.c     ****                (OS_MSG_QTY)TASK_QUEUE_LENGTH,
 181:APP/app.c     ****                (OS_TICK)0u,
 182:APP/app.c     ****                (void *)0,
 183:APP/app.c     ****                (OS_OPT)(OS_OPT_TASK_STK_CHK | OS_OPT_TASK_STK_CLR),
 184:APP/app.c     ****                (OS_ERR *)&os_err);
 185:APP/app.c     ****   /* create Dshot Task channel*/
 186:APP/app.c     ****   OSTaskCreate((OS_TCB *)GetDshotTaskTCB(),
  69              		.loc 1 186 0
  70 0040 FFF7FEFF 		bl	GetDshotTaskTCB
  71              	.LVL3:
  72 0044 8146     		mov	r9, r0
  73 0046 FFF7FEFF 		bl	GetDshotTaskStk
  74              	.LVL4:
  75 004a CDF82080 		str	r8, [sp, #32]
  76 004e 0795     		str	r5, [sp, #28]
  77 0050 0694     		str	r4, [sp, #24]
  78 0052 0594     		str	r4, [sp, #20]
  79 0054 0523     		movs	r3, #5
  80 0056 0493     		str	r3, [sp, #16]
  81 0058 0397     		str	r7, [sp, #12]
  82 005a 0296     		str	r6, [sp, #8]
  83 005c 0190     		str	r0, [sp, #4]
  84 005e 0093     		str	r3, [sp]
  85 0060 2346     		mov	r3, r4
  86 0062 104A     		ldr	r2, .L3+8
  87 0064 1049     		ldr	r1, .L3+12
  88 0066 4846     		mov	r0, r9
  89 0068 FFF7FEFF 		bl	OSTaskCreate
  90              	.LVL5:
 187:APP/app.c     ****                (CPU_CHAR *)"TaskDshot",
 188:APP/app.c     ****                (OS_TASK_PTR)App_TaskDshot,
 189:APP/app.c     ****                (void *)0,
 190:APP/app.c     ****                (OS_PRIO)APP_CFG_TASK_SIN_PRIO,
 191:APP/app.c     ****                (CPU_STK *)GetDshotTaskStk(),
 192:APP/app.c     ****                (CPU_STK_SIZE)APP_CFG_TASK_DSHOT_STK_SIZE_LIMIT,
 193:APP/app.c     ****                (CPU_STK_SIZE)APP_CFG_TASK_DSHOT_STK_SIZE,
 194:APP/app.c     ****                (OS_MSG_QTY)DSHOT_TASK_QUEUE_LENGTH,
 195:APP/app.c     ****                (OS_TICK)0u,
ARM GAS  C:\Users\jorti\AppData\Local\Temp\ccwKMiun.s 			page 6


 196:APP/app.c     ****                (void *)0,
 197:APP/app.c     ****                (OS_OPT)(OS_OPT_TASK_STK_CHK | OS_OPT_TASK_STK_CLR),
 198:APP/app.c     ****                (OS_ERR *)&os_err);
 199:APP/app.c     ****   /* create COM task */
 200:APP/app.c     ****   OSTaskCreate((OS_TCB *)GetComTaskTCB(),
  91              		.loc 1 200 0
  92 006c FFF7FEFF 		bl	GetComTaskTCB
  93              	.LVL6:
  94 0070 8146     		mov	r9, r0
  95 0072 FFF7FEFF 		bl	GetComTaskStk
  96              	.LVL7:
  97 0076 CDF82080 		str	r8, [sp, #32]
  98 007a 0795     		str	r5, [sp, #28]
  99 007c 0694     		str	r4, [sp, #24]
 100 007e 0594     		str	r4, [sp, #20]
 101 0080 0494     		str	r4, [sp, #16]
 102 0082 0397     		str	r7, [sp, #12]
 103 0084 0296     		str	r6, [sp, #8]
 104 0086 0190     		str	r0, [sp, #4]
 105 0088 0095     		str	r5, [sp]
 106 008a 2346     		mov	r3, r4
 107 008c 074A     		ldr	r2, .L3+16
 108 008e 0849     		ldr	r1, .L3+20
 109 0090 4846     		mov	r0, r9
 110 0092 FFF7FEFF 		bl	OSTaskCreate
 111              	.LVL8:
 201:APP/app.c     ****                (CPU_CHAR *)"TaskCom",
 202:APP/app.c     ****                (OS_TASK_PTR)App_TaskCom,
 203:APP/app.c     ****                (void *)0,
 204:APP/app.c     ****                (OS_PRIO)APP_CFG_TASK_COM_PRIO,
 205:APP/app.c     ****                (CPU_STK *)GetComTaskStk(),
 206:APP/app.c     ****                (CPU_STK_SIZE)APP_CFG_TASK_COM_STK_SIZE_LIMIT,
 207:APP/app.c     ****                (CPU_STK_SIZE)APP_CFG_TASK_COM_STK_SIZE,
 208:APP/app.c     ****                (OS_MSG_QTY)TASK_QUEUE_LENGTH,
 209:APP/app.c     ****                (OS_TICK)0u,
 210:APP/app.c     ****                (void *)0,
 211:APP/app.c     ****                (OS_OPT)(OS_OPT_TASK_STK_CHK | OS_OPT_TASK_STK_CLR),
 212:APP/app.c     ****                (OS_ERR *)&os_err);
 213:APP/app.c     **** }
 112              		.loc 1 213 0
 113 0096 0DB0     		add	sp, sp, #52
 114              		.cfi_def_cfa_offset 28
 115              		@ sp needed
 116 0098 BDE8F083 		pop	{r4, r5, r6, r7, r8, r9, pc}
 117              	.L4:
 118              		.align	2
 119              	.L3:
 120 009c 00000000 		.word	App_TaskThumbstick
 121 00a0 00000000 		.word	.LC0
 122 00a4 00000000 		.word	App_TaskDshot
 123 00a8 10000000 		.word	.LC1
 124 00ac 00000000 		.word	App_TaskCom
 125 00b0 1C000000 		.word	.LC2
 126              		.cfi_endproc
 127              	.LFE3:
 128              		.size	App_TaskCreate, .-App_TaskCreate
 129              		.section	.text.App_ObjCreate,"ax",%progbits
ARM GAS  C:\Users\jorti\AppData\Local\Temp\ccwKMiun.s 			page 7


 130              		.align	2
 131              		.thumb
 132              		.thumb_func
 133              		.type	App_ObjCreate, %function
 134              	App_ObjCreate:
 135              	.LFB4:
 214:APP/app.c     **** 
 215:APP/app.c     **** /*
 216:APP/app.c     **** ***************************************************************************************************
 217:APP/app.c     **** *                                          App_ObjCreate()
 218:APP/app.c     **** *
 219:APP/app.c     **** * Description : Create application kernel objects tasks.
 220:APP/app.c     **** *
 221:APP/app.c     **** * Argument(s) : none
 222:APP/app.c     **** *
 223:APP/app.c     **** * Return(s)   : none
 224:APP/app.c     **** *
 225:APP/app.c     **** * Caller(s)   : AppTaskStart()
 226:APP/app.c     **** *
 227:APP/app.c     **** * Note(s)     : none.
 228:APP/app.c     **** ***************************************************************************************************
 229:APP/app.c     **** */
 230:APP/app.c     **** 
 231:APP/app.c     **** static void App_ObjCreate(void)
 232:APP/app.c     **** {
 136              		.loc 1 232 0
 137              		.cfi_startproc
 138              		@ args = 0, pretend = 0, frame = 8
 139              		@ frame_needed = 0, uses_anonymous_args = 0
 140 0000 00B5     		push	{lr}
 141              		.cfi_def_cfa_offset 4
 142              		.cfi_offset 14, -4
 143 0002 83B0     		sub	sp, sp, #12
 144              		.cfi_def_cfa_offset 16
 233:APP/app.c     ****   /* declare and define function local variables */
 234:APP/app.c     ****   OS_ERR os_err;
 235:APP/app.c     **** 
 236:APP/app.c     ****   OSSemCreate(getSemBufferFullEvent(),"SEM_BUFFER_FULL_EVENT",0,&os_err);
 145              		.loc 1 236 0
 146 0004 FFF7FEFF 		bl	getSemBufferFullEvent
 147              	.LVL9:
 148 0008 0DF10603 		add	r3, sp, #6
 149 000c 0022     		movs	r2, #0
 150 000e 0349     		ldr	r1, .L7
 151 0010 FFF7FEFF 		bl	OSSemCreate
 152              	.LVL10:
 237:APP/app.c     **** }
 153              		.loc 1 237 0
 154 0014 03B0     		add	sp, sp, #12
 155              		.cfi_def_cfa_offset 4
 156              		@ sp needed
 157 0016 5DF804FB 		ldr	pc, [sp], #4
 158              	.L8:
 159 001a 00BF     		.align	2
 160              	.L7:
 161 001c 24000000 		.word	.LC3
 162              		.cfi_endproc
ARM GAS  C:\Users\jorti\AppData\Local\Temp\ccwKMiun.s 			page 8


 163              	.LFE4:
 164              		.size	App_ObjCreate, .-App_ObjCreate
 165              		.section	.text.App_TaskStart,"ax",%progbits
 166              		.align	2
 167              		.thumb
 168              		.thumb_func
 169              		.type	App_TaskStart, %function
 170              	App_TaskStart:
 171              	.LFB2:
 121:APP/app.c     ****   OS_ERR err;
 172              		.loc 1 121 0
 173              		.cfi_startproc
 174              		@ args = 0, pretend = 0, frame = 8
 175              		@ frame_needed = 0, uses_anonymous_args = 0
 176              	.LVL11:
 177 0000 00B5     		push	{lr}
 178              		.cfi_def_cfa_offset 4
 179              		.cfi_offset 14, -4
 180 0002 85B0     		sub	sp, sp, #20
 181              		.cfi_def_cfa_offset 24
 126:APP/app.c     **** 
 182              		.loc 1 126 0
 183 0004 FFF7FEFF 		bl	BSP_PostInit
 184              	.LVL12:
 128:APP/app.c     **** 
 185              		.loc 1 128 0
 186 0008 FFF7FEFF 		bl	BSP_CPU_TickInit
 187              	.LVL13:
 131:APP/app.c     **** #endif
 188              		.loc 1 131 0
 189 000c 0DF10E00 		add	r0, sp, #14
 190 0010 FFF7FEFF 		bl	OSStatTaskCPUUsageInit
 191              	.LVL14:
 138:APP/app.c     **** 
 192              		.loc 1 138 0
 193 0014 FFF7FEFF 		bl	App_TaskCreate
 194              	.LVL15:
 140:APP/app.c     **** 
 195              		.loc 1 140 0
 196 0018 FFF7FEFF 		bl	App_ObjCreate
 197              	.LVL16:
 198              	.L10:
 144:APP/app.c     ****                   OS_OPT_TIME_HMSM_STRICT,
 199              		.loc 1 144 0 discriminator 1
 200 001c 0DF10E03 		add	r3, sp, #14
 201 0020 0193     		str	r3, [sp, #4]
 202 0022 0020     		movs	r0, #0
 203 0024 0090     		str	r0, [sp]
 204 0026 6423     		movs	r3, #100
 205 0028 0246     		mov	r2, r0
 206 002a 0146     		mov	r1, r0
 207 002c FFF7FEFF 		bl	OSTimeDlyHMSM
 208              	.LVL17:
 209 0030 F4E7     		b	.L10
 210              		.cfi_endproc
 211              	.LFE2:
 212              		.size	App_TaskStart, .-App_TaskStart
ARM GAS  C:\Users\jorti\AppData\Local\Temp\ccwKMiun.s 			page 9


 213 0032 00BF     		.section	.text.main,"ax",%progbits
 214              		.align	2
 215              		.global	main
 216              		.thumb
 217              		.thumb_func
 218              		.type	main, %function
 219              	main:
 220              	.LFB1:
  78:APP/app.c     ****   OS_ERR os_err;
 221              		.loc 1 78 0
 222              		.cfi_startproc
 223              		@ args = 0, pretend = 0, frame = 8
 224              		@ frame_needed = 0, uses_anonymous_args = 0
 225 0000 30B5     		push	{r4, r5, lr}
 226              		.cfi_def_cfa_offset 12
 227              		.cfi_offset 4, -12
 228              		.cfi_offset 5, -8
 229              		.cfi_offset 14, -4
 230 0002 8DB0     		sub	sp, sp, #52
 231              		.cfi_def_cfa_offset 64
  81:APP/app.c     **** 
 232              		.loc 1 81 0
 233 0004 FFF7FEFF 		bl	BSP_PreInit
 234              	.LVL18:
  83:APP/app.c     **** 
 235              		.loc 1 83 0
 236 0008 FFF7FEFF 		bl	CPU_Init
 237              	.LVL19:
  85:APP/app.c     **** 
 238              		.loc 1 85 0
 239 000c 0DF12E05 		add	r5, sp, #46
 240 0010 2846     		mov	r0, r5
 241 0012 FFF7FEFF 		bl	OSInit
 242              	.LVL20:
  87:APP/app.c     ****                (CPU_CHAR *)"Start",
 243              		.loc 1 87 0
 244 0016 0E48     		ldr	r0, .L14
 245 0018 0895     		str	r5, [sp, #32]
 246 001a 0323     		movs	r3, #3
 247 001c 0793     		str	r3, [sp, #28]
 248 001e 0024     		movs	r4, #0
 249 0020 0694     		str	r4, [sp, #24]
 250 0022 0594     		str	r4, [sp, #20]
 251 0024 0494     		str	r4, [sp, #16]
 252 0026 8023     		movs	r3, #128
 253 0028 0393     		str	r3, [sp, #12]
 254 002a 0C23     		movs	r3, #12
 255 002c 0293     		str	r3, [sp, #8]
 256 002e 00F1C003 		add	r3, r0, #192
 257 0032 0193     		str	r3, [sp, #4]
 258 0034 0223     		movs	r3, #2
 259 0036 0093     		str	r3, [sp]
 260 0038 2346     		mov	r3, r4
 261 003a 064A     		ldr	r2, .L14+4
 262 003c 0649     		ldr	r1, .L14+8
 263 003e FFF7FEFF 		bl	OSTaskCreate
 264              	.LVL21:
ARM GAS  C:\Users\jorti\AppData\Local\Temp\ccwKMiun.s 			page 10


 101:APP/app.c     **** }
 265              		.loc 1 101 0
 266 0042 2846     		mov	r0, r5
 267 0044 FFF7FEFF 		bl	OSStart
 268              	.LVL22:
 102:APP/app.c     **** 
 269              		.loc 1 102 0
 270 0048 2046     		mov	r0, r4
 271 004a 0DB0     		add	sp, sp, #52
 272              		.cfi_def_cfa_offset 12
 273              		@ sp needed
 274 004c 30BD     		pop	{r4, r5, pc}
 275              	.L15:
 276 004e 00BF     		.align	2
 277              	.L14:
 278 0050 00000000 		.word	.LANCHOR0
 279 0054 00000000 		.word	App_TaskStart
 280 0058 3C000000 		.word	.LC4
 281              		.cfi_endproc
 282              	.LFE1:
 283              		.size	main, .-main
 284              		.section	.rodata.str1.4,"aMS",%progbits,1
 285              		.align	2
 286              	.LC0:
 287 0000 5461736B 		.ascii	"TaskThumbstick\000"
 287      5468756D 
 287      62737469 
 287      636B00
 288 000f 00       		.space	1
 289              	.LC1:
 290 0010 5461736B 		.ascii	"TaskDshot\000"
 290      4473686F 
 290      7400
 291 001a 0000     		.space	2
 292              	.LC2:
 293 001c 5461736B 		.ascii	"TaskCom\000"
 293      436F6D00 
 294              	.LC3:
 295 0024 53454D5F 		.ascii	"SEM_BUFFER_FULL_EVENT\000"
 295      42554646 
 295      45525F46 
 295      554C4C5F 
 295      4556454E 
 296 003a 0000     		.space	2
 297              	.LC4:
 298 003c 53746172 		.ascii	"Start\000"
 298      7400
 299              		.bss
 300              		.align	2
 301              		.set	.LANCHOR0,. + 0
 302              		.type	App_TaskStartTCB, %object
 303              		.size	App_TaskStartTCB, 192
 304              	App_TaskStartTCB:
 305 0000 00000000 		.space	192
 305      00000000 
 305      00000000 
 305      00000000 
ARM GAS  C:\Users\jorti\AppData\Local\Temp\ccwKMiun.s 			page 11


 305      00000000 
 306              		.type	App_TaskStartStk, %object
 307              		.size	App_TaskStartStk, 512
 308              	App_TaskStartStk:
 309 00c0 00000000 		.space	512
 309      00000000 
 309      00000000 
 309      00000000 
 309      00000000 
 310              		.text
 311              	.Letext0:
 312              		.file 2 ".\\uC-CPU\\ARM-Cortex-M3\\GNU/cpu.h"
 313              		.file 3 ".\\uC-CPU/cpu_core.h"
 314              		.file 4 ".\\uCOS-III\\Source/os_type.h"
 315              		.file 5 ".\\uCOS-III\\Source/os.h"
 316              		.file 6 "./bsp_uart.h"
 317              		.file 7 "./thumbstick_task.h"
 318              		.file 8 "./dshot_task.h"
 319              		.file 9 "./com_task.h"
 320              		.file 10 ".\\BSP/bsp.h"