ARM GAS  C:\Users\jorti\AppData\Local\Temp\ccWGHBdX.s 			page 1


   1              		.syntax unified
   2              		.cpu cortex-m3
   3              		.fpu softvfp
   4              		.eabi_attribute 20, 1
   5              		.eabi_attribute 21, 1
   6              		.eabi_attribute 23, 3
   7              		.eabi_attribute 24, 1
   8              		.eabi_attribute 25, 1
   9              		.eabi_attribute 26, 1
  10              		.eabi_attribute 30, 1
  11              		.eabi_attribute 34, 1
  12              		.eabi_attribute 18, 4
  13              		.thumb
  14              		.syntax unified
  15              		.file	"bsp.c"
  16              		.text
  17              	.Ltext0:
  18              		.cfi_sections	.debug_frame
  19              		.section	.text.BSP_PreInit,"ax",%progbits
  20              		.align	2
  21              		.global	BSP_PreInit
  22              		.thumb
  23              		.thumb_func
  24              		.type	BSP_PreInit, %function
  25              	BSP_PreInit:
  26              	.LFB1:
  27              		.file 1 "BSP\\bsp.c"
   1:BSP/bsp.c     **** /*
   2:BSP/bsp.c     **** ***************************************************************************************************
   3:BSP/bsp.c     **** *                                     MICIRUM BOARD SUPPORT PACKAGE
   4:BSP/bsp.c     **** *
   5:BSP/bsp.c     **** *                             (c) Copyright 2012; Micrium, Inc.; Weston, FL
   6:BSP/bsp.c     **** *
   7:BSP/bsp.c     **** *               All rights reserved.  Protected by international copyright laws.
   8:BSP/bsp.c     **** *               Knowledge of the source code may NOT be used to develop a similar product.
   9:BSP/bsp.c     **** *               Please help us continue to provide the Embedded community with the finest
  10:BSP/bsp.c     **** *               software available.  Your honesty is greatly appreciated.
  11:BSP/bsp.c     **** ***************************************************************************************************
  12:BSP/bsp.c     **** */
  13:BSP/bsp.c     **** 
  14:BSP/bsp.c     **** /*
  15:BSP/bsp.c     **** ***************************************************************************************************
  16:BSP/bsp.c     **** *
  17:BSP/bsp.c     **** *                                        BOARD SUPPORT PACKAGE
  18:BSP/bsp.c     **** *
  19:BSP/bsp.c     **** *                                           CYPRESS PSoC5
  20:BSP/bsp.c     **** *                                              with the
  21:BSP/bsp.c     **** *                                     CY8CKIT-050 Development Kit
  22:BSP/bsp.c     **** *
  23:BSP/bsp.c     **** * Filename      : bsp.c
  24:BSP/bsp.c     **** * Version       : V1.00
  25:BSP/bsp.c     **** * Programmer(s) : DC
  26:BSP/bsp.c     **** ***************************************************************************************************
  27:BSP/bsp.c     **** */
  28:BSP/bsp.c     **** 
  29:BSP/bsp.c     **** /*
  30:BSP/bsp.c     **** ***************************************************************************************************
ARM GAS  C:\Users\jorti\AppData\Local\Temp\ccWGHBdX.s 			page 2


  31:BSP/bsp.c     **** *                                             INCLUDE FILES
  32:BSP/bsp.c     **** ***************************************************************************************************
  33:BSP/bsp.c     **** */
  34:BSP/bsp.c     **** 
  35:BSP/bsp.c     **** #define  BSP_MODULE
  36:BSP/bsp.c     **** #include <bsp.h>
  37:BSP/bsp.c     **** #include <bsp_psoc.h>
  38:BSP/bsp.c     **** 
  39:BSP/bsp.c     **** #include <bsp_uart.h>
  40:BSP/bsp.c     **** #include <bsp_gpio.h>
  41:BSP/bsp.c     **** #include <bsp_spi.h>
  42:BSP/bsp.c     **** 
  43:BSP/bsp.c     **** 
  44:BSP/bsp.c     **** /*
  45:BSP/bsp.c     **** ***************************************************************************************************
  46:BSP/bsp.c     **** *                                            LOCAL DEFINES
  47:BSP/bsp.c     **** ***************************************************************************************************
  48:BSP/bsp.c     **** */
  49:BSP/bsp.c     **** 
  50:BSP/bsp.c     **** 
  51:BSP/bsp.c     **** /*
  52:BSP/bsp.c     **** ***************************************************************************************************
  53:BSP/bsp.c     **** *                                           LOCAL CONSTANTS
  54:BSP/bsp.c     **** ***************************************************************************************************
  55:BSP/bsp.c     **** */
  56:BSP/bsp.c     ****                                                                   
  57:BSP/bsp.c     **** 
  58:BSP/bsp.c     **** /*
  59:BSP/bsp.c     **** ***************************************************************************************************
  60:BSP/bsp.c     **** *                                          LOCAL DATA TYPES
  61:BSP/bsp.c     **** ***************************************************************************************************
  62:BSP/bsp.c     **** */
  63:BSP/bsp.c     **** 
  64:BSP/bsp.c     **** 
  65:BSP/bsp.c     **** /*
  66:BSP/bsp.c     **** ***************************************************************************************************
  67:BSP/bsp.c     **** *                                            LOCAL TABLES
  68:BSP/bsp.c     **** ***************************************************************************************************
  69:BSP/bsp.c     **** */
  70:BSP/bsp.c     **** 
  71:BSP/bsp.c     **** 
  72:BSP/bsp.c     **** /*
  73:BSP/bsp.c     **** ***************************************************************************************************
  74:BSP/bsp.c     **** *                                       LOCAL GLOBAL VARIABLES
  75:BSP/bsp.c     **** ***************************************************************************************************
  76:BSP/bsp.c     **** */
  77:BSP/bsp.c     **** 
  78:BSP/bsp.c     **** 
  79:BSP/bsp.c     **** 
  80:BSP/bsp.c     **** /*
  81:BSP/bsp.c     **** ***************************************************************************************************
  82:BSP/bsp.c     **** *                                      LOCAL FUNCTION PROTOTYPES
  83:BSP/bsp.c     **** ***************************************************************************************************
  84:BSP/bsp.c     **** */
  85:BSP/bsp.c     **** 
  86:BSP/bsp.c     **** 
  87:BSP/bsp.c     **** /*
ARM GAS  C:\Users\jorti\AppData\Local\Temp\ccWGHBdX.s 			page 3


  88:BSP/bsp.c     **** ***************************************************************************************************
  89:BSP/bsp.c     **** *                                            REGISTER BITS
  90:BSP/bsp.c     **** ***************************************************************************************************
  91:BSP/bsp.c     **** */
  92:BSP/bsp.c     **** 
  93:BSP/bsp.c     **** 
  94:BSP/bsp.c     **** /*
  95:BSP/bsp.c     **** ***************************************************************************************************
  96:BSP/bsp.c     **** *                                     LOCAL CONFIGURATION ERRORS
  97:BSP/bsp.c     **** ***************************************************************************************************
  98:BSP/bsp.c     **** */
  99:BSP/bsp.c     **** 
 100:BSP/bsp.c     **** 
 101:BSP/bsp.c     **** /*
 102:BSP/bsp.c     **** ***************************************************************************************************
 103:BSP/bsp.c     **** *                                             BSP_PreInit()
 104:BSP/bsp.c     **** *
 105:BSP/bsp.c     **** * Description : Board support package pre-initialization funtion.
 106:BSP/bsp.c     **** *
 107:BSP/bsp.c     **** * Argument(s) : none.
 108:BSP/bsp.c     **** *
 109:BSP/bsp.c     **** * Return(s)   : none.
 110:BSP/bsp.c     **** *
 111:BSP/bsp.c     **** * Caller(s)   : Application.
 112:BSP/bsp.c     **** *
 113:BSP/bsp.c     **** * Note(s)     : (1) This funtion initializes peripherals required before the OS is initialized (e.g
 114:BSP/bsp.c     **** *                   external memory.
 115:BSP/bsp.c     **** ***************************************************************************************************
 116:BSP/bsp.c     **** */
 117:BSP/bsp.c     **** 
 118:BSP/bsp.c     **** 
 119:BSP/bsp.c     **** void BSP_PreInit (void)
 120:BSP/bsp.c     **** {
  28              		.loc 1 120 0
  29              		.cfi_startproc
  30              		@ args = 0, pretend = 0, frame = 0
  31              		@ frame_needed = 0, uses_anonymous_args = 0
  32              		@ link register save eliminated.
 121:BSP/bsp.c     ****     CPU_INT32U  reg_val;
 122:BSP/bsp.c     ****     CPU_INT32U *p_vect_tbl;
 123:BSP/bsp.c     ****     
 124:BSP/bsp.c     ****     
 125:BSP/bsp.c     ****     reg_val = CPU_REG_NVIC_VTOR;                                   /* Get the NVIC offset table    
  33              		.loc 1 125 0
  34 0000 044B     		ldr	r3, .L2
  35 0002 1B68     		ldr	r3, [r3]
  36              	.LVL0:
 126:BSP/bsp.c     ****     DEF_BIT_CLR(reg_val, DEF_BIT_29);                              /* Clear the TBLBASE bit        
  37              		.loc 1 126 0
  38 0004 23F00053 		bic	r3, r3, #536870912
  39              	.LVL1:
 127:BSP/bsp.c     ****     
 128:BSP/bsp.c     ****      
 129:BSP/bsp.c     ****     p_vect_tbl                  = (CPU_INT32U *)reg_val;           
 130:BSP/bsp.c     ****                                                                    /* Install the PendSV & Systick 
 131:BSP/bsp.c     ****     p_vect_tbl[CPU_INT_PENDSV]  = (CPU_INT32U  )OS_CPU_PendSVHandler;
  40              		.loc 1 131 0
ARM GAS  C:\Users\jorti\AppData\Local\Temp\ccWGHBdX.s 			page 4


  41 0008 034A     		ldr	r2, .L2+4
  42 000a 9A63     		str	r2, [r3, #56]
 132:BSP/bsp.c     ****     p_vect_tbl[CPU_INT_SYSTICK] = (CPU_INT32U  )OS_CPU_SysTickHandler;
  43              		.loc 1 132 0
  44 000c 034A     		ldr	r2, .L2+8
  45 000e DA63     		str	r2, [r3, #60]
  46 0010 7047     		bx	lr
  47              	.L3:
  48 0012 00BF     		.align	2
  49              	.L2:
  50 0014 08ED00E0 		.word	-536810232
  51 0018 00000000 		.word	OS_CPU_PendSVHandler
  52 001c 00000000 		.word	OS_CPU_SysTickHandler
  53              		.cfi_endproc
  54              	.LFE1:
  55              		.size	BSP_PreInit, .-BSP_PreInit
  56              		.section	.text.BSP_PostInit,"ax",%progbits
  57              		.align	2
  58              		.global	BSP_PostInit
  59              		.thumb
  60              		.thumb_func
  61              		.type	BSP_PostInit, %function
  62              	BSP_PostInit:
  63              	.LFB2:
 133:BSP/bsp.c     **** }
 134:BSP/bsp.c     **** 
 135:BSP/bsp.c     **** 
 136:BSP/bsp.c     **** /*
 137:BSP/bsp.c     **** ***************************************************************************************************
 138:BSP/bsp.c     **** *                                               BSP_PostInit()
 139:BSP/bsp.c     **** *
 140:BSP/bsp.c     **** * Description : Board Support Package Post initialization.
 141:BSP/bsp.c     **** *
 142:BSP/bsp.c     **** * Argument(s) : none.
 143:BSP/bsp.c     **** *
 144:BSP/bsp.c     **** * Return(s)   : none.
 145:BSP/bsp.c     **** *
 146:BSP/bsp.c     **** * Caller(s)   : Application.
 147:BSP/bsp.c     **** *
 148:BSP/bsp.c     **** * Note(s)     : (1) This funtion initilize peripherlas that requires the OS to be initialized.
 149:BSP/bsp.c     **** ***************************************************************************************************
 150:BSP/bsp.c     **** */
 151:BSP/bsp.c     **** 
 152:BSP/bsp.c     **** void  BSP_PostInit (void)
 153:BSP/bsp.c     **** {
  64              		.loc 1 153 0
  65              		.cfi_startproc
  66              		@ args = 0, pretend = 0, frame = 0
  67              		@ frame_needed = 0, uses_anonymous_args = 0
  68 0000 08B5     		push	{r3, lr}
  69              		.cfi_def_cfa_offset 8
  70              		.cfi_offset 3, -8
  71              		.cfi_offset 14, -4
 154:BSP/bsp.c     ****     init_gpio();
  72              		.loc 1 154 0
  73 0002 FFF7FEFF 		bl	init_gpio
  74              	.LVL2:
ARM GAS  C:\Users\jorti\AppData\Local\Temp\ccWGHBdX.s 			page 5


 155:BSP/bsp.c     ****     init_uart();
  75              		.loc 1 155 0
  76 0006 FFF7FEFF 		bl	init_uart
  77              	.LVL3:
 156:BSP/bsp.c     ****     init_spi();
  78              		.loc 1 156 0
  79 000a FFF7FEFF 		bl	init_spi
  80              	.LVL4:
  81 000e 08BD     		pop	{r3, pc}
  82              		.cfi_endproc
  83              	.LFE2:
  84              		.size	BSP_PostInit, .-BSP_PostInit
  85              		.section	.text.BSP_CPU_ClkFreq,"ax",%progbits
  86              		.align	2
  87              		.global	BSP_CPU_ClkFreq
  88              		.thumb
  89              		.thumb_func
  90              		.type	BSP_CPU_ClkFreq, %function
  91              	BSP_CPU_ClkFreq:
  92              	.LFB4:
 157:BSP/bsp.c     **** }
 158:BSP/bsp.c     **** 
 159:BSP/bsp.c     **** 
 160:BSP/bsp.c     **** /*
 161:BSP/bsp.c     **** ***************************************************************************************************
 162:BSP/bsp.c     **** *                                       BSP_CPU_TickInit()
 163:BSP/bsp.c     **** *
 164:BSP/bsp.c     **** * Description : This function reads CPU registers to determine the CPU clock frequency of the chip 
 165:BSP/bsp.c     **** *
 166:BSP/bsp.c     **** * Argument(s) : none.
 167:BSP/bsp.c     **** *
 168:BSP/bsp.c     **** * Return(s)   : none.
 169:BSP/bsp.c     **** *
 170:BSP/bsp.c     **** * Caller(s)   : Application.
 171:BSP/bsp.c     **** *
 172:BSP/bsp.c     **** * Note(s)     : none.
 173:BSP/bsp.c     **** ***************************************************************************************************
 174:BSP/bsp.c     **** */
 175:BSP/bsp.c     **** void  BSP_CPU_TickInit  (void)
 176:BSP/bsp.c     **** {
 177:BSP/bsp.c     ****     CPU_INT32U   cpu_clk_freq;
 178:BSP/bsp.c     ****     CPU_INT32U   cnts;
 179:BSP/bsp.c     ****     
 180:BSP/bsp.c     ****     cpu_clk_freq = BSP_CPU_ClkFreq();                             /* Determine SysTick reference fr
 181:BSP/bsp.c     **** #if (OS_VERSION > 30000u)                                         /* Determine nbr SysTick incremen
 182:BSP/bsp.c     ****     cnts         = (cpu_clk_freq / OSCfg_TickRate_Hz);
 183:BSP/bsp.c     **** #else
 184:BSP/bsp.c     ****     cnts         = (cpu_clk_freq / OS_TICKS_PER_SEC);
 185:BSP/bsp.c     **** #endif
 186:BSP/bsp.c     ****     OS_CPU_SysTickInit(cnts);                                     /* Init uC/OS periodic time src (
 187:BSP/bsp.c     ****     
 188:BSP/bsp.c     **** }
 189:BSP/bsp.c     **** 
 190:BSP/bsp.c     **** /*
 191:BSP/bsp.c     **** ***************************************************************************************************
 192:BSP/bsp.c     **** *                                            BSP_CPU_ClkFreq()
 193:BSP/bsp.c     **** *
ARM GAS  C:\Users\jorti\AppData\Local\Temp\ccWGHBdX.s 			page 6


 194:BSP/bsp.c     **** * Description : Read CPU registers to determine the CPU clock frequency of the chip.
 195:BSP/bsp.c     **** *
 196:BSP/bsp.c     **** * Argument(s) : none.
 197:BSP/bsp.c     **** *
 198:BSP/bsp.c     **** * Return(s)   : The CPU clock frequency, in Hz.
 199:BSP/bsp.c     **** *
 200:BSP/bsp.c     **** * Caller(s)   : Application.
 201:BSP/bsp.c     **** *
 202:BSP/bsp.c     **** * Note(s)     : none.
 203:BSP/bsp.c     **** ***************************************************************************************************
 204:BSP/bsp.c     **** */
 205:BSP/bsp.c     **** 
 206:BSP/bsp.c     **** CPU_INT32U  BSP_CPU_ClkFreq (void)
 207:BSP/bsp.c     **** {
  93              		.loc 1 207 0
  94              		.cfi_startproc
  95              		@ args = 0, pretend = 0, frame = 0
  96              		@ frame_needed = 0, uses_anonymous_args = 0
  97              		@ link register save eliminated.
 208:BSP/bsp.c     ****     return ((CPU_INT32U)BSP_PSOC_CPU_FREQ);
 209:BSP/bsp.c     **** }
  98              		.loc 1 209 0
  99 0000 0048     		ldr	r0, .L7
 100 0002 7047     		bx	lr
 101              	.L8:
 102              		.align	2
 103              	.L7:
 104 0004 00366E01 		.word	24000000
 105              		.cfi_endproc
 106              	.LFE4:
 107              		.size	BSP_CPU_ClkFreq, .-BSP_CPU_ClkFreq
 108              		.section	.text.BSP_CPU_TickInit,"ax",%progbits
 109              		.align	2
 110              		.global	BSP_CPU_TickInit
 111              		.thumb
 112              		.thumb_func
 113              		.type	BSP_CPU_TickInit, %function
 114              	BSP_CPU_TickInit:
 115              	.LFB3:
 176:BSP/bsp.c     ****     CPU_INT32U   cpu_clk_freq;
 116              		.loc 1 176 0
 117              		.cfi_startproc
 118              		@ args = 0, pretend = 0, frame = 0
 119              		@ frame_needed = 0, uses_anonymous_args = 0
 120 0000 08B5     		push	{r3, lr}
 121              		.cfi_def_cfa_offset 8
 122              		.cfi_offset 3, -8
 123              		.cfi_offset 14, -4
 180:BSP/bsp.c     **** #if (OS_VERSION > 30000u)                                         /* Determine nbr SysTick incremen
 124              		.loc 1 180 0
 125 0002 FFF7FEFF 		bl	BSP_CPU_ClkFreq
 126              	.LVL5:
 182:BSP/bsp.c     **** #else
 127              		.loc 1 182 0
 128 0006 034B     		ldr	r3, .L11
 129 0008 1B68     		ldr	r3, [r3]
 130              	.LVL6:
ARM GAS  C:\Users\jorti\AppData\Local\Temp\ccWGHBdX.s 			page 7


 186:BSP/bsp.c     ****     
 131              		.loc 1 186 0
 132 000a B0FBF3F0 		udiv	r0, r0, r3
 133              	.LVL7:
 134 000e FFF7FEFF 		bl	OS_CPU_SysTickInit
 135              	.LVL8:
 136 0012 08BD     		pop	{r3, pc}
 137              	.L12:
 138              		.align	2
 139              	.L11:
 140 0014 00000000 		.word	OSCfg_TickRate_Hz
 141              		.cfi_endproc
 142              	.LFE3:
 143              		.size	BSP_CPU_TickInit, .-BSP_CPU_TickInit
 144              		.section	.text.BSP_LED_On,"ax",%progbits
 145              		.align	2
 146              		.global	BSP_LED_On
 147              		.thumb
 148              		.thumb_func
 149              		.type	BSP_LED_On, %function
 150              	BSP_LED_On:
 151              	.LFB5:
 210:BSP/bsp.c     **** 
 211:BSP/bsp.c     **** 
 212:BSP/bsp.c     **** /*
 213:BSP/bsp.c     **** ***************************************************************************************************
 214:BSP/bsp.c     **** ***************************************************************************************************
 215:BSP/bsp.c     **** *                                              LED FUNCTIONS
 216:BSP/bsp.c     **** ***************************************************************************************************
 217:BSP/bsp.c     **** ***************************************************************************************************
 218:BSP/bsp.c     **** */
 219:BSP/bsp.c     **** 
 220:BSP/bsp.c     **** 
 221:BSP/bsp.c     **** /*
 222:BSP/bsp.c     **** ***************************************************************************************************
 223:BSP/bsp.c     **** *                                             BSP_LED_On()
 224:BSP/bsp.c     **** *
 225:BSP/bsp.c     **** * Description : Turn ON any pin on the board.
 226:BSP/bsp.c     **** *
 227:BSP/bsp.c     **** * Argument(s) : led     The ID of the pin to control:
 228:BSP/bsp.c     **** *
 229:BSP/bsp.c     **** *                       P1_6    turns ON P1_6 on J1 Pin 23 on the board
 230:BSP/bsp.c     **** *                       P2_0    turns ON P2_0 on J1 Pin  1 on the board
 231:BSP/bsp.c     **** *                       P2_1    turns ON P2_1 on J1 Pin  2 on the board (Blue LED)
 232:BSP/bsp.c     **** *
 233:BSP/bsp.c     **** * Return(s)   : none.
 234:BSP/bsp.c     **** *
 235:BSP/bsp.c     **** * Caller(s)   : Application.
 236:BSP/bsp.c     **** *
 237:BSP/bsp.c     **** * Note(s)     : none.
 238:BSP/bsp.c     **** ***************************************************************************************************
 239:BSP/bsp.c     **** */
 240:BSP/bsp.c     **** 
 241:BSP/bsp.c     **** CPU_INT08U  BSP_LED_On (CPU_INT08U led)
 242:BSP/bsp.c     **** {
 152              		.loc 1 242 0
 153              		.cfi_startproc
ARM GAS  C:\Users\jorti\AppData\Local\Temp\ccWGHBdX.s 			page 8


 154              		@ args = 0, pretend = 0, frame = 0
 155              		@ frame_needed = 0, uses_anonymous_args = 0
 156              	.LVL9:
 157 0000 08B5     		push	{r3, lr}
 158              		.cfi_def_cfa_offset 8
 159              		.cfi_offset 3, -8
 160              		.cfi_offset 14, -4
 161              	.LVL10:
 243:BSP/bsp.c     ****   CPU_INT08U err = 0;
 244:BSP/bsp.c     ****   
 245:BSP/bsp.c     ****   if(led == P1_6){
 162              		.loc 1 245 0
 163 0002 4028     		cmp	r0, #64
 164 0004 04D1     		bne	.L14
 246:BSP/bsp.c     ****     err = gpio_high(PORT1,P1_6);
 165              		.loc 1 246 0
 166 0006 4021     		movs	r1, #64
 167 0008 0120     		movs	r0, #1
 168              	.LVL11:
 169 000a FFF7FEFF 		bl	gpio_high
 170              	.LVL12:
 171 000e 08BD     		pop	{r3, pc}
 172              	.LVL13:
 173              	.L14:
 247:BSP/bsp.c     ****   }
 248:BSP/bsp.c     ****   else if(led == P2_0){
 174              		.loc 1 248 0
 175 0010 0128     		cmp	r0, #1
 176 0012 04D1     		bne	.L16
 249:BSP/bsp.c     ****     err = gpio_high(PORT2,P2_0);
 177              		.loc 1 249 0
 178 0014 0121     		movs	r1, #1
 179 0016 0220     		movs	r0, #2
 180              	.LVL14:
 181 0018 FFF7FEFF 		bl	gpio_high
 182              	.LVL15:
 183 001c 08BD     		pop	{r3, pc}
 184              	.LVL16:
 185              	.L16:
 250:BSP/bsp.c     ****   }
 251:BSP/bsp.c     ****   else if(led == P2_1){
 186              		.loc 1 251 0
 187 001e 0228     		cmp	r0, #2
 188 0020 04D1     		bne	.L17
 252:BSP/bsp.c     ****     err = gpio_high(PORT2,P2_1);
 189              		.loc 1 252 0
 190 0022 0221     		movs	r1, #2
 191 0024 0846     		mov	r0, r1
 192              	.LVL17:
 193 0026 FFF7FEFF 		bl	gpio_high
 194              	.LVL18:
 195 002a 08BD     		pop	{r3, pc}
 196              	.LVL19:
 197              	.L17:
 253:BSP/bsp.c     ****   }
 254:BSP/bsp.c     ****   else{
 255:BSP/bsp.c     ****     err++;
ARM GAS  C:\Users\jorti\AppData\Local\Temp\ccWGHBdX.s 			page 9


 198              		.loc 1 255 0
 199 002c 0120     		movs	r0, #1
 200              	.LVL20:
 256:BSP/bsp.c     ****   }
 257:BSP/bsp.c     ****   return err;
 258:BSP/bsp.c     **** }
 201              		.loc 1 258 0
 202 002e 08BD     		pop	{r3, pc}
 203              		.cfi_endproc
 204              	.LFE5:
 205              		.size	BSP_LED_On, .-BSP_LED_On
 206              		.section	.text.BSP_LED_Off,"ax",%progbits
 207              		.align	2
 208              		.global	BSP_LED_Off
 209              		.thumb
 210              		.thumb_func
 211              		.type	BSP_LED_Off, %function
 212              	BSP_LED_Off:
 213              	.LFB6:
 259:BSP/bsp.c     **** 
 260:BSP/bsp.c     **** 
 261:BSP/bsp.c     **** /*
 262:BSP/bsp.c     **** ***************************************************************************************************
 263:BSP/bsp.c     **** *                                              BSP_LED_Off()
 264:BSP/bsp.c     **** *
 265:BSP/bsp.c     **** * Description : Turn OFF any pin on the board.
 266:BSP/bsp.c     **** *
 267:BSP/bsp.c     **** * Argument(s) : led     The ID of the pin to control:
 268:BSP/bsp.c     **** *
 269:BSP/bsp.c     **** *                       P1_6    turns OFF P1_6 on J1 Pin 23 on the board
 270:BSP/bsp.c     **** *                       P2_0    turns OFF P2_0 on J1 Pin  1 on the board
 271:BSP/bsp.c     **** *                       P2_1    turns OFF P2_1 on J1 Pin  2 on the board (Blue LED)
 272:BSP/bsp.c     **** *
 273:BSP/bsp.c     **** * Return(s)   : none.
 274:BSP/bsp.c     **** *
 275:BSP/bsp.c     **** * Caller(s)   : Application.
 276:BSP/bsp.c     **** *
 277:BSP/bsp.c     **** * Note(s)     : none.
 278:BSP/bsp.c     **** ***************************************************************************************************
 279:BSP/bsp.c     **** */
 280:BSP/bsp.c     **** 
 281:BSP/bsp.c     **** CPU_INT08U  BSP_LED_Off (CPU_INT08U led)
 282:BSP/bsp.c     **** {
 214              		.loc 1 282 0
 215              		.cfi_startproc
 216              		@ args = 0, pretend = 0, frame = 0
 217              		@ frame_needed = 0, uses_anonymous_args = 0
 218              	.LVL21:
 219 0000 08B5     		push	{r3, lr}
 220              		.cfi_def_cfa_offset 8
 221              		.cfi_offset 3, -8
 222              		.cfi_offset 14, -4
 223              	.LVL22:
 283:BSP/bsp.c     ****   CPU_INT08U err = 0;
 284:BSP/bsp.c     ****   
 285:BSP/bsp.c     ****   if(led == P1_6){
 224              		.loc 1 285 0
ARM GAS  C:\Users\jorti\AppData\Local\Temp\ccWGHBdX.s 			page 10


 225 0002 4028     		cmp	r0, #64
 226 0004 04D1     		bne	.L20
 286:BSP/bsp.c     ****     err = gpio_low(PORT1,P1_6);
 227              		.loc 1 286 0
 228 0006 4021     		movs	r1, #64
 229 0008 0120     		movs	r0, #1
 230              	.LVL23:
 231 000a FFF7FEFF 		bl	gpio_low
 232              	.LVL24:
 233 000e 08BD     		pop	{r3, pc}
 234              	.LVL25:
 235              	.L20:
 287:BSP/bsp.c     ****   }
 288:BSP/bsp.c     ****   else if(led == P2_0){
 236              		.loc 1 288 0
 237 0010 0128     		cmp	r0, #1
 238 0012 04D1     		bne	.L22
 289:BSP/bsp.c     ****     err = gpio_low(PORT2,P2_0);
 239              		.loc 1 289 0
 240 0014 0121     		movs	r1, #1
 241 0016 0220     		movs	r0, #2
 242              	.LVL26:
 243 0018 FFF7FEFF 		bl	gpio_low
 244              	.LVL27:
 245 001c 08BD     		pop	{r3, pc}
 246              	.LVL28:
 247              	.L22:
 290:BSP/bsp.c     ****   }
 291:BSP/bsp.c     ****   else if(led == P2_1){
 248              		.loc 1 291 0
 249 001e 0228     		cmp	r0, #2
 250 0020 04D1     		bne	.L23
 292:BSP/bsp.c     ****     err = gpio_low(PORT2,P2_1);
 251              		.loc 1 292 0
 252 0022 0221     		movs	r1, #2
 253 0024 0846     		mov	r0, r1
 254              	.LVL29:
 255 0026 FFF7FEFF 		bl	gpio_low
 256              	.LVL30:
 257 002a 08BD     		pop	{r3, pc}
 258              	.LVL31:
 259              	.L23:
 293:BSP/bsp.c     ****   }
 294:BSP/bsp.c     ****   else{
 295:BSP/bsp.c     ****     err++;
 260              		.loc 1 295 0
 261 002c 0120     		movs	r0, #1
 262              	.LVL32:
 296:BSP/bsp.c     ****   }
 297:BSP/bsp.c     ****   return err;
 298:BSP/bsp.c     **** }
 263              		.loc 1 298 0
 264 002e 08BD     		pop	{r3, pc}
 265              		.cfi_endproc
 266              	.LFE6:
 267              		.size	BSP_LED_Off, .-BSP_LED_Off
 268              		.section	.text.BSP_LED_Toggle,"ax",%progbits
ARM GAS  C:\Users\jorti\AppData\Local\Temp\ccWGHBdX.s 			page 11


 269              		.align	2
 270              		.global	BSP_LED_Toggle
 271              		.thumb
 272              		.thumb_func
 273              		.type	BSP_LED_Toggle, %function
 274              	BSP_LED_Toggle:
 275              	.LFB7:
 299:BSP/bsp.c     **** 
 300:BSP/bsp.c     **** 
 301:BSP/bsp.c     **** /*
 302:BSP/bsp.c     **** ***************************************************************************************************
 303:BSP/bsp.c     **** *                                            BSP_LED_Toggle()
 304:BSP/bsp.c     **** *
 305:BSP/bsp.c     **** * Description : Turn TOGGLE any pin on the board.
 306:BSP/bsp.c     **** *
 307:BSP/bsp.c     **** * Argument(s) : led     The ID of the pin to control:
 308:BSP/bsp.c     **** *
 309:BSP/bsp.c     **** *                       P1_6    turns TOGGLE P1_6 on J1 Pin 23 on the board
 310:BSP/bsp.c     **** *                       P2_0    turns TOGGLE P2_0 on J1 Pin  1 on the board
 311:BSP/bsp.c     **** *                       P2_1    turns TOGGLE P2_1 on J1 Pin  2 on the board (Blue LED)
 312:BSP/bsp.c     **** *
 313:BSP/bsp.c     **** * Return(s)   : none.
 314:BSP/bsp.c     **** *
 315:BSP/bsp.c     **** * Caller(s)   : Application.
 316:BSP/bsp.c     **** *
 317:BSP/bsp.c     **** * Note(s)     : Not re-entrant.
 318:BSP/bsp.c     **** ***************************************************************************************************
 319:BSP/bsp.c     **** */
 320:BSP/bsp.c     **** 
 321:BSP/bsp.c     **** CPU_INT08U  BSP_LED_Toggle (CPU_INT08U led)
 322:BSP/bsp.c     **** {
 276              		.loc 1 322 0
 277              		.cfi_startproc
 278              		@ args = 0, pretend = 0, frame = 0
 279              		@ frame_needed = 0, uses_anonymous_args = 0
 280              	.LVL33:
 281 0000 08B5     		push	{r3, lr}
 282              		.cfi_def_cfa_offset 8
 283              		.cfi_offset 3, -8
 284              		.cfi_offset 14, -4
 285              	.LVL34:
 323:BSP/bsp.c     ****   CPU_INT08U err = 0;
 324:BSP/bsp.c     ****   static CPU_BOOLEAN toggle_status = 0;
 325:BSP/bsp.c     ****   
 326:BSP/bsp.c     ****   if(!toggle_status){
 286              		.loc 1 326 0
 287 0002 094B     		ldr	r3, .L30
 288 0004 1B78     		ldrb	r3, [r3]	@ zero_extendqisi2
 289 0006 2BB9     		cbnz	r3, .L26
 327:BSP/bsp.c     ****     err = BSP_LED_On(led);
 290              		.loc 1 327 0
 291 0008 FFF7FEFF 		bl	BSP_LED_On
 292              	.LVL35:
 328:BSP/bsp.c     ****     toggle_status = 1;
 293              		.loc 1 328 0
 294 000c 0122     		movs	r2, #1
 295 000e 064B     		ldr	r3, .L30
ARM GAS  C:\Users\jorti\AppData\Local\Temp\ccWGHBdX.s 			page 12


 296 0010 1A70     		strb	r2, [r3]
 297 0012 08BD     		pop	{r3, pc}
 298              	.LVL36:
 299              	.L26:
 329:BSP/bsp.c     ****   }
 330:BSP/bsp.c     ****   else if(toggle_status){
 300              		.loc 1 330 0
 301 0014 2BB1     		cbz	r3, .L28
 331:BSP/bsp.c     ****     err = BSP_LED_Off(led);
 302              		.loc 1 331 0
 303 0016 FFF7FEFF 		bl	BSP_LED_Off
 304              	.LVL37:
 332:BSP/bsp.c     ****     toggle_status = 0;
 305              		.loc 1 332 0
 306 001a 0022     		movs	r2, #0
 307 001c 024B     		ldr	r3, .L30
 308 001e 1A70     		strb	r2, [r3]
 309 0020 08BD     		pop	{r3, pc}
 310              	.LVL38:
 311              	.L28:
 323:BSP/bsp.c     ****   static CPU_BOOLEAN toggle_status = 0;
 312              		.loc 1 323 0
 313 0022 0020     		movs	r0, #0
 314              	.LVL39:
 333:BSP/bsp.c     ****   }
 334:BSP/bsp.c     ****   return err;
 335:BSP/bsp.c     **** }
 315              		.loc 1 335 0
 316 0024 08BD     		pop	{r3, pc}
 317              	.L31:
 318 0026 00BF     		.align	2
 319              	.L30:
 320 0028 00000000 		.word	.LANCHOR0
 321              		.cfi_endproc
 322              	.LFE7:
 323              		.size	BSP_LED_Toggle, .-BSP_LED_Toggle
 324              		.section	.text.BSP_PB_StatusGet,"ax",%progbits
 325              		.align	2
 326              		.global	BSP_PB_StatusGet
 327              		.thumb
 328              		.thumb_func
 329              		.type	BSP_PB_StatusGet, %function
 330              	BSP_PB_StatusGet:
 331              	.LFB8:
 336:BSP/bsp.c     **** 
 337:BSP/bsp.c     **** 
 338:BSP/bsp.c     **** /*
 339:BSP/bsp.c     **** ***************************************************************************************************
 340:BSP/bsp.c     **** *                                            BSP_PB_StatusGet()
 341:BSP/bsp.c     **** *
 342:BSP/bsp.c     **** * Description : Get the current status of the push button.
 343:BSP/bsp.c     **** *
 344:BSP/bsp.c     **** * Argument(s) : pb    Push button identifier.
 345:BSP/bsp.c     **** *
 346:BSP/bsp.c     **** *                           P2_2 Board SW1 (on J1 Pin 3)
 347:BSP/bsp.c     **** *
 348:BSP/bsp.c     **** * Return(s)   : DEF_ON    If the push button is pressed.
ARM GAS  C:\Users\jorti\AppData\Local\Temp\ccWGHBdX.s 			page 13


 349:BSP/bsp.c     **** *               DEF_OFF   If the push button is not pressed
 350:BSP/bsp.c     **** *               -1        If error occured
 351:BSP/bsp.c     **** *
 352:BSP/bsp.c     **** * Caller(s)   : application
 353:BSP/bsp.c     **** *
 354:BSP/bsp.c     **** * Note(s)     : none.
 355:BSP/bsp.c     **** ***************************************************************************************************
 356:BSP/bsp.c     **** */
 357:BSP/bsp.c     **** 
 358:BSP/bsp.c     **** CPU_INT08S  BSP_PB_StatusGet (CPU_INT08U  pb)
 359:BSP/bsp.c     **** {
 332              		.loc 1 359 0
 333              		.cfi_startproc
 334              		@ args = 0, pretend = 0, frame = 0
 335              		@ frame_needed = 0, uses_anonymous_args = 0
 336              	.LVL40:
 360:BSP/bsp.c     ****   if(pb == P2_2){
 337              		.loc 1 360 0
 338 0000 0428     		cmp	r0, #4
 339 0002 05D1     		bne	.L34
 359:BSP/bsp.c     ****   if(pb == P2_2){
 340              		.loc 1 359 0
 341 0004 08B5     		push	{r3, lr}
 342              		.cfi_def_cfa_offset 8
 343              		.cfi_offset 3, -8
 344              		.cfi_offset 14, -4
 361:BSP/bsp.c     ****     return gpio_read(PORT2, P2_2);    
 345              		.loc 1 361 0
 346 0006 0421     		movs	r1, #4
 347 0008 0220     		movs	r0, #2
 348              	.LVL41:
 349 000a FFF7FEFF 		bl	gpio_read
 350              	.LVL42:
 351 000e 08BD     		pop	{r3, pc}
 352              	.LVL43:
 353              	.L34:
 354              		.cfi_def_cfa_offset 0
 355              		.cfi_restore 3
 356              		.cfi_restore 14
 362:BSP/bsp.c     ****   }
 363:BSP/bsp.c     ****   else{
 364:BSP/bsp.c     ****     return -1;
 357              		.loc 1 364 0
 358 0010 4FF0FF30 		mov	r0, #-1
 359              	.LVL44:
 360 0014 7047     		bx	lr
 361              		.cfi_endproc
 362              	.LFE8:
 363              		.size	BSP_PB_StatusGet, .-BSP_PB_StatusGet
 364 0016 00BF     		.bss
 365              		.set	.LANCHOR0,. + 0
 366              		.type	toggle_status.7479, %object
 367              		.size	toggle_status.7479, 1
 368              	toggle_status.7479:
 369 0000 00       		.space	1
 370              		.text
 371              	.Letext0:
ARM GAS  C:\Users\jorti\AppData\Local\Temp\ccWGHBdX.s 			page 14


 372              		.file 2 ".\\uC-CPU\\ARM-Cortex-M3\\GNU/cpu.h"
 373              		.file 3 ".\\uCOS-III\\Source/os_type.h"
 374              		.file 4 "./bsp_uart.h"
 375              		.file 5 "./bsp_gpio.h"
 376              		.file 6 "./bsp_spi.h"
 377              		.file 7 ".\\uCOS-III\\Ports\\ARM-Cortex-M3\\Generic\\GNU/os_cpu.h"
 378              		.file 8 ".\\uCOS-III\\Source/os.h"