ARM GAS  C:\Users\jorti\AppData\Local\Temp\ccVW8vUb.s 			page 1


   1              		.syntax unified
   2              		.cpu cortex-m3
   3              		.fpu softvfp
   4              		.eabi_attribute 20, 1
   5              		.eabi_attribute 21, 1
   6              		.eabi_attribute 23, 3
   7              		.eabi_attribute 24, 1
   8              		.eabi_attribute 25, 1
   9              		.eabi_attribute 26, 1
  10              		.eabi_attribute 30, 1
  11              		.eabi_attribute 34, 1
  12              		.eabi_attribute 18, 4
  13              		.thumb
  14              		.syntax unified
  15              		.file	"bsp_os.c"
  16              		.text
  17              	.Ltext0:
  18              		.cfi_sections	.debug_frame
  19              		.section	.text.BSP_OS_SemCreate,"ax",%progbits
  20              		.align	2
  21              		.global	BSP_OS_SemCreate
  22              		.thumb
  23              		.thumb_func
  24              		.type	BSP_OS_SemCreate, %function
  25              	BSP_OS_SemCreate:
  26              	.LFB1:
  27              		.file 1 "BSP\\OS\\uCOS-III\\bsp_os.c"
   1:BSP\OS\uCOS-III/bsp_os.c **** /*
   2:BSP\OS\uCOS-III/bsp_os.c **** ***************************************************************************************************
   3:BSP\OS\uCOS-III/bsp_os.c **** *                                     MICRIUM BOARD SUPPORT SUPPORT
   4:BSP\OS\uCOS-III/bsp_os.c **** *
   5:BSP\OS\uCOS-III/bsp_os.c **** *                          (c) Copyright 2003-2012; Micrium, Inc.; Weston, FL
   6:BSP\OS\uCOS-III/bsp_os.c **** *
   7:BSP\OS\uCOS-III/bsp_os.c **** *               All rights reserved.  Protected by international copyright laws.
   8:BSP\OS\uCOS-III/bsp_os.c **** *               Knowledge of the source code may NOT be used to develop a similar product.
   9:BSP\OS\uCOS-III/bsp_os.c **** *               Please help us continue to provide the Embedded community with the finest
  10:BSP\OS\uCOS-III/bsp_os.c **** *               software available.  Your honesty is greatly appreciated.
  11:BSP\OS\uCOS-III/bsp_os.c **** ***************************************************************************************************
  12:BSP\OS\uCOS-III/bsp_os.c **** */
  13:BSP\OS\uCOS-III/bsp_os.c **** 
  14:BSP\OS\uCOS-III/bsp_os.c **** /*
  15:BSP\OS\uCOS-III/bsp_os.c **** ***************************************************************************************************
  16:BSP\OS\uCOS-III/bsp_os.c **** *
  17:BSP\OS\uCOS-III/bsp_os.c **** *                                       BOARD SUPPORT PACKAGE
  18:BSP\OS\uCOS-III/bsp_os.c **** *                                          uCOS-III LAYER
  19:BSP\OS\uCOS-III/bsp_os.c **** *
  20:BSP\OS\uCOS-III/bsp_os.c **** * Filename      : bsp_os.c
  21:BSP\OS\uCOS-III/bsp_os.c **** * Version       : V1.00
  22:BSP\OS\uCOS-III/bsp_os.c **** * Programmer(s) : DC
  23:BSP\OS\uCOS-III/bsp_os.c **** *
  24:BSP\OS\uCOS-III/bsp_os.c **** ***************************************************************************************************
  25:BSP\OS\uCOS-III/bsp_os.c **** */
  26:BSP\OS\uCOS-III/bsp_os.c **** 
  27:BSP\OS\uCOS-III/bsp_os.c **** 
  28:BSP\OS\uCOS-III/bsp_os.c **** /*
  29:BSP\OS\uCOS-III/bsp_os.c **** ***************************************************************************************************
  30:BSP\OS\uCOS-III/bsp_os.c **** *                                             INCLUDE FILES
ARM GAS  C:\Users\jorti\AppData\Local\Temp\ccVW8vUb.s 			page 2


  31:BSP\OS\uCOS-III/bsp_os.c **** ***************************************************************************************************
  32:BSP\OS\uCOS-III/bsp_os.c **** */
  33:BSP\OS\uCOS-III/bsp_os.c **** 
  34:BSP\OS\uCOS-III/bsp_os.c **** #define  BSP_OS_MODULE
  35:BSP\OS\uCOS-III/bsp_os.c **** #include <bsp.h>
  36:BSP\OS\uCOS-III/bsp_os.c **** #include <bsp_os.h>
  37:BSP\OS\uCOS-III/bsp_os.c **** 
  38:BSP\OS\uCOS-III/bsp_os.c **** 
  39:BSP\OS\uCOS-III/bsp_os.c **** /*
  40:BSP\OS\uCOS-III/bsp_os.c **** ***************************************************************************************************
  41:BSP\OS\uCOS-III/bsp_os.c **** *                                            LOCAL DEFINES
  42:BSP\OS\uCOS-III/bsp_os.c **** ***************************************************************************************************
  43:BSP\OS\uCOS-III/bsp_os.c **** */
  44:BSP\OS\uCOS-III/bsp_os.c **** 
  45:BSP\OS\uCOS-III/bsp_os.c **** 
  46:BSP\OS\uCOS-III/bsp_os.c **** /*
  47:BSP\OS\uCOS-III/bsp_os.c **** ***************************************************************************************************
  48:BSP\OS\uCOS-III/bsp_os.c **** *                                           LOCAL CONSTANTS
  49:BSP\OS\uCOS-III/bsp_os.c **** ***************************************************************************************************
  50:BSP\OS\uCOS-III/bsp_os.c **** */
  51:BSP\OS\uCOS-III/bsp_os.c **** 
  52:BSP\OS\uCOS-III/bsp_os.c **** 
  53:BSP\OS\uCOS-III/bsp_os.c **** /*
  54:BSP\OS\uCOS-III/bsp_os.c **** ***************************************************************************************************
  55:BSP\OS\uCOS-III/bsp_os.c **** *                                          LOCAL DATA TYPES
  56:BSP\OS\uCOS-III/bsp_os.c **** ***************************************************************************************************
  57:BSP\OS\uCOS-III/bsp_os.c **** */
  58:BSP\OS\uCOS-III/bsp_os.c **** 
  59:BSP\OS\uCOS-III/bsp_os.c **** 
  60:BSP\OS\uCOS-III/bsp_os.c **** /*
  61:BSP\OS\uCOS-III/bsp_os.c **** ***************************************************************************************************
  62:BSP\OS\uCOS-III/bsp_os.c **** *                                            LOCAL TABLES
  63:BSP\OS\uCOS-III/bsp_os.c **** ***************************************************************************************************
  64:BSP\OS\uCOS-III/bsp_os.c **** */
  65:BSP\OS\uCOS-III/bsp_os.c **** 
  66:BSP\OS\uCOS-III/bsp_os.c **** 
  67:BSP\OS\uCOS-III/bsp_os.c **** /*
  68:BSP\OS\uCOS-III/bsp_os.c **** ***************************************************************************************************
  69:BSP\OS\uCOS-III/bsp_os.c **** *                                       LOCAL GLOBAL VARIABLES
  70:BSP\OS\uCOS-III/bsp_os.c **** ***************************************************************************************************
  71:BSP\OS\uCOS-III/bsp_os.c **** */
  72:BSP\OS\uCOS-III/bsp_os.c **** 
  73:BSP\OS\uCOS-III/bsp_os.c **** 
  74:BSP\OS\uCOS-III/bsp_os.c **** /*
  75:BSP\OS\uCOS-III/bsp_os.c **** ***************************************************************************************************
  76:BSP\OS\uCOS-III/bsp_os.c **** *                                      LOCAL FUNCTION PROTOTYPES
  77:BSP\OS\uCOS-III/bsp_os.c **** ***************************************************************************************************
  78:BSP\OS\uCOS-III/bsp_os.c **** */
  79:BSP\OS\uCOS-III/bsp_os.c **** 
  80:BSP\OS\uCOS-III/bsp_os.c **** 
  81:BSP\OS\uCOS-III/bsp_os.c **** /*
  82:BSP\OS\uCOS-III/bsp_os.c **** ***************************************************************************************************
  83:BSP\OS\uCOS-III/bsp_os.c **** *                                     LOCAL CONFIGURATION ERRORS
  84:BSP\OS\uCOS-III/bsp_os.c **** ***************************************************************************************************
  85:BSP\OS\uCOS-III/bsp_os.c **** */
  86:BSP\OS\uCOS-III/bsp_os.c **** 
  87:BSP\OS\uCOS-III/bsp_os.c **** /*
ARM GAS  C:\Users\jorti\AppData\Local\Temp\ccVW8vUb.s 			page 3


  88:BSP\OS\uCOS-III/bsp_os.c **** ***************************************************************************************************
  89:BSP\OS\uCOS-III/bsp_os.c **** ***************************************************************************************************
  90:BSP\OS\uCOS-III/bsp_os.c **** **                                         GLOBAL FUNCTIONS
  91:BSP\OS\uCOS-III/bsp_os.c **** ***************************************************************************************************
  92:BSP\OS\uCOS-III/bsp_os.c **** ***************************************************************************************************
  93:BSP\OS\uCOS-III/bsp_os.c **** */
  94:BSP\OS\uCOS-III/bsp_os.c **** 
  95:BSP\OS\uCOS-III/bsp_os.c **** 
  96:BSP\OS\uCOS-III/bsp_os.c **** /*
  97:BSP\OS\uCOS-III/bsp_os.c **** ***************************************************************************************************
  98:BSP\OS\uCOS-III/bsp_os.c **** ***************************************************************************************************
  99:BSP\OS\uCOS-III/bsp_os.c **** **                                     BSP OS LOCKS FUNCTIONS
 100:BSP\OS\uCOS-III/bsp_os.c **** ***************************************************************************************************
 101:BSP\OS\uCOS-III/bsp_os.c **** ***************************************************************************************************
 102:BSP\OS\uCOS-III/bsp_os.c **** */
 103:BSP\OS\uCOS-III/bsp_os.c **** 
 104:BSP\OS\uCOS-III/bsp_os.c **** /*
 105:BSP\OS\uCOS-III/bsp_os.c **** ***************************************************************************************************
 106:BSP\OS\uCOS-III/bsp_os.c **** ***************************************************************************************************
 107:BSP\OS\uCOS-III/bsp_os.c **** **                                     BSP OS LOCKS FUNCTIONS
 108:BSP\OS\uCOS-III/bsp_os.c **** ***************************************************************************************************
 109:BSP\OS\uCOS-III/bsp_os.c **** ***************************************************************************************************
 110:BSP\OS\uCOS-III/bsp_os.c **** */
 111:BSP\OS\uCOS-III/bsp_os.c **** 
 112:BSP\OS\uCOS-III/bsp_os.c **** /*
 113:BSP\OS\uCOS-III/bsp_os.c **** ***************************************************************************************************
 114:BSP\OS\uCOS-III/bsp_os.c **** *                                      BSP_OS_SemCreate()
 115:BSP\OS\uCOS-III/bsp_os.c **** *
 116:BSP\OS\uCOS-III/bsp_os.c **** * Description : Creates a sempahore to lock/unlock
 117:BSP\OS\uCOS-III/bsp_os.c **** *
 118:BSP\OS\uCOS-III/bsp_os.c **** * Argument(s) : p_sem        Pointer to a BSP_OS_SEM structure
 119:BSP\OS\uCOS-III/bsp_os.c **** *
 120:BSP\OS\uCOS-III/bsp_os.c **** *               sem_val      Initial value of the semaphore.
 121:BSP\OS\uCOS-III/bsp_os.c **** *
 122:BSP\OS\uCOS-III/bsp_os.c **** *               p_sem_name   Pointer to the semaphore name.
 123:BSP\OS\uCOS-III/bsp_os.c **** *
 124:BSP\OS\uCOS-III/bsp_os.c **** * Return(s)   : DEF_OK       if the semaphore was created.
 125:BSP\OS\uCOS-III/bsp_os.c **** *               DEF_FAIL     if the sempahore could not be created.
 126:BSP\OS\uCOS-III/bsp_os.c **** *
 127:BSP\OS\uCOS-III/bsp_os.c **** * Caller(s)   : Application.
 128:BSP\OS\uCOS-III/bsp_os.c **** *
 129:BSP\OS\uCOS-III/bsp_os.c **** * Note(s)     : none.
 130:BSP\OS\uCOS-III/bsp_os.c **** *
 131:BSP\OS\uCOS-III/bsp_os.c **** ***************************************************************************************************
 132:BSP\OS\uCOS-III/bsp_os.c **** */
 133:BSP\OS\uCOS-III/bsp_os.c **** 
 134:BSP\OS\uCOS-III/bsp_os.c **** CPU_BOOLEAN  BSP_OS_SemCreate (BSP_OS_SEM       *p_sem,
 135:BSP\OS\uCOS-III/bsp_os.c ****                                BSP_OS_SEM_VAL    sem_val,
 136:BSP\OS\uCOS-III/bsp_os.c ****                                CPU_CHAR         *p_sem_name)
 137:BSP\OS\uCOS-III/bsp_os.c **** {
  28              		.loc 1 137 0
  29              		.cfi_startproc
  30              		@ args = 0, pretend = 0, frame = 8
  31              		@ frame_needed = 0, uses_anonymous_args = 0
  32              	.LVL0:
  33 0000 10B5     		push	{r4, lr}
  34              		.cfi_def_cfa_offset 8
ARM GAS  C:\Users\jorti\AppData\Local\Temp\ccVW8vUb.s 			page 4


  35              		.cfi_offset 4, -8
  36              		.cfi_offset 14, -4
  37 0002 82B0     		sub	sp, sp, #8
  38              		.cfi_def_cfa_offset 16
  39 0004 1446     		mov	r4, r2
 138:BSP\OS\uCOS-III/bsp_os.c ****     OS_ERR     err;
 139:BSP\OS\uCOS-III/bsp_os.c **** 
 140:BSP\OS\uCOS-III/bsp_os.c **** 
 141:BSP\OS\uCOS-III/bsp_os.c ****     OSSemCreate((OS_SEM    *)p_sem,
  40              		.loc 1 141 0
  41 0006 0DF10603 		add	r3, sp, #6
  42 000a 0A46     		mov	r2, r1
  43              	.LVL1:
  44 000c 2146     		mov	r1, r4
  45              	.LVL2:
  46 000e FFF7FEFF 		bl	OSSemCreate
  47              	.LVL3:
 142:BSP\OS\uCOS-III/bsp_os.c ****                 (CPU_CHAR  *)p_sem_name,
 143:BSP\OS\uCOS-III/bsp_os.c ****                 (OS_SEM_CTR )sem_val,
 144:BSP\OS\uCOS-III/bsp_os.c ****                 (OS_ERR    *)&err);
 145:BSP\OS\uCOS-III/bsp_os.c **** 
 146:BSP\OS\uCOS-III/bsp_os.c ****     if (err != OS_ERR_NONE) {
  48              		.loc 1 146 0
  49 0012 BDF80630 		ldrh	r3, [sp, #6]
  50 0016 0BB1     		cbz	r3, .L3
 147:BSP\OS\uCOS-III/bsp_os.c ****         return (DEF_FAIL);
  51              		.loc 1 147 0
  52 0018 0020     		movs	r0, #0
  53 001a 00E0     		b	.L2
  54              	.L3:
 148:BSP\OS\uCOS-III/bsp_os.c ****     }
 149:BSP\OS\uCOS-III/bsp_os.c **** 
 150:BSP\OS\uCOS-III/bsp_os.c ****     return (DEF_OK);
  55              		.loc 1 150 0
  56 001c 0120     		movs	r0, #1
  57              	.L2:
 151:BSP\OS\uCOS-III/bsp_os.c **** }
  58              		.loc 1 151 0
  59 001e 02B0     		add	sp, sp, #8
  60              		.cfi_def_cfa_offset 8
  61              		@ sp needed
  62 0020 10BD     		pop	{r4, pc}
  63              		.cfi_endproc
  64              	.LFE1:
  65              		.size	BSP_OS_SemCreate, .-BSP_OS_SemCreate
  66 0022 00BF     		.section	.text.BSP_OS_SemWait,"ax",%progbits
  67              		.align	2
  68              		.global	BSP_OS_SemWait
  69              		.thumb
  70              		.thumb_func
  71              		.type	BSP_OS_SemWait, %function
  72              	BSP_OS_SemWait:
  73              	.LFB2:
 152:BSP\OS\uCOS-III/bsp_os.c **** 
 153:BSP\OS\uCOS-III/bsp_os.c **** 
 154:BSP\OS\uCOS-III/bsp_os.c **** /*
 155:BSP\OS\uCOS-III/bsp_os.c **** ***************************************************************************************************
ARM GAS  C:\Users\jorti\AppData\Local\Temp\ccVW8vUb.s 			page 5


 156:BSP\OS\uCOS-III/bsp_os.c **** *                                     BSP_OS_SemWait()
 157:BSP\OS\uCOS-III/bsp_os.c **** *
 158:BSP\OS\uCOS-III/bsp_os.c **** * Description : Wait on a semaphore to become available
 159:BSP\OS\uCOS-III/bsp_os.c **** *
 160:BSP\OS\uCOS-III/bsp_os.c **** * Argument(s) : sem          sempahore handler
 161:BSP\OS\uCOS-III/bsp_os.c **** *
 162:BSP\OS\uCOS-III/bsp_os.c **** *               dly_ms       delay in miliseconds to wait on the semaphore
 163:BSP\OS\uCOS-III/bsp_os.c **** *
 164:BSP\OS\uCOS-III/bsp_os.c **** * Return(s)   : DEF_OK       if the semaphore was acquire
 165:BSP\OS\uCOS-III/bsp_os.c **** *               DEF_FAIL     if the sempahore could not be acquire
 166:BSP\OS\uCOS-III/bsp_os.c **** *
 167:BSP\OS\uCOS-III/bsp_os.c **** * Caller(s)   : Application.
 168:BSP\OS\uCOS-III/bsp_os.c **** *
 169:BSP\OS\uCOS-III/bsp_os.c **** * Note(s)     : none.
 170:BSP\OS\uCOS-III/bsp_os.c **** ***************************************************************************************************
 171:BSP\OS\uCOS-III/bsp_os.c **** */
 172:BSP\OS\uCOS-III/bsp_os.c **** 
 173:BSP\OS\uCOS-III/bsp_os.c **** CPU_BOOLEAN  BSP_OS_SemWait (BSP_OS_SEM  *p_sem,
 174:BSP\OS\uCOS-III/bsp_os.c ****                              CPU_INT32U   dly_ms)
 175:BSP\OS\uCOS-III/bsp_os.c **** {
  74              		.loc 1 175 0
  75              		.cfi_startproc
  76              		@ args = 0, pretend = 0, frame = 8
  77              		@ frame_needed = 0, uses_anonymous_args = 0
  78              	.LVL4:
  79 0000 10B5     		push	{r4, lr}
  80              		.cfi_def_cfa_offset 8
  81              		.cfi_offset 4, -8
  82              		.cfi_offset 14, -4
  83 0002 84B0     		sub	sp, sp, #16
  84              		.cfi_def_cfa_offset 24
 176:BSP\OS\uCOS-III/bsp_os.c ****     OS_ERR      err;
 177:BSP\OS\uCOS-III/bsp_os.c ****     CPU_INT32U  dly_ticks;
 178:BSP\OS\uCOS-III/bsp_os.c **** 
 179:BSP\OS\uCOS-III/bsp_os.c **** 
 180:BSP\OS\uCOS-III/bsp_os.c ****     dly_ticks  = ((dly_ms * DEF_TIME_NBR_mS_PER_SEC) / OSCfg_TickRate_Hz);
  85              		.loc 1 180 0
  86 0004 4FF47A73 		mov	r3, #1000
  87 0008 03FB01F1 		mul	r1, r3, r1
  88              	.LVL5:
  89 000c 094B     		ldr	r3, .L9
  90 000e 1C68     		ldr	r4, [r3]
  91              	.LVL6:
 181:BSP\OS\uCOS-III/bsp_os.c **** 
 182:BSP\OS\uCOS-III/bsp_os.c ****     OSSemPend((OS_SEM *)p_sem,
  92              		.loc 1 182 0
  93 0010 0DF10E03 		add	r3, sp, #14
  94 0014 0093     		str	r3, [sp]
  95 0016 0023     		movs	r3, #0
  96 0018 1A46     		mov	r2, r3
  97 001a B1FBF4F1 		udiv	r1, r1, r4
  98              	.LVL7:
  99 001e FFF7FEFF 		bl	OSSemPend
 100              	.LVL8:
 183:BSP\OS\uCOS-III/bsp_os.c ****               (OS_TICK )dly_ticks,
 184:BSP\OS\uCOS-III/bsp_os.c ****               (OS_OPT  )OS_OPT_PEND_BLOCKING,
 185:BSP\OS\uCOS-III/bsp_os.c ****               (CPU_TS  )0,
ARM GAS  C:\Users\jorti\AppData\Local\Temp\ccVW8vUb.s 			page 6


 186:BSP\OS\uCOS-III/bsp_os.c ****               (OS_ERR *)&err);
 187:BSP\OS\uCOS-III/bsp_os.c **** 
 188:BSP\OS\uCOS-III/bsp_os.c ****     if (err != OS_ERR_NONE) {
 101              		.loc 1 188 0
 102 0022 BDF80E30 		ldrh	r3, [sp, #14]
 103 0026 0BB1     		cbz	r3, .L7
 189:BSP\OS\uCOS-III/bsp_os.c ****        return (DEF_FAIL);
 104              		.loc 1 189 0
 105 0028 0020     		movs	r0, #0
 106 002a 00E0     		b	.L6
 107              	.L7:
 190:BSP\OS\uCOS-III/bsp_os.c ****     }
 191:BSP\OS\uCOS-III/bsp_os.c **** 
 192:BSP\OS\uCOS-III/bsp_os.c ****     return (DEF_OK);
 108              		.loc 1 192 0
 109 002c 0120     		movs	r0, #1
 110              	.L6:
 193:BSP\OS\uCOS-III/bsp_os.c **** }
 111              		.loc 1 193 0
 112 002e 04B0     		add	sp, sp, #16
 113              		.cfi_def_cfa_offset 8
 114              		@ sp needed
 115 0030 10BD     		pop	{r4, pc}
 116              	.LVL9:
 117              	.L10:
 118 0032 00BF     		.align	2
 119              	.L9:
 120 0034 00000000 		.word	OSCfg_TickRate_Hz
 121              		.cfi_endproc
 122              	.LFE2:
 123              		.size	BSP_OS_SemWait, .-BSP_OS_SemWait
 124              		.section	.text.BSP_OS_SemPost,"ax",%progbits
 125              		.align	2
 126              		.global	BSP_OS_SemPost
 127              		.thumb
 128              		.thumb_func
 129              		.type	BSP_OS_SemPost, %function
 130              	BSP_OS_SemPost:
 131              	.LFB3:
 194:BSP\OS\uCOS-III/bsp_os.c **** 
 195:BSP\OS\uCOS-III/bsp_os.c **** /*
 196:BSP\OS\uCOS-III/bsp_os.c **** ***************************************************************************************************
 197:BSP\OS\uCOS-III/bsp_os.c **** *                                      BSP_OS_SemPost()
 198:BSP\OS\uCOS-III/bsp_os.c **** *
 199:BSP\OS\uCOS-III/bsp_os.c **** * Description : Post a semaphore
 200:BSP\OS\uCOS-III/bsp_os.c **** *
 201:BSP\OS\uCOS-III/bsp_os.c **** * Argument(s) : sem          Semaphore handler
 202:BSP\OS\uCOS-III/bsp_os.c **** *
 203:BSP\OS\uCOS-III/bsp_os.c **** * Return(s)   : DEF_OK     if the semaphore was posted.
 204:BSP\OS\uCOS-III/bsp_os.c **** *               DEF_FAIL      if the sempahore could not be posted.
 205:BSP\OS\uCOS-III/bsp_os.c **** *
 206:BSP\OS\uCOS-III/bsp_os.c **** * Caller(s)   : Application.
 207:BSP\OS\uCOS-III/bsp_os.c **** *
 208:BSP\OS\uCOS-III/bsp_os.c **** * Note(s)     : none.
 209:BSP\OS\uCOS-III/bsp_os.c **** ***************************************************************************************************
 210:BSP\OS\uCOS-III/bsp_os.c **** */
 211:BSP\OS\uCOS-III/bsp_os.c **** 
ARM GAS  C:\Users\jorti\AppData\Local\Temp\ccVW8vUb.s 			page 7


 212:BSP\OS\uCOS-III/bsp_os.c **** CPU_BOOLEAN  BSP_OS_SemPost (BSP_OS_SEM *p_sem)
 213:BSP\OS\uCOS-III/bsp_os.c **** {
 132              		.loc 1 213 0
 133              		.cfi_startproc
 134              		@ args = 0, pretend = 0, frame = 8
 135              		@ frame_needed = 0, uses_anonymous_args = 0
 136              	.LVL10:
 137 0000 00B5     		push	{lr}
 138              		.cfi_def_cfa_offset 4
 139              		.cfi_offset 14, -4
 140 0002 83B0     		sub	sp, sp, #12
 141              		.cfi_def_cfa_offset 16
 214:BSP\OS\uCOS-III/bsp_os.c ****     OS_ERR  err;
 215:BSP\OS\uCOS-III/bsp_os.c **** 
 216:BSP\OS\uCOS-III/bsp_os.c **** 
 217:BSP\OS\uCOS-III/bsp_os.c ****     OSSemPost((OS_SEM *)p_sem,
 142              		.loc 1 217 0
 143 0004 0DF10602 		add	r2, sp, #6
 144 0008 0021     		movs	r1, #0
 145 000a FFF7FEFF 		bl	OSSemPost
 146              	.LVL11:
 218:BSP\OS\uCOS-III/bsp_os.c ****               (OS_OPT  )OS_OPT_POST_1,
 219:BSP\OS\uCOS-III/bsp_os.c ****               (OS_ERR *)&err);
 220:BSP\OS\uCOS-III/bsp_os.c **** 
 221:BSP\OS\uCOS-III/bsp_os.c ****     if (err != OS_ERR_NONE) {
 147              		.loc 1 221 0
 148 000e BDF80630 		ldrh	r3, [sp, #6]
 149 0012 0BB1     		cbz	r3, .L13
 222:BSP\OS\uCOS-III/bsp_os.c ****         return (DEF_FAIL);
 150              		.loc 1 222 0
 151 0014 0020     		movs	r0, #0
 152 0016 00E0     		b	.L12
 153              	.L13:
 223:BSP\OS\uCOS-III/bsp_os.c ****     }
 224:BSP\OS\uCOS-III/bsp_os.c **** 
 225:BSP\OS\uCOS-III/bsp_os.c ****     return (DEF_OK);
 154              		.loc 1 225 0
 155 0018 0120     		movs	r0, #1
 156              	.L12:
 226:BSP\OS\uCOS-III/bsp_os.c **** }
 157              		.loc 1 226 0
 158 001a 03B0     		add	sp, sp, #12
 159              		.cfi_def_cfa_offset 4
 160              		@ sp needed
 161 001c 5DF804FB 		ldr	pc, [sp], #4
 162              		.cfi_endproc
 163              	.LFE3:
 164              		.size	BSP_OS_SemPost, .-BSP_OS_SemPost
 165              		.section	.text.BSP_OS_TimeDlyMs,"ax",%progbits
 166              		.align	2
 167              		.global	BSP_OS_TimeDlyMs
 168              		.thumb
 169              		.thumb_func
 170              		.type	BSP_OS_TimeDlyMs, %function
 171              	BSP_OS_TimeDlyMs:
 172              	.LFB4:
 227:BSP\OS\uCOS-III/bsp_os.c **** 
ARM GAS  C:\Users\jorti\AppData\Local\Temp\ccVW8vUb.s 			page 8


 228:BSP\OS\uCOS-III/bsp_os.c **** 
 229:BSP\OS\uCOS-III/bsp_os.c **** /*
 230:BSP\OS\uCOS-III/bsp_os.c **** ***************************************************************************************************
 231:BSP\OS\uCOS-III/bsp_os.c **** ***************************************************************************************************
 232:BSP\OS\uCOS-III/bsp_os.c **** **                                     uC/OS-III TIMER FUNCTIONS
 233:BSP\OS\uCOS-III/bsp_os.c **** ***************************************************************************************************
 234:BSP\OS\uCOS-III/bsp_os.c **** ***************************************************************************************************
 235:BSP\OS\uCOS-III/bsp_os.c **** */
 236:BSP\OS\uCOS-III/bsp_os.c **** 
 237:BSP\OS\uCOS-III/bsp_os.c **** /*
 238:BSP\OS\uCOS-III/bsp_os.c **** ***************************************************************************************************
 239:BSP\OS\uCOS-III/bsp_os.c **** *                                    BSP_TimeDlyMs()
 240:BSP\OS\uCOS-III/bsp_os.c **** *
 241:BSP\OS\uCOS-III/bsp_os.c **** * Description : This function delay the exceution for specifi amount of miliseconds
 242:BSP\OS\uCOS-III/bsp_os.c **** *
 243:BSP\OS\uCOS-III/bsp_os.c **** * Argument(s) : dly_ms       Delay in miliseconds
 244:BSP\OS\uCOS-III/bsp_os.c **** *
 245:BSP\OS\uCOS-III/bsp_os.c **** * Return(s)   : none.
 246:BSP\OS\uCOS-III/bsp_os.c **** *
 247:BSP\OS\uCOS-III/bsp_os.c **** * Caller(s)   : Application
 248:BSP\OS\uCOS-III/bsp_os.c **** *
 249:BSP\OS\uCOS-III/bsp_os.c **** * Note(s)     : none.
 250:BSP\OS\uCOS-III/bsp_os.c **** *
 251:BSP\OS\uCOS-III/bsp_os.c **** ***************************************************************************************************
 252:BSP\OS\uCOS-III/bsp_os.c **** */
 253:BSP\OS\uCOS-III/bsp_os.c **** 
 254:BSP\OS\uCOS-III/bsp_os.c **** void   BSP_OS_TimeDlyMs (CPU_INT32U  dly_ms)
 255:BSP\OS\uCOS-III/bsp_os.c **** {
 173              		.loc 1 255 0
 174              		.cfi_startproc
 175              		@ args = 0, pretend = 0, frame = 8
 176              		@ frame_needed = 0, uses_anonymous_args = 0
 177              	.LVL12:
 178 0000 00B5     		push	{lr}
 179              		.cfi_def_cfa_offset 4
 180              		.cfi_offset 14, -4
 181 0002 85B0     		sub	sp, sp, #20
 182              		.cfi_def_cfa_offset 24
 256:BSP\OS\uCOS-III/bsp_os.c ****     CPU_INT16U  ms;
 257:BSP\OS\uCOS-III/bsp_os.c ****     CPU_INT16U  sec;
 258:BSP\OS\uCOS-III/bsp_os.c ****     OS_ERR      err;
 259:BSP\OS\uCOS-III/bsp_os.c **** 
 260:BSP\OS\uCOS-III/bsp_os.c **** 
 261:BSP\OS\uCOS-III/bsp_os.c ****     if (dly_ms > 10000u) {                                       /* Limit delays to 10 seconds.    
 183              		.loc 1 261 0
 184 0004 42F21073 		movw	r3, #10000
 185 0008 9842     		cmp	r0, r3
 186 000a 00D9     		bls	.L16
 262:BSP\OS\uCOS-III/bsp_os.c ****         dly_ms = 10000u;
 187              		.loc 1 262 0
 188 000c 1846     		mov	r0, r3
 189              	.LVL13:
 190              	.L16:
 263:BSP\OS\uCOS-III/bsp_os.c ****     }
 264:BSP\OS\uCOS-III/bsp_os.c **** 
 265:BSP\OS\uCOS-III/bsp_os.c ****     if (dly_ms >= 1000u) {
 191              		.loc 1 265 0
ARM GAS  C:\Users\jorti\AppData\Local\Temp\ccVW8vUb.s 			page 9


 192 000e B0F57A7F 		cmp	r0, #1000
 193 0012 0AD3     		bcc	.L17
 266:BSP\OS\uCOS-III/bsp_os.c ****         ms  = dly_ms / 1000u;
 194              		.loc 1 266 0
 195 0014 0B49     		ldr	r1, .L21
 196 0016 A1FB0031 		umull	r3, r1, r1, r0
 197 001a 8909     		lsrs	r1, r1, #6
 198 001c 8BB2     		uxth	r3, r1
 199              	.LVL14:
 267:BSP\OS\uCOS-III/bsp_os.c ****         sec = dly_ms % 1000u;
 200              		.loc 1 267 0
 201 001e 4FF47A72 		mov	r2, #1000
 202 0022 02FB1102 		mls	r2, r2, r1, r0
 203 0026 92B2     		uxth	r2, r2
 204              	.LVL15:
 205 0028 01E0     		b	.L18
 206              	.LVL16:
 207              	.L17:
 268:BSP\OS\uCOS-III/bsp_os.c ****     } else {
 269:BSP\OS\uCOS-III/bsp_os.c ****         ms  = dly_ms;
 208              		.loc 1 269 0
 209 002a 83B2     		uxth	r3, r0
 210              	.LVL17:
 270:BSP\OS\uCOS-III/bsp_os.c ****         sec = 0u;
 211              		.loc 1 270 0
 212 002c 0022     		movs	r2, #0
 213              	.LVL18:
 214              	.L18:
 271:BSP\OS\uCOS-III/bsp_os.c ****     }
 272:BSP\OS\uCOS-III/bsp_os.c **** 
 273:BSP\OS\uCOS-III/bsp_os.c **** 
 274:BSP\OS\uCOS-III/bsp_os.c ****     OSTimeDlyHMSM((CPU_INT16U) 0u,
 215              		.loc 1 274 0
 216 002e 0DF10E01 		add	r1, sp, #14
 217 0032 0191     		str	r1, [sp, #4]
 218 0034 0020     		movs	r0, #0
 219              	.LVL19:
 220 0036 0090     		str	r0, [sp]
 221 0038 0146     		mov	r1, r0
 222 003a FFF7FEFF 		bl	OSTimeDlyHMSM
 223              	.LVL20:
 275:BSP\OS\uCOS-III/bsp_os.c ****                   (CPU_INT16U) 0u,
 276:BSP\OS\uCOS-III/bsp_os.c ****                   (CPU_INT16U) sec,
 277:BSP\OS\uCOS-III/bsp_os.c ****                   (CPU_INT32U) ms,
 278:BSP\OS\uCOS-III/bsp_os.c ****                   (OS_OPT    ) OS_OPT_TIME_HMSM_STRICT,
 279:BSP\OS\uCOS-III/bsp_os.c ****                   (OS_ERR   *)&err);
 280:BSP\OS\uCOS-III/bsp_os.c **** }
 224              		.loc 1 280 0
 225 003e 05B0     		add	sp, sp, #20
 226              		.cfi_def_cfa_offset 4
 227              		@ sp needed
 228 0040 5DF804FB 		ldr	pc, [sp], #4
 229              	.L22:
 230              		.align	2
 231              	.L21:
 232 0044 D34D6210 		.word	274877907
 233              		.cfi_endproc
ARM GAS  C:\Users\jorti\AppData\Local\Temp\ccVW8vUb.s 			page 10


 234              	.LFE4:
 235              		.size	BSP_OS_TimeDlyMs, .-BSP_OS_TimeDlyMs
 236              		.text
 237              	.Letext0:
 238              		.file 2 ".\\uC-CPU\\ARM-Cortex-M3\\GNU/cpu.h"
 239              		.file 3 ".\\uC-CPU/cpu_core.h"
 240              		.file 4 ".\\uCOS-III\\Source/os_type.h"
 241              		.file 5 ".\\uCOS-III\\Source/os.h"
 242              		.file 6 ".\\BSP\\OS\\uCOS-III/bsp_os.h"