ARM GAS  C:\Users\jorti\AppData\Local\Temp\ccGiIgWV.s 			page 1


   1              		.syntax unified
   2              		.cpu cortex-m3
   3              		.fpu softvfp
   4              		.eabi_attribute 20, 1
   5              		.eabi_attribute 21, 1
   6              		.eabi_attribute 23, 3
   7              		.eabi_attribute 24, 1
   8              		.eabi_attribute 25, 1
   9              		.eabi_attribute 26, 1
  10              		.eabi_attribute 30, 1
  11              		.eabi_attribute 34, 1
  12              		.eabi_attribute 18, 4
  13              		.thumb
  14              		.syntax unified
  15              		.file	"cpu_c.c"
  16              		.text
  17              	.Ltext0:
  18              		.cfi_sections	.debug_frame
  19              		.section	.text.CPU_BitBandClr,"ax",%progbits
  20              		.align	2
  21              		.global	CPU_BitBandClr
  22              		.thumb
  23              		.thumb_func
  24              		.type	CPU_BitBandClr, %function
  25              	CPU_BitBandClr:
  26              	.LFB1:
  27              		.file 1 "uC-CPU\\ARM-Cortex-M3\\GNU\\cpu_c.c"
   1:uC-CPU\ARM-Cortex-M3\GNU/cpu_c.c **** /*
   2:uC-CPU\ARM-Cortex-M3\GNU/cpu_c.c **** ***************************************************************************************************
   3:uC-CPU\ARM-Cortex-M3\GNU/cpu_c.c **** *                                                uC/CPU
   4:uC-CPU\ARM-Cortex-M3\GNU/cpu_c.c **** *                                    CPU CONFIGURATION & PORT LAYER
   5:uC-CPU\ARM-Cortex-M3\GNU/cpu_c.c **** *
   6:uC-CPU\ARM-Cortex-M3\GNU/cpu_c.c **** *                          (c) Copyright 2004-2011; Micrium, Inc.; Weston, FL
   7:uC-CPU\ARM-Cortex-M3\GNU/cpu_c.c **** *
   8:uC-CPU\ARM-Cortex-M3\GNU/cpu_c.c **** *               All rights reserved.  Protected by international copyright laws.
   9:uC-CPU\ARM-Cortex-M3\GNU/cpu_c.c **** *
  10:uC-CPU\ARM-Cortex-M3\GNU/cpu_c.c **** *               uC/CPU is provided in source form to registered licensees ONLY.  It is 
  11:uC-CPU\ARM-Cortex-M3\GNU/cpu_c.c **** *               illegal to distribute this source code to any third party unless you receive 
  12:uC-CPU\ARM-Cortex-M3\GNU/cpu_c.c **** *               written permission by an authorized Micrium representative.  Knowledge of 
  13:uC-CPU\ARM-Cortex-M3\GNU/cpu_c.c **** *               the source code may NOT be used to develop a similar product.
  14:uC-CPU\ARM-Cortex-M3\GNU/cpu_c.c **** *
  15:uC-CPU\ARM-Cortex-M3\GNU/cpu_c.c **** *               Please help us continue to provide the Embedded community with the finest 
  16:uC-CPU\ARM-Cortex-M3\GNU/cpu_c.c **** *               software available.  Your honesty is greatly appreciated.
  17:uC-CPU\ARM-Cortex-M3\GNU/cpu_c.c **** *
  18:uC-CPU\ARM-Cortex-M3\GNU/cpu_c.c **** *               You can contact us at www.micrium.com.
  19:uC-CPU\ARM-Cortex-M3\GNU/cpu_c.c **** ***************************************************************************************************
  20:uC-CPU\ARM-Cortex-M3\GNU/cpu_c.c **** */
  21:uC-CPU\ARM-Cortex-M3\GNU/cpu_c.c **** 
  22:uC-CPU\ARM-Cortex-M3\GNU/cpu_c.c **** /*
  23:uC-CPU\ARM-Cortex-M3\GNU/cpu_c.c **** ***************************************************************************************************
  24:uC-CPU\ARM-Cortex-M3\GNU/cpu_c.c **** *
  25:uC-CPU\ARM-Cortex-M3\GNU/cpu_c.c **** *                                            CPU PORT FILE
  26:uC-CPU\ARM-Cortex-M3\GNU/cpu_c.c **** *
  27:uC-CPU\ARM-Cortex-M3\GNU/cpu_c.c **** *                                            ARM-Cortex-M3
  28:uC-CPU\ARM-Cortex-M3\GNU/cpu_c.c **** *                                            GNU C Compiler
  29:uC-CPU\ARM-Cortex-M3\GNU/cpu_c.c **** *
  30:uC-CPU\ARM-Cortex-M3\GNU/cpu_c.c **** * Filename      : cpu_c.c
ARM GAS  C:\Users\jorti\AppData\Local\Temp\ccGiIgWV.s 			page 2


  31:uC-CPU\ARM-Cortex-M3\GNU/cpu_c.c **** * Version       : V1.29.01.00
  32:uC-CPU\ARM-Cortex-M3\GNU/cpu_c.c **** * Programmer(s) : JJL
  33:uC-CPU\ARM-Cortex-M3\GNU/cpu_c.c **** *                 BAN
  34:uC-CPU\ARM-Cortex-M3\GNU/cpu_c.c **** ***************************************************************************************************
  35:uC-CPU\ARM-Cortex-M3\GNU/cpu_c.c **** */
  36:uC-CPU\ARM-Cortex-M3\GNU/cpu_c.c **** 
  37:uC-CPU\ARM-Cortex-M3\GNU/cpu_c.c **** 
  38:uC-CPU\ARM-Cortex-M3\GNU/cpu_c.c **** /*
  39:uC-CPU\ARM-Cortex-M3\GNU/cpu_c.c **** ***************************************************************************************************
  40:uC-CPU\ARM-Cortex-M3\GNU/cpu_c.c **** *                                            INCLUDE FILES
  41:uC-CPU\ARM-Cortex-M3\GNU/cpu_c.c **** ***************************************************************************************************
  42:uC-CPU\ARM-Cortex-M3\GNU/cpu_c.c **** */
  43:uC-CPU\ARM-Cortex-M3\GNU/cpu_c.c **** 
  44:uC-CPU\ARM-Cortex-M3\GNU/cpu_c.c **** #define    MICRIUM_SOURCE
  45:uC-CPU\ARM-Cortex-M3\GNU/cpu_c.c **** #include  <cpu.h>
  46:uC-CPU\ARM-Cortex-M3\GNU/cpu_c.c **** #include  <cpu_core.h>
  47:uC-CPU\ARM-Cortex-M3\GNU/cpu_c.c **** 
  48:uC-CPU\ARM-Cortex-M3\GNU/cpu_c.c **** #include  <lib_def.h>
  49:uC-CPU\ARM-Cortex-M3\GNU/cpu_c.c **** 
  50:uC-CPU\ARM-Cortex-M3\GNU/cpu_c.c **** 
  51:uC-CPU\ARM-Cortex-M3\GNU/cpu_c.c **** /*$PAGE*/
  52:uC-CPU\ARM-Cortex-M3\GNU/cpu_c.c **** /*
  53:uC-CPU\ARM-Cortex-M3\GNU/cpu_c.c **** ***************************************************************************************************
  54:uC-CPU\ARM-Cortex-M3\GNU/cpu_c.c **** *                                            LOCAL DEFINES
  55:uC-CPU\ARM-Cortex-M3\GNU/cpu_c.c **** ***************************************************************************************************
  56:uC-CPU\ARM-Cortex-M3\GNU/cpu_c.c **** */
  57:uC-CPU\ARM-Cortex-M3\GNU/cpu_c.c **** 
  58:uC-CPU\ARM-Cortex-M3\GNU/cpu_c.c **** #define  CPU_INT_SRC_POS_MAX                  ((((CPU_REG_NVIC_NVIC + 1) & 0x1F) * 32) + 16)
  59:uC-CPU\ARM-Cortex-M3\GNU/cpu_c.c **** 
  60:uC-CPU\ARM-Cortex-M3\GNU/cpu_c.c **** #define  CPU_BIT_BAND_SRAM_REG_LO                 0x20000000
  61:uC-CPU\ARM-Cortex-M3\GNU/cpu_c.c **** #define  CPU_BIT_BAND_SRAM_REG_HI                 0x200FFFFF
  62:uC-CPU\ARM-Cortex-M3\GNU/cpu_c.c **** #define  CPU_BIT_BAND_SRAM_BASE                   0x22000000
  63:uC-CPU\ARM-Cortex-M3\GNU/cpu_c.c **** 
  64:uC-CPU\ARM-Cortex-M3\GNU/cpu_c.c **** 
  65:uC-CPU\ARM-Cortex-M3\GNU/cpu_c.c **** #define  CPU_BIT_BAND_PERIPH_REG_LO               0x40000000
  66:uC-CPU\ARM-Cortex-M3\GNU/cpu_c.c **** #define  CPU_BIT_BAND_PERIPH_REG_HI               0x400FFFFF
  67:uC-CPU\ARM-Cortex-M3\GNU/cpu_c.c **** #define  CPU_BIT_BAND_PERIPH_BASE                 0x42000000
  68:uC-CPU\ARM-Cortex-M3\GNU/cpu_c.c **** 
  69:uC-CPU\ARM-Cortex-M3\GNU/cpu_c.c **** 
  70:uC-CPU\ARM-Cortex-M3\GNU/cpu_c.c **** /*
  71:uC-CPU\ARM-Cortex-M3\GNU/cpu_c.c **** ***************************************************************************************************
  72:uC-CPU\ARM-Cortex-M3\GNU/cpu_c.c **** *                                           LOCAL CONSTANTS
  73:uC-CPU\ARM-Cortex-M3\GNU/cpu_c.c **** ***************************************************************************************************
  74:uC-CPU\ARM-Cortex-M3\GNU/cpu_c.c **** */
  75:uC-CPU\ARM-Cortex-M3\GNU/cpu_c.c **** 
  76:uC-CPU\ARM-Cortex-M3\GNU/cpu_c.c **** 
  77:uC-CPU\ARM-Cortex-M3\GNU/cpu_c.c **** /*
  78:uC-CPU\ARM-Cortex-M3\GNU/cpu_c.c **** ***************************************************************************************************
  79:uC-CPU\ARM-Cortex-M3\GNU/cpu_c.c **** *                                          LOCAL DATA TYPES
  80:uC-CPU\ARM-Cortex-M3\GNU/cpu_c.c **** ***************************************************************************************************
  81:uC-CPU\ARM-Cortex-M3\GNU/cpu_c.c **** */
  82:uC-CPU\ARM-Cortex-M3\GNU/cpu_c.c **** 
  83:uC-CPU\ARM-Cortex-M3\GNU/cpu_c.c **** 
  84:uC-CPU\ARM-Cortex-M3\GNU/cpu_c.c **** /*
  85:uC-CPU\ARM-Cortex-M3\GNU/cpu_c.c **** ***************************************************************************************************
  86:uC-CPU\ARM-Cortex-M3\GNU/cpu_c.c **** *                                            LOCAL TABLES
  87:uC-CPU\ARM-Cortex-M3\GNU/cpu_c.c **** ***************************************************************************************************
ARM GAS  C:\Users\jorti\AppData\Local\Temp\ccGiIgWV.s 			page 3


  88:uC-CPU\ARM-Cortex-M3\GNU/cpu_c.c **** */
  89:uC-CPU\ARM-Cortex-M3\GNU/cpu_c.c **** 
  90:uC-CPU\ARM-Cortex-M3\GNU/cpu_c.c **** 
  91:uC-CPU\ARM-Cortex-M3\GNU/cpu_c.c **** /*
  92:uC-CPU\ARM-Cortex-M3\GNU/cpu_c.c **** ***************************************************************************************************
  93:uC-CPU\ARM-Cortex-M3\GNU/cpu_c.c **** *                                       LOCAL GLOBAL VARIABLES
  94:uC-CPU\ARM-Cortex-M3\GNU/cpu_c.c **** ***************************************************************************************************
  95:uC-CPU\ARM-Cortex-M3\GNU/cpu_c.c **** */
  96:uC-CPU\ARM-Cortex-M3\GNU/cpu_c.c **** 
  97:uC-CPU\ARM-Cortex-M3\GNU/cpu_c.c **** 
  98:uC-CPU\ARM-Cortex-M3\GNU/cpu_c.c **** /*
  99:uC-CPU\ARM-Cortex-M3\GNU/cpu_c.c **** ***************************************************************************************************
 100:uC-CPU\ARM-Cortex-M3\GNU/cpu_c.c **** *                                      LOCAL FUNCTION PROTOTYPES
 101:uC-CPU\ARM-Cortex-M3\GNU/cpu_c.c **** ***************************************************************************************************
 102:uC-CPU\ARM-Cortex-M3\GNU/cpu_c.c **** */
 103:uC-CPU\ARM-Cortex-M3\GNU/cpu_c.c **** 
 104:uC-CPU\ARM-Cortex-M3\GNU/cpu_c.c **** 
 105:uC-CPU\ARM-Cortex-M3\GNU/cpu_c.c **** /*
 106:uC-CPU\ARM-Cortex-M3\GNU/cpu_c.c **** ***************************************************************************************************
 107:uC-CPU\ARM-Cortex-M3\GNU/cpu_c.c **** *                                     LOCAL CONFIGURATION ERRORS
 108:uC-CPU\ARM-Cortex-M3\GNU/cpu_c.c **** ***************************************************************************************************
 109:uC-CPU\ARM-Cortex-M3\GNU/cpu_c.c **** */
 110:uC-CPU\ARM-Cortex-M3\GNU/cpu_c.c **** 
 111:uC-CPU\ARM-Cortex-M3\GNU/cpu_c.c **** 
 112:uC-CPU\ARM-Cortex-M3\GNU/cpu_c.c **** /*$PAGE*/
 113:uC-CPU\ARM-Cortex-M3\GNU/cpu_c.c **** /*
 114:uC-CPU\ARM-Cortex-M3\GNU/cpu_c.c **** ***************************************************************************************************
 115:uC-CPU\ARM-Cortex-M3\GNU/cpu_c.c **** *                                          CPU_BitBandClr()
 116:uC-CPU\ARM-Cortex-M3\GNU/cpu_c.c **** *
 117:uC-CPU\ARM-Cortex-M3\GNU/cpu_c.c **** * Description : Clear bit in bit-band region.
 118:uC-CPU\ARM-Cortex-M3\GNU/cpu_c.c **** *
 119:uC-CPU\ARM-Cortex-M3\GNU/cpu_c.c **** * Argument(s) : addr            Byte address in memory space.
 120:uC-CPU\ARM-Cortex-M3\GNU/cpu_c.c **** *
 121:uC-CPU\ARM-Cortex-M3\GNU/cpu_c.c **** *               bit_nbr         Bit number in byte.
 122:uC-CPU\ARM-Cortex-M3\GNU/cpu_c.c **** *
 123:uC-CPU\ARM-Cortex-M3\GNU/cpu_c.c **** * Return(s)   : none.
 124:uC-CPU\ARM-Cortex-M3\GNU/cpu_c.c **** *
 125:uC-CPU\ARM-Cortex-M3\GNU/cpu_c.c **** * Caller(s)   : Application.
 126:uC-CPU\ARM-Cortex-M3\GNU/cpu_c.c **** *
 127:uC-CPU\ARM-Cortex-M3\GNU/cpu_c.c **** * Note(s)     : none.
 128:uC-CPU\ARM-Cortex-M3\GNU/cpu_c.c **** ***************************************************************************************************
 129:uC-CPU\ARM-Cortex-M3\GNU/cpu_c.c **** */
 130:uC-CPU\ARM-Cortex-M3\GNU/cpu_c.c **** 
 131:uC-CPU\ARM-Cortex-M3\GNU/cpu_c.c **** void  CPU_BitBandClr (CPU_ADDR    addr,
 132:uC-CPU\ARM-Cortex-M3\GNU/cpu_c.c ****                       CPU_INT08U  bit_nbr)
 133:uC-CPU\ARM-Cortex-M3\GNU/cpu_c.c **** {
  28              		.loc 1 133 0
  29              		.cfi_startproc
  30              		@ args = 0, pretend = 0, frame = 0
  31              		@ frame_needed = 0, uses_anonymous_args = 0
  32              		@ link register save eliminated.
  33              	.LVL0:
 134:uC-CPU\ARM-Cortex-M3\GNU/cpu_c.c ****     CPU_ADDR  bit_word_off;
 135:uC-CPU\ARM-Cortex-M3\GNU/cpu_c.c ****     CPU_ADDR  bit_word_addr;
 136:uC-CPU\ARM-Cortex-M3\GNU/cpu_c.c **** 
 137:uC-CPU\ARM-Cortex-M3\GNU/cpu_c.c **** 
 138:uC-CPU\ARM-Cortex-M3\GNU/cpu_c.c ****     if ((addr >= CPU_BIT_BAND_SRAM_REG_LO) &&
ARM GAS  C:\Users\jorti\AppData\Local\Temp\ccGiIgWV.s 			page 4


  34              		.loc 1 138 0
  35 0000 00F16043 		add	r3, r0, #-536870912
  36 0004 B3F5801F 		cmp	r3, #1048576
  37 0008 07D2     		bcs	.L2
 139:uC-CPU\ARM-Cortex-M3\GNU/cpu_c.c ****         (addr <= CPU_BIT_BAND_SRAM_REG_HI)) {
 140:uC-CPU\ARM-Cortex-M3\GNU/cpu_c.c ****         bit_word_off  = ((addr - CPU_BIT_BAND_SRAM_REG_LO  ) * 32) + (bit_nbr * 4);
  38              		.loc 1 140 0
  39 000a 8900     		lsls	r1, r1, #2
  40              	.LVL1:
  41 000c 01EB4011 		add	r1, r1, r0, lsl #5
  42              	.LVL2:
 141:uC-CPU\ARM-Cortex-M3\GNU/cpu_c.c ****         bit_word_addr = CPU_BIT_BAND_SRAM_BASE   + bit_word_off;
  43              		.loc 1 141 0
  44 0010 01F10851 		add	r1, r1, #570425344
  45              	.LVL3:
 142:uC-CPU\ARM-Cortex-M3\GNU/cpu_c.c **** 
 143:uC-CPU\ARM-Cortex-M3\GNU/cpu_c.c ****       *(volatile CPU_INT32U *)(bit_word_addr) = 0;
  46              		.loc 1 143 0
  47 0014 0023     		movs	r3, #0
  48 0016 0B60     		str	r3, [r1]
  49 0018 7047     		bx	lr
  50              	.LVL4:
  51              	.L2:
 144:uC-CPU\ARM-Cortex-M3\GNU/cpu_c.c **** 
 145:uC-CPU\ARM-Cortex-M3\GNU/cpu_c.c ****     } else if ((addr >= CPU_BIT_BAND_PERIPH_REG_LO) &&
  52              		.loc 1 145 0
  53 001a 00F14043 		add	r3, r0, #-1073741824
  54 001e B3F5801F 		cmp	r3, #1048576
  55 0022 06D2     		bcs	.L1
 146:uC-CPU\ARM-Cortex-M3\GNU/cpu_c.c ****                (addr <= CPU_BIT_BAND_PERIPH_REG_HI)) {
 147:uC-CPU\ARM-Cortex-M3\GNU/cpu_c.c ****         bit_word_off  = ((addr - CPU_BIT_BAND_PERIPH_REG_LO) * 32) + (bit_nbr * 4);
  56              		.loc 1 147 0
  57 0024 8900     		lsls	r1, r1, #2
  58              	.LVL5:
  59 0026 01EB4011 		add	r1, r1, r0, lsl #5
  60              	.LVL6:
 148:uC-CPU\ARM-Cortex-M3\GNU/cpu_c.c ****         bit_word_addr = CPU_BIT_BAND_PERIPH_BASE + bit_word_off;
  61              		.loc 1 148 0
  62 002a 01F18441 		add	r1, r1, #1107296256
  63              	.LVL7:
 149:uC-CPU\ARM-Cortex-M3\GNU/cpu_c.c **** 
 150:uC-CPU\ARM-Cortex-M3\GNU/cpu_c.c ****       *(volatile CPU_INT32U *)(bit_word_addr) = 0;
  64              		.loc 1 150 0
  65 002e 0023     		movs	r3, #0
  66 0030 0B60     		str	r3, [r1]
  67              	.LVL8:
  68              	.L1:
  69 0032 7047     		bx	lr
  70              		.cfi_endproc
  71              	.LFE1:
  72              		.size	CPU_BitBandClr, .-CPU_BitBandClr
  73              		.section	.text.CPU_BitBandSet,"ax",%progbits
  74              		.align	2
  75              		.global	CPU_BitBandSet
  76              		.thumb
  77              		.thumb_func
  78              		.type	CPU_BitBandSet, %function
ARM GAS  C:\Users\jorti\AppData\Local\Temp\ccGiIgWV.s 			page 5


  79              	CPU_BitBandSet:
  80              	.LFB2:
 151:uC-CPU\ARM-Cortex-M3\GNU/cpu_c.c ****     }
 152:uC-CPU\ARM-Cortex-M3\GNU/cpu_c.c **** }
 153:uC-CPU\ARM-Cortex-M3\GNU/cpu_c.c **** 
 154:uC-CPU\ARM-Cortex-M3\GNU/cpu_c.c **** 
 155:uC-CPU\ARM-Cortex-M3\GNU/cpu_c.c **** /*$PAGE*/
 156:uC-CPU\ARM-Cortex-M3\GNU/cpu_c.c **** /*
 157:uC-CPU\ARM-Cortex-M3\GNU/cpu_c.c **** ***************************************************************************************************
 158:uC-CPU\ARM-Cortex-M3\GNU/cpu_c.c **** *                                          CPU_BitBandSet()
 159:uC-CPU\ARM-Cortex-M3\GNU/cpu_c.c **** *
 160:uC-CPU\ARM-Cortex-M3\GNU/cpu_c.c **** * Description : Set bit in bit-band region.
 161:uC-CPU\ARM-Cortex-M3\GNU/cpu_c.c **** *
 162:uC-CPU\ARM-Cortex-M3\GNU/cpu_c.c **** * Argument(s) : addr            Byte address in memory space.
 163:uC-CPU\ARM-Cortex-M3\GNU/cpu_c.c **** *
 164:uC-CPU\ARM-Cortex-M3\GNU/cpu_c.c **** *               bit_nbr         Bit number in byte.
 165:uC-CPU\ARM-Cortex-M3\GNU/cpu_c.c **** *
 166:uC-CPU\ARM-Cortex-M3\GNU/cpu_c.c **** * Return(s)   : none.
 167:uC-CPU\ARM-Cortex-M3\GNU/cpu_c.c **** *
 168:uC-CPU\ARM-Cortex-M3\GNU/cpu_c.c **** * Caller(s)   : Application.
 169:uC-CPU\ARM-Cortex-M3\GNU/cpu_c.c **** *
 170:uC-CPU\ARM-Cortex-M3\GNU/cpu_c.c **** * Note(s)     : none.
 171:uC-CPU\ARM-Cortex-M3\GNU/cpu_c.c **** ***************************************************************************************************
 172:uC-CPU\ARM-Cortex-M3\GNU/cpu_c.c **** */
 173:uC-CPU\ARM-Cortex-M3\GNU/cpu_c.c **** 
 174:uC-CPU\ARM-Cortex-M3\GNU/cpu_c.c **** void  CPU_BitBandSet (CPU_ADDR    addr,
 175:uC-CPU\ARM-Cortex-M3\GNU/cpu_c.c ****                       CPU_INT08U  bit_nbr)
 176:uC-CPU\ARM-Cortex-M3\GNU/cpu_c.c **** {
  81              		.loc 1 176 0
  82              		.cfi_startproc
  83              		@ args = 0, pretend = 0, frame = 0
  84              		@ frame_needed = 0, uses_anonymous_args = 0
  85              		@ link register save eliminated.
  86              	.LVL9:
 177:uC-CPU\ARM-Cortex-M3\GNU/cpu_c.c ****     CPU_ADDR  bit_word_off;
 178:uC-CPU\ARM-Cortex-M3\GNU/cpu_c.c ****     CPU_ADDR  bit_word_addr;
 179:uC-CPU\ARM-Cortex-M3\GNU/cpu_c.c **** 
 180:uC-CPU\ARM-Cortex-M3\GNU/cpu_c.c **** 
 181:uC-CPU\ARM-Cortex-M3\GNU/cpu_c.c ****     if ((addr >= CPU_BIT_BAND_SRAM_REG_LO) &&
  87              		.loc 1 181 0
  88 0000 00F16043 		add	r3, r0, #-536870912
  89 0004 B3F5801F 		cmp	r3, #1048576
  90 0008 07D2     		bcs	.L5
 182:uC-CPU\ARM-Cortex-M3\GNU/cpu_c.c ****         (addr <= CPU_BIT_BAND_SRAM_REG_HI)) {
 183:uC-CPU\ARM-Cortex-M3\GNU/cpu_c.c ****         bit_word_off  = ((addr - CPU_BIT_BAND_SRAM_REG_LO  ) * 32) + (bit_nbr * 4);
  91              		.loc 1 183 0
  92 000a 8900     		lsls	r1, r1, #2
  93              	.LVL10:
  94 000c 01EB4011 		add	r1, r1, r0, lsl #5
  95              	.LVL11:
 184:uC-CPU\ARM-Cortex-M3\GNU/cpu_c.c ****         bit_word_addr = CPU_BIT_BAND_SRAM_BASE   + bit_word_off;
  96              		.loc 1 184 0
  97 0010 01F10851 		add	r1, r1, #570425344
  98              	.LVL12:
 185:uC-CPU\ARM-Cortex-M3\GNU/cpu_c.c **** 
 186:uC-CPU\ARM-Cortex-M3\GNU/cpu_c.c ****       *(volatile CPU_INT32U *)(bit_word_addr) = 1;
  99              		.loc 1 186 0
ARM GAS  C:\Users\jorti\AppData\Local\Temp\ccGiIgWV.s 			page 6


 100 0014 0123     		movs	r3, #1
 101 0016 0B60     		str	r3, [r1]
 102 0018 7047     		bx	lr
 103              	.LVL13:
 104              	.L5:
 187:uC-CPU\ARM-Cortex-M3\GNU/cpu_c.c **** 
 188:uC-CPU\ARM-Cortex-M3\GNU/cpu_c.c ****     } else if ((addr >= CPU_BIT_BAND_PERIPH_REG_LO) &&
 105              		.loc 1 188 0
 106 001a 00F14043 		add	r3, r0, #-1073741824
 107 001e B3F5801F 		cmp	r3, #1048576
 108 0022 06D2     		bcs	.L4
 189:uC-CPU\ARM-Cortex-M3\GNU/cpu_c.c ****                (addr <= CPU_BIT_BAND_PERIPH_REG_HI)) {
 190:uC-CPU\ARM-Cortex-M3\GNU/cpu_c.c ****         bit_word_off  = ((addr - CPU_BIT_BAND_PERIPH_REG_LO) * 32) + (bit_nbr * 4);
 109              		.loc 1 190 0
 110 0024 8900     		lsls	r1, r1, #2
 111              	.LVL14:
 112 0026 01EB4011 		add	r1, r1, r0, lsl #5
 113              	.LVL15:
 191:uC-CPU\ARM-Cortex-M3\GNU/cpu_c.c ****         bit_word_addr = CPU_BIT_BAND_PERIPH_BASE + bit_word_off;
 114              		.loc 1 191 0
 115 002a 01F18441 		add	r1, r1, #1107296256
 116              	.LVL16:
 192:uC-CPU\ARM-Cortex-M3\GNU/cpu_c.c **** 
 193:uC-CPU\ARM-Cortex-M3\GNU/cpu_c.c ****       *(volatile CPU_INT32U *)(bit_word_addr) = 1;
 117              		.loc 1 193 0
 118 002e 0123     		movs	r3, #1
 119 0030 0B60     		str	r3, [r1]
 120              	.LVL17:
 121              	.L4:
 122 0032 7047     		bx	lr
 123              		.cfi_endproc
 124              	.LFE2:
 125              		.size	CPU_BitBandSet, .-CPU_BitBandSet
 126              		.section	.text.CPU_IntSrcDis,"ax",%progbits
 127              		.align	2
 128              		.global	CPU_IntSrcDis
 129              		.thumb
 130              		.thumb_func
 131              		.type	CPU_IntSrcDis, %function
 132              	CPU_IntSrcDis:
 133              	.LFB3:
 194:uC-CPU\ARM-Cortex-M3\GNU/cpu_c.c ****     }
 195:uC-CPU\ARM-Cortex-M3\GNU/cpu_c.c **** }
 196:uC-CPU\ARM-Cortex-M3\GNU/cpu_c.c **** 
 197:uC-CPU\ARM-Cortex-M3\GNU/cpu_c.c **** 
 198:uC-CPU\ARM-Cortex-M3\GNU/cpu_c.c **** /*$PAGE*/
 199:uC-CPU\ARM-Cortex-M3\GNU/cpu_c.c **** /*
 200:uC-CPU\ARM-Cortex-M3\GNU/cpu_c.c **** ***************************************************************************************************
 201:uC-CPU\ARM-Cortex-M3\GNU/cpu_c.c **** *                                           CPU_IntSrcDis()
 202:uC-CPU\ARM-Cortex-M3\GNU/cpu_c.c **** *
 203:uC-CPU\ARM-Cortex-M3\GNU/cpu_c.c **** * Description : Disable an interrupt source.
 204:uC-CPU\ARM-Cortex-M3\GNU/cpu_c.c **** *
 205:uC-CPU\ARM-Cortex-M3\GNU/cpu_c.c **** * Argument(s) : pos     Position of interrupt vector in interrupt table :
 206:uC-CPU\ARM-Cortex-M3\GNU/cpu_c.c **** *
 207:uC-CPU\ARM-Cortex-M3\GNU/cpu_c.c **** *                           0       Invalid (see Note #1a).
 208:uC-CPU\ARM-Cortex-M3\GNU/cpu_c.c **** *                           1       Invalid (see Note #1b).
 209:uC-CPU\ARM-Cortex-M3\GNU/cpu_c.c **** *                           2       Non-maskable interrupt.
ARM GAS  C:\Users\jorti\AppData\Local\Temp\ccGiIgWV.s 			page 7


 210:uC-CPU\ARM-Cortex-M3\GNU/cpu_c.c **** *                           3       Hard Fault.
 211:uC-CPU\ARM-Cortex-M3\GNU/cpu_c.c **** *                           4       Memory Management.
 212:uC-CPU\ARM-Cortex-M3\GNU/cpu_c.c **** *                           5       Bus Fault.
 213:uC-CPU\ARM-Cortex-M3\GNU/cpu_c.c **** *                           6       Usage Fault.
 214:uC-CPU\ARM-Cortex-M3\GNU/cpu_c.c **** *                           7-10    Reserved.
 215:uC-CPU\ARM-Cortex-M3\GNU/cpu_c.c **** *                           11      SVCall
 216:uC-CPU\ARM-Cortex-M3\GNU/cpu_c.c **** *                           12      Debug monitor.
 217:uC-CPU\ARM-Cortex-M3\GNU/cpu_c.c **** *                           13      Reserved
 218:uC-CPU\ARM-Cortex-M3\GNU/cpu_c.c **** *                           14      PendSV.
 219:uC-CPU\ARM-Cortex-M3\GNU/cpu_c.c **** *                           15      SysTick.
 220:uC-CPU\ARM-Cortex-M3\GNU/cpu_c.c **** *                           16+     External Interrupt.
 221:uC-CPU\ARM-Cortex-M3\GNU/cpu_c.c **** *
 222:uC-CPU\ARM-Cortex-M3\GNU/cpu_c.c **** * Return(s)   : none.
 223:uC-CPU\ARM-Cortex-M3\GNU/cpu_c.c **** *
 224:uC-CPU\ARM-Cortex-M3\GNU/cpu_c.c **** * Caller(s)   : Application.
 225:uC-CPU\ARM-Cortex-M3\GNU/cpu_c.c **** *
 226:uC-CPU\ARM-Cortex-M3\GNU/cpu_c.c **** * Note(s)     : (1) Several table positions do not contain interrupt sources :
 227:uC-CPU\ARM-Cortex-M3\GNU/cpu_c.c **** *
 228:uC-CPU\ARM-Cortex-M3\GNU/cpu_c.c **** *                   (a) Position 0 contains the stack pointer.
 229:uC-CPU\ARM-Cortex-M3\GNU/cpu_c.c **** *                   (b) Positions 7-10, 13 are reserved.
 230:uC-CPU\ARM-Cortex-M3\GNU/cpu_c.c **** *
 231:uC-CPU\ARM-Cortex-M3\GNU/cpu_c.c **** *               (2) Several interrupts cannot be disabled/enabled :
 232:uC-CPU\ARM-Cortex-M3\GNU/cpu_c.c **** *
 233:uC-CPU\ARM-Cortex-M3\GNU/cpu_c.c **** *                   (a) Reset.
 234:uC-CPU\ARM-Cortex-M3\GNU/cpu_c.c **** *                   (b) NMI.
 235:uC-CPU\ARM-Cortex-M3\GNU/cpu_c.c **** *                   (c) Hard fault.
 236:uC-CPU\ARM-Cortex-M3\GNU/cpu_c.c **** *                   (d) SVCall.
 237:uC-CPU\ARM-Cortex-M3\GNU/cpu_c.c **** *                   (e) Debug monitor.
 238:uC-CPU\ARM-Cortex-M3\GNU/cpu_c.c **** *                   (f) PendSV.
 239:uC-CPU\ARM-Cortex-M3\GNU/cpu_c.c **** *
 240:uC-CPU\ARM-Cortex-M3\GNU/cpu_c.c **** *               (3) The maximum Cortex-M3 table position is 256.  A particular Cortex-M3 may have f
 241:uC-CPU\ARM-Cortex-M3\GNU/cpu_c.c **** *                   than 240 external exceptions and, consequently, fewer than 256 table positions.
 242:uC-CPU\ARM-Cortex-M3\GNU/cpu_c.c **** *                   This function assumes that the specified table position is valid if the interru
 243:uC-CPU\ARM-Cortex-M3\GNU/cpu_c.c **** *                   controller type register's INTLINESNUM field is large enough so that the positi
 244:uC-CPU\ARM-Cortex-M3\GNU/cpu_c.c **** *                   COULD be valid.
 245:uC-CPU\ARM-Cortex-M3\GNU/cpu_c.c **** ***************************************************************************************************
 246:uC-CPU\ARM-Cortex-M3\GNU/cpu_c.c **** */
 247:uC-CPU\ARM-Cortex-M3\GNU/cpu_c.c **** /*$PAGE*/
 248:uC-CPU\ARM-Cortex-M3\GNU/cpu_c.c **** void  CPU_IntSrcDis (CPU_INT08U  pos)
 249:uC-CPU\ARM-Cortex-M3\GNU/cpu_c.c **** {
 134              		.loc 1 249 0
 135              		.cfi_startproc
 136              		@ args = 0, pretend = 0, frame = 0
 137              		@ frame_needed = 0, uses_anonymous_args = 0
 138              	.LVL18:
 139 0000 38B5     		push	{r3, r4, r5, lr}
 140              		.cfi_def_cfa_offset 16
 141              		.cfi_offset 3, -16
 142              		.cfi_offset 4, -12
 143              		.cfi_offset 5, -8
 144              		.cfi_offset 14, -4
 145              	.LVL19:
 250:uC-CPU\ARM-Cortex-M3\GNU/cpu_c.c ****     CPU_INT08U  group;
 251:uC-CPU\ARM-Cortex-M3\GNU/cpu_c.c ****     CPU_INT08U  pos_max;
 252:uC-CPU\ARM-Cortex-M3\GNU/cpu_c.c ****     CPU_INT08U  nbr;
 253:uC-CPU\ARM-Cortex-M3\GNU/cpu_c.c ****     CPU_SR_ALLOC();
 254:uC-CPU\ARM-Cortex-M3\GNU/cpu_c.c **** 
ARM GAS  C:\Users\jorti\AppData\Local\Temp\ccGiIgWV.s 			page 8


 255:uC-CPU\ARM-Cortex-M3\GNU/cpu_c.c **** 
 256:uC-CPU\ARM-Cortex-M3\GNU/cpu_c.c ****     switch (pos) {
 146              		.loc 1 256 0
 147 0002 0F28     		cmp	r0, #15
 148 0004 31D8     		bhi	.L8
 149 0006 DFE800F0 		tbb	[pc, r0]
 150              	.L10:
 151 000a 56       		.byte	(.L7-.L10)/2
 152 000b 56       		.byte	(.L7-.L10)/2
 153 000c 56       		.byte	(.L7-.L10)/2
 154 000d 56       		.byte	(.L7-.L10)/2
 155 000e 08       		.byte	(.L11-.L10)/2
 156 000f 12       		.byte	(.L12-.L10)/2
 157 0010 1C       		.byte	(.L13-.L10)/2
 158 0011 56       		.byte	(.L7-.L10)/2
 159 0012 56       		.byte	(.L7-.L10)/2
 160 0013 56       		.byte	(.L7-.L10)/2
 161 0014 56       		.byte	(.L7-.L10)/2
 162 0015 56       		.byte	(.L7-.L10)/2
 163 0016 56       		.byte	(.L7-.L10)/2
 164 0017 56       		.byte	(.L7-.L10)/2
 165 0018 56       		.byte	(.L7-.L10)/2
 166 0019 26       		.byte	(.L14-.L10)/2
 167              		.p2align 1
 168              	.L11:
 257:uC-CPU\ARM-Cortex-M3\GNU/cpu_c.c ****         case CPU_INT_STK_PTR:                                   /* ---------------- INVALID OR RESE
 258:uC-CPU\ARM-Cortex-M3\GNU/cpu_c.c ****         case CPU_INT_RSVD_07:
 259:uC-CPU\ARM-Cortex-M3\GNU/cpu_c.c ****         case CPU_INT_RSVD_08:
 260:uC-CPU\ARM-Cortex-M3\GNU/cpu_c.c ****         case CPU_INT_RSVD_09:
 261:uC-CPU\ARM-Cortex-M3\GNU/cpu_c.c ****         case CPU_INT_RSVD_10:
 262:uC-CPU\ARM-Cortex-M3\GNU/cpu_c.c ****         case CPU_INT_RSVD_13:
 263:uC-CPU\ARM-Cortex-M3\GNU/cpu_c.c ****              break;
 264:uC-CPU\ARM-Cortex-M3\GNU/cpu_c.c **** 
 265:uC-CPU\ARM-Cortex-M3\GNU/cpu_c.c **** 
 266:uC-CPU\ARM-Cortex-M3\GNU/cpu_c.c ****                                                                 /* ----------------- SYSTEM EXCEPTI
 267:uC-CPU\ARM-Cortex-M3\GNU/cpu_c.c ****         case CPU_INT_RESET:                                     /* Reset (see Note #2).            
 268:uC-CPU\ARM-Cortex-M3\GNU/cpu_c.c ****         case CPU_INT_NMI:                                       /* Non-maskable interrupt (see Note
 269:uC-CPU\ARM-Cortex-M3\GNU/cpu_c.c ****         case CPU_INT_HFAULT:                                    /* Hard fault (see Note #2).       
 270:uC-CPU\ARM-Cortex-M3\GNU/cpu_c.c ****         case CPU_INT_SVCALL:                                    /* SVCall (see Note #2).           
 271:uC-CPU\ARM-Cortex-M3\GNU/cpu_c.c ****         case CPU_INT_DBGMON:                                    /* Debug monitor (see Note #2).    
 272:uC-CPU\ARM-Cortex-M3\GNU/cpu_c.c ****         case CPU_INT_PENDSV:                                    /* PendSV (see Note #2).           
 273:uC-CPU\ARM-Cortex-M3\GNU/cpu_c.c ****              break;
 274:uC-CPU\ARM-Cortex-M3\GNU/cpu_c.c **** 
 275:uC-CPU\ARM-Cortex-M3\GNU/cpu_c.c ****         case CPU_INT_MEM:                                       /* Memory management.              
 276:uC-CPU\ARM-Cortex-M3\GNU/cpu_c.c ****              CPU_CRITICAL_ENTER();
 169              		.loc 1 276 0
 170 001a FFF7FEFF 		bl	CPU_SR_Save
 171              	.LVL20:
 277:uC-CPU\ARM-Cortex-M3\GNU/cpu_c.c ****              CPU_REG_NVIC_SHCSR &= ~CPU_REG_NVIC_SHCSR_MEMFAULTENA;
 172              		.loc 1 277 0
 173 001e 264A     		ldr	r2, .L18
 174 0020 1368     		ldr	r3, [r2]
 175 0022 23F48033 		bic	r3, r3, #65536
 176 0026 1360     		str	r3, [r2]
 278:uC-CPU\ARM-Cortex-M3\GNU/cpu_c.c ****              CPU_CRITICAL_EXIT();
 177              		.loc 1 278 0
 178 0028 FFF7FEFF 		bl	CPU_SR_Restore
ARM GAS  C:\Users\jorti\AppData\Local\Temp\ccGiIgWV.s 			page 9


 179              	.LVL21:
 279:uC-CPU\ARM-Cortex-M3\GNU/cpu_c.c ****              break;
 180              		.loc 1 279 0
 181 002c 38BD     		pop	{r3, r4, r5, pc}
 182              	.LVL22:
 183              	.L12:
 280:uC-CPU\ARM-Cortex-M3\GNU/cpu_c.c **** 
 281:uC-CPU\ARM-Cortex-M3\GNU/cpu_c.c ****         case CPU_INT_BUSFAULT:                                  /* Bus fault.                      
 282:uC-CPU\ARM-Cortex-M3\GNU/cpu_c.c ****              CPU_CRITICAL_ENTER();
 184              		.loc 1 282 0
 185 002e FFF7FEFF 		bl	CPU_SR_Save
 186              	.LVL23:
 283:uC-CPU\ARM-Cortex-M3\GNU/cpu_c.c ****              CPU_REG_NVIC_SHCSR &= ~CPU_REG_NVIC_SHCSR_BUSFAULTENA;
 187              		.loc 1 283 0
 188 0032 214A     		ldr	r2, .L18
 189 0034 1368     		ldr	r3, [r2]
 190 0036 23F40033 		bic	r3, r3, #131072
 191 003a 1360     		str	r3, [r2]
 284:uC-CPU\ARM-Cortex-M3\GNU/cpu_c.c ****              CPU_CRITICAL_EXIT();
 192              		.loc 1 284 0
 193 003c FFF7FEFF 		bl	CPU_SR_Restore
 194              	.LVL24:
 285:uC-CPU\ARM-Cortex-M3\GNU/cpu_c.c ****              break;
 195              		.loc 1 285 0
 196 0040 38BD     		pop	{r3, r4, r5, pc}
 197              	.LVL25:
 198              	.L13:
 286:uC-CPU\ARM-Cortex-M3\GNU/cpu_c.c **** 
 287:uC-CPU\ARM-Cortex-M3\GNU/cpu_c.c ****         case CPU_INT_USAGEFAULT:                                /* Usage fault.                    
 288:uC-CPU\ARM-Cortex-M3\GNU/cpu_c.c ****              CPU_CRITICAL_ENTER();
 199              		.loc 1 288 0
 200 0042 FFF7FEFF 		bl	CPU_SR_Save
 201              	.LVL26:
 289:uC-CPU\ARM-Cortex-M3\GNU/cpu_c.c ****              CPU_REG_NVIC_SHCSR &= ~CPU_REG_NVIC_SHCSR_USGFAULTENA;
 202              		.loc 1 289 0
 203 0046 1C4A     		ldr	r2, .L18
 204 0048 1368     		ldr	r3, [r2]
 205 004a 23F48023 		bic	r3, r3, #262144
 206 004e 1360     		str	r3, [r2]
 290:uC-CPU\ARM-Cortex-M3\GNU/cpu_c.c ****              CPU_CRITICAL_EXIT();
 207              		.loc 1 290 0
 208 0050 FFF7FEFF 		bl	CPU_SR_Restore
 209              	.LVL27:
 291:uC-CPU\ARM-Cortex-M3\GNU/cpu_c.c ****              break;
 210              		.loc 1 291 0
 211 0054 38BD     		pop	{r3, r4, r5, pc}
 212              	.LVL28:
 213              	.L14:
 292:uC-CPU\ARM-Cortex-M3\GNU/cpu_c.c **** 
 293:uC-CPU\ARM-Cortex-M3\GNU/cpu_c.c ****         case CPU_INT_SYSTICK:                                   /* SysTick.                        
 294:uC-CPU\ARM-Cortex-M3\GNU/cpu_c.c ****              CPU_CRITICAL_ENTER();
 214              		.loc 1 294 0
 215 0056 FFF7FEFF 		bl	CPU_SR_Save
 216              	.LVL29:
 295:uC-CPU\ARM-Cortex-M3\GNU/cpu_c.c ****              CPU_REG_NVIC_ST_CTRL &= ~CPU_REG_NVIC_ST_CTRL_ENABLE;
 217              		.loc 1 295 0
 218 005a 184A     		ldr	r2, .L18+4
ARM GAS  C:\Users\jorti\AppData\Local\Temp\ccGiIgWV.s 			page 10


 219 005c 1368     		ldr	r3, [r2]
 220 005e 23F00103 		bic	r3, r3, #1
 221 0062 1360     		str	r3, [r2]
 296:uC-CPU\ARM-Cortex-M3\GNU/cpu_c.c ****              CPU_CRITICAL_EXIT();
 222              		.loc 1 296 0
 223 0064 FFF7FEFF 		bl	CPU_SR_Restore
 224              	.LVL30:
 297:uC-CPU\ARM-Cortex-M3\GNU/cpu_c.c ****              break;
 225              		.loc 1 297 0
 226 0068 38BD     		pop	{r3, r4, r5, pc}
 227              	.LVL31:
 228              	.L8:
 298:uC-CPU\ARM-Cortex-M3\GNU/cpu_c.c **** 
 299:uC-CPU\ARM-Cortex-M3\GNU/cpu_c.c **** 
 300:uC-CPU\ARM-Cortex-M3\GNU/cpu_c.c ****                                                                 /* ---------------- EXTERNAL INTERR
 301:uC-CPU\ARM-Cortex-M3\GNU/cpu_c.c ****         default:
 302:uC-CPU\ARM-Cortex-M3\GNU/cpu_c.c ****             pos_max = CPU_INT_SRC_POS_MAX;
 229              		.loc 1 302 0
 230 006a 154B     		ldr	r3, .L18+8
 231 006c 1B68     		ldr	r3, [r3]
 232 006e 0133     		adds	r3, r3, #1
 233 0070 03F01F03 		and	r3, r3, #31
 234 0074 5B01     		lsls	r3, r3, #5
 235 0076 1033     		adds	r3, r3, #16
 236 0078 DBB2     		uxtb	r3, r3
 237              	.LVL32:
 303:uC-CPU\ARM-Cortex-M3\GNU/cpu_c.c ****             if (pos < pos_max) {                                /* See Note #3.                    
 238              		.loc 1 303 0
 239 007a 9842     		cmp	r0, r3
 240 007c 1BD2     		bcs	.L7
 304:uC-CPU\ARM-Cortex-M3\GNU/cpu_c.c ****                  group = (pos - 16) / 32;
 241              		.loc 1 304 0
 242 007e 1038     		subs	r0, r0, #16
 243              	.LVL33:
 244 0080 0346     		mov	r3, r0
 245              	.LVL34:
 246 0082 0028     		cmp	r0, #0
 247 0084 01DA     		bge	.L15
 248 0086 00F11F03 		add	r3, r0, #31
 249              	.L15:
 250 008a 5D11     		asrs	r5, r3, #5
 251              	.LVL35:
 305:uC-CPU\ARM-Cortex-M3\GNU/cpu_c.c ****                  nbr   = (pos - 16) % 32;
 252              		.loc 1 305 0
 253 008c 0D4C     		ldr	r4, .L18+12
 254 008e 0440     		ands	r4, r0, r4
 255 0090 03D5     		bpl	.L16
 256 0092 013C     		subs	r4, r4, #1
 257 0094 64F01F04 		orn	r4, r4, #31
 258 0098 0134     		adds	r4, r4, #1
 259              	.L16:
 260              	.LVL36:
 306:uC-CPU\ARM-Cortex-M3\GNU/cpu_c.c **** 
 307:uC-CPU\ARM-Cortex-M3\GNU/cpu_c.c ****                  CPU_CRITICAL_ENTER();
 261              		.loc 1 307 0
 262 009a FFF7FEFF 		bl	CPU_SR_Save
 263              	.LVL37:
ARM GAS  C:\Users\jorti\AppData\Local\Temp\ccGiIgWV.s 			page 11


 308:uC-CPU\ARM-Cortex-M3\GNU/cpu_c.c ****                  CPU_REG_NVIC_CLREN(group) = DEF_BIT(nbr);
 264              		.loc 1 308 0
 265 009e EBB2     		uxtb	r3, r5
 266 00a0 03F13823 		add	r3, r3, #939538432
 267 00a4 6033     		adds	r3, r3, #96
 268 00a6 9B00     		lsls	r3, r3, #2
 269 00a8 E4B2     		uxtb	r4, r4
 270 00aa 0122     		movs	r2, #1
 271 00ac 02FA04F4 		lsl	r4, r2, r4
 272              	.LVL38:
 273 00b0 1C60     		str	r4, [r3]
 309:uC-CPU\ARM-Cortex-M3\GNU/cpu_c.c ****                  CPU_CRITICAL_EXIT();
 274              		.loc 1 309 0
 275 00b2 FFF7FEFF 		bl	CPU_SR_Restore
 276              	.LVL39:
 277              	.L7:
 278 00b6 38BD     		pop	{r3, r4, r5, pc}
 279              	.L19:
 280              		.align	2
 281              	.L18:
 282 00b8 24ED00E0 		.word	-536810204
 283 00bc 10E000E0 		.word	-536813552
 284 00c0 04E000E0 		.word	-536813564
 285 00c4 1F000080 		.word	-2147483617
 286              		.cfi_endproc
 287              	.LFE3:
 288              		.size	CPU_IntSrcDis, .-CPU_IntSrcDis
 289              		.section	.text.CPU_IntSrcEn,"ax",%progbits
 290              		.align	2
 291              		.global	CPU_IntSrcEn
 292              		.thumb
 293              		.thumb_func
 294              		.type	CPU_IntSrcEn, %function
 295              	CPU_IntSrcEn:
 296              	.LFB4:
 310:uC-CPU\ARM-Cortex-M3\GNU/cpu_c.c ****              }
 311:uC-CPU\ARM-Cortex-M3\GNU/cpu_c.c ****              break;
 312:uC-CPU\ARM-Cortex-M3\GNU/cpu_c.c ****     }
 313:uC-CPU\ARM-Cortex-M3\GNU/cpu_c.c **** }
 314:uC-CPU\ARM-Cortex-M3\GNU/cpu_c.c **** 
 315:uC-CPU\ARM-Cortex-M3\GNU/cpu_c.c **** 
 316:uC-CPU\ARM-Cortex-M3\GNU/cpu_c.c **** /*$PAGE*/
 317:uC-CPU\ARM-Cortex-M3\GNU/cpu_c.c **** /*
 318:uC-CPU\ARM-Cortex-M3\GNU/cpu_c.c **** ***************************************************************************************************
 319:uC-CPU\ARM-Cortex-M3\GNU/cpu_c.c **** *                                           CPU_IntSrcEn()
 320:uC-CPU\ARM-Cortex-M3\GNU/cpu_c.c **** *
 321:uC-CPU\ARM-Cortex-M3\GNU/cpu_c.c **** * Description : Enable an interrupt source.
 322:uC-CPU\ARM-Cortex-M3\GNU/cpu_c.c **** *
 323:uC-CPU\ARM-Cortex-M3\GNU/cpu_c.c **** * Argument(s) : pos     Position of interrupt vector in interrupt table (see 'CPU_IntSrcDis()').
 324:uC-CPU\ARM-Cortex-M3\GNU/cpu_c.c **** *
 325:uC-CPU\ARM-Cortex-M3\GNU/cpu_c.c **** * Return(s)   : none.
 326:uC-CPU\ARM-Cortex-M3\GNU/cpu_c.c **** *
 327:uC-CPU\ARM-Cortex-M3\GNU/cpu_c.c **** * Caller(s)   : Application.
 328:uC-CPU\ARM-Cortex-M3\GNU/cpu_c.c **** *
 329:uC-CPU\ARM-Cortex-M3\GNU/cpu_c.c **** * Note(s)     : (1) See 'CPU_IntSrcDis()  Note #1'.
 330:uC-CPU\ARM-Cortex-M3\GNU/cpu_c.c **** *
 331:uC-CPU\ARM-Cortex-M3\GNU/cpu_c.c **** *               (2) See 'CPU_IntSrcDis()  Note #2'.
ARM GAS  C:\Users\jorti\AppData\Local\Temp\ccGiIgWV.s 			page 12


 332:uC-CPU\ARM-Cortex-M3\GNU/cpu_c.c **** *
 333:uC-CPU\ARM-Cortex-M3\GNU/cpu_c.c **** *               (3) See 'CPU_IntSrcDis()  Note #3'.
 334:uC-CPU\ARM-Cortex-M3\GNU/cpu_c.c **** ***************************************************************************************************
 335:uC-CPU\ARM-Cortex-M3\GNU/cpu_c.c **** */
 336:uC-CPU\ARM-Cortex-M3\GNU/cpu_c.c **** 
 337:uC-CPU\ARM-Cortex-M3\GNU/cpu_c.c **** void  CPU_IntSrcEn (CPU_INT08U  pos)
 338:uC-CPU\ARM-Cortex-M3\GNU/cpu_c.c **** {
 297              		.loc 1 338 0
 298              		.cfi_startproc
 299              		@ args = 0, pretend = 0, frame = 0
 300              		@ frame_needed = 0, uses_anonymous_args = 0
 301              	.LVL40:
 302 0000 38B5     		push	{r3, r4, r5, lr}
 303              		.cfi_def_cfa_offset 16
 304              		.cfi_offset 3, -16
 305              		.cfi_offset 4, -12
 306              		.cfi_offset 5, -8
 307              		.cfi_offset 14, -4
 308              	.LVL41:
 339:uC-CPU\ARM-Cortex-M3\GNU/cpu_c.c ****     CPU_INT08U  group;
 340:uC-CPU\ARM-Cortex-M3\GNU/cpu_c.c ****     CPU_INT08U  nbr;
 341:uC-CPU\ARM-Cortex-M3\GNU/cpu_c.c ****     CPU_INT08U  pos_max;
 342:uC-CPU\ARM-Cortex-M3\GNU/cpu_c.c ****     CPU_SR_ALLOC();
 343:uC-CPU\ARM-Cortex-M3\GNU/cpu_c.c **** 
 344:uC-CPU\ARM-Cortex-M3\GNU/cpu_c.c **** 
 345:uC-CPU\ARM-Cortex-M3\GNU/cpu_c.c ****     switch (pos) {
 309              		.loc 1 345 0
 310 0002 0F28     		cmp	r0, #15
 311 0004 31D8     		bhi	.L21
 312 0006 DFE800F0 		tbb	[pc, r0]
 313              	.L23:
 314 000a 56       		.byte	(.L20-.L23)/2
 315 000b 56       		.byte	(.L20-.L23)/2
 316 000c 56       		.byte	(.L20-.L23)/2
 317 000d 56       		.byte	(.L20-.L23)/2
 318 000e 08       		.byte	(.L24-.L23)/2
 319 000f 12       		.byte	(.L25-.L23)/2
 320 0010 1C       		.byte	(.L26-.L23)/2
 321 0011 56       		.byte	(.L20-.L23)/2
 322 0012 56       		.byte	(.L20-.L23)/2
 323 0013 56       		.byte	(.L20-.L23)/2
 324 0014 56       		.byte	(.L20-.L23)/2
 325 0015 56       		.byte	(.L20-.L23)/2
 326 0016 56       		.byte	(.L20-.L23)/2
 327 0017 56       		.byte	(.L20-.L23)/2
 328 0018 56       		.byte	(.L20-.L23)/2
 329 0019 26       		.byte	(.L27-.L23)/2
 330              		.p2align 1
 331              	.L24:
 346:uC-CPU\ARM-Cortex-M3\GNU/cpu_c.c ****         case CPU_INT_STK_PTR:                                   /* ---------------- INVALID OR RESE
 347:uC-CPU\ARM-Cortex-M3\GNU/cpu_c.c ****         case CPU_INT_RSVD_07:
 348:uC-CPU\ARM-Cortex-M3\GNU/cpu_c.c ****         case CPU_INT_RSVD_08:
 349:uC-CPU\ARM-Cortex-M3\GNU/cpu_c.c ****         case CPU_INT_RSVD_09:
 350:uC-CPU\ARM-Cortex-M3\GNU/cpu_c.c ****         case CPU_INT_RSVD_10:
 351:uC-CPU\ARM-Cortex-M3\GNU/cpu_c.c ****         case CPU_INT_RSVD_13:
 352:uC-CPU\ARM-Cortex-M3\GNU/cpu_c.c ****              break;
 353:uC-CPU\ARM-Cortex-M3\GNU/cpu_c.c **** 
ARM GAS  C:\Users\jorti\AppData\Local\Temp\ccGiIgWV.s 			page 13


 354:uC-CPU\ARM-Cortex-M3\GNU/cpu_c.c **** 
 355:uC-CPU\ARM-Cortex-M3\GNU/cpu_c.c ****                                                                 /* ----------------- SYSTEM EXCEPTI
 356:uC-CPU\ARM-Cortex-M3\GNU/cpu_c.c ****         case CPU_INT_RESET:                                     /* Reset (see Note #2).            
 357:uC-CPU\ARM-Cortex-M3\GNU/cpu_c.c ****         case CPU_INT_NMI:                                       /* Non-maskable interrupt (see Note
 358:uC-CPU\ARM-Cortex-M3\GNU/cpu_c.c ****         case CPU_INT_HFAULT:                                    /* Hard fault (see Note #2).       
 359:uC-CPU\ARM-Cortex-M3\GNU/cpu_c.c ****         case CPU_INT_SVCALL:                                    /* SVCall (see Note #2).           
 360:uC-CPU\ARM-Cortex-M3\GNU/cpu_c.c ****         case CPU_INT_DBGMON:                                    /* Debug monitor (see Note #2).    
 361:uC-CPU\ARM-Cortex-M3\GNU/cpu_c.c ****         case CPU_INT_PENDSV:                                    /* PendSV (see Note #2).           
 362:uC-CPU\ARM-Cortex-M3\GNU/cpu_c.c ****              break;
 363:uC-CPU\ARM-Cortex-M3\GNU/cpu_c.c **** 
 364:uC-CPU\ARM-Cortex-M3\GNU/cpu_c.c ****         case CPU_INT_MEM:                                       /* Memory management.              
 365:uC-CPU\ARM-Cortex-M3\GNU/cpu_c.c ****              CPU_CRITICAL_ENTER();
 332              		.loc 1 365 0
 333 001a FFF7FEFF 		bl	CPU_SR_Save
 334              	.LVL42:
 366:uC-CPU\ARM-Cortex-M3\GNU/cpu_c.c ****              CPU_REG_NVIC_SHCSR |= CPU_REG_NVIC_SHCSR_MEMFAULTENA;
 335              		.loc 1 366 0
 336 001e 264A     		ldr	r2, .L31
 337 0020 1368     		ldr	r3, [r2]
 338 0022 43F48033 		orr	r3, r3, #65536
 339 0026 1360     		str	r3, [r2]
 367:uC-CPU\ARM-Cortex-M3\GNU/cpu_c.c ****              CPU_CRITICAL_EXIT();
 340              		.loc 1 367 0
 341 0028 FFF7FEFF 		bl	CPU_SR_Restore
 342              	.LVL43:
 368:uC-CPU\ARM-Cortex-M3\GNU/cpu_c.c ****              break;
 343              		.loc 1 368 0
 344 002c 38BD     		pop	{r3, r4, r5, pc}
 345              	.LVL44:
 346              	.L25:
 369:uC-CPU\ARM-Cortex-M3\GNU/cpu_c.c **** 
 370:uC-CPU\ARM-Cortex-M3\GNU/cpu_c.c ****         case CPU_INT_BUSFAULT:                                  /* Bus fault.                      
 371:uC-CPU\ARM-Cortex-M3\GNU/cpu_c.c ****              CPU_CRITICAL_ENTER();
 347              		.loc 1 371 0
 348 002e FFF7FEFF 		bl	CPU_SR_Save
 349              	.LVL45:
 372:uC-CPU\ARM-Cortex-M3\GNU/cpu_c.c ****              CPU_REG_NVIC_SHCSR |= CPU_REG_NVIC_SHCSR_BUSFAULTENA;
 350              		.loc 1 372 0
 351 0032 214A     		ldr	r2, .L31
 352 0034 1368     		ldr	r3, [r2]
 353 0036 43F40033 		orr	r3, r3, #131072
 354 003a 1360     		str	r3, [r2]
 373:uC-CPU\ARM-Cortex-M3\GNU/cpu_c.c ****              CPU_CRITICAL_EXIT();
 355              		.loc 1 373 0
 356 003c FFF7FEFF 		bl	CPU_SR_Restore
 357              	.LVL46:
 374:uC-CPU\ARM-Cortex-M3\GNU/cpu_c.c ****              break;
 358              		.loc 1 374 0
 359 0040 38BD     		pop	{r3, r4, r5, pc}
 360              	.LVL47:
 361              	.L26:
 375:uC-CPU\ARM-Cortex-M3\GNU/cpu_c.c **** 
 376:uC-CPU\ARM-Cortex-M3\GNU/cpu_c.c ****         case CPU_INT_USAGEFAULT:                                /* Usage fault.                    
 377:uC-CPU\ARM-Cortex-M3\GNU/cpu_c.c ****              CPU_CRITICAL_ENTER();
 362              		.loc 1 377 0
 363 0042 FFF7FEFF 		bl	CPU_SR_Save
 364              	.LVL48:
ARM GAS  C:\Users\jorti\AppData\Local\Temp\ccGiIgWV.s 			page 14


 378:uC-CPU\ARM-Cortex-M3\GNU/cpu_c.c ****              CPU_REG_NVIC_SHCSR |= CPU_REG_NVIC_SHCSR_USGFAULTENA;
 365              		.loc 1 378 0
 366 0046 1C4A     		ldr	r2, .L31
 367 0048 1368     		ldr	r3, [r2]
 368 004a 43F48023 		orr	r3, r3, #262144
 369 004e 1360     		str	r3, [r2]
 379:uC-CPU\ARM-Cortex-M3\GNU/cpu_c.c ****              CPU_CRITICAL_EXIT();
 370              		.loc 1 379 0
 371 0050 FFF7FEFF 		bl	CPU_SR_Restore
 372              	.LVL49:
 380:uC-CPU\ARM-Cortex-M3\GNU/cpu_c.c ****              break;
 373              		.loc 1 380 0
 374 0054 38BD     		pop	{r3, r4, r5, pc}
 375              	.LVL50:
 376              	.L27:
 381:uC-CPU\ARM-Cortex-M3\GNU/cpu_c.c **** 
 382:uC-CPU\ARM-Cortex-M3\GNU/cpu_c.c ****         case CPU_INT_SYSTICK:                                   /* SysTick.                        
 383:uC-CPU\ARM-Cortex-M3\GNU/cpu_c.c ****              CPU_CRITICAL_ENTER();
 377              		.loc 1 383 0
 378 0056 FFF7FEFF 		bl	CPU_SR_Save
 379              	.LVL51:
 384:uC-CPU\ARM-Cortex-M3\GNU/cpu_c.c ****              CPU_REG_NVIC_ST_CTRL |= CPU_REG_NVIC_ST_CTRL_ENABLE;
 380              		.loc 1 384 0
 381 005a 184A     		ldr	r2, .L31+4
 382 005c 1368     		ldr	r3, [r2]
 383 005e 43F00103 		orr	r3, r3, #1
 384 0062 1360     		str	r3, [r2]
 385:uC-CPU\ARM-Cortex-M3\GNU/cpu_c.c ****              CPU_CRITICAL_EXIT();
 385              		.loc 1 385 0
 386 0064 FFF7FEFF 		bl	CPU_SR_Restore
 387              	.LVL52:
 386:uC-CPU\ARM-Cortex-M3\GNU/cpu_c.c ****              break;
 388              		.loc 1 386 0
 389 0068 38BD     		pop	{r3, r4, r5, pc}
 390              	.LVL53:
 391              	.L21:
 387:uC-CPU\ARM-Cortex-M3\GNU/cpu_c.c **** 
 388:uC-CPU\ARM-Cortex-M3\GNU/cpu_c.c **** 
 389:uC-CPU\ARM-Cortex-M3\GNU/cpu_c.c ****                                                                 /* ---------------- EXTERNAL INTERR
 390:uC-CPU\ARM-Cortex-M3\GNU/cpu_c.c ****         default:
 391:uC-CPU\ARM-Cortex-M3\GNU/cpu_c.c ****             pos_max = CPU_INT_SRC_POS_MAX;
 392              		.loc 1 391 0
 393 006a 154B     		ldr	r3, .L31+8
 394 006c 1B68     		ldr	r3, [r3]
 395 006e 0133     		adds	r3, r3, #1
 396 0070 03F01F03 		and	r3, r3, #31
 397 0074 5B01     		lsls	r3, r3, #5
 398 0076 1033     		adds	r3, r3, #16
 399 0078 DBB2     		uxtb	r3, r3
 400              	.LVL54:
 392:uC-CPU\ARM-Cortex-M3\GNU/cpu_c.c ****             if (pos < pos_max) {                                /* See Note #3.                    
 401              		.loc 1 392 0
 402 007a 9842     		cmp	r0, r3
 403 007c 1BD2     		bcs	.L20
 393:uC-CPU\ARM-Cortex-M3\GNU/cpu_c.c ****                  group = (pos - 16) / 32;
 404              		.loc 1 393 0
 405 007e 1038     		subs	r0, r0, #16
ARM GAS  C:\Users\jorti\AppData\Local\Temp\ccGiIgWV.s 			page 15


 406              	.LVL55:
 407 0080 0346     		mov	r3, r0
 408              	.LVL56:
 409 0082 0028     		cmp	r0, #0
 410 0084 01DA     		bge	.L28
 411 0086 00F11F03 		add	r3, r0, #31
 412              	.L28:
 413 008a 5D11     		asrs	r5, r3, #5
 414              	.LVL57:
 394:uC-CPU\ARM-Cortex-M3\GNU/cpu_c.c ****                  nbr   = (pos - 16) % 32;
 415              		.loc 1 394 0
 416 008c 0D4C     		ldr	r4, .L31+12
 417 008e 0440     		ands	r4, r0, r4
 418 0090 03D5     		bpl	.L29
 419 0092 013C     		subs	r4, r4, #1
 420 0094 64F01F04 		orn	r4, r4, #31
 421 0098 0134     		adds	r4, r4, #1
 422              	.L29:
 423              	.LVL58:
 395:uC-CPU\ARM-Cortex-M3\GNU/cpu_c.c **** 
 396:uC-CPU\ARM-Cortex-M3\GNU/cpu_c.c ****                  CPU_CRITICAL_ENTER();
 424              		.loc 1 396 0
 425 009a FFF7FEFF 		bl	CPU_SR_Save
 426              	.LVL59:
 397:uC-CPU\ARM-Cortex-M3\GNU/cpu_c.c ****                  CPU_REG_NVIC_SETEN(group) = DEF_BIT(nbr);
 427              		.loc 1 397 0
 428 009e EBB2     		uxtb	r3, r5
 429 00a0 03F13823 		add	r3, r3, #939538432
 430 00a4 4033     		adds	r3, r3, #64
 431 00a6 9B00     		lsls	r3, r3, #2
 432 00a8 E4B2     		uxtb	r4, r4
 433 00aa 0122     		movs	r2, #1
 434 00ac 02FA04F4 		lsl	r4, r2, r4
 435              	.LVL60:
 436 00b0 1C60     		str	r4, [r3]
 398:uC-CPU\ARM-Cortex-M3\GNU/cpu_c.c ****                  CPU_CRITICAL_EXIT();
 437              		.loc 1 398 0
 438 00b2 FFF7FEFF 		bl	CPU_SR_Restore
 439              	.LVL61:
 440              	.L20:
 441 00b6 38BD     		pop	{r3, r4, r5, pc}
 442              	.L32:
 443              		.align	2
 444              	.L31:
 445 00b8 24ED00E0 		.word	-536810204
 446 00bc 10E000E0 		.word	-536813552
 447 00c0 04E000E0 		.word	-536813564
 448 00c4 1F000080 		.word	-2147483617
 449              		.cfi_endproc
 450              	.LFE4:
 451              		.size	CPU_IntSrcEn, .-CPU_IntSrcEn
 452              		.section	.text.CPU_IntSrcPendClr,"ax",%progbits
 453              		.align	2
 454              		.global	CPU_IntSrcPendClr
 455              		.thumb
 456              		.thumb_func
 457              		.type	CPU_IntSrcPendClr, %function
ARM GAS  C:\Users\jorti\AppData\Local\Temp\ccGiIgWV.s 			page 16


 458              	CPU_IntSrcPendClr:
 459              	.LFB5:
 399:uC-CPU\ARM-Cortex-M3\GNU/cpu_c.c ****              }
 400:uC-CPU\ARM-Cortex-M3\GNU/cpu_c.c ****              break;
 401:uC-CPU\ARM-Cortex-M3\GNU/cpu_c.c ****     }
 402:uC-CPU\ARM-Cortex-M3\GNU/cpu_c.c **** }
 403:uC-CPU\ARM-Cortex-M3\GNU/cpu_c.c **** 
 404:uC-CPU\ARM-Cortex-M3\GNU/cpu_c.c **** /*$PAGE*/
 405:uC-CPU\ARM-Cortex-M3\GNU/cpu_c.c **** /*
 406:uC-CPU\ARM-Cortex-M3\GNU/cpu_c.c **** ***************************************************************************************************
 407:uC-CPU\ARM-Cortex-M3\GNU/cpu_c.c **** *                                         CPU_IntSrcPendClr()
 408:uC-CPU\ARM-Cortex-M3\GNU/cpu_c.c **** *
 409:uC-CPU\ARM-Cortex-M3\GNU/cpu_c.c **** * Description : Clear a pending interrupt.
 410:uC-CPU\ARM-Cortex-M3\GNU/cpu_c.c **** *
 411:uC-CPU\ARM-Cortex-M3\GNU/cpu_c.c **** * Argument(s) : pos     Position of interrupt vector in interrupt table (see 'CPU_IntSrcDis()').
 412:uC-CPU\ARM-Cortex-M3\GNU/cpu_c.c **** *
 413:uC-CPU\ARM-Cortex-M3\GNU/cpu_c.c **** * Return(s)   : none.
 414:uC-CPU\ARM-Cortex-M3\GNU/cpu_c.c **** *
 415:uC-CPU\ARM-Cortex-M3\GNU/cpu_c.c **** * Caller(s)   : Application.
 416:uC-CPU\ARM-Cortex-M3\GNU/cpu_c.c **** *
 417:uC-CPU\ARM-Cortex-M3\GNU/cpu_c.c **** * Note(s)     : (1) See 'CPU_IntSrcDis()  Note #1'.
 418:uC-CPU\ARM-Cortex-M3\GNU/cpu_c.c **** *
 419:uC-CPU\ARM-Cortex-M3\GNU/cpu_c.c **** *               (2) The pending status of several interrupts cannot be clear/set :
 420:uC-CPU\ARM-Cortex-M3\GNU/cpu_c.c **** *
 421:uC-CPU\ARM-Cortex-M3\GNU/cpu_c.c **** *                   (a) Reset.
 422:uC-CPU\ARM-Cortex-M3\GNU/cpu_c.c **** *                   (b) NMI.
 423:uC-CPU\ARM-Cortex-M3\GNU/cpu_c.c **** *                   (c) Hard fault.
 424:uC-CPU\ARM-Cortex-M3\GNU/cpu_c.c **** *                   (d) Memory Managment.
 425:uC-CPU\ARM-Cortex-M3\GNU/cpu_c.c **** *                   (e) Bus Fault.
 426:uC-CPU\ARM-Cortex-M3\GNU/cpu_c.c **** *                   (f) Usage Fault.
 427:uC-CPU\ARM-Cortex-M3\GNU/cpu_c.c **** *                   (g) SVCall.
 428:uC-CPU\ARM-Cortex-M3\GNU/cpu_c.c **** *                   (h) Debug monitor.
 429:uC-CPU\ARM-Cortex-M3\GNU/cpu_c.c **** *                   (i) PendSV.
 430:uC-CPU\ARM-Cortex-M3\GNU/cpu_c.c **** *                   (j) Systick 
 431:uC-CPU\ARM-Cortex-M3\GNU/cpu_c.c **** *
 432:uC-CPU\ARM-Cortex-M3\GNU/cpu_c.c **** *               (3) See 'CPU_IntSrcDis()  Note #3'.
 433:uC-CPU\ARM-Cortex-M3\GNU/cpu_c.c **** ***************************************************************************************************
 434:uC-CPU\ARM-Cortex-M3\GNU/cpu_c.c **** */
 435:uC-CPU\ARM-Cortex-M3\GNU/cpu_c.c **** 
 436:uC-CPU\ARM-Cortex-M3\GNU/cpu_c.c **** void  CPU_IntSrcPendClr (CPU_INT08U  pos)
 437:uC-CPU\ARM-Cortex-M3\GNU/cpu_c.c **** 
 438:uC-CPU\ARM-Cortex-M3\GNU/cpu_c.c **** {
 460              		.loc 1 438 0
 461              		.cfi_startproc
 462              		@ args = 0, pretend = 0, frame = 0
 463              		@ frame_needed = 0, uses_anonymous_args = 0
 464              	.LVL62:
 439:uC-CPU\ARM-Cortex-M3\GNU/cpu_c.c ****     CPU_INT08U  group;
 440:uC-CPU\ARM-Cortex-M3\GNU/cpu_c.c ****     CPU_INT08U  nbr;
 441:uC-CPU\ARM-Cortex-M3\GNU/cpu_c.c ****     CPU_INT08U  pos_max;
 442:uC-CPU\ARM-Cortex-M3\GNU/cpu_c.c ****     CPU_SR_ALLOC();
 443:uC-CPU\ARM-Cortex-M3\GNU/cpu_c.c **** 
 444:uC-CPU\ARM-Cortex-M3\GNU/cpu_c.c **** 
 445:uC-CPU\ARM-Cortex-M3\GNU/cpu_c.c ****     switch (pos) {
 465              		.loc 1 445 0
 466 0000 0F28     		cmp	r0, #15
 467 0002 27D9     		bls	.L39
ARM GAS  C:\Users\jorti\AppData\Local\Temp\ccGiIgWV.s 			page 17


 438:uC-CPU\ARM-Cortex-M3\GNU/cpu_c.c ****     CPU_INT08U  group;
 468              		.loc 1 438 0
 469 0004 38B5     		push	{r3, r4, r5, lr}
 470              		.cfi_def_cfa_offset 16
 471              		.cfi_offset 3, -16
 472              		.cfi_offset 4, -12
 473              		.cfi_offset 5, -8
 474              		.cfi_offset 14, -4
 446:uC-CPU\ARM-Cortex-M3\GNU/cpu_c.c ****         case CPU_INT_STK_PTR:                                   /* ---------------- INVALID OR RESE
 447:uC-CPU\ARM-Cortex-M3\GNU/cpu_c.c ****         case CPU_INT_RSVD_07:
 448:uC-CPU\ARM-Cortex-M3\GNU/cpu_c.c ****         case CPU_INT_RSVD_08:
 449:uC-CPU\ARM-Cortex-M3\GNU/cpu_c.c ****         case CPU_INT_RSVD_09:
 450:uC-CPU\ARM-Cortex-M3\GNU/cpu_c.c ****         case CPU_INT_RSVD_10:
 451:uC-CPU\ARM-Cortex-M3\GNU/cpu_c.c ****         case CPU_INT_RSVD_13:
 452:uC-CPU\ARM-Cortex-M3\GNU/cpu_c.c ****              break;
 453:uC-CPU\ARM-Cortex-M3\GNU/cpu_c.c ****                                                                 /* ----------------- SYSTEM EXCEPTI
 454:uC-CPU\ARM-Cortex-M3\GNU/cpu_c.c ****         case CPU_INT_RESET:                                     /* Reset (see Note #2).            
 455:uC-CPU\ARM-Cortex-M3\GNU/cpu_c.c ****         case CPU_INT_NMI:                                       /* Non-maskable interrupt (see Note
 456:uC-CPU\ARM-Cortex-M3\GNU/cpu_c.c ****         case CPU_INT_HFAULT:                                    /* Hard fault (see Note #2).       
 457:uC-CPU\ARM-Cortex-M3\GNU/cpu_c.c ****         case CPU_INT_MEM:                                       /* Memory management (see Note #2).
 458:uC-CPU\ARM-Cortex-M3\GNU/cpu_c.c ****         case CPU_INT_SVCALL:                                    /* SVCall (see Note #2).           
 459:uC-CPU\ARM-Cortex-M3\GNU/cpu_c.c ****         case CPU_INT_DBGMON:                                    /* Debug monitor (see Note #2).    
 460:uC-CPU\ARM-Cortex-M3\GNU/cpu_c.c ****         case CPU_INT_PENDSV:                                    /* PendSV (see Note #2).           
 461:uC-CPU\ARM-Cortex-M3\GNU/cpu_c.c ****         case CPU_INT_BUSFAULT:                                  /* Bus fault.                      
 462:uC-CPU\ARM-Cortex-M3\GNU/cpu_c.c ****         case CPU_INT_USAGEFAULT:                                /* Usage fault.                    
 463:uC-CPU\ARM-Cortex-M3\GNU/cpu_c.c ****         case CPU_INT_SYSTICK:                                   /* SysTick.                        
 464:uC-CPU\ARM-Cortex-M3\GNU/cpu_c.c ****              break;
 465:uC-CPU\ARM-Cortex-M3\GNU/cpu_c.c ****                                                                 /* ---------------- EXTERNAL INTERR
 466:uC-CPU\ARM-Cortex-M3\GNU/cpu_c.c ****         default:
 467:uC-CPU\ARM-Cortex-M3\GNU/cpu_c.c ****             pos_max = CPU_INT_SRC_POS_MAX;
 475              		.loc 1 467 0
 476 0006 144B     		ldr	r3, .L40
 477 0008 1B68     		ldr	r3, [r3]
 478 000a 0133     		adds	r3, r3, #1
 479 000c 03F01F03 		and	r3, r3, #31
 480 0010 5B01     		lsls	r3, r3, #5
 481 0012 1033     		adds	r3, r3, #16
 482 0014 DBB2     		uxtb	r3, r3
 483              	.LVL63:
 468:uC-CPU\ARM-Cortex-M3\GNU/cpu_c.c ****             if (pos < pos_max) {                                /* See Note #3.                    
 484              		.loc 1 468 0
 485 0016 9842     		cmp	r0, r3
 486 0018 1BD2     		bcs	.L33
 469:uC-CPU\ARM-Cortex-M3\GNU/cpu_c.c ****                  group = (pos - 16) / 32;
 487              		.loc 1 469 0
 488 001a 1038     		subs	r0, r0, #16
 489              	.LVL64:
 490 001c 0346     		mov	r3, r0
 491              	.LVL65:
 492 001e 0028     		cmp	r0, #0
 493 0020 01DA     		bge	.L36
 494 0022 00F11F03 		add	r3, r0, #31
 495              	.L36:
 496 0026 5D11     		asrs	r5, r3, #5
 497              	.LVL66:
 470:uC-CPU\ARM-Cortex-M3\GNU/cpu_c.c ****                  nbr   = (pos - 16) % 32;
 498              		.loc 1 470 0
ARM GAS  C:\Users\jorti\AppData\Local\Temp\ccGiIgWV.s 			page 18


 499 0028 0C4C     		ldr	r4, .L40+4
 500 002a 0440     		ands	r4, r0, r4
 501 002c 03D5     		bpl	.L37
 502 002e 013C     		subs	r4, r4, #1
 503 0030 64F01F04 		orn	r4, r4, #31
 504 0034 0134     		adds	r4, r4, #1
 505              	.L37:
 506              	.LVL67:
 471:uC-CPU\ARM-Cortex-M3\GNU/cpu_c.c **** 
 472:uC-CPU\ARM-Cortex-M3\GNU/cpu_c.c ****                  CPU_CRITICAL_ENTER();
 507              		.loc 1 472 0
 508 0036 FFF7FEFF 		bl	CPU_SR_Save
 509              	.LVL68:
 473:uC-CPU\ARM-Cortex-M3\GNU/cpu_c.c ****                  CPU_REG_NVIC_CLRPEND(group) = DEF_BIT(nbr);
 510              		.loc 1 473 0
 511 003a EBB2     		uxtb	r3, r5
 512 003c 03F13823 		add	r3, r3, #939538432
 513 0040 A033     		adds	r3, r3, #160
 514 0042 9B00     		lsls	r3, r3, #2
 515 0044 E4B2     		uxtb	r4, r4
 516 0046 0122     		movs	r2, #1
 517 0048 02FA04F4 		lsl	r4, r2, r4
 518              	.LVL69:
 519 004c 1C60     		str	r4, [r3]
 474:uC-CPU\ARM-Cortex-M3\GNU/cpu_c.c ****                  CPU_CRITICAL_EXIT();
 520              		.loc 1 474 0
 521 004e FFF7FEFF 		bl	CPU_SR_Restore
 522              	.LVL70:
 523              	.L33:
 524 0052 38BD     		pop	{r3, r4, r5, pc}
 525              	.LVL71:
 526              	.L39:
 527              		.cfi_def_cfa_offset 0
 528              		.cfi_restore 3
 529              		.cfi_restore 4
 530              		.cfi_restore 5
 531              		.cfi_restore 14
 532 0054 7047     		bx	lr
 533              	.L41:
 534 0056 00BF     		.align	2
 535              	.L40:
 536 0058 04E000E0 		.word	-536813564
 537 005c 1F000080 		.word	-2147483617
 538              		.cfi_endproc
 539              	.LFE5:
 540              		.size	CPU_IntSrcPendClr, .-CPU_IntSrcPendClr
 541              		.section	.text.CPU_IntSrcPrioSet,"ax",%progbits
 542              		.align	2
 543              		.global	CPU_IntSrcPrioSet
 544              		.thumb
 545              		.thumb_func
 546              		.type	CPU_IntSrcPrioSet, %function
 547              	CPU_IntSrcPrioSet:
 548              	.LFB6:
 475:uC-CPU\ARM-Cortex-M3\GNU/cpu_c.c ****              }
 476:uC-CPU\ARM-Cortex-M3\GNU/cpu_c.c ****              break;
 477:uC-CPU\ARM-Cortex-M3\GNU/cpu_c.c ****     }
ARM GAS  C:\Users\jorti\AppData\Local\Temp\ccGiIgWV.s 			page 19


 478:uC-CPU\ARM-Cortex-M3\GNU/cpu_c.c **** }
 479:uC-CPU\ARM-Cortex-M3\GNU/cpu_c.c **** 
 480:uC-CPU\ARM-Cortex-M3\GNU/cpu_c.c **** 
 481:uC-CPU\ARM-Cortex-M3\GNU/cpu_c.c **** /*$PAGE*/
 482:uC-CPU\ARM-Cortex-M3\GNU/cpu_c.c **** /*
 483:uC-CPU\ARM-Cortex-M3\GNU/cpu_c.c **** ***************************************************************************************************
 484:uC-CPU\ARM-Cortex-M3\GNU/cpu_c.c **** *                                         CPU_IntSrcPrioSet()
 485:uC-CPU\ARM-Cortex-M3\GNU/cpu_c.c **** *
 486:uC-CPU\ARM-Cortex-M3\GNU/cpu_c.c **** * Description : Set priority of an interrupt source.
 487:uC-CPU\ARM-Cortex-M3\GNU/cpu_c.c **** *
 488:uC-CPU\ARM-Cortex-M3\GNU/cpu_c.c **** * Argument(s) : pos     Position of interrupt vector in interrupt table (see 'CPU_IntSrcDis()').
 489:uC-CPU\ARM-Cortex-M3\GNU/cpu_c.c **** *
 490:uC-CPU\ARM-Cortex-M3\GNU/cpu_c.c **** *               prio    Priority.  Use a lower priority number for a higher priority.
 491:uC-CPU\ARM-Cortex-M3\GNU/cpu_c.c **** *
 492:uC-CPU\ARM-Cortex-M3\GNU/cpu_c.c **** * Return(s)   : none.
 493:uC-CPU\ARM-Cortex-M3\GNU/cpu_c.c **** *
 494:uC-CPU\ARM-Cortex-M3\GNU/cpu_c.c **** * Caller(s)   : Application.
 495:uC-CPU\ARM-Cortex-M3\GNU/cpu_c.c **** *
 496:uC-CPU\ARM-Cortex-M3\GNU/cpu_c.c **** * Note(s)     : (1) See 'CPU_IntSrcDis()  Note #1'.
 497:uC-CPU\ARM-Cortex-M3\GNU/cpu_c.c **** *
 498:uC-CPU\ARM-Cortex-M3\GNU/cpu_c.c **** *               (2) Several interrupts priorities CANNOT be set :
 499:uC-CPU\ARM-Cortex-M3\GNU/cpu_c.c **** *
 500:uC-CPU\ARM-Cortex-M3\GNU/cpu_c.c **** *                   (a) Reset (always -3).
 501:uC-CPU\ARM-Cortex-M3\GNU/cpu_c.c **** *                   (b) NMI (always -2).
 502:uC-CPU\ARM-Cortex-M3\GNU/cpu_c.c **** *                   (c) Hard fault (always -1).
 503:uC-CPU\ARM-Cortex-M3\GNU/cpu_c.c **** *
 504:uC-CPU\ARM-Cortex-M3\GNU/cpu_c.c **** *               (3) See 'CPU_IntSrcDis()  Note #3'.
 505:uC-CPU\ARM-Cortex-M3\GNU/cpu_c.c **** ***************************************************************************************************
 506:uC-CPU\ARM-Cortex-M3\GNU/cpu_c.c **** */
 507:uC-CPU\ARM-Cortex-M3\GNU/cpu_c.c **** 
 508:uC-CPU\ARM-Cortex-M3\GNU/cpu_c.c **** void  CPU_IntSrcPrioSet (CPU_INT08U  pos,
 509:uC-CPU\ARM-Cortex-M3\GNU/cpu_c.c ****                          CPU_INT08U  prio)
 510:uC-CPU\ARM-Cortex-M3\GNU/cpu_c.c **** {
 549              		.loc 1 510 0
 550              		.cfi_startproc
 551              		@ args = 0, pretend = 0, frame = 0
 552              		@ frame_needed = 0, uses_anonymous_args = 0
 553              	.LVL72:
 554 0000 70B5     		push	{r4, r5, r6, lr}
 555              		.cfi_def_cfa_offset 16
 556              		.cfi_offset 4, -16
 557              		.cfi_offset 5, -12
 558              		.cfi_offset 6, -8
 559              		.cfi_offset 14, -4
 560 0002 0446     		mov	r4, r0
 561              	.LVL73:
 511:uC-CPU\ARM-Cortex-M3\GNU/cpu_c.c ****     CPU_INT08U  group;
 512:uC-CPU\ARM-Cortex-M3\GNU/cpu_c.c ****     CPU_INT08U  nbr;
 513:uC-CPU\ARM-Cortex-M3\GNU/cpu_c.c ****     CPU_INT08U  pos_max;
 514:uC-CPU\ARM-Cortex-M3\GNU/cpu_c.c ****     CPU_INT32U  prio_32;
 515:uC-CPU\ARM-Cortex-M3\GNU/cpu_c.c ****     CPU_INT32U  temp;
 516:uC-CPU\ARM-Cortex-M3\GNU/cpu_c.c ****     CPU_SR_ALLOC();
 517:uC-CPU\ARM-Cortex-M3\GNU/cpu_c.c **** 
 518:uC-CPU\ARM-Cortex-M3\GNU/cpu_c.c **** 
 519:uC-CPU\ARM-Cortex-M3\GNU/cpu_c.c ****     prio_32 = CPU_RevBits((CPU_INT08U)prio);
 562              		.loc 1 519 0
 563 0004 0846     		mov	r0, r1
ARM GAS  C:\Users\jorti\AppData\Local\Temp\ccGiIgWV.s 			page 20


 564              	.LVL74:
 565 0006 FFF7FEFF 		bl	CPU_RevBits
 566              	.LVL75:
 520:uC-CPU\ARM-Cortex-M3\GNU/cpu_c.c ****     prio    = (CPU_INT08U)(prio_32 >> (3 * DEF_OCTET_NBR_BITS));
 567              		.loc 1 520 0
 568 000a 050E     		lsrs	r5, r0, #24
 569              	.LVL76:
 521:uC-CPU\ARM-Cortex-M3\GNU/cpu_c.c **** 
 522:uC-CPU\ARM-Cortex-M3\GNU/cpu_c.c ****     switch (pos) {
 570              		.loc 1 522 0
 571 000c 0F2C     		cmp	r4, #15
 572 000e 5BD8     		bhi	.L43
 573 0010 DFE804F0 		tbb	[pc, r4]
 574              	.L45:
 575 0014 86       		.byte	(.L42-.L45)/2
 576 0015 86       		.byte	(.L42-.L45)/2
 577 0016 86       		.byte	(.L42-.L45)/2
 578 0017 86       		.byte	(.L42-.L45)/2
 579 0018 08       		.byte	(.L46-.L45)/2
 580 0019 13       		.byte	(.L47-.L45)/2
 581 001a 1F       		.byte	(.L48-.L45)/2
 582 001b 86       		.byte	(.L42-.L45)/2
 583 001c 86       		.byte	(.L42-.L45)/2
 584 001d 86       		.byte	(.L42-.L45)/2
 585 001e 86       		.byte	(.L42-.L45)/2
 586 001f 2B       		.byte	(.L49-.L45)/2
 587 0020 37       		.byte	(.L50-.L45)/2
 588 0021 86       		.byte	(.L42-.L45)/2
 589 0022 42       		.byte	(.L51-.L45)/2
 590 0023 4E       		.byte	(.L52-.L45)/2
 591              		.p2align 1
 592              	.L46:
 523:uC-CPU\ARM-Cortex-M3\GNU/cpu_c.c ****         case CPU_INT_STK_PTR:                                   /* ---------------- INVALID OR RESE
 524:uC-CPU\ARM-Cortex-M3\GNU/cpu_c.c ****         case CPU_INT_RSVD_07:
 525:uC-CPU\ARM-Cortex-M3\GNU/cpu_c.c ****         case CPU_INT_RSVD_08:
 526:uC-CPU\ARM-Cortex-M3\GNU/cpu_c.c ****         case CPU_INT_RSVD_09:
 527:uC-CPU\ARM-Cortex-M3\GNU/cpu_c.c ****         case CPU_INT_RSVD_10:
 528:uC-CPU\ARM-Cortex-M3\GNU/cpu_c.c ****         case CPU_INT_RSVD_13:
 529:uC-CPU\ARM-Cortex-M3\GNU/cpu_c.c ****              break;
 530:uC-CPU\ARM-Cortex-M3\GNU/cpu_c.c **** 
 531:uC-CPU\ARM-Cortex-M3\GNU/cpu_c.c **** 
 532:uC-CPU\ARM-Cortex-M3\GNU/cpu_c.c ****                                                                 /* ----------------- SYSTEM EXCEPTI
 533:uC-CPU\ARM-Cortex-M3\GNU/cpu_c.c ****         case CPU_INT_RESET:                                     /* Reset (see Note #2).            
 534:uC-CPU\ARM-Cortex-M3\GNU/cpu_c.c ****         case CPU_INT_NMI:                                       /* Non-maskable interrupt (see Note
 535:uC-CPU\ARM-Cortex-M3\GNU/cpu_c.c ****         case CPU_INT_HFAULT:                                    /* Hard fault (see Note #2).       
 536:uC-CPU\ARM-Cortex-M3\GNU/cpu_c.c ****              break;
 537:uC-CPU\ARM-Cortex-M3\GNU/cpu_c.c **** 
 538:uC-CPU\ARM-Cortex-M3\GNU/cpu_c.c ****         case CPU_INT_MEM:                                       /* Memory management.              
 539:uC-CPU\ARM-Cortex-M3\GNU/cpu_c.c ****              CPU_CRITICAL_ENTER();
 593              		.loc 1 539 0
 594 0024 FFF7FEFF 		bl	CPU_SR_Save
 595              	.LVL77:
 540:uC-CPU\ARM-Cortex-M3\GNU/cpu_c.c ****              temp                 = CPU_REG_NVIC_SHPRI1;
 596              		.loc 1 540 0
 597 0028 3E4B     		ldr	r3, .L56
 598 002a 1C68     		ldr	r4, [r3]
 599              	.LVL78:
ARM GAS  C:\Users\jorti\AppData\Local\Temp\ccGiIgWV.s 			page 21


 541:uC-CPU\ARM-Cortex-M3\GNU/cpu_c.c ****              temp                &= ~(DEF_OCTET_MASK << (0 * DEF_OCTET_NBR_BITS));
 600              		.loc 1 541 0
 601 002c 24F0FF04 		bic	r4, r4, #255
 602              	.LVL79:
 542:uC-CPU\ARM-Cortex-M3\GNU/cpu_c.c ****              temp                |=  (prio           << (0 * DEF_OCTET_NBR_BITS));
 603              		.loc 1 542 0
 604 0030 2543     		orrs	r5, r5, r4
 605              	.LVL80:
 543:uC-CPU\ARM-Cortex-M3\GNU/cpu_c.c ****              CPU_REG_NVIC_SHPRI1  = temp;
 606              		.loc 1 543 0
 607 0032 1D60     		str	r5, [r3]
 544:uC-CPU\ARM-Cortex-M3\GNU/cpu_c.c ****              CPU_CRITICAL_EXIT();
 608              		.loc 1 544 0
 609 0034 FFF7FEFF 		bl	CPU_SR_Restore
 610              	.LVL81:
 545:uC-CPU\ARM-Cortex-M3\GNU/cpu_c.c ****              break;
 611              		.loc 1 545 0
 612 0038 70BD     		pop	{r4, r5, r6, pc}
 613              	.LVL82:
 614              	.L47:
 546:uC-CPU\ARM-Cortex-M3\GNU/cpu_c.c **** 
 547:uC-CPU\ARM-Cortex-M3\GNU/cpu_c.c ****         case CPU_INT_BUSFAULT:                                  /* Bus fault.                      
 548:uC-CPU\ARM-Cortex-M3\GNU/cpu_c.c ****              CPU_CRITICAL_ENTER();
 615              		.loc 1 548 0
 616 003a FFF7FEFF 		bl	CPU_SR_Save
 617              	.LVL83:
 549:uC-CPU\ARM-Cortex-M3\GNU/cpu_c.c ****              temp                 = CPU_REG_NVIC_SHPRI1;
 618              		.loc 1 549 0
 619 003e 394B     		ldr	r3, .L56
 620 0040 1C68     		ldr	r4, [r3]
 621              	.LVL84:
 550:uC-CPU\ARM-Cortex-M3\GNU/cpu_c.c ****              temp                &= ~(DEF_OCTET_MASK << (1 * DEF_OCTET_NBR_BITS));
 622              		.loc 1 550 0
 623 0042 24F47F44 		bic	r4, r4, #65280
 624              	.LVL85:
 551:uC-CPU\ARM-Cortex-M3\GNU/cpu_c.c ****              temp                |=  (prio           << (1 * DEF_OCTET_NBR_BITS));
 625              		.loc 1 551 0
 626 0046 44EA0525 		orr	r5, r4, r5, lsl #8
 627              	.LVL86:
 552:uC-CPU\ARM-Cortex-M3\GNU/cpu_c.c ****              CPU_REG_NVIC_SHPRI1  = temp;
 628              		.loc 1 552 0
 629 004a 1D60     		str	r5, [r3]
 553:uC-CPU\ARM-Cortex-M3\GNU/cpu_c.c ****              CPU_CRITICAL_EXIT();
 630              		.loc 1 553 0
 631 004c FFF7FEFF 		bl	CPU_SR_Restore
 632              	.LVL87:
 554:uC-CPU\ARM-Cortex-M3\GNU/cpu_c.c ****              break;
 633              		.loc 1 554 0
 634 0050 70BD     		pop	{r4, r5, r6, pc}
 635              	.LVL88:
 636              	.L48:
 555:uC-CPU\ARM-Cortex-M3\GNU/cpu_c.c **** 
 556:uC-CPU\ARM-Cortex-M3\GNU/cpu_c.c ****         case CPU_INT_USAGEFAULT:                                /* Usage fault.                    
 557:uC-CPU\ARM-Cortex-M3\GNU/cpu_c.c ****              CPU_CRITICAL_ENTER();
 637              		.loc 1 557 0
 638 0052 FFF7FEFF 		bl	CPU_SR_Save
 639              	.LVL89:
ARM GAS  C:\Users\jorti\AppData\Local\Temp\ccGiIgWV.s 			page 22


 558:uC-CPU\ARM-Cortex-M3\GNU/cpu_c.c ****              temp                 = CPU_REG_NVIC_SHPRI1;
 640              		.loc 1 558 0
 641 0056 334B     		ldr	r3, .L56
 642 0058 1C68     		ldr	r4, [r3]
 643              	.LVL90:
 559:uC-CPU\ARM-Cortex-M3\GNU/cpu_c.c ****              temp                &= ~(DEF_OCTET_MASK << (2 * DEF_OCTET_NBR_BITS));
 644              		.loc 1 559 0
 645 005a 24F47F04 		bic	r4, r4, #16711680
 646              	.LVL91:
 560:uC-CPU\ARM-Cortex-M3\GNU/cpu_c.c ****              temp                |=  (prio           << (2 * DEF_OCTET_NBR_BITS));
 647              		.loc 1 560 0
 648 005e 44EA0545 		orr	r5, r4, r5, lsl #16
 649              	.LVL92:
 561:uC-CPU\ARM-Cortex-M3\GNU/cpu_c.c ****              CPU_REG_NVIC_SHPRI1  = temp;
 650              		.loc 1 561 0
 651 0062 1D60     		str	r5, [r3]
 562:uC-CPU\ARM-Cortex-M3\GNU/cpu_c.c ****              CPU_CRITICAL_EXIT();
 652              		.loc 1 562 0
 653 0064 FFF7FEFF 		bl	CPU_SR_Restore
 654              	.LVL93:
 563:uC-CPU\ARM-Cortex-M3\GNU/cpu_c.c ****              break;
 655              		.loc 1 563 0
 656 0068 70BD     		pop	{r4, r5, r6, pc}
 657              	.LVL94:
 658              	.L49:
 564:uC-CPU\ARM-Cortex-M3\GNU/cpu_c.c **** 
 565:uC-CPU\ARM-Cortex-M3\GNU/cpu_c.c ****         case CPU_INT_SVCALL:                                    /* SVCall.                         
 566:uC-CPU\ARM-Cortex-M3\GNU/cpu_c.c ****              CPU_CRITICAL_ENTER();
 659              		.loc 1 566 0
 660 006a FFF7FEFF 		bl	CPU_SR_Save
 661              	.LVL95:
 567:uC-CPU\ARM-Cortex-M3\GNU/cpu_c.c ****              temp                 = CPU_REG_NVIC_SHPRI2;
 662              		.loc 1 567 0
 663 006e 2E4B     		ldr	r3, .L56+4
 664 0070 1C68     		ldr	r4, [r3]
 665              	.LVL96:
 568:uC-CPU\ARM-Cortex-M3\GNU/cpu_c.c ****              temp                &= ~((CPU_INT32U)DEF_OCTET_MASK << (3 * DEF_OCTET_NBR_BITS));
 666              		.loc 1 568 0
 667 0072 24F07F44 		bic	r4, r4, #-16777216
 668              	.LVL97:
 569:uC-CPU\ARM-Cortex-M3\GNU/cpu_c.c ****              temp                |=  (prio                       << (3 * DEF_OCTET_NBR_BITS));
 669              		.loc 1 569 0
 670 0076 44EA0565 		orr	r5, r4, r5, lsl #24
 671              	.LVL98:
 570:uC-CPU\ARM-Cortex-M3\GNU/cpu_c.c ****              CPU_REG_NVIC_SHPRI2  = temp;
 672              		.loc 1 570 0
 673 007a 1D60     		str	r5, [r3]
 571:uC-CPU\ARM-Cortex-M3\GNU/cpu_c.c ****              CPU_CRITICAL_EXIT();
 674              		.loc 1 571 0
 675 007c FFF7FEFF 		bl	CPU_SR_Restore
 676              	.LVL99:
 572:uC-CPU\ARM-Cortex-M3\GNU/cpu_c.c ****              break;
 677              		.loc 1 572 0
 678 0080 70BD     		pop	{r4, r5, r6, pc}
 679              	.LVL100:
 680              	.L50:
 573:uC-CPU\ARM-Cortex-M3\GNU/cpu_c.c **** 
ARM GAS  C:\Users\jorti\AppData\Local\Temp\ccGiIgWV.s 			page 23


 574:uC-CPU\ARM-Cortex-M3\GNU/cpu_c.c ****         case CPU_INT_DBGMON:                                    /* Debug monitor.                  
 575:uC-CPU\ARM-Cortex-M3\GNU/cpu_c.c ****              CPU_CRITICAL_ENTER();
 681              		.loc 1 575 0
 682 0082 FFF7FEFF 		bl	CPU_SR_Save
 683              	.LVL101:
 576:uC-CPU\ARM-Cortex-M3\GNU/cpu_c.c ****              temp                = CPU_REG_NVIC_SHPRI3;
 684              		.loc 1 576 0
 685 0086 294B     		ldr	r3, .L56+8
 686 0088 1C68     		ldr	r4, [r3]
 687              	.LVL102:
 577:uC-CPU\ARM-Cortex-M3\GNU/cpu_c.c ****              temp                &= ~(DEF_OCTET_MASK << (0 * DEF_OCTET_NBR_BITS));
 688              		.loc 1 577 0
 689 008a 24F0FF04 		bic	r4, r4, #255
 690              	.LVL103:
 578:uC-CPU\ARM-Cortex-M3\GNU/cpu_c.c ****              temp                |=  (prio           << (0 * DEF_OCTET_NBR_BITS));
 691              		.loc 1 578 0
 692 008e 2543     		orrs	r5, r5, r4
 693              	.LVL104:
 579:uC-CPU\ARM-Cortex-M3\GNU/cpu_c.c ****              CPU_REG_NVIC_SHPRI3  = temp;
 694              		.loc 1 579 0
 695 0090 1D60     		str	r5, [r3]
 580:uC-CPU\ARM-Cortex-M3\GNU/cpu_c.c ****              CPU_CRITICAL_EXIT();
 696              		.loc 1 580 0
 697 0092 FFF7FEFF 		bl	CPU_SR_Restore
 698              	.LVL105:
 581:uC-CPU\ARM-Cortex-M3\GNU/cpu_c.c ****              break;
 699              		.loc 1 581 0
 700 0096 70BD     		pop	{r4, r5, r6, pc}
 701              	.LVL106:
 702              	.L51:
 582:uC-CPU\ARM-Cortex-M3\GNU/cpu_c.c **** 
 583:uC-CPU\ARM-Cortex-M3\GNU/cpu_c.c ****         case CPU_INT_PENDSV:                                    /* PendSV.                         
 584:uC-CPU\ARM-Cortex-M3\GNU/cpu_c.c ****              CPU_CRITICAL_ENTER();
 703              		.loc 1 584 0
 704 0098 FFF7FEFF 		bl	CPU_SR_Save
 705              	.LVL107:
 585:uC-CPU\ARM-Cortex-M3\GNU/cpu_c.c ****              temp                 = CPU_REG_NVIC_SHPRI3;
 706              		.loc 1 585 0
 707 009c 234B     		ldr	r3, .L56+8
 708 009e 1C68     		ldr	r4, [r3]
 709              	.LVL108:
 586:uC-CPU\ARM-Cortex-M3\GNU/cpu_c.c ****              temp                &= ~(DEF_OCTET_MASK << (2 * DEF_OCTET_NBR_BITS));
 710              		.loc 1 586 0
 711 00a0 24F47F04 		bic	r4, r4, #16711680
 712              	.LVL109:
 587:uC-CPU\ARM-Cortex-M3\GNU/cpu_c.c ****              temp                |=  (prio           << (2 * DEF_OCTET_NBR_BITS));
 713              		.loc 1 587 0
 714 00a4 44EA0545 		orr	r5, r4, r5, lsl #16
 715              	.LVL110:
 588:uC-CPU\ARM-Cortex-M3\GNU/cpu_c.c ****              CPU_REG_NVIC_SHPRI3  = temp;
 716              		.loc 1 588 0
 717 00a8 1D60     		str	r5, [r3]
 589:uC-CPU\ARM-Cortex-M3\GNU/cpu_c.c ****              CPU_CRITICAL_EXIT();
 718              		.loc 1 589 0
 719 00aa FFF7FEFF 		bl	CPU_SR_Restore
 720              	.LVL111:
 590:uC-CPU\ARM-Cortex-M3\GNU/cpu_c.c ****              break;
ARM GAS  C:\Users\jorti\AppData\Local\Temp\ccGiIgWV.s 			page 24


 721              		.loc 1 590 0
 722 00ae 70BD     		pop	{r4, r5, r6, pc}
 723              	.LVL112:
 724              	.L52:
 591:uC-CPU\ARM-Cortex-M3\GNU/cpu_c.c **** 
 592:uC-CPU\ARM-Cortex-M3\GNU/cpu_c.c ****         case CPU_INT_SYSTICK:                                   /* SysTick.                        
 593:uC-CPU\ARM-Cortex-M3\GNU/cpu_c.c ****              CPU_CRITICAL_ENTER();
 725              		.loc 1 593 0
 726 00b0 FFF7FEFF 		bl	CPU_SR_Save
 727              	.LVL113:
 594:uC-CPU\ARM-Cortex-M3\GNU/cpu_c.c ****              temp                 = CPU_REG_NVIC_SHPRI3;
 728              		.loc 1 594 0
 729 00b4 1D4B     		ldr	r3, .L56+8
 730 00b6 1C68     		ldr	r4, [r3]
 731              	.LVL114:
 595:uC-CPU\ARM-Cortex-M3\GNU/cpu_c.c ****              temp                &= ~((CPU_INT32U)DEF_OCTET_MASK << (3 * DEF_OCTET_NBR_BITS));
 732              		.loc 1 595 0
 733 00b8 24F07F44 		bic	r4, r4, #-16777216
 734              	.LVL115:
 596:uC-CPU\ARM-Cortex-M3\GNU/cpu_c.c ****              temp                |=  (prio                       << (3 * DEF_OCTET_NBR_BITS));
 735              		.loc 1 596 0
 736 00bc 44EA0565 		orr	r5, r4, r5, lsl #24
 737              	.LVL116:
 597:uC-CPU\ARM-Cortex-M3\GNU/cpu_c.c ****              CPU_REG_NVIC_SHPRI3  = temp;
 738              		.loc 1 597 0
 739 00c0 1D60     		str	r5, [r3]
 598:uC-CPU\ARM-Cortex-M3\GNU/cpu_c.c ****              CPU_CRITICAL_EXIT();
 740              		.loc 1 598 0
 741 00c2 FFF7FEFF 		bl	CPU_SR_Restore
 742              	.LVL117:
 599:uC-CPU\ARM-Cortex-M3\GNU/cpu_c.c ****              break;
 743              		.loc 1 599 0
 744 00c6 70BD     		pop	{r4, r5, r6, pc}
 745              	.LVL118:
 746              	.L43:
 600:uC-CPU\ARM-Cortex-M3\GNU/cpu_c.c **** 
 601:uC-CPU\ARM-Cortex-M3\GNU/cpu_c.c **** 
 602:uC-CPU\ARM-Cortex-M3\GNU/cpu_c.c ****                                                                 /* ---------------- EXTERNAL INTERR
 603:uC-CPU\ARM-Cortex-M3\GNU/cpu_c.c ****         default:
 604:uC-CPU\ARM-Cortex-M3\GNU/cpu_c.c ****             pos_max = CPU_INT_SRC_POS_MAX;
 747              		.loc 1 604 0
 748 00c8 194B     		ldr	r3, .L56+12
 749 00ca 1B68     		ldr	r3, [r3]
 750 00cc 0133     		adds	r3, r3, #1
 751 00ce 03F01F03 		and	r3, r3, #31
 752 00d2 5B01     		lsls	r3, r3, #5
 753 00d4 1033     		adds	r3, r3, #16
 754 00d6 DBB2     		uxtb	r3, r3
 755              	.LVL119:
 605:uC-CPU\ARM-Cortex-M3\GNU/cpu_c.c ****             if (pos < pos_max) {                                /* See Note #3.                    
 756              		.loc 1 605 0
 757 00d8 9C42     		cmp	r4, r3
 758 00da 21D2     		bcs	.L42
 606:uC-CPU\ARM-Cortex-M3\GNU/cpu_c.c ****                  group                    = (pos - 16) / 4;
 759              		.loc 1 606 0
 760 00dc 103C     		subs	r4, r4, #16
 761 00de 2346     		mov	r3, r4
ARM GAS  C:\Users\jorti\AppData\Local\Temp\ccGiIgWV.s 			page 25


 762              	.LVL120:
 763 00e0 002C     		cmp	r4, #0
 764 00e2 00DA     		bge	.L53
 765 00e4 E31C     		adds	r3, r4, #3
 766              	.L53:
 767 00e6 9E10     		asrs	r6, r3, #2
 768              	.LVL121:
 607:uC-CPU\ARM-Cortex-M3\GNU/cpu_c.c ****                  nbr                      = (pos - 16) % 4;
 769              		.loc 1 607 0
 770 00e8 124B     		ldr	r3, .L56+16
 771 00ea 1C40     		ands	r4, r4, r3
 772 00ec 03D5     		bpl	.L54
 773 00ee 013C     		subs	r4, r4, #1
 774 00f0 64F00304 		orn	r4, r4, #3
 775 00f4 0134     		adds	r4, r4, #1
 776              	.L54:
 777              	.LVL122:
 608:uC-CPU\ARM-Cortex-M3\GNU/cpu_c.c **** 
 609:uC-CPU\ARM-Cortex-M3\GNU/cpu_c.c ****                  CPU_CRITICAL_ENTER();
 778              		.loc 1 609 0
 779 00f6 FFF7FEFF 		bl	CPU_SR_Save
 780              	.LVL123:
 610:uC-CPU\ARM-Cortex-M3\GNU/cpu_c.c ****                  temp                     = CPU_REG_NVIC_PRIO(group);
 781              		.loc 1 610 0
 782 00fa F3B2     		uxtb	r3, r6
 783 00fc 03F16053 		add	r3, r3, #939524096
 784 0100 03F56453 		add	r3, r3, #14592
 785 0104 9B00     		lsls	r3, r3, #2
 786 0106 1968     		ldr	r1, [r3]
 787              	.LVL124:
 611:uC-CPU\ARM-Cortex-M3\GNU/cpu_c.c ****                  temp                    &= ~(DEF_OCTET_MASK << (nbr * DEF_OCTET_NBR_BITS));
 788              		.loc 1 611 0
 789 0108 E4B2     		uxtb	r4, r4
 790 010a E400     		lsls	r4, r4, #3
 791              	.LVL125:
 792 010c FF22     		movs	r2, #255
 793 010e A240     		lsls	r2, r2, r4
 794 0110 21EA0202 		bic	r2, r1, r2
 795              	.LVL126:
 612:uC-CPU\ARM-Cortex-M3\GNU/cpu_c.c ****                  temp                    |=  (prio           << (nbr * DEF_OCTET_NBR_BITS));
 796              		.loc 1 612 0
 797 0114 05FA04F4 		lsl	r4, r5, r4
 798 0118 1443     		orrs	r4, r4, r2
 799              	.LVL127:
 613:uC-CPU\ARM-Cortex-M3\GNU/cpu_c.c ****                  CPU_REG_NVIC_PRIO(group) = temp;
 800              		.loc 1 613 0
 801 011a 1C60     		str	r4, [r3]
 614:uC-CPU\ARM-Cortex-M3\GNU/cpu_c.c ****                  CPU_CRITICAL_EXIT();
 802              		.loc 1 614 0
 803 011c FFF7FEFF 		bl	CPU_SR_Restore
 804              	.LVL128:
 805              	.L42:
 806 0120 70BD     		pop	{r4, r5, r6, pc}
 807              	.LVL129:
 808              	.L57:
 809 0122 00BF     		.align	2
 810              	.L56:
ARM GAS  C:\Users\jorti\AppData\Local\Temp\ccGiIgWV.s 			page 26


 811 0124 18ED00E0 		.word	-536810216
 812 0128 1CED00E0 		.word	-536810212
 813 012c 20ED00E0 		.word	-536810208
 814 0130 04E000E0 		.word	-536813564
 815 0134 03000080 		.word	-2147483645
 816              		.cfi_endproc
 817              	.LFE6:
 818              		.size	CPU_IntSrcPrioSet, .-CPU_IntSrcPrioSet
 819              		.section	.text.CPU_IntSrcPrioGet,"ax",%progbits
 820              		.align	2
 821              		.global	CPU_IntSrcPrioGet
 822              		.thumb
 823              		.thumb_func
 824              		.type	CPU_IntSrcPrioGet, %function
 825              	CPU_IntSrcPrioGet:
 826              	.LFB7:
 615:uC-CPU\ARM-Cortex-M3\GNU/cpu_c.c ****              }
 616:uC-CPU\ARM-Cortex-M3\GNU/cpu_c.c ****              break;
 617:uC-CPU\ARM-Cortex-M3\GNU/cpu_c.c ****     }
 618:uC-CPU\ARM-Cortex-M3\GNU/cpu_c.c **** }
 619:uC-CPU\ARM-Cortex-M3\GNU/cpu_c.c **** 
 620:uC-CPU\ARM-Cortex-M3\GNU/cpu_c.c **** 
 621:uC-CPU\ARM-Cortex-M3\GNU/cpu_c.c **** /*$PAGE*/
 622:uC-CPU\ARM-Cortex-M3\GNU/cpu_c.c **** /*
 623:uC-CPU\ARM-Cortex-M3\GNU/cpu_c.c **** ***************************************************************************************************
 624:uC-CPU\ARM-Cortex-M3\GNU/cpu_c.c **** *                                         CPU_IntSrcPrioGet()
 625:uC-CPU\ARM-Cortex-M3\GNU/cpu_c.c **** *
 626:uC-CPU\ARM-Cortex-M3\GNU/cpu_c.c **** * Description : Get priority of an interrupt source.
 627:uC-CPU\ARM-Cortex-M3\GNU/cpu_c.c **** *
 628:uC-CPU\ARM-Cortex-M3\GNU/cpu_c.c **** * Argument(s) : pos     Position of interrupt vector in interrupt table (see 'CPU_IntSrcDis()').
 629:uC-CPU\ARM-Cortex-M3\GNU/cpu_c.c **** *
 630:uC-CPU\ARM-Cortex-M3\GNU/cpu_c.c **** * Return(s)   : Priority of interrupt source.  If the interrupt source specified is invalid, then
 631:uC-CPU\ARM-Cortex-M3\GNU/cpu_c.c **** *               DEF_INT_16S_MIN_VAL is returned.
 632:uC-CPU\ARM-Cortex-M3\GNU/cpu_c.c **** *
 633:uC-CPU\ARM-Cortex-M3\GNU/cpu_c.c **** * Caller(s)   : Application.
 634:uC-CPU\ARM-Cortex-M3\GNU/cpu_c.c **** *
 635:uC-CPU\ARM-Cortex-M3\GNU/cpu_c.c **** * Note(s)     : (1) See 'CPU_IntSrcDis()      Note #1'.
 636:uC-CPU\ARM-Cortex-M3\GNU/cpu_c.c **** *
 637:uC-CPU\ARM-Cortex-M3\GNU/cpu_c.c **** *               (2) See 'CPU_IntSrcPrioSet()  Note #2'.
 638:uC-CPU\ARM-Cortex-M3\GNU/cpu_c.c **** *
 639:uC-CPU\ARM-Cortex-M3\GNU/cpu_c.c **** *               (3) See 'CPU_IntSrcDis()      Note #3'.
 640:uC-CPU\ARM-Cortex-M3\GNU/cpu_c.c **** ***************************************************************************************************
 641:uC-CPU\ARM-Cortex-M3\GNU/cpu_c.c **** */
 642:uC-CPU\ARM-Cortex-M3\GNU/cpu_c.c **** 
 643:uC-CPU\ARM-Cortex-M3\GNU/cpu_c.c **** CPU_INT16S  CPU_IntSrcPrioGet (CPU_INT08U  pos)
 644:uC-CPU\ARM-Cortex-M3\GNU/cpu_c.c **** {
 827              		.loc 1 644 0
 828              		.cfi_startproc
 829              		@ args = 0, pretend = 0, frame = 0
 830              		@ frame_needed = 0, uses_anonymous_args = 0
 831              	.LVL130:
 832 0000 38B5     		push	{r3, r4, r5, lr}
 833              		.cfi_def_cfa_offset 16
 834              		.cfi_offset 3, -16
 835              		.cfi_offset 4, -12
 836              		.cfi_offset 5, -8
 837              		.cfi_offset 14, -4
ARM GAS  C:\Users\jorti\AppData\Local\Temp\ccGiIgWV.s 			page 27


 838              	.LVL131:
 645:uC-CPU\ARM-Cortex-M3\GNU/cpu_c.c ****     CPU_INT08U  group;
 646:uC-CPU\ARM-Cortex-M3\GNU/cpu_c.c ****     CPU_INT08U  nbr;
 647:uC-CPU\ARM-Cortex-M3\GNU/cpu_c.c ****     CPU_INT08U  pos_max;
 648:uC-CPU\ARM-Cortex-M3\GNU/cpu_c.c ****     CPU_INT16S  prio;
 649:uC-CPU\ARM-Cortex-M3\GNU/cpu_c.c ****     CPU_INT32U  prio_32;
 650:uC-CPU\ARM-Cortex-M3\GNU/cpu_c.c ****     CPU_INT32U  temp;
 651:uC-CPU\ARM-Cortex-M3\GNU/cpu_c.c ****     CPU_SR_ALLOC();
 652:uC-CPU\ARM-Cortex-M3\GNU/cpu_c.c **** 
 653:uC-CPU\ARM-Cortex-M3\GNU/cpu_c.c **** 
 654:uC-CPU\ARM-Cortex-M3\GNU/cpu_c.c ****     switch (pos) {
 839              		.loc 1 654 0
 840 0002 0F28     		cmp	r0, #15
 841 0004 4AD8     		bhi	.L59
 842 0006 DFE800F0 		tbb	[pc, r0]
 843              	.L61:
 844 000a 08       		.byte	(.L60-.L61)/2
 845 000b 70       		.byte	(.L75-.L61)/2
 846 000c 0A       		.byte	(.L63-.L61)/2
 847 000d 0D       		.byte	(.L64-.L61)/2
 848 000e 10       		.byte	(.L65-.L61)/2
 849 000f 18       		.byte	(.L66-.L61)/2
 850 0010 21       		.byte	(.L67-.L61)/2
 851 0011 08       		.byte	(.L60-.L61)/2
 852 0012 08       		.byte	(.L60-.L61)/2
 853 0013 08       		.byte	(.L60-.L61)/2
 854 0014 08       		.byte	(.L60-.L61)/2
 855 0015 28       		.byte	(.L68-.L61)/2
 856 0016 30       		.byte	(.L69-.L61)/2
 857 0017 08       		.byte	(.L60-.L61)/2
 858 0018 38       		.byte	(.L70-.L61)/2
 859 0019 41       		.byte	(.L71-.L61)/2
 860              		.p2align 1
 861              	.L60:
 655:uC-CPU\ARM-Cortex-M3\GNU/cpu_c.c ****         case CPU_INT_STK_PTR:                                   /* ---------------- INVALID OR RESE
 656:uC-CPU\ARM-Cortex-M3\GNU/cpu_c.c ****         case CPU_INT_RSVD_07:
 657:uC-CPU\ARM-Cortex-M3\GNU/cpu_c.c ****         case CPU_INT_RSVD_08:
 658:uC-CPU\ARM-Cortex-M3\GNU/cpu_c.c ****         case CPU_INT_RSVD_09:
 659:uC-CPU\ARM-Cortex-M3\GNU/cpu_c.c ****         case CPU_INT_RSVD_10:
 660:uC-CPU\ARM-Cortex-M3\GNU/cpu_c.c ****         case CPU_INT_RSVD_13:
 661:uC-CPU\ARM-Cortex-M3\GNU/cpu_c.c ****              prio = DEF_INT_16S_MIN_VAL;
 862              		.loc 1 661 0
 863 001a 3A4C     		ldr	r4, .L78
 864 001c 69E0     		b	.L62
 865              	.L63:
 866              	.LVL132:
 662:uC-CPU\ARM-Cortex-M3\GNU/cpu_c.c ****              break;
 663:uC-CPU\ARM-Cortex-M3\GNU/cpu_c.c **** 
 664:uC-CPU\ARM-Cortex-M3\GNU/cpu_c.c **** 
 665:uC-CPU\ARM-Cortex-M3\GNU/cpu_c.c ****                                                                 /* ----------------- SYSTEM EXCEPTI
 666:uC-CPU\ARM-Cortex-M3\GNU/cpu_c.c ****         case CPU_INT_RESET:                                     /* Reset (see Note #2).            
 667:uC-CPU\ARM-Cortex-M3\GNU/cpu_c.c ****              prio = -3;
 668:uC-CPU\ARM-Cortex-M3\GNU/cpu_c.c ****              break;
 669:uC-CPU\ARM-Cortex-M3\GNU/cpu_c.c **** 
 670:uC-CPU\ARM-Cortex-M3\GNU/cpu_c.c ****         case CPU_INT_NMI:                                       /* Non-maskable interrupt (see Note
 671:uC-CPU\ARM-Cortex-M3\GNU/cpu_c.c ****              prio = -2;
 867              		.loc 1 671 0
ARM GAS  C:\Users\jorti\AppData\Local\Temp\ccGiIgWV.s 			page 28


 868 001e 6FF00104 		mvn	r4, #1
 672:uC-CPU\ARM-Cortex-M3\GNU/cpu_c.c ****              break;
 869              		.loc 1 672 0
 870 0022 66E0     		b	.L62
 871              	.LVL133:
 872              	.L64:
 673:uC-CPU\ARM-Cortex-M3\GNU/cpu_c.c **** 
 674:uC-CPU\ARM-Cortex-M3\GNU/cpu_c.c ****         case CPU_INT_HFAULT:                                    /* Hard fault (see Note #2).       
 675:uC-CPU\ARM-Cortex-M3\GNU/cpu_c.c ****              prio = -1;
 873              		.loc 1 675 0
 874 0024 4FF0FF34 		mov	r4, #-1
 676:uC-CPU\ARM-Cortex-M3\GNU/cpu_c.c ****              break;
 875              		.loc 1 676 0
 876 0028 63E0     		b	.L62
 877              	.LVL134:
 878              	.L65:
 677:uC-CPU\ARM-Cortex-M3\GNU/cpu_c.c **** 
 678:uC-CPU\ARM-Cortex-M3\GNU/cpu_c.c **** 
 679:uC-CPU\ARM-Cortex-M3\GNU/cpu_c.c ****         case CPU_INT_MEM:                                       /* Memory management.              
 680:uC-CPU\ARM-Cortex-M3\GNU/cpu_c.c ****              CPU_CRITICAL_ENTER();
 879              		.loc 1 680 0
 880 002a FFF7FEFF 		bl	CPU_SR_Save
 881              	.LVL135:
 681:uC-CPU\ARM-Cortex-M3\GNU/cpu_c.c ****              temp = CPU_REG_NVIC_SHPRI1;
 882              		.loc 1 681 0
 883 002e 364B     		ldr	r3, .L78+4
 884 0030 1C68     		ldr	r4, [r3]
 885              	.LVL136:
 682:uC-CPU\ARM-Cortex-M3\GNU/cpu_c.c ****              prio = (temp >> (0 * DEF_OCTET_NBR_BITS)) & DEF_OCTET_MASK;
 886              		.loc 1 682 0
 887 0032 E4B2     		uxtb	r4, r4
 888              	.LVL137:
 683:uC-CPU\ARM-Cortex-M3\GNU/cpu_c.c ****              CPU_CRITICAL_EXIT();
 889              		.loc 1 683 0
 890 0034 FFF7FEFF 		bl	CPU_SR_Restore
 891              	.LVL138:
 684:uC-CPU\ARM-Cortex-M3\GNU/cpu_c.c ****              break;
 892              		.loc 1 684 0
 893 0038 5BE0     		b	.L62
 894              	.LVL139:
 895              	.L66:
 685:uC-CPU\ARM-Cortex-M3\GNU/cpu_c.c **** 
 686:uC-CPU\ARM-Cortex-M3\GNU/cpu_c.c **** 
 687:uC-CPU\ARM-Cortex-M3\GNU/cpu_c.c ****         case CPU_INT_BUSFAULT:                                  /* Bus fault.                      
 688:uC-CPU\ARM-Cortex-M3\GNU/cpu_c.c ****              CPU_CRITICAL_ENTER();
 896              		.loc 1 688 0
 897 003a FFF7FEFF 		bl	CPU_SR_Save
 898              	.LVL140:
 689:uC-CPU\ARM-Cortex-M3\GNU/cpu_c.c ****              temp = CPU_REG_NVIC_SHPRI1;
 899              		.loc 1 689 0
 900 003e 324B     		ldr	r3, .L78+4
 901 0040 1C68     		ldr	r4, [r3]
 902              	.LVL141:
 690:uC-CPU\ARM-Cortex-M3\GNU/cpu_c.c ****              prio = (temp >> (1 * DEF_OCTET_NBR_BITS)) & DEF_OCTET_MASK;
 903              		.loc 1 690 0
 904 0042 C4F30724 		ubfx	r4, r4, #8, #8
 905              	.LVL142:
ARM GAS  C:\Users\jorti\AppData\Local\Temp\ccGiIgWV.s 			page 29


 691:uC-CPU\ARM-Cortex-M3\GNU/cpu_c.c ****              CPU_CRITICAL_EXIT();
 906              		.loc 1 691 0
 907 0046 FFF7FEFF 		bl	CPU_SR_Restore
 908              	.LVL143:
 692:uC-CPU\ARM-Cortex-M3\GNU/cpu_c.c ****              break;
 909              		.loc 1 692 0
 910 004a 52E0     		b	.L62
 911              	.LVL144:
 912              	.L67:
 693:uC-CPU\ARM-Cortex-M3\GNU/cpu_c.c **** 
 694:uC-CPU\ARM-Cortex-M3\GNU/cpu_c.c **** 
 695:uC-CPU\ARM-Cortex-M3\GNU/cpu_c.c ****         case CPU_INT_USAGEFAULT:                                /* Usage fault.                    
 696:uC-CPU\ARM-Cortex-M3\GNU/cpu_c.c ****              CPU_CRITICAL_ENTER();
 913              		.loc 1 696 0
 914 004c FFF7FEFF 		bl	CPU_SR_Save
 915              	.LVL145:
 697:uC-CPU\ARM-Cortex-M3\GNU/cpu_c.c ****              temp = CPU_REG_NVIC_SHPRI1;
 916              		.loc 1 697 0
 917 0050 2D4B     		ldr	r3, .L78+4
 918 0052 1C68     		ldr	r4, [r3]
 919              	.LVL146:
 698:uC-CPU\ARM-Cortex-M3\GNU/cpu_c.c ****              prio = (temp >> (2 * DEF_OCTET_NBR_BITS)) & DEF_OCTET_MASK;
 920              		.loc 1 698 0
 921 0054 C4F30744 		ubfx	r4, r4, #16, #8
 922              	.LVL147:
 699:uC-CPU\ARM-Cortex-M3\GNU/cpu_c.c ****              break;
 923              		.loc 1 699 0
 924 0058 4BE0     		b	.L62
 925              	.LVL148:
 926              	.L68:
 700:uC-CPU\ARM-Cortex-M3\GNU/cpu_c.c **** 
 701:uC-CPU\ARM-Cortex-M3\GNU/cpu_c.c ****         case CPU_INT_SVCALL:                                    /* SVCall.                         
 702:uC-CPU\ARM-Cortex-M3\GNU/cpu_c.c ****              CPU_CRITICAL_ENTER();
 927              		.loc 1 702 0
 928 005a FFF7FEFF 		bl	CPU_SR_Save
 929              	.LVL149:
 703:uC-CPU\ARM-Cortex-M3\GNU/cpu_c.c ****              temp = CPU_REG_NVIC_SHPRI2;
 930              		.loc 1 703 0
 931 005e 2B4B     		ldr	r3, .L78+8
 932 0060 1C68     		ldr	r4, [r3]
 933              	.LVL150:
 704:uC-CPU\ARM-Cortex-M3\GNU/cpu_c.c ****              prio = (temp >> (3 * DEF_OCTET_NBR_BITS)) & DEF_OCTET_MASK;
 934              		.loc 1 704 0
 935 0062 240E     		lsrs	r4, r4, #24
 936              	.LVL151:
 705:uC-CPU\ARM-Cortex-M3\GNU/cpu_c.c ****              CPU_CRITICAL_EXIT();
 937              		.loc 1 705 0
 938 0064 FFF7FEFF 		bl	CPU_SR_Restore
 939              	.LVL152:
 706:uC-CPU\ARM-Cortex-M3\GNU/cpu_c.c ****              break;
 940              		.loc 1 706 0
 941 0068 43E0     		b	.L62
 942              	.LVL153:
 943              	.L69:
 707:uC-CPU\ARM-Cortex-M3\GNU/cpu_c.c **** 
 708:uC-CPU\ARM-Cortex-M3\GNU/cpu_c.c ****         case CPU_INT_DBGMON:                                    /* Debug monitor.                  
 709:uC-CPU\ARM-Cortex-M3\GNU/cpu_c.c ****              CPU_CRITICAL_ENTER();
ARM GAS  C:\Users\jorti\AppData\Local\Temp\ccGiIgWV.s 			page 30


 944              		.loc 1 709 0
 945 006a FFF7FEFF 		bl	CPU_SR_Save
 946              	.LVL154:
 710:uC-CPU\ARM-Cortex-M3\GNU/cpu_c.c ****              temp = CPU_REG_NVIC_SHPRI3;
 947              		.loc 1 710 0
 948 006e 284B     		ldr	r3, .L78+12
 949 0070 1C68     		ldr	r4, [r3]
 950              	.LVL155:
 711:uC-CPU\ARM-Cortex-M3\GNU/cpu_c.c ****              prio = (temp >> (0 * DEF_OCTET_NBR_BITS)) & DEF_OCTET_MASK;
 951              		.loc 1 711 0
 952 0072 E4B2     		uxtb	r4, r4
 953              	.LVL156:
 712:uC-CPU\ARM-Cortex-M3\GNU/cpu_c.c ****              CPU_CRITICAL_EXIT();
 954              		.loc 1 712 0
 955 0074 FFF7FEFF 		bl	CPU_SR_Restore
 956              	.LVL157:
 713:uC-CPU\ARM-Cortex-M3\GNU/cpu_c.c ****              break;
 957              		.loc 1 713 0
 958 0078 3BE0     		b	.L62
 959              	.LVL158:
 960              	.L70:
 714:uC-CPU\ARM-Cortex-M3\GNU/cpu_c.c **** 
 715:uC-CPU\ARM-Cortex-M3\GNU/cpu_c.c ****         case CPU_INT_PENDSV:                                    /* PendSV.                         
 716:uC-CPU\ARM-Cortex-M3\GNU/cpu_c.c ****              CPU_CRITICAL_ENTER();
 961              		.loc 1 716 0
 962 007a FFF7FEFF 		bl	CPU_SR_Save
 963              	.LVL159:
 717:uC-CPU\ARM-Cortex-M3\GNU/cpu_c.c ****              temp = CPU_REG_NVIC_SHPRI3;
 964              		.loc 1 717 0
 965 007e 244B     		ldr	r3, .L78+12
 966 0080 1C68     		ldr	r4, [r3]
 967              	.LVL160:
 718:uC-CPU\ARM-Cortex-M3\GNU/cpu_c.c ****              prio = (temp >> (2 * DEF_OCTET_NBR_BITS)) & DEF_OCTET_MASK;
 968              		.loc 1 718 0
 969 0082 C4F30744 		ubfx	r4, r4, #16, #8
 970              	.LVL161:
 719:uC-CPU\ARM-Cortex-M3\GNU/cpu_c.c ****              CPU_CRITICAL_EXIT();
 971              		.loc 1 719 0
 972 0086 FFF7FEFF 		bl	CPU_SR_Restore
 973              	.LVL162:
 720:uC-CPU\ARM-Cortex-M3\GNU/cpu_c.c ****              break;
 974              		.loc 1 720 0
 975 008a 32E0     		b	.L62
 976              	.LVL163:
 977              	.L71:
 721:uC-CPU\ARM-Cortex-M3\GNU/cpu_c.c **** 
 722:uC-CPU\ARM-Cortex-M3\GNU/cpu_c.c ****         case CPU_INT_SYSTICK:                                   /* SysTick.                        
 723:uC-CPU\ARM-Cortex-M3\GNU/cpu_c.c ****              CPU_CRITICAL_ENTER();
 978              		.loc 1 723 0
 979 008c FFF7FEFF 		bl	CPU_SR_Save
 980              	.LVL164:
 724:uC-CPU\ARM-Cortex-M3\GNU/cpu_c.c ****              temp = CPU_REG_NVIC_SHPRI3;
 981              		.loc 1 724 0
 982 0090 1F4B     		ldr	r3, .L78+12
 983 0092 1C68     		ldr	r4, [r3]
 984              	.LVL165:
 725:uC-CPU\ARM-Cortex-M3\GNU/cpu_c.c ****              prio = (temp >> (3 * DEF_OCTET_NBR_BITS)) & DEF_OCTET_MASK;
ARM GAS  C:\Users\jorti\AppData\Local\Temp\ccGiIgWV.s 			page 31


 985              		.loc 1 725 0
 986 0094 240E     		lsrs	r4, r4, #24
 987              	.LVL166:
 726:uC-CPU\ARM-Cortex-M3\GNU/cpu_c.c ****              CPU_CRITICAL_EXIT();
 988              		.loc 1 726 0
 989 0096 FFF7FEFF 		bl	CPU_SR_Restore
 990              	.LVL167:
 727:uC-CPU\ARM-Cortex-M3\GNU/cpu_c.c ****              break;
 991              		.loc 1 727 0
 992 009a 2AE0     		b	.L62
 993              	.LVL168:
 994              	.L59:
 728:uC-CPU\ARM-Cortex-M3\GNU/cpu_c.c **** 
 729:uC-CPU\ARM-Cortex-M3\GNU/cpu_c.c **** 
 730:uC-CPU\ARM-Cortex-M3\GNU/cpu_c.c ****                                                                 /* ---------------- EXTERNAL INTERR
 731:uC-CPU\ARM-Cortex-M3\GNU/cpu_c.c ****         default:
 732:uC-CPU\ARM-Cortex-M3\GNU/cpu_c.c ****             pos_max = CPU_INT_SRC_POS_MAX;
 995              		.loc 1 732 0
 996 009c 1D4B     		ldr	r3, .L78+16
 997 009e 1B68     		ldr	r3, [r3]
 998 00a0 0133     		adds	r3, r3, #1
 999 00a2 03F01F03 		and	r3, r3, #31
 1000 00a6 5B01     		lsls	r3, r3, #5
 1001 00a8 1033     		adds	r3, r3, #16
 1002 00aa DBB2     		uxtb	r3, r3
 1003              	.LVL169:
 733:uC-CPU\ARM-Cortex-M3\GNU/cpu_c.c ****             if (pos < pos_max) {                                /* See Note #3.                    
 1004              		.loc 1 733 0
 1005 00ac 9842     		cmp	r0, r3
 1006 00ae 1FD2     		bcs	.L76
 734:uC-CPU\ARM-Cortex-M3\GNU/cpu_c.c ****                  group = (pos - 16) / 4;
 1007              		.loc 1 734 0
 1008 00b0 1038     		subs	r0, r0, #16
 1009              	.LVL170:
 1010 00b2 0346     		mov	r3, r0
 1011              	.LVL171:
 1012 00b4 0028     		cmp	r0, #0
 1013 00b6 00DA     		bge	.L72
 1014 00b8 C31C     		adds	r3, r0, #3
 1015              	.L72:
 1016 00ba 9C10     		asrs	r4, r3, #2
 1017              	.LVL172:
 735:uC-CPU\ARM-Cortex-M3\GNU/cpu_c.c ****                  nbr   = (pos - 16) % 4;
 1018              		.loc 1 735 0
 1019 00bc 164D     		ldr	r5, .L78+20
 1020 00be 0540     		ands	r5, r0, r5
 1021 00c0 03D5     		bpl	.L73
 1022 00c2 013D     		subs	r5, r5, #1
 1023 00c4 65F00305 		orn	r5, r5, #3
 1024 00c8 0135     		adds	r5, r5, #1
 1025              	.L73:
 1026              	.LVL173:
 736:uC-CPU\ARM-Cortex-M3\GNU/cpu_c.c **** 
 737:uC-CPU\ARM-Cortex-M3\GNU/cpu_c.c ****                  CPU_CRITICAL_ENTER();
 1027              		.loc 1 737 0
 1028 00ca FFF7FEFF 		bl	CPU_SR_Save
 1029              	.LVL174:
ARM GAS  C:\Users\jorti\AppData\Local\Temp\ccGiIgWV.s 			page 32


 738:uC-CPU\ARM-Cortex-M3\GNU/cpu_c.c ****                  temp  = CPU_REG_NVIC_PRIO(group);
 1030              		.loc 1 738 0
 1031 00ce E3B2     		uxtb	r3, r4
 1032 00d0 03F16053 		add	r3, r3, #939524096
 1033 00d4 03F56453 		add	r3, r3, #14592
 1034 00d8 9B00     		lsls	r3, r3, #2
 1035 00da 1C68     		ldr	r4, [r3]
 1036              	.LVL175:
 739:uC-CPU\ARM-Cortex-M3\GNU/cpu_c.c ****                  CPU_CRITICAL_EXIT();
 1037              		.loc 1 739 0
 1038 00dc FFF7FEFF 		bl	CPU_SR_Restore
 1039              	.LVL176:
 740:uC-CPU\ARM-Cortex-M3\GNU/cpu_c.c **** 
 741:uC-CPU\ARM-Cortex-M3\GNU/cpu_c.c ****                  prio  = (temp >> (nbr * DEF_OCTET_NBR_BITS)) & DEF_OCTET_MASK;
 1040              		.loc 1 741 0
 1041 00e0 E8B2     		uxtb	r0, r5
 1042 00e2 C000     		lsls	r0, r0, #3
 1043 00e4 C440     		lsrs	r4, r4, r0
 1044              	.LVL177:
 1045 00e6 E4B2     		uxtb	r4, r4
 1046              	.LVL178:
 1047 00e8 03E0     		b	.L62
 1048              	.LVL179:
 1049              	.L75:
 667:uC-CPU\ARM-Cortex-M3\GNU/cpu_c.c ****              break;
 1050              		.loc 1 667 0
 1051 00ea 6FF00204 		mvn	r4, #2
 1052 00ee 00E0     		b	.L62
 1053              	.LVL180:
 1054              	.L76:
 742:uC-CPU\ARM-Cortex-M3\GNU/cpu_c.c ****              } else {
 743:uC-CPU\ARM-Cortex-M3\GNU/cpu_c.c ****                  prio  = DEF_INT_16S_MIN_VAL;
 1055              		.loc 1 743 0
 1056 00f0 044C     		ldr	r4, .L78
 1057              	.LVL181:
 1058              	.L62:
 744:uC-CPU\ARM-Cortex-M3\GNU/cpu_c.c ****              }
 745:uC-CPU\ARM-Cortex-M3\GNU/cpu_c.c ****              break;
 746:uC-CPU\ARM-Cortex-M3\GNU/cpu_c.c ****     }
 747:uC-CPU\ARM-Cortex-M3\GNU/cpu_c.c **** 
 748:uC-CPU\ARM-Cortex-M3\GNU/cpu_c.c ****     if (prio >= 0) {
 1059              		.loc 1 748 0
 1060 00f2 002C     		cmp	r4, #0
 1061 00f4 03DB     		blt	.L74
 749:uC-CPU\ARM-Cortex-M3\GNU/cpu_c.c ****         prio_32 = CPU_RevBits((CPU_INT32U)prio);
 1062              		.loc 1 749 0
 1063 00f6 2046     		mov	r0, r4
 1064 00f8 FFF7FEFF 		bl	CPU_RevBits
 1065              	.LVL182:
 750:uC-CPU\ARM-Cortex-M3\GNU/cpu_c.c ****         prio    = (CPU_INT16S)(prio_32 >> (3 * DEF_OCTET_NBR_BITS));
 1066              		.loc 1 750 0
 1067 00fc 040E     		lsrs	r4, r0, #24
 1068              	.LVL183:
 1069              	.L74:
 751:uC-CPU\ARM-Cortex-M3\GNU/cpu_c.c ****     }
 752:uC-CPU\ARM-Cortex-M3\GNU/cpu_c.c **** 
 753:uC-CPU\ARM-Cortex-M3\GNU/cpu_c.c ****     return (prio);
ARM GAS  C:\Users\jorti\AppData\Local\Temp\ccGiIgWV.s 			page 33


 754:uC-CPU\ARM-Cortex-M3\GNU/cpu_c.c **** }
 1070              		.loc 1 754 0
 1071 00fe 2046     		mov	r0, r4
 1072 0100 38BD     		pop	{r3, r4, r5, pc}
 1073              	.LVL184:
 1074              	.L79:
 1075 0102 00BF     		.align	2
 1076              	.L78:
 1077 0104 0080FFFF 		.word	-32768
 1078 0108 18ED00E0 		.word	-536810216
 1079 010c 1CED00E0 		.word	-536810212
 1080 0110 20ED00E0 		.word	-536810208
 1081 0114 04E000E0 		.word	-536813564
 1082 0118 03000080 		.word	-2147483645
 1083              		.cfi_endproc
 1084              	.LFE7:
 1085              		.size	CPU_IntSrcPrioGet, .-CPU_IntSrcPrioGet
 1086              		.text
 1087              	.Letext0:
 1088              		.file 2 ".\\uC-CPU\\ARM-Cortex-M3\\GNU/cpu.h"