ARM GAS  C:\Users\jorti\AppData\Local\Temp\cckvUOlc.s 			page 1


   1              		.syntax unified
   2              		.cpu cortex-m3
   3              		.fpu softvfp
   4              		.eabi_attribute 20, 1
   5              		.eabi_attribute 21, 1
   6              		.eabi_attribute 23, 3
   7              		.eabi_attribute 24, 1
   8              		.eabi_attribute 25, 1
   9              		.eabi_attribute 26, 1
  10              		.eabi_attribute 30, 1
  11              		.eabi_attribute 34, 1
  12              		.eabi_attribute 18, 4
  13              		.thumb
  14              		.syntax unified
  15              		.file	"lib_math.c"
  16              		.text
  17              	.Ltext0:
  18              		.cfi_sections	.debug_frame
  19              		.section	.text.Math_RandSetSeed,"ax",%progbits
  20              		.align	2
  21              		.global	Math_RandSetSeed
  22              		.thumb
  23              		.thumb_func
  24              		.type	Math_RandSetSeed, %function
  25              	Math_RandSetSeed:
  26              	.LFB2:
  27              		.file 1 "uC-LIB\\lib_math.c"
   1:uC-LIB/lib_math.c **** /*
   2:uC-LIB/lib_math.c **** ***************************************************************************************************
   3:uC-LIB/lib_math.c **** *                                                uC/LIB
   4:uC-LIB/lib_math.c **** *                                        CUSTOM LIBRARY MODULES
   5:uC-LIB/lib_math.c **** *
   6:uC-LIB/lib_math.c **** *                          (c) Copyright 2004-2012; Micrium, Inc.; Weston, FL
   7:uC-LIB/lib_math.c **** *
   8:uC-LIB/lib_math.c **** *               All rights reserved.  Protected by international copyright laws.
   9:uC-LIB/lib_math.c **** *
  10:uC-LIB/lib_math.c **** *               uC/LIB is provided in source form to registered licensees ONLY.  It is 
  11:uC-LIB/lib_math.c **** *               illegal to distribute this source code to any third party unless you receive 
  12:uC-LIB/lib_math.c **** *               written permission by an authorized Micrium representative.  Knowledge of 
  13:uC-LIB/lib_math.c **** *               the source code may NOT be used to develop a similar product.
  14:uC-LIB/lib_math.c **** *
  15:uC-LIB/lib_math.c **** *               Please help us continue to provide the Embedded community with the finest 
  16:uC-LIB/lib_math.c **** *               software available.  Your honesty is greatly appreciated.
  17:uC-LIB/lib_math.c **** *
  18:uC-LIB/lib_math.c **** *               You can contact us at www.micrium.com.
  19:uC-LIB/lib_math.c **** ***************************************************************************************************
  20:uC-LIB/lib_math.c **** */
  21:uC-LIB/lib_math.c **** 
  22:uC-LIB/lib_math.c **** /*
  23:uC-LIB/lib_math.c **** ***************************************************************************************************
  24:uC-LIB/lib_math.c **** *
  25:uC-LIB/lib_math.c **** *                                        MATHEMATIC OPERATIONS
  26:uC-LIB/lib_math.c **** *
  27:uC-LIB/lib_math.c **** * Filename      : lib_math.c
  28:uC-LIB/lib_math.c **** * Version       : V1.37.00
  29:uC-LIB/lib_math.c **** * Programmer(s) : SR
  30:uC-LIB/lib_math.c **** *                 ITJ
ARM GAS  C:\Users\jorti\AppData\Local\Temp\cckvUOlc.s 			page 2


  31:uC-LIB/lib_math.c **** ***************************************************************************************************
  32:uC-LIB/lib_math.c **** * Note(s)       : (1) NO compiler-supplied standard library functions are used in library or produc
  33:uC-LIB/lib_math.c **** *
  34:uC-LIB/lib_math.c **** *                     (a) ALL standard library functions are implemented in the custom library modu
  35:uC-LIB/lib_math.c **** *
  36:uC-LIB/lib_math.c **** *                         (1) \<Custom Library Directory>\lib_*.*
  37:uC-LIB/lib_math.c **** *
  38:uC-LIB/lib_math.c **** *                         (2) \<Custom Library Directory>\Ports\<cpu>\<compiler>\lib*_a.*
  39:uC-LIB/lib_math.c **** *
  40:uC-LIB/lib_math.c **** *                               where
  41:uC-LIB/lib_math.c **** *                                       <Custom Library Directory>      directory path for custom l
  42:uC-LIB/lib_math.c **** *                                       <cpu>                           directory name for specific
  43:uC-LIB/lib_math.c **** *                                       <compiler>                      directory name for specific
  44:uC-LIB/lib_math.c **** *
  45:uC-LIB/lib_math.c **** *                     (b) Product-specific library functions are implemented in individual products
  46:uC-LIB/lib_math.c **** *
  47:uC-LIB/lib_math.c **** ***************************************************************************************************
  48:uC-LIB/lib_math.c **** * Notice(s)     : (1) The Institute of Electrical and Electronics Engineers and The Open Group, hav
  49:uC-LIB/lib_math.c **** *                     us permission to reprint portions of their documentation.  Portions of this t
  50:uC-LIB/lib_math.c **** *                     reprinted and reproduced in electronic form from the IEEE Std 1003.1, 2004 Ed
  51:uC-LIB/lib_math.c **** *                     Standard for Information Technology -- Portable Operating System Interface (P
  52:uC-LIB/lib_math.c **** *                     The Open Group Base Specifications Issue 6, Copyright (C) 2001-2004 by the In
  53:uC-LIB/lib_math.c **** *                     of Electrical and Electronics Engineers, Inc and The Open Group.  In the even
  54:uC-LIB/lib_math.c **** *                     discrepancy between these versions and the original IEEE and The Open Group S
  55:uC-LIB/lib_math.c **** *                     the original IEEE and The Open Group Standard is the referee document.  The o
  56:uC-LIB/lib_math.c **** *                     Standard can be obtained online at http://www.opengroup.org/unix/online.html.
  57:uC-LIB/lib_math.c **** ***************************************************************************************************
  58:uC-LIB/lib_math.c **** */
  59:uC-LIB/lib_math.c **** 
  60:uC-LIB/lib_math.c **** 
  61:uC-LIB/lib_math.c **** /*
  62:uC-LIB/lib_math.c **** ***************************************************************************************************
  63:uC-LIB/lib_math.c **** *                                            INCLUDE FILES
  64:uC-LIB/lib_math.c **** ***************************************************************************************************
  65:uC-LIB/lib_math.c **** */
  66:uC-LIB/lib_math.c **** 
  67:uC-LIB/lib_math.c **** #define    MICRIUM_SOURCE
  68:uC-LIB/lib_math.c **** #define    LIB_MATH_MODULE
  69:uC-LIB/lib_math.c **** #include  <lib_math.h>
  70:uC-LIB/lib_math.c **** 
  71:uC-LIB/lib_math.c **** 
  72:uC-LIB/lib_math.c **** /*$PAGE*/
  73:uC-LIB/lib_math.c **** /*
  74:uC-LIB/lib_math.c **** ***************************************************************************************************
  75:uC-LIB/lib_math.c **** *                                            LOCAL DEFINES
  76:uC-LIB/lib_math.c **** ***************************************************************************************************
  77:uC-LIB/lib_math.c **** */
  78:uC-LIB/lib_math.c **** 
  79:uC-LIB/lib_math.c **** 
  80:uC-LIB/lib_math.c **** /*
  81:uC-LIB/lib_math.c **** ***************************************************************************************************
  82:uC-LIB/lib_math.c **** *                                           LOCAL CONSTANTS
  83:uC-LIB/lib_math.c **** ***************************************************************************************************
  84:uC-LIB/lib_math.c **** */
  85:uC-LIB/lib_math.c **** 
  86:uC-LIB/lib_math.c **** 
  87:uC-LIB/lib_math.c **** /*
ARM GAS  C:\Users\jorti\AppData\Local\Temp\cckvUOlc.s 			page 3


  88:uC-LIB/lib_math.c **** ***************************************************************************************************
  89:uC-LIB/lib_math.c **** *                                          LOCAL DATA TYPES
  90:uC-LIB/lib_math.c **** ***************************************************************************************************
  91:uC-LIB/lib_math.c **** */
  92:uC-LIB/lib_math.c **** 
  93:uC-LIB/lib_math.c **** 
  94:uC-LIB/lib_math.c **** /*
  95:uC-LIB/lib_math.c **** ***************************************************************************************************
  96:uC-LIB/lib_math.c **** *                                            LOCAL TABLES
  97:uC-LIB/lib_math.c **** ***************************************************************************************************
  98:uC-LIB/lib_math.c **** */
  99:uC-LIB/lib_math.c **** 
 100:uC-LIB/lib_math.c **** 
 101:uC-LIB/lib_math.c **** /*
 102:uC-LIB/lib_math.c **** ***************************************************************************************************
 103:uC-LIB/lib_math.c **** *                                       LOCAL GLOBAL VARIABLES
 104:uC-LIB/lib_math.c **** ***************************************************************************************************
 105:uC-LIB/lib_math.c **** */
 106:uC-LIB/lib_math.c **** 
 107:uC-LIB/lib_math.c **** RAND_NBR  Math_RandSeedCur;                                     /* Cur rand nbr seed.              
 108:uC-LIB/lib_math.c **** 
 109:uC-LIB/lib_math.c **** 
 110:uC-LIB/lib_math.c **** /*
 111:uC-LIB/lib_math.c **** ***************************************************************************************************
 112:uC-LIB/lib_math.c **** *                                      LOCAL FUNCTION PROTOTYPES
 113:uC-LIB/lib_math.c **** ***************************************************************************************************
 114:uC-LIB/lib_math.c **** */
 115:uC-LIB/lib_math.c **** 
 116:uC-LIB/lib_math.c **** 
 117:uC-LIB/lib_math.c **** /*
 118:uC-LIB/lib_math.c **** ***************************************************************************************************
 119:uC-LIB/lib_math.c **** *                                     LOCAL CONFIGURATION ERRORS
 120:uC-LIB/lib_math.c **** ***************************************************************************************************
 121:uC-LIB/lib_math.c **** */
 122:uC-LIB/lib_math.c **** 
 123:uC-LIB/lib_math.c **** 
 124:uC-LIB/lib_math.c **** /*$PAGE*/
 125:uC-LIB/lib_math.c **** /*
 126:uC-LIB/lib_math.c **** ***************************************************************************************************
 127:uC-LIB/lib_math.c **** *                                             Math_Init()
 128:uC-LIB/lib_math.c **** *
 129:uC-LIB/lib_math.c **** * Description : (1) Initialize Mathematic Module :
 130:uC-LIB/lib_math.c **** *
 131:uC-LIB/lib_math.c **** *                   (a) Initialize random number seed value
 132:uC-LIB/lib_math.c **** *
 133:uC-LIB/lib_math.c **** *
 134:uC-LIB/lib_math.c **** * Argument(s) : none.
 135:uC-LIB/lib_math.c **** *
 136:uC-LIB/lib_math.c **** * Return(s)   : none.
 137:uC-LIB/lib_math.c **** *
 138:uC-LIB/lib_math.c **** * Caller(s)   : Application.
 139:uC-LIB/lib_math.c **** *
 140:uC-LIB/lib_math.c **** * Note(s)     : (2) IEEE Std 1003.1, 2004 Edition, Section 'rand() : DESCRIPTION' states that "if r
 141:uC-LIB/lib_math.c **** *                   is called before any calls to srand() are made, the same sequence shall be gene
 142:uC-LIB/lib_math.c **** *                   as when srand() is first called with a seed value of 1".
 143:uC-LIB/lib_math.c **** ***************************************************************************************************
 144:uC-LIB/lib_math.c **** */
ARM GAS  C:\Users\jorti\AppData\Local\Temp\cckvUOlc.s 			page 4


 145:uC-LIB/lib_math.c **** 
 146:uC-LIB/lib_math.c **** void  Math_Init (void)
 147:uC-LIB/lib_math.c **** {
 148:uC-LIB/lib_math.c ****     Math_RandSetSeed((RAND_NBR)RAND_SEED_INIT_VAL);             /* See Note #2.                    
 149:uC-LIB/lib_math.c **** }
 150:uC-LIB/lib_math.c **** 
 151:uC-LIB/lib_math.c **** 
 152:uC-LIB/lib_math.c **** /*$PAGE*/
 153:uC-LIB/lib_math.c **** /*
 154:uC-LIB/lib_math.c **** ***************************************************************************************************
 155:uC-LIB/lib_math.c **** *                                         Math_RandSetSeed()
 156:uC-LIB/lib_math.c **** *
 157:uC-LIB/lib_math.c **** * Description : Set the current pseudo-random number generator seed.
 158:uC-LIB/lib_math.c **** *
 159:uC-LIB/lib_math.c **** * Argument(s) : seed        Initial (or current) value to set for the pseudo-random number sequence
 160:uC-LIB/lib_math.c **** *
 161:uC-LIB/lib_math.c **** * Return(s)   : none.
 162:uC-LIB/lib_math.c **** *
 163:uC-LIB/lib_math.c **** * Caller(s)   : Application.
 164:uC-LIB/lib_math.c **** *
 165:uC-LIB/lib_math.c **** * Note(s)     : (1) IEEE Std 1003.1, 2004 Edition, Section 'rand() : DESCRIPTION' states that "sran
 166:uC-LIB/lib_math.c **** *                   ... uses the argument as a seed for a new sequence of pseudo-random numbers to 
 167:uC-LIB/lib_math.c **** *                   returned by subsequent calls to rand()".
 168:uC-LIB/lib_math.c **** *
 169:uC-LIB/lib_math.c **** *               (2) 'Math_RandSeedCur' MUST always be accessed exclusively in critical sections.
 170:uC-LIB/lib_math.c **** *
 171:uC-LIB/lib_math.c **** *                   See also 'Math_Rand()  Note #1b'.
 172:uC-LIB/lib_math.c **** ***************************************************************************************************
 173:uC-LIB/lib_math.c **** */
 174:uC-LIB/lib_math.c **** 
 175:uC-LIB/lib_math.c **** void  Math_RandSetSeed (RAND_NBR  seed)
 176:uC-LIB/lib_math.c **** {
  28              		.loc 1 176 0
  29              		.cfi_startproc
  30              		@ args = 0, pretend = 0, frame = 0
  31              		@ frame_needed = 0, uses_anonymous_args = 0
  32              	.LVL0:
  33 0000 10B5     		push	{r4, lr}
  34              		.cfi_def_cfa_offset 8
  35              		.cfi_offset 4, -8
  36              		.cfi_offset 14, -4
  37 0002 0446     		mov	r4, r0
  38              	.LVL1:
 177:uC-LIB/lib_math.c ****     CPU_SR_ALLOC();
 178:uC-LIB/lib_math.c **** 
 179:uC-LIB/lib_math.c **** 
 180:uC-LIB/lib_math.c ****     CPU_CRITICAL_ENTER();
  39              		.loc 1 180 0
  40 0004 FFF7FEFF 		bl	CPU_SR_Save
  41              	.LVL2:
 181:uC-LIB/lib_math.c ****     Math_RandSeedCur = seed;
  42              		.loc 1 181 0
  43 0008 024B     		ldr	r3, .L3
  44 000a 1C60     		str	r4, [r3]
 182:uC-LIB/lib_math.c ****     CPU_CRITICAL_EXIT();
  45              		.loc 1 182 0
  46 000c FFF7FEFF 		bl	CPU_SR_Restore
ARM GAS  C:\Users\jorti\AppData\Local\Temp\cckvUOlc.s 			page 5


  47              	.LVL3:
  48 0010 10BD     		pop	{r4, pc}
  49              	.LVL4:
  50              	.L4:
  51 0012 00BF     		.align	2
  52              	.L3:
  53 0014 00000000 		.word	Math_RandSeedCur
  54              		.cfi_endproc
  55              	.LFE2:
  56              		.size	Math_RandSetSeed, .-Math_RandSetSeed
  57              		.section	.text.Math_Init,"ax",%progbits
  58              		.align	2
  59              		.global	Math_Init
  60              		.thumb
  61              		.thumb_func
  62              		.type	Math_Init, %function
  63              	Math_Init:
  64              	.LFB1:
 147:uC-LIB/lib_math.c ****     Math_RandSetSeed((RAND_NBR)RAND_SEED_INIT_VAL);             /* See Note #2.                    
  65              		.loc 1 147 0
  66              		.cfi_startproc
  67              		@ args = 0, pretend = 0, frame = 0
  68              		@ frame_needed = 0, uses_anonymous_args = 0
  69 0000 08B5     		push	{r3, lr}
  70              		.cfi_def_cfa_offset 8
  71              		.cfi_offset 3, -8
  72              		.cfi_offset 14, -4
 148:uC-LIB/lib_math.c **** }
  73              		.loc 1 148 0
  74 0002 0120     		movs	r0, #1
  75 0004 FFF7FEFF 		bl	Math_RandSetSeed
  76              	.LVL5:
  77 0008 08BD     		pop	{r3, pc}
  78              		.cfi_endproc
  79              	.LFE1:
  80              		.size	Math_Init, .-Math_Init
  81 000a 00BF     		.section	.text.Math_RandSeed,"ax",%progbits
  82              		.align	2
  83              		.global	Math_RandSeed
  84              		.thumb
  85              		.thumb_func
  86              		.type	Math_RandSeed, %function
  87              	Math_RandSeed:
  88              	.LFB4:
 183:uC-LIB/lib_math.c **** }
 184:uC-LIB/lib_math.c **** 
 185:uC-LIB/lib_math.c **** 
 186:uC-LIB/lib_math.c **** /*$PAGE*/
 187:uC-LIB/lib_math.c **** /*
 188:uC-LIB/lib_math.c **** ***************************************************************************************************
 189:uC-LIB/lib_math.c **** *                                             Math_Rand()
 190:uC-LIB/lib_math.c **** *
 191:uC-LIB/lib_math.c **** * Description : Calculate the next pseudo-random number.
 192:uC-LIB/lib_math.c **** *
 193:uC-LIB/lib_math.c **** * Argument(s) : none.
 194:uC-LIB/lib_math.c **** *
 195:uC-LIB/lib_math.c **** * Return(s)   : Next pseudo-random number in the sequence after 'Math_RandSeedCur'.
ARM GAS  C:\Users\jorti\AppData\Local\Temp\cckvUOlc.s 			page 6


 196:uC-LIB/lib_math.c **** *
 197:uC-LIB/lib_math.c **** * Caller(s)   : Application.
 198:uC-LIB/lib_math.c **** *
 199:uC-LIB/lib_math.c **** * Note(s)     : (1) (a) The pseudo-random number generator is implemented as a Linear Congruential 
 200:uC-LIB/lib_math.c **** *                       Generator (LCG).
 201:uC-LIB/lib_math.c **** *
 202:uC-LIB/lib_math.c **** *                   (b) The pseudo-random number generated is in the range [0, RAND_LCG_PARAM_M].
 203:uC-LIB/lib_math.c **** *
 204:uC-LIB/lib_math.c **** *                   See also 'Math_RandSeed()  Note #1'.
 205:uC-LIB/lib_math.c **** *
 206:uC-LIB/lib_math.c **** *               (2) (a) IEEE Std 1003.1, 2004 Edition, Section 'rand() : DESCRIPTION' states that "
 207:uC-LIB/lib_math.c **** *                       ... need not be reentrant ... [and] is not required to be thread-safe".
 208:uC-LIB/lib_math.c **** *
 209:uC-LIB/lib_math.c **** *                   (b) However, in order to implement Math_Rand() as re-entrant; 'Math_RandSeedCur
 210:uC-LIB/lib_math.c **** *                       always be accessed & updated exclusively in critical sections.
 211:uC-LIB/lib_math.c **** *
 212:uC-LIB/lib_math.c **** *                   See also 'Math_RandSeed()  Note #2'.
 213:uC-LIB/lib_math.c **** ***************************************************************************************************
 214:uC-LIB/lib_math.c **** */
 215:uC-LIB/lib_math.c **** 
 216:uC-LIB/lib_math.c **** RAND_NBR  Math_Rand (void)
 217:uC-LIB/lib_math.c **** {
 218:uC-LIB/lib_math.c ****     RAND_NBR  seed;
 219:uC-LIB/lib_math.c ****     RAND_NBR  rand_nbr;
 220:uC-LIB/lib_math.c ****     CPU_SR_ALLOC();
 221:uC-LIB/lib_math.c **** 
 222:uC-LIB/lib_math.c **** 
 223:uC-LIB/lib_math.c ****     CPU_CRITICAL_ENTER();
 224:uC-LIB/lib_math.c ****     seed             = Math_RandSeedCur;
 225:uC-LIB/lib_math.c ****     rand_nbr         = Math_RandSeed(seed);
 226:uC-LIB/lib_math.c ****     Math_RandSeedCur = rand_nbr;
 227:uC-LIB/lib_math.c ****     CPU_CRITICAL_EXIT();
 228:uC-LIB/lib_math.c **** 
 229:uC-LIB/lib_math.c ****     return (rand_nbr);
 230:uC-LIB/lib_math.c **** }
 231:uC-LIB/lib_math.c **** 
 232:uC-LIB/lib_math.c **** 
 233:uC-LIB/lib_math.c **** /*$PAGE*/
 234:uC-LIB/lib_math.c **** /*
 235:uC-LIB/lib_math.c **** ***************************************************************************************************
 236:uC-LIB/lib_math.c **** *                                           Math_RandSeed()
 237:uC-LIB/lib_math.c **** *
 238:uC-LIB/lib_math.c **** * Description : Calculate the next pseudo-random number.
 239:uC-LIB/lib_math.c **** *
 240:uC-LIB/lib_math.c **** * Argument(s) : seed        Initial (or current) value for the pseudo-random number sequence.
 241:uC-LIB/lib_math.c **** *
 242:uC-LIB/lib_math.c **** * Return(s)   : Next pseudo-random number in the sequence after 'seed'.
 243:uC-LIB/lib_math.c **** *
 244:uC-LIB/lib_math.c **** * Caller(s)   : Math_Rand(),
 245:uC-LIB/lib_math.c **** *               Application.
 246:uC-LIB/lib_math.c **** *
 247:uC-LIB/lib_math.c **** * Note(s)     : (1) (a) BSD/ANSI-C implements rand() as a Linear Congruential Generator (LCG) :
 248:uC-LIB/lib_math.c **** *
 249:uC-LIB/lib_math.c **** *                       (A) random_number       =  [(a * random_number ) + b]  modulo m
 250:uC-LIB/lib_math.c **** *                                        n + 1                        n
 251:uC-LIB/lib_math.c **** *
 252:uC-LIB/lib_math.c **** *                               where
ARM GAS  C:\Users\jorti\AppData\Local\Temp\cckvUOlc.s 			page 7


 253:uC-LIB/lib_math.c **** *                                       (1) (a) random_number           Next     random number to g
 254:uC-LIB/lib_math.c **** *                                                            n+1
 255:uC-LIB/lib_math.c **** *                                           (b) random_number           Previous random number    g
 256:uC-LIB/lib_math.c **** *                                                            n
 257:uC-LIB/lib_math.c **** *
 258:uC-LIB/lib_math.c **** *                                       (2) a = RAND_LCG_PARAM_A        LCG multiplier
 259:uC-LIB/lib_math.c **** *                                       (3) b = RAND_LCG_PARAM_B        LCG incrementor
 260:uC-LIB/lib_math.c **** *                                       (4) m = RAND_LCG_PARAM_M + 1    LCG modulus
 261:uC-LIB/lib_math.c **** *
 262:uC-LIB/lib_math.c **** *                   (b) The pseudo-random number generated is in the range [0, RAND_LCG_PARAM_M].
 263:uC-LIB/lib_math.c **** *
 264:uC-LIB/lib_math.c ****                     See also 'lib_math.h  RANDOM NUMBER DEFINES  Note #1b'.
 265:uC-LIB/lib_math.c **** *
 266:uC-LIB/lib_math.c **** *               (2) (a) IEEE Std 1003.1, 2004 Edition, Section 'rand() : DESCRIPTION' states that "
 267:uC-LIB/lib_math.c **** *                       ... need not be reentrant ... [and] is not required to be thread-safe".
 268:uC-LIB/lib_math.c **** *
 269:uC-LIB/lib_math.c **** *                   (b) However, Math_RandSeed() is re-entrant since it calculates the next random 
 270:uC-LIB/lib_math.c **** *                       using ONLY local variables.
 271:uC-LIB/lib_math.c **** ***************************************************************************************************
 272:uC-LIB/lib_math.c **** */
 273:uC-LIB/lib_math.c **** 
 274:uC-LIB/lib_math.c **** RAND_NBR  Math_RandSeed (RAND_NBR  seed)
 275:uC-LIB/lib_math.c **** {
  89              		.loc 1 275 0
  90              		.cfi_startproc
  91              		@ args = 0, pretend = 0, frame = 0
  92              		@ frame_needed = 0, uses_anonymous_args = 0
  93              		@ link register save eliminated.
  94              	.LVL6:
 276:uC-LIB/lib_math.c ****     RAND_NBR  rand_nbr;
 277:uC-LIB/lib_math.c **** 
 278:uC-LIB/lib_math.c **** 
 279:uC-LIB/lib_math.c ****     rand_nbr = (((RAND_NBR)RAND_LCG_PARAM_A * seed) + (RAND_NBR)RAND_LCG_PARAM_B)  %  ((RAND_NBR)RA
  95              		.loc 1 279 0
  96 0000 43F23902 		movw	r2, #12345
  97 0004 024B     		ldr	r3, .L8
  98 0006 03FB0020 		mla	r0, r3, r0, r2
  99              	.LVL7:
 280:uC-LIB/lib_math.c **** 
 281:uC-LIB/lib_math.c ****     return (rand_nbr);
 282:uC-LIB/lib_math.c **** }
 100              		.loc 1 282 0
 101 000a 20F00040 		bic	r0, r0, #-2147483648
 102              	.LVL8:
 103 000e 7047     		bx	lr
 104              	.L9:
 105              		.align	2
 106              	.L8:
 107 0010 6D4EC641 		.word	1103515245
 108              		.cfi_endproc
 109              	.LFE4:
 110              		.size	Math_RandSeed, .-Math_RandSeed
 111              		.section	.text.Math_Rand,"ax",%progbits
 112              		.align	2
 113              		.global	Math_Rand
 114              		.thumb
 115              		.thumb_func
ARM GAS  C:\Users\jorti\AppData\Local\Temp\cckvUOlc.s 			page 8


 116              		.type	Math_Rand, %function
 117              	Math_Rand:
 118              	.LFB3:
 217:uC-LIB/lib_math.c ****     RAND_NBR  seed;
 119              		.loc 1 217 0
 120              		.cfi_startproc
 121              		@ args = 0, pretend = 0, frame = 0
 122              		@ frame_needed = 0, uses_anonymous_args = 0
 123 0000 70B5     		push	{r4, r5, r6, lr}
 124              		.cfi_def_cfa_offset 16
 125              		.cfi_offset 4, -16
 126              		.cfi_offset 5, -12
 127              		.cfi_offset 6, -8
 128              		.cfi_offset 14, -4
 129              	.LVL9:
 223:uC-LIB/lib_math.c ****     seed             = Math_RandSeedCur;
 130              		.loc 1 223 0
 131 0002 FFF7FEFF 		bl	CPU_SR_Save
 132              	.LVL10:
 133 0006 0646     		mov	r6, r0
 134              	.LVL11:
 224:uC-LIB/lib_math.c ****     rand_nbr         = Math_RandSeed(seed);
 135              		.loc 1 224 0
 136 0008 054D     		ldr	r5, .L12
 137              	.LVL12:
 225:uC-LIB/lib_math.c ****     Math_RandSeedCur = rand_nbr;
 138              		.loc 1 225 0
 139 000a 2868     		ldr	r0, [r5]
 140              	.LVL13:
 141 000c FFF7FEFF 		bl	Math_RandSeed
 142              	.LVL14:
 143 0010 0446     		mov	r4, r0
 144              	.LVL15:
 226:uC-LIB/lib_math.c ****     CPU_CRITICAL_EXIT();
 145              		.loc 1 226 0
 146 0012 2860     		str	r0, [r5]
 227:uC-LIB/lib_math.c **** 
 147              		.loc 1 227 0
 148 0014 3046     		mov	r0, r6
 149              	.LVL16:
 150 0016 FFF7FEFF 		bl	CPU_SR_Restore
 151              	.LVL17:
 230:uC-LIB/lib_math.c **** 
 152              		.loc 1 230 0
 153 001a 2046     		mov	r0, r4
 154 001c 70BD     		pop	{r4, r5, r6, pc}
 155              	.LVL18:
 156              	.L13:
 157 001e 00BF     		.align	2
 158              	.L12:
 159 0020 00000000 		.word	Math_RandSeedCur
 160              		.cfi_endproc
 161              	.LFE3:
 162              		.size	Math_Rand, .-Math_Rand
 163              		.comm	Math_RandSeedCur,4,4
 164              		.text
 165              	.Letext0:
ARM GAS  C:\Users\jorti\AppData\Local\Temp\cckvUOlc.s 			page 9


 166              		.file 2 ".\\uC-CPU\\ARM-Cortex-M3\\GNU/cpu.h"
 167              		.file 3 ".\\uC-LIB/lib_math.h"