ARM GAS  C:\Users\jorti\AppData\Local\Temp\ccPYlBX9.s 			page 1


   1              		.syntax unified
   2              		.cpu cortex-m3
   3              		.fpu softvfp
   4              		.eabi_attribute 20, 1
   5              		.eabi_attribute 21, 1
   6              		.eabi_attribute 23, 3
   7              		.eabi_attribute 24, 1
   8              		.eabi_attribute 25, 1
   9              		.eabi_attribute 26, 1
  10              		.eabi_attribute 30, 1
  11              		.eabi_attribute 34, 1
  12              		.eabi_attribute 18, 4
  13              		.thumb
  14              		.syntax unified
  15              		.file	"lib_mem.c"
  16              		.text
  17              	.Ltext0:
  18              		.cfi_sections	.debug_frame
  19              		.section	.text.Mem_Init,"ax",%progbits
  20              		.align	2
  21              		.global	Mem_Init
  22              		.thumb
  23              		.thumb_func
  24              		.type	Mem_Init, %function
  25              	Mem_Init:
  26              	.LFB1:
  27              		.file 1 "uC-LIB\\lib_mem.c"
   1:uC-LIB/lib_mem.c **** /*
   2:uC-LIB/lib_mem.c **** ***************************************************************************************************
   3:uC-LIB/lib_mem.c **** *                                                uC/LIB
   4:uC-LIB/lib_mem.c **** *                                        CUSTOM LIBRARY MODULES
   5:uC-LIB/lib_mem.c **** *
   6:uC-LIB/lib_mem.c **** *                          (c) Copyright 2004-2012; Micrium, Inc.; Weston, FL
   7:uC-LIB/lib_mem.c **** *
   8:uC-LIB/lib_mem.c **** *               All rights reserved.  Protected by international copyright laws.
   9:uC-LIB/lib_mem.c **** *
  10:uC-LIB/lib_mem.c **** *               uC/LIB is provided in source form to registered licensees ONLY.  It is
  11:uC-LIB/lib_mem.c **** *               illegal to distribute this source code to any third party unless you receive
  12:uC-LIB/lib_mem.c **** *               written permission by an authorized Micrium representative.  Knowledge of
  13:uC-LIB/lib_mem.c **** *               the source code may NOT be used to develop a similar product.
  14:uC-LIB/lib_mem.c **** *
  15:uC-LIB/lib_mem.c **** *               Please help us continue to provide the Embedded community with the finest
  16:uC-LIB/lib_mem.c **** *               software available.  Your honesty is greatly appreciated.
  17:uC-LIB/lib_mem.c **** *
  18:uC-LIB/lib_mem.c **** *               You can contact us at www.micrium.com.
  19:uC-LIB/lib_mem.c **** ***************************************************************************************************
  20:uC-LIB/lib_mem.c **** */
  21:uC-LIB/lib_mem.c **** 
  22:uC-LIB/lib_mem.c **** /*
  23:uC-LIB/lib_mem.c **** ***************************************************************************************************
  24:uC-LIB/lib_mem.c **** *
  25:uC-LIB/lib_mem.c **** *                                     STANDARD MEMORY OPERATIONS
  26:uC-LIB/lib_mem.c **** *
  27:uC-LIB/lib_mem.c **** * Filename      : lib_mem.c
  28:uC-LIB/lib_mem.c **** * Version       : V1.37.00
  29:uC-LIB/lib_mem.c **** * Programmer(s) : ITJ
  30:uC-LIB/lib_mem.c **** *                 FGK
ARM GAS  C:\Users\jorti\AppData\Local\Temp\ccPYlBX9.s 			page 2


  31:uC-LIB/lib_mem.c **** *                 JFD
  32:uC-LIB/lib_mem.c **** *                 FBJ
  33:uC-LIB/lib_mem.c **** ***************************************************************************************************
  34:uC-LIB/lib_mem.c **** * Note(s)       : (1) NO compiler-supplied standard library functions are used in library or produc
  35:uC-LIB/lib_mem.c **** *
  36:uC-LIB/lib_mem.c **** *                     (a) ALL standard library functions are implemented in the custom library modu
  37:uC-LIB/lib_mem.c **** *
  38:uC-LIB/lib_mem.c **** *                         (1) \<Custom Library Directory>\lib_*.*
  39:uC-LIB/lib_mem.c **** *
  40:uC-LIB/lib_mem.c **** *                         (2) \<Custom Library Directory>\Ports\<cpu>\<compiler>\lib*_a.*
  41:uC-LIB/lib_mem.c **** *
  42:uC-LIB/lib_mem.c **** *                               where
  43:uC-LIB/lib_mem.c **** *                                       <Custom Library Directory>      directory path for custom l
  44:uC-LIB/lib_mem.c **** *                                       <cpu>                           directory name for specific
  45:uC-LIB/lib_mem.c **** *                                       <compiler>                      directory name for specific
  46:uC-LIB/lib_mem.c **** *
  47:uC-LIB/lib_mem.c **** *                     (b) Product-specific library functions are implemented in individual products
  48:uC-LIB/lib_mem.c **** ***************************************************************************************************
  49:uC-LIB/lib_mem.c **** */
  50:uC-LIB/lib_mem.c **** 
  51:uC-LIB/lib_mem.c **** 
  52:uC-LIB/lib_mem.c **** /*
  53:uC-LIB/lib_mem.c **** ***************************************************************************************************
  54:uC-LIB/lib_mem.c **** *                                            INCLUDE FILES
  55:uC-LIB/lib_mem.c **** ***************************************************************************************************
  56:uC-LIB/lib_mem.c **** */
  57:uC-LIB/lib_mem.c **** 
  58:uC-LIB/lib_mem.c **** #define    MICRIUM_SOURCE
  59:uC-LIB/lib_mem.c **** #define    LIB_MEM_MODULE
  60:uC-LIB/lib_mem.c **** #include  <lib_mem.h>
  61:uC-LIB/lib_mem.c **** 
  62:uC-LIB/lib_mem.c **** 
  63:uC-LIB/lib_mem.c **** /*$PAGE*/
  64:uC-LIB/lib_mem.c **** /*
  65:uC-LIB/lib_mem.c **** ***************************************************************************************************
  66:uC-LIB/lib_mem.c **** *                                            LOCAL DEFINES
  67:uC-LIB/lib_mem.c **** ***************************************************************************************************
  68:uC-LIB/lib_mem.c **** */
  69:uC-LIB/lib_mem.c **** 
  70:uC-LIB/lib_mem.c **** 
  71:uC-LIB/lib_mem.c **** /*
  72:uC-LIB/lib_mem.c **** ***************************************************************************************************
  73:uC-LIB/lib_mem.c **** *                                           LOCAL CONSTANTS
  74:uC-LIB/lib_mem.c **** ***************************************************************************************************
  75:uC-LIB/lib_mem.c **** */
  76:uC-LIB/lib_mem.c **** 
  77:uC-LIB/lib_mem.c **** 
  78:uC-LIB/lib_mem.c **** /*
  79:uC-LIB/lib_mem.c **** ***************************************************************************************************
  80:uC-LIB/lib_mem.c **** *                                          LOCAL DATA TYPES
  81:uC-LIB/lib_mem.c **** ***************************************************************************************************
  82:uC-LIB/lib_mem.c **** */
  83:uC-LIB/lib_mem.c **** 
  84:uC-LIB/lib_mem.c **** 
  85:uC-LIB/lib_mem.c **** /*
  86:uC-LIB/lib_mem.c **** ***************************************************************************************************
  87:uC-LIB/lib_mem.c **** *                                            LOCAL TABLES
ARM GAS  C:\Users\jorti\AppData\Local\Temp\ccPYlBX9.s 			page 3


  88:uC-LIB/lib_mem.c **** ***************************************************************************************************
  89:uC-LIB/lib_mem.c **** */
  90:uC-LIB/lib_mem.c **** 
  91:uC-LIB/lib_mem.c **** 
  92:uC-LIB/lib_mem.c **** /*
  93:uC-LIB/lib_mem.c **** ***************************************************************************************************
  94:uC-LIB/lib_mem.c **** *                                       LOCAL GLOBAL VARIABLES
  95:uC-LIB/lib_mem.c **** ***************************************************************************************************
  96:uC-LIB/lib_mem.c **** */
  97:uC-LIB/lib_mem.c **** 
  98:uC-LIB/lib_mem.c **** #if     (LIB_MEM_CFG_ALLOC_EN == DEF_ENABLED)
  99:uC-LIB/lib_mem.c **** MEM_POOL    *Mem_PoolTbl;                                               /* Mem      pool/seg tbl.  
 100:uC-LIB/lib_mem.c **** MEM_POOL     Mem_PoolHeap;                                              /* Mem heap pool/seg.      
 101:uC-LIB/lib_mem.c **** 
 102:uC-LIB/lib_mem.c **** #ifndef  LIB_MEM_CFG_HEAP_BASE_ADDR
 103:uC-LIB/lib_mem.c **** CPU_INT08U   Mem_Heap[LIB_MEM_CFG_HEAP_SIZE];                           /* Mem heap.               
 104:uC-LIB/lib_mem.c **** #endif
 105:uC-LIB/lib_mem.c **** #endif
 106:uC-LIB/lib_mem.c **** 
 107:uC-LIB/lib_mem.c **** 
 108:uC-LIB/lib_mem.c **** /*
 109:uC-LIB/lib_mem.c **** ***************************************************************************************************
 110:uC-LIB/lib_mem.c **** *                                      LOCAL FUNCTION PROTOTYPES
 111:uC-LIB/lib_mem.c **** ***************************************************************************************************
 112:uC-LIB/lib_mem.c **** */
 113:uC-LIB/lib_mem.c **** 
 114:uC-LIB/lib_mem.c **** #if (LIB_MEM_CFG_ALLOC_EN == DEF_ENABLED)                               /* -------------- MEM POOL 
 115:uC-LIB/lib_mem.c **** 
 116:uC-LIB/lib_mem.c **** #if (LIB_MEM_CFG_ARG_CHK_EXT_EN == DEF_ENABLED)
 117:uC-LIB/lib_mem.c **** static  CPU_BOOLEAN   Mem_PoolBlkIsValidAddr(MEM_POOL          *pmem_pool,
 118:uC-LIB/lib_mem.c ****                                              void              *pmem_blk);
 119:uC-LIB/lib_mem.c **** #endif
 120:uC-LIB/lib_mem.c **** 
 121:uC-LIB/lib_mem.c **** 
 122:uC-LIB/lib_mem.c **** static  CPU_SIZE_T    Mem_SegCalcTotSize    (void              *pmem_addr,
 123:uC-LIB/lib_mem.c ****                                              MEM_POOL_BLK_QTY   blk_nbr,
 124:uC-LIB/lib_mem.c ****                                              CPU_SIZE_T         blk_size,
 125:uC-LIB/lib_mem.c ****                                              CPU_SIZE_T         blk_align);
 126:uC-LIB/lib_mem.c **** 
 127:uC-LIB/lib_mem.c **** static  void         *Mem_SegAlloc          (MEM_POOL          *pmem_pool,
 128:uC-LIB/lib_mem.c ****                                              CPU_SIZE_T         size,
 129:uC-LIB/lib_mem.c ****                                              CPU_SIZE_T         align);
 130:uC-LIB/lib_mem.c **** 
 131:uC-LIB/lib_mem.c **** #endif
 132:uC-LIB/lib_mem.c **** 
 133:uC-LIB/lib_mem.c **** 
 134:uC-LIB/lib_mem.c **** /*
 135:uC-LIB/lib_mem.c **** ***************************************************************************************************
 136:uC-LIB/lib_mem.c **** *                                     LOCAL CONFIGURATION ERRORS
 137:uC-LIB/lib_mem.c **** ***************************************************************************************************
 138:uC-LIB/lib_mem.c **** */
 139:uC-LIB/lib_mem.c **** 
 140:uC-LIB/lib_mem.c **** 
 141:uC-LIB/lib_mem.c **** /*$PAGE*/
 142:uC-LIB/lib_mem.c **** /*
 143:uC-LIB/lib_mem.c **** ***************************************************************************************************
 144:uC-LIB/lib_mem.c **** *                                             Mem_Init()
ARM GAS  C:\Users\jorti\AppData\Local\Temp\ccPYlBX9.s 			page 4


 145:uC-LIB/lib_mem.c **** *
 146:uC-LIB/lib_mem.c **** * Description : (1) Initialize Memory Management Module :
 147:uC-LIB/lib_mem.c **** *
 148:uC-LIB/lib_mem.c **** *                   (a) Initialize heap memory pool
 149:uC-LIB/lib_mem.c **** *                   (b) Initialize      memory pool table
 150:uC-LIB/lib_mem.c **** *
 151:uC-LIB/lib_mem.c **** *
 152:uC-LIB/lib_mem.c **** * Argument(s) : none.
 153:uC-LIB/lib_mem.c **** *
 154:uC-LIB/lib_mem.c **** * Return(s)   : none.
 155:uC-LIB/lib_mem.c **** *
 156:uC-LIB/lib_mem.c **** * Caller(s)   : Application.
 157:uC-LIB/lib_mem.c **** *
 158:uC-LIB/lib_mem.c **** * Note(s)     : (2) Mem_Init() MUST be called ... :
 159:uC-LIB/lib_mem.c **** *
 160:uC-LIB/lib_mem.c **** *                   (a) ONLY ONCE from a product's application; ...
 161:uC-LIB/lib_mem.c **** *                   (b) BEFORE product's application calls any memory library module function(s)
 162:uC-LIB/lib_mem.c **** ***************************************************************************************************
 163:uC-LIB/lib_mem.c **** */
 164:uC-LIB/lib_mem.c **** 
 165:uC-LIB/lib_mem.c **** void  Mem_Init (void)
 166:uC-LIB/lib_mem.c **** {
  28              		.loc 1 166 0
  29              		.cfi_startproc
  30              		@ args = 0, pretend = 0, frame = 0
  31              		@ frame_needed = 0, uses_anonymous_args = 0
  32              		@ link register save eliminated.
  33 0000 7047     		bx	lr
  34              		.cfi_endproc
  35              	.LFE1:
  36              		.size	Mem_Init, .-Mem_Init
  37 0002 00BF     		.section	.text.Mem_Set,"ax",%progbits
  38              		.align	2
  39              		.global	Mem_Set
  40              		.thumb
  41              		.thumb_func
  42              		.type	Mem_Set, %function
  43              	Mem_Set:
  44              	.LFB3:
 167:uC-LIB/lib_mem.c **** #if (LIB_MEM_CFG_ALLOC_EN == DEF_ENABLED)
 168:uC-LIB/lib_mem.c ****     MEM_POOL  *pmem_pool;
 169:uC-LIB/lib_mem.c **** 
 170:uC-LIB/lib_mem.c ****                                                                         /* --------- INIT MEM HEAP 
 171:uC-LIB/lib_mem.c ****     pmem_pool                   = (MEM_POOL   *)&Mem_PoolHeap;
 172:uC-LIB/lib_mem.c ****     pmem_pool->Type             = (LIB_MEM_TYPE) LIB_MEM_TYPE_HEAP;
 173:uC-LIB/lib_mem.c ****     pmem_pool->SegHeadPtr       = (MEM_POOL   *)&Mem_PoolHeap;          /* Heap seg head = heap seg
 174:uC-LIB/lib_mem.c ****     pmem_pool->SegPrevPtr       = (MEM_POOL   *) 0;
 175:uC-LIB/lib_mem.c ****     pmem_pool->SegNextPtr       = (MEM_POOL   *) 0;
 176:uC-LIB/lib_mem.c ****     pmem_pool->PoolPrevPtr      = (MEM_POOL   *) 0;
 177:uC-LIB/lib_mem.c ****     pmem_pool->PoolNextPtr      = (MEM_POOL   *) 0;
 178:uC-LIB/lib_mem.c ****     pmem_pool->PoolAddrStart    = (void       *) 0;
 179:uC-LIB/lib_mem.c ****     pmem_pool->PoolAddrEnd      = (void       *) 0;
 180:uC-LIB/lib_mem.c ****     pmem_pool->PoolPtrs         = (void      **) 0;
 181:uC-LIB/lib_mem.c ****     pmem_pool->BlkSize          = (CPU_SIZE_T  ) 0u;
 182:uC-LIB/lib_mem.c ****     pmem_pool->BlkNbr           = (CPU_SIZE_T  ) 0u;
 183:uC-LIB/lib_mem.c ****     pmem_pool->BlkIx            = (MEM_POOL_IX ) 0u;
 184:uC-LIB/lib_mem.c **** 
ARM GAS  C:\Users\jorti\AppData\Local\Temp\ccPYlBX9.s 			page 5


 185:uC-LIB/lib_mem.c **** #ifdef  LIB_MEM_CFG_HEAP_BASE_ADDR
 186:uC-LIB/lib_mem.c ****     pmem_pool->SegAddr          = (void       *) LIB_MEM_CFG_HEAP_BASE_ADDR;
 187:uC-LIB/lib_mem.c ****     pmem_pool->SegAddrNextAvail = (void       *) LIB_MEM_CFG_HEAP_BASE_ADDR;
 188:uC-LIB/lib_mem.c **** #else
 189:uC-LIB/lib_mem.c ****     pmem_pool->SegAddr          = (void       *)&Mem_Heap[0];
 190:uC-LIB/lib_mem.c ****     pmem_pool->SegAddrNextAvail = (void       *)&Mem_Heap[0];
 191:uC-LIB/lib_mem.c **** #endif
 192:uC-LIB/lib_mem.c **** 
 193:uC-LIB/lib_mem.c ****     pmem_pool->SegSizeTot       = (CPU_SIZE_T  ) LIB_MEM_CFG_HEAP_SIZE;
 194:uC-LIB/lib_mem.c ****     pmem_pool->SegSizeRem       = (CPU_SIZE_T  ) LIB_MEM_CFG_HEAP_SIZE;
 195:uC-LIB/lib_mem.c **** 
 196:uC-LIB/lib_mem.c ****                                                                         /* ------------ INIT MEM PO
 197:uC-LIB/lib_mem.c ****     Mem_PoolTbl = &Mem_PoolHeap;
 198:uC-LIB/lib_mem.c **** #endif
 199:uC-LIB/lib_mem.c **** }
 200:uC-LIB/lib_mem.c **** 
 201:uC-LIB/lib_mem.c **** 
 202:uC-LIB/lib_mem.c **** /*$PAGE*/
 203:uC-LIB/lib_mem.c **** /*
 204:uC-LIB/lib_mem.c **** ***************************************************************************************************
 205:uC-LIB/lib_mem.c **** *                                              Mem_Clr()
 206:uC-LIB/lib_mem.c **** *
 207:uC-LIB/lib_mem.c **** * Description : Clear data buffer (see Note #2).
 208:uC-LIB/lib_mem.c **** *
 209:uC-LIB/lib_mem.c **** * Argument(s) : pmem        Pointer to memory buffer to clear.
 210:uC-LIB/lib_mem.c **** *
 211:uC-LIB/lib_mem.c **** *               size        Number of data buffer octets to clear (see Note #1).
 212:uC-LIB/lib_mem.c **** *
 213:uC-LIB/lib_mem.c **** * Return(s)   : none.
 214:uC-LIB/lib_mem.c **** *
 215:uC-LIB/lib_mem.c **** * Caller(s)   : Application.
 216:uC-LIB/lib_mem.c **** *
 217:uC-LIB/lib_mem.c **** * Note(s)     : (1) Null clears allowed (i.e. zero-length clears).
 218:uC-LIB/lib_mem.c **** *
 219:uC-LIB/lib_mem.c **** *                   See also 'Mem_Set()  Note #1'.
 220:uC-LIB/lib_mem.c **** *
 221:uC-LIB/lib_mem.c **** *               (2) Clear data by setting each data octet to 0.
 222:uC-LIB/lib_mem.c **** ***************************************************************************************************
 223:uC-LIB/lib_mem.c **** */
 224:uC-LIB/lib_mem.c **** 
 225:uC-LIB/lib_mem.c **** void  Mem_Clr (void        *pmem,
 226:uC-LIB/lib_mem.c ****                CPU_SIZE_T   size)
 227:uC-LIB/lib_mem.c **** {
 228:uC-LIB/lib_mem.c ****     Mem_Set(pmem,
 229:uC-LIB/lib_mem.c ****             0u,                                                 /* See Note #2.                    
 230:uC-LIB/lib_mem.c ****             size);
 231:uC-LIB/lib_mem.c **** }
 232:uC-LIB/lib_mem.c **** 
 233:uC-LIB/lib_mem.c **** 
 234:uC-LIB/lib_mem.c **** /*$PAGE*/
 235:uC-LIB/lib_mem.c **** /*
 236:uC-LIB/lib_mem.c **** ***************************************************************************************************
 237:uC-LIB/lib_mem.c **** *                                              Mem_Set()
 238:uC-LIB/lib_mem.c **** *
 239:uC-LIB/lib_mem.c **** * Description : Fill data buffer with specified data octet.
 240:uC-LIB/lib_mem.c **** *
 241:uC-LIB/lib_mem.c **** * Argument(s) : pmem        Pointer to memory buffer to fill with specified data octet.
ARM GAS  C:\Users\jorti\AppData\Local\Temp\ccPYlBX9.s 			page 6


 242:uC-LIB/lib_mem.c **** *
 243:uC-LIB/lib_mem.c **** *               data_val    Data fill octet value.
 244:uC-LIB/lib_mem.c **** *
 245:uC-LIB/lib_mem.c **** *               size        Number of data buffer octets to fill (see Note #1).
 246:uC-LIB/lib_mem.c **** *
 247:uC-LIB/lib_mem.c **** * Return(s)   : none.
 248:uC-LIB/lib_mem.c **** *
 249:uC-LIB/lib_mem.c **** * Caller(s)   : Application.
 250:uC-LIB/lib_mem.c **** *
 251:uC-LIB/lib_mem.c **** * Note(s)     : (1) Null sets allowed (i.e. zero-length sets).
 252:uC-LIB/lib_mem.c **** *
 253:uC-LIB/lib_mem.c **** *               (2) For best CPU performance, optimized to fill data buffer using 'CPU_ALIGN'-sized
 254:uC-LIB/lib_mem.c **** *                   words.
 255:uC-LIB/lib_mem.c **** *
 256:uC-LIB/lib_mem.c **** *                   (a) Since many word-aligned processors REQUIRE that multi-octet words be access
 257:uC-LIB/lib_mem.c **** *                       word-aligned addresses, 'CPU_ALIGN'-sized words MUST be accessed on 'CPU_AL
 258:uC-LIB/lib_mem.c **** *                       addresses.
 259:uC-LIB/lib_mem.c **** *
 260:uC-LIB/lib_mem.c **** *               (3) Modulo arithmetic is used to determine whether a memory buffer starts on a 'CPU
 261:uC-LIB/lib_mem.c **** *                   address boundary.
 262:uC-LIB/lib_mem.c **** *
 263:uC-LIB/lib_mem.c **** *                   Modulo arithmetic in ANSI-C REQUIREs operations performed on integer values.  T
 264:uC-LIB/lib_mem.c **** *                   address values MUST be cast to an appropriately-sized integer value PRIOR to an
 265:uC-LIB/lib_mem.c **** *                  'mem_align_mod' arithmetic operation.
 266:uC-LIB/lib_mem.c **** ***************************************************************************************************
 267:uC-LIB/lib_mem.c **** */
 268:uC-LIB/lib_mem.c **** 
 269:uC-LIB/lib_mem.c **** void  Mem_Set (void        *pmem,
 270:uC-LIB/lib_mem.c ****                CPU_INT08U   data_val,
 271:uC-LIB/lib_mem.c ****                CPU_SIZE_T   size)
 272:uC-LIB/lib_mem.c **** {
  45              		.loc 1 272 0
  46              		.cfi_startproc
  47              		@ args = 0, pretend = 0, frame = 0
  48              		@ frame_needed = 0, uses_anonymous_args = 0
  49              		@ link register save eliminated.
  50              	.LVL0:
  51              		.loc 1 272 0
  52 0000 10B4     		push	{r4}
  53              		.cfi_def_cfa_offset 4
  54              		.cfi_offset 4, -4
  55              	.LVL1:
 273:uC-LIB/lib_mem.c ****     CPU_SIZE_T   size_rem;
 274:uC-LIB/lib_mem.c ****     CPU_ALIGN    data_align;
 275:uC-LIB/lib_mem.c ****     CPU_ALIGN   *pmem_align;
 276:uC-LIB/lib_mem.c ****     CPU_INT08U  *pmem_08;
 277:uC-LIB/lib_mem.c ****     CPU_DATA     mem_align_mod;
 278:uC-LIB/lib_mem.c ****     CPU_DATA     i;
 279:uC-LIB/lib_mem.c **** 
 280:uC-LIB/lib_mem.c **** 
 281:uC-LIB/lib_mem.c **** #if (LIB_MEM_CFG_ARG_CHK_EXT_EN == DEF_ENABLED)
 282:uC-LIB/lib_mem.c ****     if (size < 1) {                                             /* See Note #1.                    
 283:uC-LIB/lib_mem.c ****         return;
 284:uC-LIB/lib_mem.c ****     }
 285:uC-LIB/lib_mem.c ****     if (pmem == (void *)0) {
 286:uC-LIB/lib_mem.c ****         return;
 287:uC-LIB/lib_mem.c ****     }
ARM GAS  C:\Users\jorti\AppData\Local\Temp\ccPYlBX9.s 			page 7


 288:uC-LIB/lib_mem.c **** #endif
 289:uC-LIB/lib_mem.c **** 
 290:uC-LIB/lib_mem.c **** 
 291:uC-LIB/lib_mem.c ****     data_align = 0u;
 292:uC-LIB/lib_mem.c ****     for (i = 0u; i < sizeof(CPU_ALIGN); i++) {                  /* Fill each data_align octet with 
  56              		.loc 1 292 0
  57 0002 0024     		movs	r4, #0
 291:uC-LIB/lib_mem.c ****     for (i = 0u; i < sizeof(CPU_ALIGN); i++) {                  /* Fill each data_align octet with 
  58              		.loc 1 291 0
  59 0004 2346     		mov	r3, r4
  60              		.loc 1 292 0
  61 0006 02E0     		b	.L3
  62              	.LVL2:
  63              	.L4:
 293:uC-LIB/lib_mem.c ****         data_align <<=  DEF_OCTET_NBR_BITS;
 294:uC-LIB/lib_mem.c ****         data_align  |= (CPU_ALIGN)data_val;
  64              		.loc 1 294 0 discriminator 3
  65 0008 41EA0323 		orr	r3, r1, r3, lsl #8
  66              	.LVL3:
 292:uC-LIB/lib_mem.c ****         data_align <<=  DEF_OCTET_NBR_BITS;
  67              		.loc 1 292 0 discriminator 3
  68 000c 0134     		adds	r4, r4, #1
  69              	.LVL4:
  70              	.L3:
 292:uC-LIB/lib_mem.c ****         data_align <<=  DEF_OCTET_NBR_BITS;
  71              		.loc 1 292 0 is_stmt 0 discriminator 1
  72 000e 032C     		cmp	r4, #3
  73 0010 FAD9     		bls	.L4
  74              	.LVL5:
 295:uC-LIB/lib_mem.c ****     }
 296:uC-LIB/lib_mem.c **** 
 297:uC-LIB/lib_mem.c ****     size_rem      =  size;
 298:uC-LIB/lib_mem.c ****     mem_align_mod = (CPU_INT08U)((CPU_ADDR)pmem % sizeof(CPU_ALIGN));   /* See Note #3.            
 299:uC-LIB/lib_mem.c **** 
 300:uC-LIB/lib_mem.c ****     pmem_08 = (CPU_INT08U *)pmem;
 301:uC-LIB/lib_mem.c ****     if (mem_align_mod != 0u) {                                  /* If leading octets avail,        
  75              		.loc 1 301 0 is_stmt 1
  76 0012 10F00304 		ands	r4, r0, #3
  77              	.LVL6:
  78 0016 04D1     		bne	.L5
  79 0018 0AE0     		b	.L8
  80              	.LVL7:
  81              	.L9:
 302:uC-LIB/lib_mem.c ****         i = mem_align_mod;
 303:uC-LIB/lib_mem.c ****         while ((size_rem > 0) &&                                /* ... start mem buf fill with lead
 304:uC-LIB/lib_mem.c ****                (i        < sizeof(CPU_ALIGN ))) {               /* ... until next CPU_ALIGN word bo
 305:uC-LIB/lib_mem.c ****            *pmem_08++ = data_val;
  82              		.loc 1 305 0
  83 001a 0170     		strb	r1, [r0]
 306:uC-LIB/lib_mem.c ****             size_rem -= sizeof(CPU_INT08U);
  84              		.loc 1 306 0
  85 001c 013A     		subs	r2, r2, #1
  86              	.LVL8:
 307:uC-LIB/lib_mem.c ****             i++;
  87              		.loc 1 307 0
  88 001e 0134     		adds	r4, r4, #1
  89              	.LVL9:
ARM GAS  C:\Users\jorti\AppData\Local\Temp\ccPYlBX9.s 			page 8


 305:uC-LIB/lib_mem.c ****             size_rem -= sizeof(CPU_INT08U);
  90              		.loc 1 305 0
  91 0020 0130     		adds	r0, r0, #1
  92              	.LVL10:
  93              	.L5:
 303:uC-LIB/lib_mem.c ****                (i        < sizeof(CPU_ALIGN ))) {               /* ... until next CPU_ALIGN word bo
  94              		.loc 1 303 0
  95 0022 2AB1     		cbz	r2, .L8
 303:uC-LIB/lib_mem.c ****                (i        < sizeof(CPU_ALIGN ))) {               /* ... until next CPU_ALIGN word bo
  96              		.loc 1 303 0 is_stmt 0 discriminator 1
  97 0024 032C     		cmp	r4, #3
  98 0026 F8D9     		bls	.L9
  99 0028 02E0     		b	.L8
 100              	.LVL11:
 101              	.L10:
 308:uC-LIB/lib_mem.c ****         }
 309:uC-LIB/lib_mem.c ****     }
 310:uC-LIB/lib_mem.c **** 
 311:uC-LIB/lib_mem.c ****     pmem_align = (CPU_ALIGN *)pmem_08;                          /* See Note #2a.                   
 312:uC-LIB/lib_mem.c ****     while (size_rem >= sizeof(CPU_ALIGN)) {                     /* While mem buf aligned on CPU_ALI
 313:uC-LIB/lib_mem.c ****        *pmem_align++ = data_align;                              /* ... fill mem buf with    CPU_ALI
 102              		.loc 1 313 0 is_stmt 1
 103 002a 0360     		str	r3, [r0]
 314:uC-LIB/lib_mem.c ****         size_rem    -= sizeof(CPU_ALIGN);
 104              		.loc 1 314 0
 105 002c 043A     		subs	r2, r2, #4
 106              	.LVL12:
 313:uC-LIB/lib_mem.c ****         size_rem    -= sizeof(CPU_ALIGN);
 107              		.loc 1 313 0
 108 002e 0430     		adds	r0, r0, #4
 109              	.LVL13:
 110              	.L8:
 312:uC-LIB/lib_mem.c ****        *pmem_align++ = data_align;                              /* ... fill mem buf with    CPU_ALI
 111              		.loc 1 312 0
 112 0030 032A     		cmp	r2, #3
 113 0032 FAD8     		bhi	.L10
 114 0034 02E0     		b	.L11
 115              	.LVL14:
 116              	.L12:
 315:uC-LIB/lib_mem.c ****     }
 316:uC-LIB/lib_mem.c **** 
 317:uC-LIB/lib_mem.c ****     pmem_08 = (CPU_INT08U *)pmem_align;
 318:uC-LIB/lib_mem.c ****     while (size_rem > 0) {                                      /* Finish mem buf fill with trailin
 319:uC-LIB/lib_mem.c ****        *pmem_08++   = data_val;
 117              		.loc 1 319 0
 118 0036 0170     		strb	r1, [r0]
 320:uC-LIB/lib_mem.c ****         size_rem   -= sizeof(CPU_INT08U);
 119              		.loc 1 320 0
 120 0038 013A     		subs	r2, r2, #1
 121              	.LVL15:
 319:uC-LIB/lib_mem.c ****         size_rem   -= sizeof(CPU_INT08U);
 122              		.loc 1 319 0
 123 003a 0130     		adds	r0, r0, #1
 124              	.LVL16:
 125              	.L11:
 318:uC-LIB/lib_mem.c ****        *pmem_08++   = data_val;
 126              		.loc 1 318 0
ARM GAS  C:\Users\jorti\AppData\Local\Temp\ccPYlBX9.s 			page 9


 127 003c 002A     		cmp	r2, #0
 128 003e FAD1     		bne	.L12
 321:uC-LIB/lib_mem.c ****     }
 322:uC-LIB/lib_mem.c **** }
 129              		.loc 1 322 0
 130 0040 10BC     		pop	{r4}
 131              		.cfi_restore 4
 132              		.cfi_def_cfa_offset 0
 133 0042 7047     		bx	lr
 134              		.cfi_endproc
 135              	.LFE3:
 136              		.size	Mem_Set, .-Mem_Set
 137              		.section	.text.Mem_Clr,"ax",%progbits
 138              		.align	2
 139              		.global	Mem_Clr
 140              		.thumb
 141              		.thumb_func
 142              		.type	Mem_Clr, %function
 143              	Mem_Clr:
 144              	.LFB2:
 227:uC-LIB/lib_mem.c ****     Mem_Set(pmem,
 145              		.loc 1 227 0
 146              		.cfi_startproc
 147              		@ args = 0, pretend = 0, frame = 0
 148              		@ frame_needed = 0, uses_anonymous_args = 0
 149              	.LVL17:
 150 0000 08B5     		push	{r3, lr}
 151              		.cfi_def_cfa_offset 8
 152              		.cfi_offset 3, -8
 153              		.cfi_offset 14, -4
 228:uC-LIB/lib_mem.c ****             0u,                                                 /* See Note #2.                    
 154              		.loc 1 228 0
 155 0002 0A46     		mov	r2, r1
 156 0004 0021     		movs	r1, #0
 157              	.LVL18:
 158 0006 FFF7FEFF 		bl	Mem_Set
 159              	.LVL19:
 160 000a 08BD     		pop	{r3, pc}
 161              		.cfi_endproc
 162              	.LFE2:
 163              		.size	Mem_Clr, .-Mem_Clr
 164              		.section	.text.Mem_Copy,"ax",%progbits
 165              		.align	2
 166              		.global	Mem_Copy
 167              		.thumb
 168              		.thumb_func
 169              		.type	Mem_Copy, %function
 170              	Mem_Copy:
 171              	.LFB4:
 323:uC-LIB/lib_mem.c **** 
 324:uC-LIB/lib_mem.c **** 
 325:uC-LIB/lib_mem.c **** /*$PAGE*/
 326:uC-LIB/lib_mem.c **** /*
 327:uC-LIB/lib_mem.c **** ***************************************************************************************************
 328:uC-LIB/lib_mem.c **** *                                             Mem_Copy()
 329:uC-LIB/lib_mem.c **** *
 330:uC-LIB/lib_mem.c **** * Description : Copy data octets from one memory buffer to another memory buffer.
ARM GAS  C:\Users\jorti\AppData\Local\Temp\ccPYlBX9.s 			page 10


 331:uC-LIB/lib_mem.c **** *
 332:uC-LIB/lib_mem.c **** * Argument(s) : pdest       Pointer to destination memory buffer.
 333:uC-LIB/lib_mem.c **** *
 334:uC-LIB/lib_mem.c **** *               psrc        Pointer to source      memory buffer.
 335:uC-LIB/lib_mem.c **** *
 336:uC-LIB/lib_mem.c **** *               size        Number of octets to copy (see Note #1).
 337:uC-LIB/lib_mem.c **** *
 338:uC-LIB/lib_mem.c **** * Return(s)   : none.
 339:uC-LIB/lib_mem.c **** *
 340:uC-LIB/lib_mem.c **** * Caller(s)   : Application.
 341:uC-LIB/lib_mem.c **** *
 342:uC-LIB/lib_mem.c **** * Note(s)     : (1) Null copies allowed (i.e. zero-length copies).
 343:uC-LIB/lib_mem.c **** *
 344:uC-LIB/lib_mem.c **** *               (2) Memory buffers NOT checked for overlapping.
 345:uC-LIB/lib_mem.c **** *
 346:uC-LIB/lib_mem.c **** *                   (a) IEEE Std 1003.1, 2004 Edition, Section 'memcpy() : DESCRIPTION' states that
 347:uC-LIB/lib_mem.c **** *                       copying takes place between objects that overlap, the behavior is undefined
 348:uC-LIB/lib_mem.c **** *
 349:uC-LIB/lib_mem.c **** *                   (b) However, data octets from a source memory buffer at a higher address value 
 350:uC-LIB/lib_mem.c **** *                       successfully copy to a destination memory buffer at a lower  address value 
 351:uC-LIB/lib_mem.c **** *                       if any octets of the memory buffers overlap as long as no individual, atomi
 352:uC-LIB/lib_mem.c **** *                       word copy overlaps.
 353:uC-LIB/lib_mem.c **** *
 354:uC-LIB/lib_mem.c **** *                       Since Mem_Copy() performs the data octet copy via 'CPU_ALIGN'-sized words &
 355:uC-LIB/lib_mem.c **** *                       octets; & since 'CPU_ALIGN'-sized words MUST be accessed on word-aligned ad
 356:uC-LIB/lib_mem.c **** *                       (see Note #3b), neither 'CPU_ALIGN'-sized words nor octets at unique addres
 357:uC-LIB/lib_mem.c **** *                       ever overlap.
 358:uC-LIB/lib_mem.c **** *
 359:uC-LIB/lib_mem.c **** *                       Therefore, Mem_Copy() SHOULD be able to successfully copy overlapping memor
 360:uC-LIB/lib_mem.c **** *                       buffers as long as the source memory buffer is at a higher address value th
 361:uC-LIB/lib_mem.c **** *                       destination memory buffer.
 362:uC-LIB/lib_mem.c **** *
 363:uC-LIB/lib_mem.c **** *               (3) For best CPU performance, optimized to copy data buffer using 'CPU_ALIGN'-sized
 364:uC-LIB/lib_mem.c **** *                   words.
 365:uC-LIB/lib_mem.c **** *
 366:uC-LIB/lib_mem.c **** *                   (a) Since many word-aligned processors REQUIRE that multi-octet words be access
 367:uC-LIB/lib_mem.c **** *                       word-aligned addresses, 'CPU_ALIGN'-sized words MUST be accessed on 'CPU_AL
 368:uC-LIB/lib_mem.c **** *                       addresses.
 369:uC-LIB/lib_mem.c **** *
 370:uC-LIB/lib_mem.c **** *               (4) Modulo arithmetic is used to determine whether a memory buffer starts on a 'CPU
 371:uC-LIB/lib_mem.c **** *                   address boundary.
 372:uC-LIB/lib_mem.c **** *
 373:uC-LIB/lib_mem.c **** *                   Modulo arithmetic in ANSI-C REQUIREs operations performed on integer values.  T
 374:uC-LIB/lib_mem.c **** *                   address values MUST be cast to an appropriately-sized integer value PRIOR to an
 375:uC-LIB/lib_mem.c **** *                  'mem_align_mod' arithmetic operation.
 376:uC-LIB/lib_mem.c **** ***************************************************************************************************
 377:uC-LIB/lib_mem.c **** */
 378:uC-LIB/lib_mem.c **** /*$PAGE*/
 379:uC-LIB/lib_mem.c **** #if (LIB_MEM_CFG_OPTIMIZE_ASM_EN != DEF_ENABLED)
 380:uC-LIB/lib_mem.c **** void  Mem_Copy (       void        *pdest,
 381:uC-LIB/lib_mem.c ****                 const  void        *psrc,
 382:uC-LIB/lib_mem.c ****                        CPU_SIZE_T   size)
 383:uC-LIB/lib_mem.c **** {
 172              		.loc 1 383 0
 173              		.cfi_startproc
 174              		@ args = 0, pretend = 0, frame = 0
 175              		@ frame_needed = 0, uses_anonymous_args = 0
ARM GAS  C:\Users\jorti\AppData\Local\Temp\ccPYlBX9.s 			page 11


 176              		@ link register save eliminated.
 177              	.LVL20:
 178 0000 10B4     		push	{r4}
 179              		.cfi_def_cfa_offset 4
 180              		.cfi_offset 4, -4
 181              	.LVL21:
 384:uC-LIB/lib_mem.c ****            CPU_SIZE_T    size_rem;
 385:uC-LIB/lib_mem.c ****            CPU_SIZE_T    mem_gap_octets;
 386:uC-LIB/lib_mem.c ****            CPU_ALIGN    *pmem_align_dest;
 387:uC-LIB/lib_mem.c ****     const  CPU_ALIGN    *pmem_align_src;
 388:uC-LIB/lib_mem.c ****            CPU_INT08U   *pmem_08_dest;
 389:uC-LIB/lib_mem.c ****     const  CPU_INT08U   *pmem_08_src;
 390:uC-LIB/lib_mem.c ****            CPU_DATA      i;
 391:uC-LIB/lib_mem.c ****            CPU_DATA      mem_align_mod_dest;
 392:uC-LIB/lib_mem.c ****            CPU_DATA      mem_align_mod_src;
 393:uC-LIB/lib_mem.c ****            CPU_BOOLEAN   mem_aligned;
 394:uC-LIB/lib_mem.c **** 
 395:uC-LIB/lib_mem.c **** 
 396:uC-LIB/lib_mem.c **** #if (LIB_MEM_CFG_ARG_CHK_EXT_EN == DEF_ENABLED)
 397:uC-LIB/lib_mem.c ****     if (size < 1) {                                             /* See Note #1.                    
 398:uC-LIB/lib_mem.c ****         return;
 399:uC-LIB/lib_mem.c ****     }
 400:uC-LIB/lib_mem.c ****     if (pdest == (void *)0) {
 401:uC-LIB/lib_mem.c ****         return;
 402:uC-LIB/lib_mem.c ****     }
 403:uC-LIB/lib_mem.c ****     if (psrc  == (void *)0) {
 404:uC-LIB/lib_mem.c ****         return;
 405:uC-LIB/lib_mem.c ****     }
 406:uC-LIB/lib_mem.c **** #endif
 407:uC-LIB/lib_mem.c **** 
 408:uC-LIB/lib_mem.c **** 
 409:uC-LIB/lib_mem.c ****     size_rem           =  size;
 410:uC-LIB/lib_mem.c **** 
 411:uC-LIB/lib_mem.c ****     pmem_08_dest       = (      CPU_INT08U *)pdest;
 412:uC-LIB/lib_mem.c ****     pmem_08_src        = (const CPU_INT08U *)psrc;
 413:uC-LIB/lib_mem.c **** 
 414:uC-LIB/lib_mem.c ****     mem_gap_octets     = pmem_08_src - pmem_08_dest;
 182              		.loc 1 414 0
 183 0002 0B1A     		subs	r3, r1, r0
 184              	.LVL22:
 415:uC-LIB/lib_mem.c **** 
 416:uC-LIB/lib_mem.c **** 
 417:uC-LIB/lib_mem.c ****     if (mem_gap_octets >= sizeof(CPU_ALIGN)) {                  /* Avoid bufs overlap.             
 185              		.loc 1 417 0
 186 0004 032B     		cmp	r3, #3
 187 0006 22D9     		bls	.L20
 418:uC-LIB/lib_mem.c ****                                                                 /* See Note #4.                    
 419:uC-LIB/lib_mem.c ****         mem_align_mod_dest = (CPU_INT08U)((CPU_ADDR)pmem_08_dest % sizeof(CPU_ALIGN));
 188              		.loc 1 419 0
 189 0008 00F00303 		and	r3, r0, #3
 190              	.LVL23:
 420:uC-LIB/lib_mem.c ****         mem_align_mod_src  = (CPU_INT08U)((CPU_ADDR)pmem_08_src  % sizeof(CPU_ALIGN));
 191              		.loc 1 420 0
 192 000c 01F00304 		and	r4, r1, #3
 193              	.LVL24:
 421:uC-LIB/lib_mem.c **** 
 422:uC-LIB/lib_mem.c ****         mem_aligned        = (mem_align_mod_dest == mem_align_mod_src) ? DEF_YES : DEF_NO;
ARM GAS  C:\Users\jorti\AppData\Local\Temp\ccPYlBX9.s 			page 12


 194              		.loc 1 422 0
 195 0010 A342     		cmp	r3, r4
 196 0012 01D1     		bne	.L28
 197 0014 0124     		movs	r4, #1
 198              	.LVL25:
 199 0016 00E0     		b	.L18
 200              	.LVL26:
 201              	.L28:
 202 0018 0024     		movs	r4, #0
 203              	.LVL27:
 204              	.L18:
 423:uC-LIB/lib_mem.c **** 
 424:uC-LIB/lib_mem.c ****         if (mem_aligned == DEF_YES) {                           /* If mem bufs' alignment offset eq
 205              		.loc 1 424 0 discriminator 4
 206 001a C4B1     		cbz	r4, .L20
 425:uC-LIB/lib_mem.c ****                                                                 /* ... optimize copy for mem buf al
 426:uC-LIB/lib_mem.c ****             if (mem_align_mod_dest != 0u) {                     /* If leading octets avail,        
 207              		.loc 1 426 0
 208 001c 33B9     		cbnz	r3, .L21
 209 001e 0EE0     		b	.L24
 210              	.LVL28:
 211              	.L25:
 427:uC-LIB/lib_mem.c ****                 i = mem_align_mod_dest;
 428:uC-LIB/lib_mem.c ****                 while ((size_rem   >  0) &&                     /* ... start mem buf copy with lead
 429:uC-LIB/lib_mem.c ****                        (i          <  sizeof(CPU_ALIGN ))) {    /* ... until next CPU_ALIGN word bo
 430:uC-LIB/lib_mem.c ****                    *pmem_08_dest++ = *pmem_08_src++;
 212              		.loc 1 430 0
 213 0020 0C78     		ldrb	r4, [r1]	@ zero_extendqisi2
 214 0022 0470     		strb	r4, [r0]
 431:uC-LIB/lib_mem.c ****                     size_rem      -=  sizeof(CPU_INT08U);
 215              		.loc 1 431 0
 216 0024 013A     		subs	r2, r2, #1
 217              	.LVL29:
 432:uC-LIB/lib_mem.c ****                     i++;
 218              		.loc 1 432 0
 219 0026 0133     		adds	r3, r3, #1
 220              	.LVL30:
 430:uC-LIB/lib_mem.c ****                     size_rem      -=  sizeof(CPU_INT08U);
 221              		.loc 1 430 0
 222 0028 0131     		adds	r1, r1, #1
 223              	.LVL31:
 224 002a 0130     		adds	r0, r0, #1
 225              	.LVL32:
 226              	.L21:
 428:uC-LIB/lib_mem.c ****                        (i          <  sizeof(CPU_ALIGN ))) {    /* ... until next CPU_ALIGN word bo
 227              		.loc 1 428 0
 228 002c 3AB1     		cbz	r2, .L24
 428:uC-LIB/lib_mem.c ****                        (i          <  sizeof(CPU_ALIGN ))) {    /* ... until next CPU_ALIGN word bo
 229              		.loc 1 428 0 is_stmt 0 discriminator 1
 230 002e 032B     		cmp	r3, #3
 231 0030 F6D9     		bls	.L25
 232 0032 04E0     		b	.L24
 233              	.LVL33:
 234              	.L26:
 433:uC-LIB/lib_mem.c ****                 }
 434:uC-LIB/lib_mem.c ****             }
 435:uC-LIB/lib_mem.c **** 
ARM GAS  C:\Users\jorti\AppData\Local\Temp\ccPYlBX9.s 			page 13


 436:uC-LIB/lib_mem.c ****             pmem_align_dest = (      CPU_ALIGN *)pmem_08_dest;  /* See Note #3a.                   
 437:uC-LIB/lib_mem.c ****             pmem_align_src  = (const CPU_ALIGN *)pmem_08_src;
 438:uC-LIB/lib_mem.c ****             while (size_rem      >=  sizeof(CPU_ALIGN)) {       /* While mem bufs aligned on CPU_AL
 439:uC-LIB/lib_mem.c ****                *pmem_align_dest++ = *pmem_align_src++;          /* ... copy psrc to pdest with CPU_
 235              		.loc 1 439 0 is_stmt 1
 236 0034 0B68     		ldr	r3, [r1]
 237 0036 0360     		str	r3, [r0]
 440:uC-LIB/lib_mem.c ****                 size_rem         -=  sizeof(CPU_ALIGN);
 238              		.loc 1 440 0
 239 0038 043A     		subs	r2, r2, #4
 240              	.LVL34:
 439:uC-LIB/lib_mem.c ****                 size_rem         -=  sizeof(CPU_ALIGN);
 241              		.loc 1 439 0
 242 003a 0431     		adds	r1, r1, #4
 243              	.LVL35:
 244 003c 0430     		adds	r0, r0, #4
 245              	.LVL36:
 246              	.L24:
 438:uC-LIB/lib_mem.c ****                *pmem_align_dest++ = *pmem_align_src++;          /* ... copy psrc to pdest with CPU_
 247              		.loc 1 438 0
 248 003e 032A     		cmp	r2, #3
 249 0040 F8D8     		bhi	.L26
 250 0042 04E0     		b	.L20
 251              	.LVL37:
 252              	.L27:
 441:uC-LIB/lib_mem.c ****             }
 442:uC-LIB/lib_mem.c **** 
 443:uC-LIB/lib_mem.c ****             pmem_08_dest = (      CPU_INT08U *)pmem_align_dest;
 444:uC-LIB/lib_mem.c ****             pmem_08_src  = (const CPU_INT08U *)pmem_align_src;
 445:uC-LIB/lib_mem.c ****         }
 446:uC-LIB/lib_mem.c ****     }
 447:uC-LIB/lib_mem.c **** 
 448:uC-LIB/lib_mem.c ****     while (size_rem > 0) {                                      /* For unaligned mem bufs or traili
 449:uC-LIB/lib_mem.c ****        *pmem_08_dest++ = *pmem_08_src++;                        /* ... copy psrc to pdest by octets
 253              		.loc 1 449 0
 254 0044 0B78     		ldrb	r3, [r1]	@ zero_extendqisi2
 255 0046 0370     		strb	r3, [r0]
 450:uC-LIB/lib_mem.c ****         size_rem      -=  sizeof(CPU_INT08U);
 256              		.loc 1 450 0
 257 0048 013A     		subs	r2, r2, #1
 258              	.LVL38:
 449:uC-LIB/lib_mem.c ****         size_rem      -=  sizeof(CPU_INT08U);
 259              		.loc 1 449 0
 260 004a 0131     		adds	r1, r1, #1
 261              	.LVL39:
 262 004c 0130     		adds	r0, r0, #1
 263              	.LVL40:
 264              	.L20:
 448:uC-LIB/lib_mem.c ****        *pmem_08_dest++ = *pmem_08_src++;                        /* ... copy psrc to pdest by octets
 265              		.loc 1 448 0
 266 004e 002A     		cmp	r2, #0
 267 0050 F8D1     		bne	.L27
 451:uC-LIB/lib_mem.c ****     }
 452:uC-LIB/lib_mem.c **** }
 268              		.loc 1 452 0
 269 0052 10BC     		pop	{r4}
 270              		.cfi_restore 4
ARM GAS  C:\Users\jorti\AppData\Local\Temp\ccPYlBX9.s 			page 14


 271              		.cfi_def_cfa_offset 0
 272 0054 7047     		bx	lr
 273              		.cfi_endproc
 274              	.LFE4:
 275              		.size	Mem_Copy, .-Mem_Copy
 276 0056 00BF     		.section	.text.Mem_Move,"ax",%progbits
 277              		.align	2
 278              		.global	Mem_Move
 279              		.thumb
 280              		.thumb_func
 281              		.type	Mem_Move, %function
 282              	Mem_Move:
 283              	.LFB5:
 453:uC-LIB/lib_mem.c **** #endif
 454:uC-LIB/lib_mem.c **** 
 455:uC-LIB/lib_mem.c **** 
 456:uC-LIB/lib_mem.c **** /*
 457:uC-LIB/lib_mem.c **** ***************************************************************************************************
 458:uC-LIB/lib_mem.c **** *                                             Mem_Move()
 459:uC-LIB/lib_mem.c **** *
 460:uC-LIB/lib_mem.c **** * Description : Move data octets from one memory buffer to another memory buffer, or within the sam
 461:uC-LIB/lib_mem.c **** *               memory buffer. Overlapping is correctly handled for all move operations.
 462:uC-LIB/lib_mem.c **** *
 463:uC-LIB/lib_mem.c **** * Argument(s) : pdest       Pointer to destination memory buffer.
 464:uC-LIB/lib_mem.c **** *
 465:uC-LIB/lib_mem.c **** *               psrc        Pointer to source      memory buffer.
 466:uC-LIB/lib_mem.c **** *
 467:uC-LIB/lib_mem.c **** *               size        Number of octets to move (see Note #1).
 468:uC-LIB/lib_mem.c **** *
 469:uC-LIB/lib_mem.c **** * Return(s)   : none.
 470:uC-LIB/lib_mem.c **** *
 471:uC-LIB/lib_mem.c **** * Caller(s)   : Application.
 472:uC-LIB/lib_mem.c **** *
 473:uC-LIB/lib_mem.c **** * Note(s)     : (1) Null move operations allowed (i.e. zero-length).
 474:uC-LIB/lib_mem.c **** *
 475:uC-LIB/lib_mem.c **** *               (2) Memory buffers checked for overlapping.
 476:uC-LIB/lib_mem.c **** *
 477:uC-LIB/lib_mem.c **** *               (3) For best CPU performance, optimized to copy data buffer using 'CPU_ALIGN'-sized
 478:uC-LIB/lib_mem.c **** *                   words.
 479:uC-LIB/lib_mem.c **** *
 480:uC-LIB/lib_mem.c **** *                   (a) Since many word-aligned processors REQUIRE that multi-octet words be access
 481:uC-LIB/lib_mem.c **** *                       word-aligned addresses, 'CPU_ALIGN'-sized words MUST be accessed on 'CPU_AL
 482:uC-LIB/lib_mem.c **** *                       addresses.
 483:uC-LIB/lib_mem.c **** *
 484:uC-LIB/lib_mem.c **** *               (4) Modulo arithmetic is used to determine whether a memory buffer starts on a 'CPU
 485:uC-LIB/lib_mem.c **** *                   address boundary.
 486:uC-LIB/lib_mem.c **** *
 487:uC-LIB/lib_mem.c **** *                   Modulo arithmetic in ANSI-C REQUIREs operations performed on integer values.  T
 488:uC-LIB/lib_mem.c **** *                   address values MUST be cast to an appropriately-sized integer value PRIOR to an
 489:uC-LIB/lib_mem.c **** *                  'mem_align_mod' arithmetic operation.
 490:uC-LIB/lib_mem.c **** ***************************************************************************************************
 491:uC-LIB/lib_mem.c **** */
 492:uC-LIB/lib_mem.c **** /*$PAGE*/
 493:uC-LIB/lib_mem.c **** 
 494:uC-LIB/lib_mem.c **** void  Mem_Move (       void        *pdest,
 495:uC-LIB/lib_mem.c ****                 const  void        *psrc,
 496:uC-LIB/lib_mem.c ****                        CPU_SIZE_T   size)
ARM GAS  C:\Users\jorti\AppData\Local\Temp\ccPYlBX9.s 			page 15


 497:uC-LIB/lib_mem.c **** {
 284              		.loc 1 497 0
 285              		.cfi_startproc
 286              		@ args = 0, pretend = 0, frame = 0
 287              		@ frame_needed = 0, uses_anonymous_args = 0
 288              	.LVL41:
 289 0000 10B5     		push	{r4, lr}
 290              		.cfi_def_cfa_offset 8
 291              		.cfi_offset 4, -8
 292              		.cfi_offset 14, -4
 293              	.LVL42:
 498:uC-LIB/lib_mem.c ****            CPU_SIZE_T    size_rem;
 499:uC-LIB/lib_mem.c ****            CPU_SIZE_T    mem_gap_octets;
 500:uC-LIB/lib_mem.c ****            CPU_ALIGN    *pmem_align_dest;
 501:uC-LIB/lib_mem.c ****     const  CPU_ALIGN    *pmem_align_src;
 502:uC-LIB/lib_mem.c ****            CPU_INT08U   *pmem_08_dest;
 503:uC-LIB/lib_mem.c ****     const  CPU_INT08U   *pmem_08_src;
 504:uC-LIB/lib_mem.c ****            CPU_INT08S    i;
 505:uC-LIB/lib_mem.c ****            CPU_DATA      mem_align_mod_dest;
 506:uC-LIB/lib_mem.c ****            CPU_DATA      mem_align_mod_src;
 507:uC-LIB/lib_mem.c ****            CPU_BOOLEAN   mem_aligned;
 508:uC-LIB/lib_mem.c **** 
 509:uC-LIB/lib_mem.c **** 
 510:uC-LIB/lib_mem.c **** #if (LIB_MEM_CFG_ARG_CHK_EXT_EN == DEF_ENABLED)
 511:uC-LIB/lib_mem.c ****     if (size < 1) {
 512:uC-LIB/lib_mem.c ****         return;
 513:uC-LIB/lib_mem.c ****     }
 514:uC-LIB/lib_mem.c ****     if (pdest == (void *)0) {
 515:uC-LIB/lib_mem.c ****         return;
 516:uC-LIB/lib_mem.c ****     }
 517:uC-LIB/lib_mem.c ****     if (psrc  == (void *)0) {
 518:uC-LIB/lib_mem.c ****         return;
 519:uC-LIB/lib_mem.c ****     }
 520:uC-LIB/lib_mem.c **** #endif
 521:uC-LIB/lib_mem.c **** 
 522:uC-LIB/lib_mem.c ****     pmem_08_src  = (const CPU_INT08U *)psrc;
 523:uC-LIB/lib_mem.c ****     pmem_08_dest = (      CPU_INT08U *)pdest;
 524:uC-LIB/lib_mem.c ****     if (pmem_08_src > pmem_08_dest) {
 294              		.loc 1 524 0
 295 0002 8142     		cmp	r1, r0
 296 0004 02D9     		bls	.L31
 525:uC-LIB/lib_mem.c ****         Mem_Copy(pdest, psrc, size);
 297              		.loc 1 525 0
 298 0006 FFF7FEFF 		bl	Mem_Copy
 299              	.LVL43:
 526:uC-LIB/lib_mem.c ****         return;
 300              		.loc 1 526 0
 301 000a 10BD     		pop	{r4, pc}
 302              	.LVL44:
 303              	.L31:
 527:uC-LIB/lib_mem.c ****     }
 528:uC-LIB/lib_mem.c **** 
 529:uC-LIB/lib_mem.c ****     size_rem           =  size;
 530:uC-LIB/lib_mem.c **** 
 531:uC-LIB/lib_mem.c ****     pmem_08_dest       = (      CPU_INT08U *)pdest + size - 1;
 304              		.loc 1 531 0
 305 000c 531E     		subs	r3, r2, #1
ARM GAS  C:\Users\jorti\AppData\Local\Temp\ccPYlBX9.s 			page 16


 306 000e 1844     		add	r0, r0, r3
 307              	.LVL45:
 532:uC-LIB/lib_mem.c ****     pmem_08_src        = (const CPU_INT08U *)psrc  + size - 1;
 308              		.loc 1 532 0
 309 0010 1944     		add	r1, r1, r3
 310              	.LVL46:
 533:uC-LIB/lib_mem.c ****     
 534:uC-LIB/lib_mem.c ****     mem_gap_octets     = pmem_08_dest - pmem_08_src;
 311              		.loc 1 534 0
 312 0012 431A     		subs	r3, r0, r1
 313              	.LVL47:
 535:uC-LIB/lib_mem.c ****     
 536:uC-LIB/lib_mem.c **** 
 537:uC-LIB/lib_mem.c ****     if (mem_gap_octets >= sizeof(CPU_ALIGN)) {                  /* Avoid bufs overlap.             
 314              		.loc 1 537 0
 315 0014 032B     		cmp	r3, #3
 316 0016 29D9     		bls	.L40
 538:uC-LIB/lib_mem.c ****     
 539:uC-LIB/lib_mem.c ****                                                                 /* See Note #4.                    
 540:uC-LIB/lib_mem.c ****         mem_align_mod_dest = (CPU_INT08U)((CPU_ADDR)pmem_08_dest % sizeof(CPU_ALIGN));
 317              		.loc 1 540 0
 318 0018 00F00303 		and	r3, r0, #3
 319              	.LVL48:
 541:uC-LIB/lib_mem.c ****         mem_align_mod_src  = (CPU_INT08U)((CPU_ADDR)pmem_08_src  % sizeof(CPU_ALIGN));
 320              		.loc 1 541 0
 321 001c 01F00304 		and	r4, r1, #3
 322              	.LVL49:
 542:uC-LIB/lib_mem.c **** 
 543:uC-LIB/lib_mem.c ****         mem_aligned        = (mem_align_mod_dest == mem_align_mod_src) ? DEF_YES : DEF_NO;
 323              		.loc 1 543 0
 324 0020 A342     		cmp	r3, r4
 325 0022 01D1     		bne	.L42
 326 0024 0124     		movs	r4, #1
 327              	.LVL50:
 328 0026 00E0     		b	.L34
 329              	.LVL51:
 330              	.L42:
 331 0028 0024     		movs	r4, #0
 332              	.LVL52:
 333              	.L34:
 544:uC-LIB/lib_mem.c **** 
 545:uC-LIB/lib_mem.c ****         if (mem_aligned == DEF_YES) {                           /* If mem bufs' alignment offset eq
 334              		.loc 1 545 0 discriminator 4
 335 002a FCB1     		cbz	r4, .L40
 546:uC-LIB/lib_mem.c ****                                                                 /* ... optimize copy for mem buf al
 547:uC-LIB/lib_mem.c ****             if (mem_align_mod_dest != (sizeof(CPU_ALIGN) - 1)) {/* If leading octets avail,        
 336              		.loc 1 547 0
 337 002c 032B     		cmp	r3, #3
 338 002e 0BD0     		beq	.L35
 548:uC-LIB/lib_mem.c ****                 i = mem_align_mod_dest;
 339              		.loc 1 548 0
 340 0030 5BB2     		sxtb	r3, r3
 341              	.LVL53:
 549:uC-LIB/lib_mem.c ****                 while ((size_rem   >  0) &&                     /* ... start mem buf copy with lead
 342              		.loc 1 549 0
 343 0032 06E0     		b	.L36
 344              	.LVL54:
ARM GAS  C:\Users\jorti\AppData\Local\Temp\ccPYlBX9.s 			page 17


 345              	.L37:
 550:uC-LIB/lib_mem.c ****                        (i          >= 0)) {                     /* ... until next CPU_ALIGN word bo
 551:uC-LIB/lib_mem.c ****                    *pmem_08_dest-- = *pmem_08_src--;
 346              		.loc 1 551 0
 347 0034 0C78     		ldrb	r4, [r1]	@ zero_extendqisi2
 348 0036 0470     		strb	r4, [r0]
 552:uC-LIB/lib_mem.c ****                     size_rem      -=  sizeof(CPU_INT08U);
 349              		.loc 1 552 0
 350 0038 013A     		subs	r2, r2, #1
 351              	.LVL55:
 553:uC-LIB/lib_mem.c ****                     i--;
 352              		.loc 1 553 0
 353 003a 013B     		subs	r3, r3, #1
 354              	.LVL56:
 355 003c 5BB2     		sxtb	r3, r3
 356              	.LVL57:
 551:uC-LIB/lib_mem.c ****                     size_rem      -=  sizeof(CPU_INT08U);
 357              		.loc 1 551 0
 358 003e 0139     		subs	r1, r1, #1
 359              	.LVL58:
 360 0040 0138     		subs	r0, r0, #1
 361              	.LVL59:
 362              	.L36:
 549:uC-LIB/lib_mem.c ****                        (i          >= 0)) {                     /* ... until next CPU_ALIGN word bo
 363              		.loc 1 549 0
 364 0042 0AB1     		cbz	r2, .L35
 549:uC-LIB/lib_mem.c ****                        (i          >= 0)) {                     /* ... until next CPU_ALIGN word bo
 365              		.loc 1 549 0 is_stmt 0 discriminator 1
 366 0044 002B     		cmp	r3, #0
 367 0046 F5DA     		bge	.L37
 368              	.LVL60:
 369              	.L35:
 554:uC-LIB/lib_mem.c ****                 }
 555:uC-LIB/lib_mem.c ****             }
 556:uC-LIB/lib_mem.c **** 
 557:uC-LIB/lib_mem.c ****                                                                 /* See Note #3a.                   
 558:uC-LIB/lib_mem.c ****             pmem_align_dest = (      CPU_ALIGN *)pmem_08_dest - sizeof(CPU_ALIGN) + 1;
 370              		.loc 1 558 0 is_stmt 1
 371 0048 0C38     		subs	r0, r0, #12
 372              	.LVL61:
 559:uC-LIB/lib_mem.c ****             pmem_align_src  = (const CPU_ALIGN *)pmem_08_src  - sizeof(CPU_ALIGN) + 1;
 373              		.loc 1 559 0
 374 004a 0C39     		subs	r1, r1, #12
 375              	.LVL62:
 560:uC-LIB/lib_mem.c ****             while (size_rem      >=  sizeof(CPU_ALIGN)) {       /* While mem bufs aligned on CPU_AL
 376              		.loc 1 560 0
 377 004c 04E0     		b	.L38
 378              	.LVL63:
 379              	.L39:
 561:uC-LIB/lib_mem.c ****                *pmem_align_dest-- = *pmem_align_src--;          /* ... copy psrc to pdest with CPU_
 380              		.loc 1 561 0
 381 004e 0B68     		ldr	r3, [r1]
 382 0050 0360     		str	r3, [r0]
 562:uC-LIB/lib_mem.c ****                 size_rem         -=  sizeof(CPU_ALIGN);
 383              		.loc 1 562 0
 384 0052 043A     		subs	r2, r2, #4
 385              	.LVL64:
ARM GAS  C:\Users\jorti\AppData\Local\Temp\ccPYlBX9.s 			page 18


 561:uC-LIB/lib_mem.c ****                *pmem_align_dest-- = *pmem_align_src--;          /* ... copy psrc to pdest with CPU_
 386              		.loc 1 561 0
 387 0054 0439     		subs	r1, r1, #4
 388              	.LVL65:
 389 0056 0438     		subs	r0, r0, #4
 390              	.LVL66:
 391              	.L38:
 560:uC-LIB/lib_mem.c ****             while (size_rem      >=  sizeof(CPU_ALIGN)) {       /* While mem bufs aligned on CPU_AL
 392              		.loc 1 560 0
 393 0058 032A     		cmp	r2, #3
 394 005a F8D8     		bhi	.L39
 563:uC-LIB/lib_mem.c ****             }
 564:uC-LIB/lib_mem.c **** 
 565:uC-LIB/lib_mem.c ****             pmem_08_dest = (      CPU_INT08U *)pmem_align_dest + sizeof(CPU_ALIGN) - 1;
 395              		.loc 1 565 0
 396 005c 0330     		adds	r0, r0, #3
 397              	.LVL67:
 566:uC-LIB/lib_mem.c ****             pmem_08_src  = (const CPU_INT08U *)pmem_align_src  + sizeof(CPU_ALIGN) - 1;
 398              		.loc 1 566 0
 399 005e 0331     		adds	r1, r1, #3
 400              	.LVL68:
 401 0060 04E0     		b	.L40
 402              	.LVL69:
 403              	.L41:
 567:uC-LIB/lib_mem.c **** 
 568:uC-LIB/lib_mem.c ****         }
 569:uC-LIB/lib_mem.c ****     }
 570:uC-LIB/lib_mem.c **** 
 571:uC-LIB/lib_mem.c ****     while (size_rem > 0) {                                      /* For unaligned mem bufs or traili
 572:uC-LIB/lib_mem.c ****        *pmem_08_dest-- = *pmem_08_src--;                        /* ... copy psrc to pdest by octets
 404              		.loc 1 572 0
 405 0062 0B78     		ldrb	r3, [r1]	@ zero_extendqisi2
 406 0064 0370     		strb	r3, [r0]
 573:uC-LIB/lib_mem.c ****         size_rem      -=  sizeof(CPU_INT08U);
 407              		.loc 1 573 0
 408 0066 013A     		subs	r2, r2, #1
 409              	.LVL70:
 572:uC-LIB/lib_mem.c ****         size_rem      -=  sizeof(CPU_INT08U);
 410              		.loc 1 572 0
 411 0068 0139     		subs	r1, r1, #1
 412              	.LVL71:
 413 006a 0138     		subs	r0, r0, #1
 414              	.LVL72:
 415              	.L40:
 571:uC-LIB/lib_mem.c ****        *pmem_08_dest-- = *pmem_08_src--;                        /* ... copy psrc to pdest by octets
 416              		.loc 1 571 0
 417 006c 002A     		cmp	r2, #0
 418 006e F8D1     		bne	.L41
 419 0070 10BD     		pop	{r4, pc}
 420              		.cfi_endproc
 421              	.LFE5:
 422              		.size	Mem_Move, .-Mem_Move
 423 0072 00BF     		.section	.text.Mem_Cmp,"ax",%progbits
 424              		.align	2
 425              		.global	Mem_Cmp
 426              		.thumb
 427              		.thumb_func
ARM GAS  C:\Users\jorti\AppData\Local\Temp\ccPYlBX9.s 			page 19


 428              		.type	Mem_Cmp, %function
 429              	Mem_Cmp:
 430              	.LFB6:
 574:uC-LIB/lib_mem.c ****     }
 575:uC-LIB/lib_mem.c **** }
 576:uC-LIB/lib_mem.c **** 
 577:uC-LIB/lib_mem.c **** 
 578:uC-LIB/lib_mem.c **** /*$PAGE*/
 579:uC-LIB/lib_mem.c **** /*
 580:uC-LIB/lib_mem.c **** ***************************************************************************************************
 581:uC-LIB/lib_mem.c **** *                                              Mem_Cmp()
 582:uC-LIB/lib_mem.c **** *
 583:uC-LIB/lib_mem.c **** * Description : Verify that ALL data octets in two memory buffers are identical in sequence.
 584:uC-LIB/lib_mem.c **** *
 585:uC-LIB/lib_mem.c **** * Argument(s) : p1_mem      Pointer to first  memory buffer.
 586:uC-LIB/lib_mem.c **** *
 587:uC-LIB/lib_mem.c **** *               p2_mem      Pointer to second memory buffer.
 588:uC-LIB/lib_mem.c **** *
 589:uC-LIB/lib_mem.c **** *               size        Number of data buffer octets to compare (see Note #1).
 590:uC-LIB/lib_mem.c **** *
 591:uC-LIB/lib_mem.c **** * Return(s)   : DEF_YES, if 'size' number of data octets are identical in both memory buffers.
 592:uC-LIB/lib_mem.c **** *
 593:uC-LIB/lib_mem.c **** *               DEF_NO,  otherwise.
 594:uC-LIB/lib_mem.c **** *
 595:uC-LIB/lib_mem.c **** * Caller(s)   : Application.
 596:uC-LIB/lib_mem.c **** *
 597:uC-LIB/lib_mem.c **** * Note(s)     : (1) Null compares allowed (i.e. zero-length compares); 'DEF_YES' returned to indica
 598:uC-LIB/lib_mem.c **** *                   identical null compare.
 599:uC-LIB/lib_mem.c **** *
 600:uC-LIB/lib_mem.c **** *               (2) Many memory buffer comparisons vary ONLY in the least significant octets -- e.g
 601:uC-LIB/lib_mem.c **** *                   network address buffers.  Consequently, memory buffer comparison is more effici
 602:uC-LIB/lib_mem.c **** *                   if the comparison starts from the end of the memory buffers which will abort so
 603:uC-LIB/lib_mem.c **** *                   on dissimilar memory buffers that vary only in the least significant octets.
 604:uC-LIB/lib_mem.c **** *
 605:uC-LIB/lib_mem.c **** *               (3) For best CPU performance, optimized to compare data buffers using 'CPU_ALIGN'-s
 606:uC-LIB/lib_mem.c **** *                   data words.
 607:uC-LIB/lib_mem.c **** *
 608:uC-LIB/lib_mem.c **** *                   (a) Since many word-aligned processors REQUIRE that multi-octet words be access
 609:uC-LIB/lib_mem.c **** *                       word-aligned addresses, 'CPU_ALIGN'-sized words MUST be accessed on 'CPU_AL
 610:uC-LIB/lib_mem.c **** *                       addresses.
 611:uC-LIB/lib_mem.c **** *
 612:uC-LIB/lib_mem.c **** *               (4) Modulo arithmetic is used to determine whether a memory buffer starts on a 'CPU
 613:uC-LIB/lib_mem.c **** *                   address boundary.
 614:uC-LIB/lib_mem.c **** *
 615:uC-LIB/lib_mem.c **** *                   Modulo arithmetic in ANSI-C REQUIREs operations performed on integer values.  T
 616:uC-LIB/lib_mem.c **** *                   address values MUST be cast to an appropriately-sized integer value PRIOR to an
 617:uC-LIB/lib_mem.c **** *                  'mem_align_mod' arithmetic operation.
 618:uC-LIB/lib_mem.c **** ***************************************************************************************************
 619:uC-LIB/lib_mem.c **** */
 620:uC-LIB/lib_mem.c **** /*$PAGE*/
 621:uC-LIB/lib_mem.c **** CPU_BOOLEAN  Mem_Cmp (const  void        *p1_mem,
 622:uC-LIB/lib_mem.c ****                       const  void        *p2_mem,
 623:uC-LIB/lib_mem.c ****                              CPU_SIZE_T   size)
 624:uC-LIB/lib_mem.c **** {
 431              		.loc 1 624 0
 432              		.cfi_startproc
 433              		@ args = 0, pretend = 0, frame = 0
ARM GAS  C:\Users\jorti\AppData\Local\Temp\ccPYlBX9.s 			page 20


 434              		@ frame_needed = 0, uses_anonymous_args = 0
 435              		@ link register save eliminated.
 436              	.LVL73:
 625:uC-LIB/lib_mem.c ****            CPU_SIZE_T    size_rem;
 626:uC-LIB/lib_mem.c ****            CPU_ALIGN    *p1_mem_align;
 627:uC-LIB/lib_mem.c ****            CPU_ALIGN    *p2_mem_align;
 628:uC-LIB/lib_mem.c ****     const  CPU_INT08U   *p1_mem_08;
 629:uC-LIB/lib_mem.c ****     const  CPU_INT08U   *p2_mem_08;
 630:uC-LIB/lib_mem.c ****            CPU_DATA      i;
 631:uC-LIB/lib_mem.c ****            CPU_DATA      mem_align_mod_1;
 632:uC-LIB/lib_mem.c ****            CPU_DATA      mem_align_mod_2;
 633:uC-LIB/lib_mem.c ****            CPU_BOOLEAN   mem_aligned;
 634:uC-LIB/lib_mem.c ****            CPU_BOOLEAN   mem_cmp;
 635:uC-LIB/lib_mem.c **** 
 636:uC-LIB/lib_mem.c **** 
 637:uC-LIB/lib_mem.c ****     if (size < 1) {                                             /* See Note #1.                    
 437              		.loc 1 637 0
 438 0000 002A     		cmp	r2, #0
 439 0002 3FD0     		beq	.L58
 440 0004 1346     		mov	r3, r2
 638:uC-LIB/lib_mem.c ****         return (DEF_YES);
 639:uC-LIB/lib_mem.c ****     }
 640:uC-LIB/lib_mem.c ****     if (p1_mem == (void *)0) {
 441              		.loc 1 640 0
 442 0006 0028     		cmp	r0, #0
 443 0008 3ED0     		beq	.L59
 641:uC-LIB/lib_mem.c ****         return (DEF_NO);
 642:uC-LIB/lib_mem.c ****     }
 643:uC-LIB/lib_mem.c ****     if (p2_mem == (void *)0) {
 444              		.loc 1 643 0
 445 000a 0029     		cmp	r1, #0
 446 000c 3ED0     		beq	.L60
 624:uC-LIB/lib_mem.c ****            CPU_SIZE_T    size_rem;
 447              		.loc 1 624 0
 448 000e 70B4     		push	{r4, r5, r6}
 449              		.cfi_def_cfa_offset 12
 450              		.cfi_offset 4, -12
 451              		.cfi_offset 5, -8
 452              		.cfi_offset 6, -4
 453              	.LVL74:
 644:uC-LIB/lib_mem.c ****         return (DEF_NO);
 645:uC-LIB/lib_mem.c ****     }
 646:uC-LIB/lib_mem.c **** 
 647:uC-LIB/lib_mem.c **** 
 648:uC-LIB/lib_mem.c ****     mem_cmp         =  DEF_YES;                                 /* Assume mem bufs are identical un
 649:uC-LIB/lib_mem.c ****     size_rem        =  size;
 650:uC-LIB/lib_mem.c ****                                                                 /* Start @ end of mem bufs (see Not
 651:uC-LIB/lib_mem.c ****     p1_mem_08       = (const CPU_INT08U *)p1_mem + size;
 454              		.loc 1 651 0
 455 0010 8218     		adds	r2, r0, r2
 456              	.LVL75:
 652:uC-LIB/lib_mem.c ****     p2_mem_08       = (const CPU_INT08U *)p2_mem + size;
 457              		.loc 1 652 0
 458 0012 1944     		add	r1, r1, r3
 459              	.LVL76:
 653:uC-LIB/lib_mem.c ****                                                                 /* See Note #4.                    
 654:uC-LIB/lib_mem.c ****     mem_align_mod_1 = (CPU_INT08U)((CPU_ADDR)p1_mem_08 % sizeof(CPU_ALIGN));
ARM GAS  C:\Users\jorti\AppData\Local\Temp\ccPYlBX9.s 			page 21


 460              		.loc 1 654 0
 461 0014 02F00304 		and	r4, r2, #3
 462              	.LVL77:
 655:uC-LIB/lib_mem.c ****     mem_align_mod_2 = (CPU_INT08U)((CPU_ADDR)p2_mem_08 % sizeof(CPU_ALIGN));
 463              		.loc 1 655 0
 464 0018 01F00300 		and	r0, r1, #3
 465              	.LVL78:
 656:uC-LIB/lib_mem.c **** 
 657:uC-LIB/lib_mem.c ****     mem_aligned     = (mem_align_mod_1 == mem_align_mod_2) ? DEF_YES : DEF_NO;
 466              		.loc 1 657 0
 467 001c 8442     		cmp	r4, r0
 468 001e 01D1     		bne	.L61
 469 0020 0120     		movs	r0, #1
 470              	.LVL79:
 471 0022 00E0     		b	.L46
 472              	.LVL80:
 473              	.L61:
 474 0024 0020     		movs	r0, #0
 475              	.LVL81:
 476              	.L46:
 658:uC-LIB/lib_mem.c **** 
 659:uC-LIB/lib_mem.c ****     if (mem_aligned == DEF_YES) {                               /* If mem bufs' alignment offset eq
 477              		.loc 1 659 0 discriminator 4
 478 0026 98B1     		cbz	r0, .L62
 660:uC-LIB/lib_mem.c ****                                                                 /* ... optimize cmp for mem buf ali
 661:uC-LIB/lib_mem.c ****         if (mem_align_mod_1 != 0u) {                            /* If trailing octets avail,       
 479              		.loc 1 661 0
 480 0028 5CB9     		cbnz	r4, .L63
 648:uC-LIB/lib_mem.c ****     size_rem        =  size;
 481              		.loc 1 648 0
 482 002a 0120     		movs	r0, #1
 483              	.LVL82:
 484 002c 0EE0     		b	.L49
 485              	.LVL83:
 486              	.L51:
 662:uC-LIB/lib_mem.c ****             i = mem_align_mod_1;
 663:uC-LIB/lib_mem.c ****             while ((mem_cmp == DEF_YES) &&                      /* ... cmp mem bufs while identical
 664:uC-LIB/lib_mem.c ****                    (size_rem > 0)       &&                      /* ... start mem buf cmp with trail
 665:uC-LIB/lib_mem.c ****                    (i        > 0)) {                            /* ... until next CPU_ALIGN word bo
 666:uC-LIB/lib_mem.c ****                 p1_mem_08--;
 667:uC-LIB/lib_mem.c ****                 p2_mem_08--;
 668:uC-LIB/lib_mem.c ****                 if (*p1_mem_08 != *p2_mem_08) {                 /* If ANY data octet(s) NOT identic
 487              		.loc 1 668 0
 488 002e 12F8016D 		ldrb	r6, [r2, #-1]!	@ zero_extendqisi2
 489              	.LVL84:
 490 0032 11F8015D 		ldrb	r5, [r1, #-1]!	@ zero_extendqisi2
 491              	.LVL85:
 492 0036 AE42     		cmp	r6, r5
 493 0038 00D0     		beq	.L50
 669:uC-LIB/lib_mem.c ****                      mem_cmp = DEF_NO;
 494              		.loc 1 669 0
 495 003a 0020     		movs	r0, #0
 496              	.LVL86:
 497              	.L50:
 670:uC-LIB/lib_mem.c ****                 }
 671:uC-LIB/lib_mem.c ****                 size_rem -= sizeof(CPU_INT08U);
 498              		.loc 1 671 0
ARM GAS  C:\Users\jorti\AppData\Local\Temp\ccPYlBX9.s 			page 22


 499 003c 013B     		subs	r3, r3, #1
 500              	.LVL87:
 672:uC-LIB/lib_mem.c ****                 i--;
 501              		.loc 1 672 0
 502 003e 013C     		subs	r4, r4, #1
 503              	.LVL88:
 504 0040 00E0     		b	.L48
 505              	.LVL89:
 506              	.L63:
 507 0042 0120     		movs	r0, #1
 508              	.LVL90:
 509              	.L48:
 663:uC-LIB/lib_mem.c ****                    (size_rem > 0)       &&                      /* ... start mem buf cmp with trail
 510              		.loc 1 663 0
 511 0044 10B1     		cbz	r0, .L49
 663:uC-LIB/lib_mem.c ****                    (size_rem > 0)       &&                      /* ... start mem buf cmp with trail
 512              		.loc 1 663 0 is_stmt 0 discriminator 1
 513 0046 0BB1     		cbz	r3, .L49
 664:uC-LIB/lib_mem.c ****                    (i        > 0)) {                            /* ... until next CPU_ALIGN word bo
 514              		.loc 1 664 0 is_stmt 1
 515 0048 002C     		cmp	r4, #0
 516 004a F0D1     		bne	.L51
 517              	.LVL91:
 518              	.L49:
 673:uC-LIB/lib_mem.c ****             }
 674:uC-LIB/lib_mem.c ****         }
 675:uC-LIB/lib_mem.c **** 
 676:uC-LIB/lib_mem.c ****         if (mem_cmp == DEF_YES) {                               /* If cmp still identical, cmp alig
 519              		.loc 1 676 0
 520 004c B0B1     		cbz	r0, .L53
 521 004e 09E0     		b	.L52
 522              	.LVL92:
 523              	.L62:
 648:uC-LIB/lib_mem.c ****     size_rem        =  size;
 524              		.loc 1 648 0
 525 0050 0120     		movs	r0, #1
 526              	.LVL93:
 527 0052 13E0     		b	.L53
 528              	.LVL94:
 529              	.L55:
 677:uC-LIB/lib_mem.c ****             p1_mem_align = (CPU_ALIGN *)p1_mem_08;              /* See Note #3a.                   
 678:uC-LIB/lib_mem.c ****             p2_mem_align = (CPU_ALIGN *)p2_mem_08;
 679:uC-LIB/lib_mem.c **** 
 680:uC-LIB/lib_mem.c ****             while ((mem_cmp  == DEF_YES) &&                     /* Cmp mem bufs while identical & .
 681:uC-LIB/lib_mem.c ****                    (size_rem >= sizeof(CPU_ALIGN))) {           /* ... mem bufs aligned on CPU_ALIG
 682:uC-LIB/lib_mem.c ****                 p1_mem_align--;
 683:uC-LIB/lib_mem.c ****                 p2_mem_align--;
 684:uC-LIB/lib_mem.c ****                 if (*p1_mem_align != *p2_mem_align) {           /* If ANY data octet(s) NOT identic
 530              		.loc 1 684 0
 531 0054 52F8045D 		ldr	r5, [r2, #-4]!
 532              	.LVL95:
 533 0058 51F8044D 		ldr	r4, [r1, #-4]!
 534              	.LVL96:
 535 005c A542     		cmp	r5, r4
 536 005e 00D0     		beq	.L54
 685:uC-LIB/lib_mem.c ****                      mem_cmp = DEF_NO;
 537              		.loc 1 685 0
ARM GAS  C:\Users\jorti\AppData\Local\Temp\ccPYlBX9.s 			page 23


 538 0060 0020     		movs	r0, #0
 539              	.LVL97:
 540              	.L54:
 686:uC-LIB/lib_mem.c ****                 }
 687:uC-LIB/lib_mem.c ****                 size_rem -= sizeof(CPU_ALIGN);
 541              		.loc 1 687 0
 542 0062 043B     		subs	r3, r3, #4
 543              	.LVL98:
 544              	.L52:
 680:uC-LIB/lib_mem.c ****                    (size_rem >= sizeof(CPU_ALIGN))) {           /* ... mem bufs aligned on CPU_ALIG
 545              		.loc 1 680 0
 546 0064 50B1     		cbz	r0, .L53
 680:uC-LIB/lib_mem.c ****                    (size_rem >= sizeof(CPU_ALIGN))) {           /* ... mem bufs aligned on CPU_ALIG
 547              		.loc 1 680 0 is_stmt 0 discriminator 1
 548 0066 032B     		cmp	r3, #3
 549 0068 F4D8     		bhi	.L55
 550 006a 07E0     		b	.L53
 551              	.LVL99:
 552              	.L57:
 688:uC-LIB/lib_mem.c ****             }
 689:uC-LIB/lib_mem.c **** 
 690:uC-LIB/lib_mem.c ****             p1_mem_08 = (CPU_INT08U *)p1_mem_align;
 691:uC-LIB/lib_mem.c ****             p2_mem_08 = (CPU_INT08U *)p2_mem_align;
 692:uC-LIB/lib_mem.c ****         }
 693:uC-LIB/lib_mem.c ****     }
 694:uC-LIB/lib_mem.c **** 
 695:uC-LIB/lib_mem.c ****     while ((mem_cmp == DEF_YES) &&                              /* Cmp mem bufs while identical ...
 696:uC-LIB/lib_mem.c ****            (size_rem > 0)) {                                    /* ... for unaligned mem bufs or tr
 697:uC-LIB/lib_mem.c ****         p1_mem_08--;
 698:uC-LIB/lib_mem.c ****         p2_mem_08--;
 699:uC-LIB/lib_mem.c ****         if (*p1_mem_08 != *p2_mem_08) {                         /* If ANY data octet(s) NOT identic
 553              		.loc 1 699 0 is_stmt 1
 554 006c 12F8015D 		ldrb	r5, [r2, #-1]!	@ zero_extendqisi2
 555              	.LVL100:
 556 0070 11F8014D 		ldrb	r4, [r1, #-1]!	@ zero_extendqisi2
 557              	.LVL101:
 558 0074 A542     		cmp	r5, r4
 559 0076 00D0     		beq	.L56
 700:uC-LIB/lib_mem.c ****              mem_cmp = DEF_NO;
 560              		.loc 1 700 0
 561 0078 0020     		movs	r0, #0
 562              	.LVL102:
 563              	.L56:
 701:uC-LIB/lib_mem.c ****         }
 702:uC-LIB/lib_mem.c ****         size_rem -= sizeof(CPU_INT08U);
 564              		.loc 1 702 0
 565 007a 013B     		subs	r3, r3, #1
 566              	.LVL103:
 567              	.L53:
 695:uC-LIB/lib_mem.c ****            (size_rem > 0)) {                                    /* ... for unaligned mem bufs or tr
 568              		.loc 1 695 0
 569 007c 40B1     		cbz	r0, .L45
 695:uC-LIB/lib_mem.c ****            (size_rem > 0)) {                                    /* ... for unaligned mem bufs or tr
 570              		.loc 1 695 0 is_stmt 0 discriminator 1
 571 007e 002B     		cmp	r3, #0
 572 0080 F4D1     		bne	.L57
 573 0082 05E0     		b	.L45
ARM GAS  C:\Users\jorti\AppData\Local\Temp\ccPYlBX9.s 			page 24


 574              	.LVL104:
 575              	.L58:
 576              		.cfi_def_cfa_offset 0
 577              		.cfi_restore 4
 578              		.cfi_restore 5
 579              		.cfi_restore 6
 638:uC-LIB/lib_mem.c ****     }
 580              		.loc 1 638 0 is_stmt 1
 581 0084 0120     		movs	r0, #1
 582              	.LVL105:
 583 0086 7047     		bx	lr
 584              	.LVL106:
 585              	.L59:
 641:uC-LIB/lib_mem.c ****     }
 586              		.loc 1 641 0
 587 0088 0020     		movs	r0, #0
 588              	.LVL107:
 703:uC-LIB/lib_mem.c ****     }
 704:uC-LIB/lib_mem.c **** 
 705:uC-LIB/lib_mem.c ****     return (mem_cmp);
 706:uC-LIB/lib_mem.c **** }
 589              		.loc 1 706 0
 590 008a 7047     		bx	lr
 591              	.LVL108:
 592              	.L60:
 644:uC-LIB/lib_mem.c ****     }
 593              		.loc 1 644 0
 594 008c 0020     		movs	r0, #0
 595              	.LVL109:
 596 008e 7047     		bx	lr
 597              	.LVL110:
 598              	.L45:
 599              		.cfi_def_cfa_offset 12
 600              		.cfi_offset 4, -12
 601              		.cfi_offset 5, -8
 602              		.cfi_offset 6, -4
 603              		.loc 1 706 0
 604 0090 70BC     		pop	{r4, r5, r6}
 605              		.cfi_restore 6
 606              		.cfi_restore 5
 607              		.cfi_restore 4
 608              		.cfi_def_cfa_offset 0
 609 0092 7047     		bx	lr
 610              		.cfi_endproc
 611              	.LFE6:
 612              		.size	Mem_Cmp, .-Mem_Cmp
 613              		.text
 614              	.Letext0:
 615              		.file 2 ".\\uC-CPU\\ARM-Cortex-M3\\GNU/cpu.h"