ARM GAS  C:\Users\jorti\AppData\Local\Temp\ccfPWxSL.s 			page 1


   1              		.syntax unified
   2              		.cpu cortex-m3
   3              		.fpu softvfp
   4              		.eabi_attribute 20, 1
   5              		.eabi_attribute 21, 1
   6              		.eabi_attribute 23, 3
   7              		.eabi_attribute 24, 1
   8              		.eabi_attribute 25, 1
   9              		.eabi_attribute 26, 1
  10              		.eabi_attribute 30, 1
  11              		.eabi_attribute 34, 1
  12              		.eabi_attribute 18, 4
  13              		.thumb
  14              		.syntax unified
  15              		.file	"os_app_hooks.c"
  16              		.text
  17              	.Ltext0:
  18              		.cfi_sections	.debug_frame
  19              		.section	.text.App_OS_TaskCreateHook,"ax",%progbits
  20              		.align	2
  21              		.global	App_OS_TaskCreateHook
  22              		.thumb
  23              		.thumb_func
  24              		.type	App_OS_TaskCreateHook, %function
  25              	App_OS_TaskCreateHook:
  26              	.LFB3:
  27              		.file 1 "APP\\os_app_hooks.c"
   1:APP/os_app_hooks.c **** /*
   2:APP/os_app_hooks.c **** ***************************************************************************************************
   3:APP/os_app_hooks.c **** *                                                     uC/OS-III
   4:APP/os_app_hooks.c **** *                                                The Real-Time Kernel
   5:APP/os_app_hooks.c **** *
   6:APP/os_app_hooks.c **** *                                  (c) Copyright 2009-2012; Micrium, Inc.; Weston, FL
   7:APP/os_app_hooks.c **** *                          All rights reserved.  Protected by international copyright laws.
   8:APP/os_app_hooks.c **** *
   9:APP/os_app_hooks.c **** *                                                  APPLICATION HOOKS
  10:APP/os_app_hooks.c **** *
  11:APP/os_app_hooks.c **** * File    : OS_APP_HOOKS.C
  12:APP/os_app_hooks.c **** * By      : JJL
  13:APP/os_app_hooks.c **** * Version : V3.01.1
  14:APP/os_app_hooks.c **** *
  15:APP/os_app_hooks.c **** * LICENSING TERMS:
  16:APP/os_app_hooks.c **** * ---------------
  17:APP/os_app_hooks.c **** *               uC/OS-III is provided in source form to registered licensees ONLY.  It is 
  18:APP/os_app_hooks.c **** *               illegal to distribute this source code to any third party unless you receive 
  19:APP/os_app_hooks.c **** *               written permission by an authorized Micrium representative.  Knowledge of 
  20:APP/os_app_hooks.c **** *               the source code may NOT be used to develop a similar product.
  21:APP/os_app_hooks.c **** *
  22:APP/os_app_hooks.c **** *               Please help us continue to provide the Embedded community with the finest
  23:APP/os_app_hooks.c **** *               software available.  Your honesty is greatly appreciated.
  24:APP/os_app_hooks.c **** *
  25:APP/os_app_hooks.c **** *               You can contact us at www.micrium.com.
  26:APP/os_app_hooks.c **** ***************************************************************************************************
  27:APP/os_app_hooks.c **** */
  28:APP/os_app_hooks.c **** 
  29:APP/os_app_hooks.c **** #include <os.h>
  30:APP/os_app_hooks.c **** #include <os_app_hooks.h>
ARM GAS  C:\Users\jorti\AppData\Local\Temp\ccfPWxSL.s 			page 2


  31:APP/os_app_hooks.c **** 
  32:APP/os_app_hooks.c **** /*$PAGE*/
  33:APP/os_app_hooks.c **** /*
  34:APP/os_app_hooks.c **** ***************************************************************************************************
  35:APP/os_app_hooks.c **** *                                              SET ALL APPLICATION HOOKS
  36:APP/os_app_hooks.c **** *
  37:APP/os_app_hooks.c **** * Description: Set ALL application hooks.
  38:APP/os_app_hooks.c **** *
  39:APP/os_app_hooks.c **** * Arguments  : none.
  40:APP/os_app_hooks.c **** *
  41:APP/os_app_hooks.c **** * Note(s)    : none
  42:APP/os_app_hooks.c **** ***************************************************************************************************
  43:APP/os_app_hooks.c **** */
  44:APP/os_app_hooks.c **** 
  45:APP/os_app_hooks.c **** void  App_OS_SetAllHooks (void)
  46:APP/os_app_hooks.c **** {
  47:APP/os_app_hooks.c **** #if OS_CFG_APP_HOOKS_EN > 0u
  48:APP/os_app_hooks.c ****     CPU_SR_ALLOC();
  49:APP/os_app_hooks.c **** 
  50:APP/os_app_hooks.c **** 
  51:APP/os_app_hooks.c ****     CPU_CRITICAL_ENTER();
  52:APP/os_app_hooks.c ****     OS_AppTaskCreateHookPtr = App_OS_TaskCreateHook;
  53:APP/os_app_hooks.c ****     OS_AppTaskDelHookPtr    = App_OS_TaskDelHook;
  54:APP/os_app_hooks.c ****     OS_AppTaskReturnHookPtr = App_OS_TaskReturnHook;
  55:APP/os_app_hooks.c **** 
  56:APP/os_app_hooks.c ****     OS_AppIdleTaskHookPtr   = App_OS_IdleTaskHook;
  57:APP/os_app_hooks.c ****     OS_AppStatTaskHookPtr   = App_OS_StatTaskHook;
  58:APP/os_app_hooks.c ****     OS_AppTaskSwHookPtr     = App_OS_TaskSwHook;
  59:APP/os_app_hooks.c ****     OS_AppTimeTickHookPtr   = App_OS_TimeTickHook;
  60:APP/os_app_hooks.c ****     CPU_CRITICAL_EXIT();
  61:APP/os_app_hooks.c **** #endif
  62:APP/os_app_hooks.c **** }
  63:APP/os_app_hooks.c **** 
  64:APP/os_app_hooks.c **** /*$PAGE*/
  65:APP/os_app_hooks.c **** /*
  66:APP/os_app_hooks.c **** ***************************************************************************************************
  67:APP/os_app_hooks.c **** *                                             CLEAR ALL APPLICATION HOOKS
  68:APP/os_app_hooks.c **** *
  69:APP/os_app_hooks.c **** * Description: Clear ALL application hooks.
  70:APP/os_app_hooks.c **** *
  71:APP/os_app_hooks.c **** * Arguments  : none.
  72:APP/os_app_hooks.c **** *
  73:APP/os_app_hooks.c **** * Note(s)    : none
  74:APP/os_app_hooks.c **** ***************************************************************************************************
  75:APP/os_app_hooks.c **** */
  76:APP/os_app_hooks.c **** 
  77:APP/os_app_hooks.c **** void  App_OS_ClrAllHooks (void)
  78:APP/os_app_hooks.c **** {
  79:APP/os_app_hooks.c **** #if OS_CFG_APP_HOOKS_EN > 0u
  80:APP/os_app_hooks.c ****     CPU_SR_ALLOC();
  81:APP/os_app_hooks.c **** 
  82:APP/os_app_hooks.c **** 
  83:APP/os_app_hooks.c ****     CPU_CRITICAL_ENTER();
  84:APP/os_app_hooks.c ****     OS_AppTaskCreateHookPtr = (OS_APP_HOOK_TCB)0;
  85:APP/os_app_hooks.c ****     OS_AppTaskDelHookPtr    = (OS_APP_HOOK_TCB)0;
  86:APP/os_app_hooks.c ****     OS_AppTaskReturnHookPtr = (OS_APP_HOOK_TCB)0;
  87:APP/os_app_hooks.c **** 
ARM GAS  C:\Users\jorti\AppData\Local\Temp\ccfPWxSL.s 			page 3


  88:APP/os_app_hooks.c ****     OS_AppIdleTaskHookPtr   = (OS_APP_HOOK_VOID)0;
  89:APP/os_app_hooks.c ****     OS_AppStatTaskHookPtr   = (OS_APP_HOOK_VOID)0;
  90:APP/os_app_hooks.c ****     OS_AppTaskSwHookPtr     = (OS_APP_HOOK_VOID)0;
  91:APP/os_app_hooks.c ****     OS_AppTimeTickHookPtr   = (OS_APP_HOOK_VOID)0;
  92:APP/os_app_hooks.c ****     CPU_CRITICAL_EXIT();
  93:APP/os_app_hooks.c **** #endif
  94:APP/os_app_hooks.c **** }
  95:APP/os_app_hooks.c **** 
  96:APP/os_app_hooks.c **** /*$PAGE*/
  97:APP/os_app_hooks.c **** /*
  98:APP/os_app_hooks.c **** ***************************************************************************************************
  99:APP/os_app_hooks.c **** *                                            APPLICATION TASK CREATION HOOK
 100:APP/os_app_hooks.c **** *
 101:APP/os_app_hooks.c **** * Description: This function is called when a task is created.
 102:APP/os_app_hooks.c **** *
 103:APP/os_app_hooks.c **** * Arguments  : p_tcb   is a pointer to the task control block of the task being created.
 104:APP/os_app_hooks.c **** *
 105:APP/os_app_hooks.c **** * Note(s)    : none
 106:APP/os_app_hooks.c **** ***************************************************************************************************
 107:APP/os_app_hooks.c **** */
 108:APP/os_app_hooks.c **** 
 109:APP/os_app_hooks.c **** void  App_OS_TaskCreateHook (OS_TCB  *p_tcb)
 110:APP/os_app_hooks.c **** {
  28              		.loc 1 110 0
  29              		.cfi_startproc
  30              		@ args = 0, pretend = 0, frame = 0
  31              		@ frame_needed = 0, uses_anonymous_args = 0
  32              		@ link register save eliminated.
  33              	.LVL0:
  34 0000 7047     		bx	lr
  35              		.cfi_endproc
  36              	.LFE3:
  37              		.size	App_OS_TaskCreateHook, .-App_OS_TaskCreateHook
  38 0002 00BF     		.section	.text.App_OS_TaskDelHook,"ax",%progbits
  39              		.align	2
  40              		.global	App_OS_TaskDelHook
  41              		.thumb
  42              		.thumb_func
  43              		.type	App_OS_TaskDelHook, %function
  44              	App_OS_TaskDelHook:
  45              	.LFB4:
 111:APP/os_app_hooks.c ****     (void)&p_tcb;
 112:APP/os_app_hooks.c **** }
 113:APP/os_app_hooks.c **** 
 114:APP/os_app_hooks.c **** /*$PAGE*/
 115:APP/os_app_hooks.c **** /*
 116:APP/os_app_hooks.c **** ***************************************************************************************************
 117:APP/os_app_hooks.c **** *                                            APPLICATION TASK DELETION HOOK
 118:APP/os_app_hooks.c **** *
 119:APP/os_app_hooks.c **** * Description: This function is called when a task is deleted.
 120:APP/os_app_hooks.c **** *
 121:APP/os_app_hooks.c **** * Arguments  : p_tcb   is a pointer to the task control block of the task being deleted.
 122:APP/os_app_hooks.c **** *
 123:APP/os_app_hooks.c **** * Note(s)    : none
 124:APP/os_app_hooks.c **** ***************************************************************************************************
 125:APP/os_app_hooks.c **** */
 126:APP/os_app_hooks.c **** 
ARM GAS  C:\Users\jorti\AppData\Local\Temp\ccfPWxSL.s 			page 4


 127:APP/os_app_hooks.c **** void  App_OS_TaskDelHook (OS_TCB  *p_tcb)
 128:APP/os_app_hooks.c **** {
  46              		.loc 1 128 0
  47              		.cfi_startproc
  48              		@ args = 0, pretend = 0, frame = 0
  49              		@ frame_needed = 0, uses_anonymous_args = 0
  50              		@ link register save eliminated.
  51              	.LVL1:
  52 0000 7047     		bx	lr
  53              		.cfi_endproc
  54              	.LFE4:
  55              		.size	App_OS_TaskDelHook, .-App_OS_TaskDelHook
  56 0002 00BF     		.section	.text.App_OS_TaskReturnHook,"ax",%progbits
  57              		.align	2
  58              		.global	App_OS_TaskReturnHook
  59              		.thumb
  60              		.thumb_func
  61              		.type	App_OS_TaskReturnHook, %function
  62              	App_OS_TaskReturnHook:
  63              	.LFB5:
 129:APP/os_app_hooks.c ****     (void)&p_tcb;
 130:APP/os_app_hooks.c **** }
 131:APP/os_app_hooks.c **** 
 132:APP/os_app_hooks.c **** /*$PAGE*/
 133:APP/os_app_hooks.c **** /*
 134:APP/os_app_hooks.c **** ***************************************************************************************************
 135:APP/os_app_hooks.c **** *                                             APPLICATION TASK RETURN HOOK
 136:APP/os_app_hooks.c **** *
 137:APP/os_app_hooks.c **** * Description: This function is called if a task accidentally returns.  In other words, a task shou
 138:APP/os_app_hooks.c **** *              infinite loop or delete itself when done.
 139:APP/os_app_hooks.c **** *
 140:APP/os_app_hooks.c **** * Arguments  : p_tcb     is a pointer to the OS_TCB of the task that is returning.
 141:APP/os_app_hooks.c **** *
 142:APP/os_app_hooks.c **** * Note(s)    : none
 143:APP/os_app_hooks.c **** ***************************************************************************************************
 144:APP/os_app_hooks.c **** */
 145:APP/os_app_hooks.c **** 
 146:APP/os_app_hooks.c **** void  App_OS_TaskReturnHook (OS_TCB  *p_tcb)
 147:APP/os_app_hooks.c **** {
  64              		.loc 1 147 0
  65              		.cfi_startproc
  66              		@ args = 0, pretend = 0, frame = 0
  67              		@ frame_needed = 0, uses_anonymous_args = 0
  68              		@ link register save eliminated.
  69              	.LVL2:
  70 0000 7047     		bx	lr
  71              		.cfi_endproc
  72              	.LFE5:
  73              		.size	App_OS_TaskReturnHook, .-App_OS_TaskReturnHook
  74 0002 00BF     		.section	.text.App_OS_IdleTaskHook,"ax",%progbits
  75              		.align	2
  76              		.global	App_OS_IdleTaskHook
  77              		.thumb
  78              		.thumb_func
  79              		.type	App_OS_IdleTaskHook, %function
  80              	App_OS_IdleTaskHook:
  81              	.LFB6:
ARM GAS  C:\Users\jorti\AppData\Local\Temp\ccfPWxSL.s 			page 5


 148:APP/os_app_hooks.c ****     (void)&p_tcb;
 149:APP/os_app_hooks.c **** }
 150:APP/os_app_hooks.c **** 
 151:APP/os_app_hooks.c **** /*$PAGE*/
 152:APP/os_app_hooks.c **** /*
 153:APP/os_app_hooks.c **** ***************************************************************************************************
 154:APP/os_app_hooks.c **** *                                              APPLICATION IDLE TASK HOOK
 155:APP/os_app_hooks.c **** *
 156:APP/os_app_hooks.c **** * Description: This function is called by the idle task.  This hook has been added to allow you to 
 157:APP/os_app_hooks.c **** *              STOP the CPU to conserve power.
 158:APP/os_app_hooks.c **** *
 159:APP/os_app_hooks.c **** * Arguments  : none
 160:APP/os_app_hooks.c **** *
 161:APP/os_app_hooks.c **** * Note(s)    : none
 162:APP/os_app_hooks.c **** ***************************************************************************************************
 163:APP/os_app_hooks.c **** */
 164:APP/os_app_hooks.c **** 
 165:APP/os_app_hooks.c **** void  App_OS_IdleTaskHook (void)
 166:APP/os_app_hooks.c **** {
  82              		.loc 1 166 0
  83              		.cfi_startproc
  84              		@ args = 0, pretend = 0, frame = 0
  85              		@ frame_needed = 0, uses_anonymous_args = 0
  86              		@ link register save eliminated.
  87 0000 7047     		bx	lr
  88              		.cfi_endproc
  89              	.LFE6:
  90              		.size	App_OS_IdleTaskHook, .-App_OS_IdleTaskHook
  91 0002 00BF     		.section	.text.App_OS_StatTaskHook,"ax",%progbits
  92              		.align	2
  93              		.global	App_OS_StatTaskHook
  94              		.thumb
  95              		.thumb_func
  96              		.type	App_OS_StatTaskHook, %function
  97              	App_OS_StatTaskHook:
  98              	.LFB8:
 167:APP/os_app_hooks.c **** 
 168:APP/os_app_hooks.c **** }
 169:APP/os_app_hooks.c **** 
 170:APP/os_app_hooks.c **** /*$PAGE*/
 171:APP/os_app_hooks.c **** /*
 172:APP/os_app_hooks.c **** ***************************************************************************************************
 173:APP/os_app_hooks.c **** *                                          APPLICATION OS INITIALIZATION HOOK
 174:APP/os_app_hooks.c **** *
 175:APP/os_app_hooks.c **** * Description: This function is called by OSInit() at the beginning of OSInit().
 176:APP/os_app_hooks.c **** *
 177:APP/os_app_hooks.c **** * Arguments  : none
 178:APP/os_app_hooks.c **** *
 179:APP/os_app_hooks.c **** * Note(s)    : none
 180:APP/os_app_hooks.c **** ***************************************************************************************************
 181:APP/os_app_hooks.c **** */
 182:APP/os_app_hooks.c **** 
 183:APP/os_app_hooks.c **** void  App_OS_InitHook (void)
 184:APP/os_app_hooks.c **** {
 185:APP/os_app_hooks.c **** 
 186:APP/os_app_hooks.c **** }
 187:APP/os_app_hooks.c **** 
ARM GAS  C:\Users\jorti\AppData\Local\Temp\ccfPWxSL.s 			page 6


 188:APP/os_app_hooks.c **** /*$PAGE*/
 189:APP/os_app_hooks.c **** /*
 190:APP/os_app_hooks.c **** ***************************************************************************************************
 191:APP/os_app_hooks.c **** *                                           APPLICATION STATISTIC TASK HOOK
 192:APP/os_app_hooks.c **** *
 193:APP/os_app_hooks.c **** * Description: This function is called every second by uC/OS-III's statistics task.  This allows yo
 194:APP/os_app_hooks.c **** *              functionality to the statistics task.
 195:APP/os_app_hooks.c **** *
 196:APP/os_app_hooks.c **** * Arguments  : none
 197:APP/os_app_hooks.c **** *
 198:APP/os_app_hooks.c **** * Note(s)    : none
 199:APP/os_app_hooks.c **** ***************************************************************************************************
 200:APP/os_app_hooks.c **** */
 201:APP/os_app_hooks.c **** 
 202:APP/os_app_hooks.c **** void  App_OS_StatTaskHook (void)
 203:APP/os_app_hooks.c **** {
  99              		.loc 1 203 0
 100              		.cfi_startproc
 101              		@ args = 0, pretend = 0, frame = 0
 102              		@ frame_needed = 0, uses_anonymous_args = 0
 103              		@ link register save eliminated.
 104 0000 7047     		bx	lr
 105              		.cfi_endproc
 106              	.LFE8:
 107              		.size	App_OS_StatTaskHook, .-App_OS_StatTaskHook
 108 0002 00BF     		.section	.text.App_OS_TaskSwHook,"ax",%progbits
 109              		.align	2
 110              		.global	App_OS_TaskSwHook
 111              		.thumb
 112              		.thumb_func
 113              		.type	App_OS_TaskSwHook, %function
 114              	App_OS_TaskSwHook:
 115              	.LFB9:
 204:APP/os_app_hooks.c **** 
 205:APP/os_app_hooks.c **** }
 206:APP/os_app_hooks.c **** 
 207:APP/os_app_hooks.c **** /*$PAGE*/
 208:APP/os_app_hooks.c **** /*
 209:APP/os_app_hooks.c **** ***************************************************************************************************
 210:APP/os_app_hooks.c **** *                                             APPLICATION TASK SWITCH HOOK
 211:APP/os_app_hooks.c **** *
 212:APP/os_app_hooks.c **** * Description: This function is called when a task switch is performed.  This allows you to perform
 213:APP/os_app_hooks.c **** *              during a context switch.
 214:APP/os_app_hooks.c **** *
 215:APP/os_app_hooks.c **** * Arguments  : none
 216:APP/os_app_hooks.c **** *
 217:APP/os_app_hooks.c **** * Note(s)    : 1) Interrupts are disabled during this call.
 218:APP/os_app_hooks.c **** *              2) It is assumed that the global pointer 'OSTCBHighRdyPtr' points to the TCB of the 
 219:APP/os_app_hooks.c **** *                 'switched in' (i.e. the highest priority task) and, 'OSTCBCurPtr' points to the t
 220:APP/os_app_hooks.c **** *                 (i.e. the preempted task).
 221:APP/os_app_hooks.c **** ***************************************************************************************************
 222:APP/os_app_hooks.c **** */
 223:APP/os_app_hooks.c **** 
 224:APP/os_app_hooks.c **** void  App_OS_TaskSwHook (void)
 225:APP/os_app_hooks.c **** {
 116              		.loc 1 225 0
 117              		.cfi_startproc
ARM GAS  C:\Users\jorti\AppData\Local\Temp\ccfPWxSL.s 			page 7


 118              		@ args = 0, pretend = 0, frame = 0
 119              		@ frame_needed = 0, uses_anonymous_args = 0
 120              		@ link register save eliminated.
 121 0000 7047     		bx	lr
 122              		.cfi_endproc
 123              	.LFE9:
 124              		.size	App_OS_TaskSwHook, .-App_OS_TaskSwHook
 125 0002 00BF     		.section	.text.App_OS_TimeTickHook,"ax",%progbits
 126              		.align	2
 127              		.global	App_OS_TimeTickHook
 128              		.thumb
 129              		.thumb_func
 130              		.type	App_OS_TimeTickHook, %function
 131              	App_OS_TimeTickHook:
 132              	.LFB10:
 226:APP/os_app_hooks.c **** 
 227:APP/os_app_hooks.c **** }
 228:APP/os_app_hooks.c **** 
 229:APP/os_app_hooks.c **** /*$PAGE*/
 230:APP/os_app_hooks.c **** /*
 231:APP/os_app_hooks.c **** ***************************************************************************************************
 232:APP/os_app_hooks.c **** *                                                APPLICATION TICK HOOK
 233:APP/os_app_hooks.c **** *
 234:APP/os_app_hooks.c **** * Description: This function is called every tick.
 235:APP/os_app_hooks.c **** *
 236:APP/os_app_hooks.c **** * Arguments  : none
 237:APP/os_app_hooks.c **** *
 238:APP/os_app_hooks.c **** * Note(s)    : 1) This function is assumed to be called from the Tick ISR.
 239:APP/os_app_hooks.c **** ***************************************************************************************************
 240:APP/os_app_hooks.c **** */
 241:APP/os_app_hooks.c **** 
 242:APP/os_app_hooks.c **** void  App_OS_TimeTickHook (void)
 243:APP/os_app_hooks.c **** {
 133              		.loc 1 243 0
 134              		.cfi_startproc
 135              		@ args = 0, pretend = 0, frame = 0
 136              		@ frame_needed = 0, uses_anonymous_args = 0
 137              		@ link register save eliminated.
 138 0000 7047     		bx	lr
 139              		.cfi_endproc
 140              	.LFE10:
 141              		.size	App_OS_TimeTickHook, .-App_OS_TimeTickHook
 142 0002 00BF     		.section	.text.App_OS_SetAllHooks,"ax",%progbits
 143              		.align	2
 144              		.global	App_OS_SetAllHooks
 145              		.thumb
 146              		.thumb_func
 147              		.type	App_OS_SetAllHooks, %function
 148              	App_OS_SetAllHooks:
 149              	.LFB1:
  46:APP/os_app_hooks.c **** #if OS_CFG_APP_HOOKS_EN > 0u
 150              		.loc 1 46 0
 151              		.cfi_startproc
 152              		@ args = 0, pretend = 0, frame = 0
 153              		@ frame_needed = 0, uses_anonymous_args = 0
  46:APP/os_app_hooks.c **** #if OS_CFG_APP_HOOKS_EN > 0u
 154              		.loc 1 46 0
ARM GAS  C:\Users\jorti\AppData\Local\Temp\ccfPWxSL.s 			page 8


 155 0000 08B5     		push	{r3, lr}
 156              		.cfi_def_cfa_offset 8
 157              		.cfi_offset 3, -8
 158              		.cfi_offset 14, -4
 159              	.LVL3:
  51:APP/os_app_hooks.c ****     OS_AppTaskCreateHookPtr = App_OS_TaskCreateHook;
 160              		.loc 1 51 0
 161 0002 FFF7FEFF 		bl	CPU_SR_Save
 162              	.LVL4:
  52:APP/os_app_hooks.c ****     OS_AppTaskDelHookPtr    = App_OS_TaskDelHook;
 163              		.loc 1 52 0
 164 0006 0C4A     		ldr	r2, .L10
 165 0008 0C4B     		ldr	r3, .L10+4
 166 000a 1A60     		str	r2, [r3]
  53:APP/os_app_hooks.c ****     OS_AppTaskReturnHookPtr = App_OS_TaskReturnHook;
 167              		.loc 1 53 0
 168 000c 0C4A     		ldr	r2, .L10+8
 169 000e 0D4B     		ldr	r3, .L10+12
 170 0010 1A60     		str	r2, [r3]
  54:APP/os_app_hooks.c **** 
 171              		.loc 1 54 0
 172 0012 0D4A     		ldr	r2, .L10+16
 173 0014 0D4B     		ldr	r3, .L10+20
 174 0016 1A60     		str	r2, [r3]
  56:APP/os_app_hooks.c ****     OS_AppStatTaskHookPtr   = App_OS_StatTaskHook;
 175              		.loc 1 56 0
 176 0018 0D4A     		ldr	r2, .L10+24
 177 001a 0E4B     		ldr	r3, .L10+28
 178 001c 1A60     		str	r2, [r3]
  57:APP/os_app_hooks.c ****     OS_AppTaskSwHookPtr     = App_OS_TaskSwHook;
 179              		.loc 1 57 0
 180 001e 0E4A     		ldr	r2, .L10+32
 181 0020 0E4B     		ldr	r3, .L10+36
 182 0022 1A60     		str	r2, [r3]
  58:APP/os_app_hooks.c ****     OS_AppTimeTickHookPtr   = App_OS_TimeTickHook;
 183              		.loc 1 58 0
 184 0024 0E4A     		ldr	r2, .L10+40
 185 0026 0F4B     		ldr	r3, .L10+44
 186 0028 1A60     		str	r2, [r3]
  59:APP/os_app_hooks.c ****     CPU_CRITICAL_EXIT();
 187              		.loc 1 59 0
 188 002a 0F4A     		ldr	r2, .L10+48
 189 002c 0F4B     		ldr	r3, .L10+52
 190 002e 1A60     		str	r2, [r3]
  60:APP/os_app_hooks.c **** #endif
 191              		.loc 1 60 0
 192 0030 FFF7FEFF 		bl	CPU_SR_Restore
 193              	.LVL5:
 194 0034 08BD     		pop	{r3, pc}
 195              	.L11:
 196 0036 00BF     		.align	2
 197              	.L10:
 198 0038 00000000 		.word	App_OS_TaskCreateHook
 199 003c 00000000 		.word	OS_AppTaskCreateHookPtr
 200 0040 00000000 		.word	App_OS_TaskDelHook
 201 0044 00000000 		.word	OS_AppTaskDelHookPtr
 202 0048 00000000 		.word	App_OS_TaskReturnHook
ARM GAS  C:\Users\jorti\AppData\Local\Temp\ccfPWxSL.s 			page 9


 203 004c 00000000 		.word	OS_AppTaskReturnHookPtr
 204 0050 00000000 		.word	App_OS_IdleTaskHook
 205 0054 00000000 		.word	OS_AppIdleTaskHookPtr
 206 0058 00000000 		.word	App_OS_StatTaskHook
 207 005c 00000000 		.word	OS_AppStatTaskHookPtr
 208 0060 00000000 		.word	App_OS_TaskSwHook
 209 0064 00000000 		.word	OS_AppTaskSwHookPtr
 210 0068 00000000 		.word	App_OS_TimeTickHook
 211 006c 00000000 		.word	OS_AppTimeTickHookPtr
 212              		.cfi_endproc
 213              	.LFE1:
 214              		.size	App_OS_SetAllHooks, .-App_OS_SetAllHooks
 215              		.section	.text.App_OS_ClrAllHooks,"ax",%progbits
 216              		.align	2
 217              		.global	App_OS_ClrAllHooks
 218              		.thumb
 219              		.thumb_func
 220              		.type	App_OS_ClrAllHooks, %function
 221              	App_OS_ClrAllHooks:
 222              	.LFB2:
  78:APP/os_app_hooks.c **** #if OS_CFG_APP_HOOKS_EN > 0u
 223              		.loc 1 78 0
 224              		.cfi_startproc
 225              		@ args = 0, pretend = 0, frame = 0
 226              		@ frame_needed = 0, uses_anonymous_args = 0
 227 0000 08B5     		push	{r3, lr}
 228              		.cfi_def_cfa_offset 8
 229              		.cfi_offset 3, -8
 230              		.cfi_offset 14, -4
 231              	.LVL6:
  83:APP/os_app_hooks.c ****     OS_AppTaskCreateHookPtr = (OS_APP_HOOK_TCB)0;
 232              		.loc 1 83 0
 233 0002 FFF7FEFF 		bl	CPU_SR_Save
 234              	.LVL7:
  84:APP/os_app_hooks.c ****     OS_AppTaskDelHookPtr    = (OS_APP_HOOK_TCB)0;
 235              		.loc 1 84 0
 236 0006 0023     		movs	r3, #0
 237 0008 084A     		ldr	r2, .L14
 238 000a 1360     		str	r3, [r2]
  85:APP/os_app_hooks.c ****     OS_AppTaskReturnHookPtr = (OS_APP_HOOK_TCB)0;
 239              		.loc 1 85 0
 240 000c 084A     		ldr	r2, .L14+4
 241 000e 1360     		str	r3, [r2]
  86:APP/os_app_hooks.c **** 
 242              		.loc 1 86 0
 243 0010 084A     		ldr	r2, .L14+8
 244 0012 1360     		str	r3, [r2]
  88:APP/os_app_hooks.c ****     OS_AppStatTaskHookPtr   = (OS_APP_HOOK_VOID)0;
 245              		.loc 1 88 0
 246 0014 084A     		ldr	r2, .L14+12
 247 0016 1360     		str	r3, [r2]
  89:APP/os_app_hooks.c ****     OS_AppTaskSwHookPtr     = (OS_APP_HOOK_VOID)0;
 248              		.loc 1 89 0
 249 0018 084A     		ldr	r2, .L14+16
 250 001a 1360     		str	r3, [r2]
  90:APP/os_app_hooks.c ****     OS_AppTimeTickHookPtr   = (OS_APP_HOOK_VOID)0;
 251              		.loc 1 90 0
ARM GAS  C:\Users\jorti\AppData\Local\Temp\ccfPWxSL.s 			page 10


 252 001c 084A     		ldr	r2, .L14+20
 253 001e 1360     		str	r3, [r2]
  91:APP/os_app_hooks.c ****     CPU_CRITICAL_EXIT();
 254              		.loc 1 91 0
 255 0020 084A     		ldr	r2, .L14+24
 256 0022 1360     		str	r3, [r2]
  92:APP/os_app_hooks.c **** #endif
 257              		.loc 1 92 0
 258 0024 FFF7FEFF 		bl	CPU_SR_Restore
 259              	.LVL8:
 260 0028 08BD     		pop	{r3, pc}
 261              	.L15:
 262 002a 00BF     		.align	2
 263              	.L14:
 264 002c 00000000 		.word	OS_AppTaskCreateHookPtr
 265 0030 00000000 		.word	OS_AppTaskDelHookPtr
 266 0034 00000000 		.word	OS_AppTaskReturnHookPtr
 267 0038 00000000 		.word	OS_AppIdleTaskHookPtr
 268 003c 00000000 		.word	OS_AppStatTaskHookPtr
 269 0040 00000000 		.word	OS_AppTaskSwHookPtr
 270 0044 00000000 		.word	OS_AppTimeTickHookPtr
 271              		.cfi_endproc
 272              	.LFE2:
 273              		.size	App_OS_ClrAllHooks, .-App_OS_ClrAllHooks
 274              		.section	.text.App_OS_InitHook,"ax",%progbits
 275              		.align	2
 276              		.global	App_OS_InitHook
 277              		.thumb
 278              		.thumb_func
 279              		.type	App_OS_InitHook, %function
 280              	App_OS_InitHook:
 281              	.LFB7:
 184:APP/os_app_hooks.c **** 
 282              		.loc 1 184 0
 283              		.cfi_startproc
 284              		@ args = 0, pretend = 0, frame = 0
 285              		@ frame_needed = 0, uses_anonymous_args = 0
 286              		@ link register save eliminated.
 287 0000 7047     		bx	lr
 288              		.cfi_endproc
 289              	.LFE7:
 290              		.size	App_OS_InitHook, .-App_OS_InitHook
 291 0002 00BF     		.text
 292              	.Letext0:
 293              		.file 2 ".\\uC-CPU\\ARM-Cortex-M3\\GNU/cpu.h"
 294              		.file 3 ".\\uC-CPU/cpu_core.h"
 295              		.file 4 ".\\uCOS-III\\Source/os_type.h"
 296              		.file 5 ".\\uCOS-III\\Source/os.h"