ARM GAS  C:\Users\jorti\AppData\Local\Temp\ccrI1gpf.s 			page 1


   1              		.syntax unified
   2              		.cpu cortex-m3
   3              		.fpu softvfp
   4              		.eabi_attribute 20, 1
   5              		.eabi_attribute 21, 1
   6              		.eabi_attribute 23, 3
   7              		.eabi_attribute 24, 1
   8              		.eabi_attribute 25, 1
   9              		.eabi_attribute 26, 1
  10              		.eabi_attribute 30, 1
  11              		.eabi_attribute 34, 1
  12              		.eabi_attribute 18, 4
  13              		.thumb
  14              		.syntax unified
  15              		.file	"os_cpu_c.c"
  16              		.text
  17              	.Ltext0:
  18              		.cfi_sections	.debug_frame
  19              		.section	.text.OSIdleTaskHook,"ax",%progbits
  20              		.align	2
  21              		.global	OSIdleTaskHook
  22              		.thumb
  23              		.thumb_func
  24              		.type	OSIdleTaskHook, %function
  25              	OSIdleTaskHook:
  26              	.LFB1:
  27              		.file 1 "uCOS-III\\Ports\\ARM-Cortex-M3\\Generic\\GNU\\os_cpu_c.c"
   1:uCOS-III\Ports\ARM-Cortex-M3\Generic\GNU/os_cpu_c.c **** /*
   2:uCOS-III\Ports\ARM-Cortex-M3\Generic\GNU/os_cpu_c.c **** ***************************************************************************************************
   3:uCOS-III\Ports\ARM-Cortex-M3\Generic\GNU/os_cpu_c.c **** *                                                uC/OS-III
   4:uCOS-III\Ports\ARM-Cortex-M3\Generic\GNU/os_cpu_c.c **** *                                          The Real-Time Kernel
   5:uCOS-III\Ports\ARM-Cortex-M3\Generic\GNU/os_cpu_c.c **** *
   6:uCOS-III\Ports\ARM-Cortex-M3\Generic\GNU/os_cpu_c.c **** *
   7:uCOS-III\Ports\ARM-Cortex-M3\Generic\GNU/os_cpu_c.c **** *                           (c) Copyright 2009-2010; Micrium, Inc.; Weston, FL
   8:uCOS-III\Ports\ARM-Cortex-M3\Generic\GNU/os_cpu_c.c **** *                    All rights reserved.  Protected by international copyright laws.
   9:uCOS-III\Ports\ARM-Cortex-M3\Generic\GNU/os_cpu_c.c **** *
  10:uCOS-III\Ports\ARM-Cortex-M3\Generic\GNU/os_cpu_c.c **** *                                           ARM Cortex-M3 Port
  11:uCOS-III\Ports\ARM-Cortex-M3\Generic\GNU/os_cpu_c.c **** *
  12:uCOS-III\Ports\ARM-Cortex-M3\Generic\GNU/os_cpu_c.c **** * File      : OS_CPU_C.C
  13:uCOS-III\Ports\ARM-Cortex-M3\Generic\GNU/os_cpu_c.c **** * Version   : V3.01.2
  14:uCOS-III\Ports\ARM-Cortex-M3\Generic\GNU/os_cpu_c.c **** * By        : JJL
  15:uCOS-III\Ports\ARM-Cortex-M3\Generic\GNU/os_cpu_c.c **** *             FT
  16:uCOS-III\Ports\ARM-Cortex-M3\Generic\GNU/os_cpu_c.c **** *
  17:uCOS-III\Ports\ARM-Cortex-M3\Generic\GNU/os_cpu_c.c **** * LICENSING TERMS:
  18:uCOS-III\Ports\ARM-Cortex-M3\Generic\GNU/os_cpu_c.c **** * ---------------
  19:uCOS-III\Ports\ARM-Cortex-M3\Generic\GNU/os_cpu_c.c **** *             uC/OS-III is provided in source form to registered licensees ONLY.  It is 
  20:uCOS-III\Ports\ARM-Cortex-M3\Generic\GNU/os_cpu_c.c **** *             illegal to distribute this source code to any third party unless you receive 
  21:uCOS-III\Ports\ARM-Cortex-M3\Generic\GNU/os_cpu_c.c **** *             written permission by an authorized Micrium representative.  Knowledge of 
  22:uCOS-III\Ports\ARM-Cortex-M3\Generic\GNU/os_cpu_c.c **** *             the source code may NOT be used to develop a similar product.
  23:uCOS-III\Ports\ARM-Cortex-M3\Generic\GNU/os_cpu_c.c **** *
  24:uCOS-III\Ports\ARM-Cortex-M3\Generic\GNU/os_cpu_c.c **** *             Please help us continue to provide the Embedded community with the finest
  25:uCOS-III\Ports\ARM-Cortex-M3\Generic\GNU/os_cpu_c.c **** *             software available.  Your honesty is greatly appreciated.
  26:uCOS-III\Ports\ARM-Cortex-M3\Generic\GNU/os_cpu_c.c **** *
  27:uCOS-III\Ports\ARM-Cortex-M3\Generic\GNU/os_cpu_c.c **** *             You can contact us at www.micrium.com.
  28:uCOS-III\Ports\ARM-Cortex-M3\Generic\GNU/os_cpu_c.c **** *
  29:uCOS-III\Ports\ARM-Cortex-M3\Generic\GNU/os_cpu_c.c **** * For       : ARMv7M Cortex-M3
  30:uCOS-III\Ports\ARM-Cortex-M3\Generic\GNU/os_cpu_c.c **** * Mode      : Thumb2
ARM GAS  C:\Users\jorti\AppData\Local\Temp\ccrI1gpf.s 			page 2


  31:uCOS-III\Ports\ARM-Cortex-M3\Generic\GNU/os_cpu_c.c **** * Toolchain : GNU C Compiler
  32:uCOS-III\Ports\ARM-Cortex-M3\Generic\GNU/os_cpu_c.c **** ***************************************************************************************************
  33:uCOS-III\Ports\ARM-Cortex-M3\Generic\GNU/os_cpu_c.c **** */
  34:uCOS-III\Ports\ARM-Cortex-M3\Generic\GNU/os_cpu_c.c **** 
  35:uCOS-III\Ports\ARM-Cortex-M3\Generic\GNU/os_cpu_c.c **** #define   OS_CPU_GLOBALS
  36:uCOS-III\Ports\ARM-Cortex-M3\Generic\GNU/os_cpu_c.c **** 
  37:uCOS-III\Ports\ARM-Cortex-M3\Generic\GNU/os_cpu_c.c **** #ifdef VSC_INCLUDE_SOURCE_FILE_NAMES
  38:uCOS-III\Ports\ARM-Cortex-M3\Generic\GNU/os_cpu_c.c **** const  CPU_CHAR  *os_cpu_c__c = "$Id: $";
  39:uCOS-III\Ports\ARM-Cortex-M3\Generic\GNU/os_cpu_c.c **** #endif
  40:uCOS-III\Ports\ARM-Cortex-M3\Generic\GNU/os_cpu_c.c **** 
  41:uCOS-III\Ports\ARM-Cortex-M3\Generic\GNU/os_cpu_c.c **** /*$PAGE*/
  42:uCOS-III\Ports\ARM-Cortex-M3\Generic\GNU/os_cpu_c.c **** /*
  43:uCOS-III\Ports\ARM-Cortex-M3\Generic\GNU/os_cpu_c.c **** ***************************************************************************************************
  44:uCOS-III\Ports\ARM-Cortex-M3\Generic\GNU/os_cpu_c.c **** *                                             INCLUDE FILES
  45:uCOS-III\Ports\ARM-Cortex-M3\Generic\GNU/os_cpu_c.c **** ***************************************************************************************************
  46:uCOS-III\Ports\ARM-Cortex-M3\Generic\GNU/os_cpu_c.c **** */
  47:uCOS-III\Ports\ARM-Cortex-M3\Generic\GNU/os_cpu_c.c **** 
  48:uCOS-III\Ports\ARM-Cortex-M3\Generic\GNU/os_cpu_c.c **** #include  <os.h>
  49:uCOS-III\Ports\ARM-Cortex-M3\Generic\GNU/os_cpu_c.c **** 
  50:uCOS-III\Ports\ARM-Cortex-M3\Generic\GNU/os_cpu_c.c **** /*
  51:uCOS-III\Ports\ARM-Cortex-M3\Generic\GNU/os_cpu_c.c **** ***************************************************************************************************
  52:uCOS-III\Ports\ARM-Cortex-M3\Generic\GNU/os_cpu_c.c **** *                                           IDLE TASK HOOK
  53:uCOS-III\Ports\ARM-Cortex-M3\Generic\GNU/os_cpu_c.c **** *
  54:uCOS-III\Ports\ARM-Cortex-M3\Generic\GNU/os_cpu_c.c **** * Description: This function is called by the idle task.  This hook has been added to allow you to 
  55:uCOS-III\Ports\ARM-Cortex-M3\Generic\GNU/os_cpu_c.c **** *              such things as STOP the CPU to conserve power.
  56:uCOS-III\Ports\ARM-Cortex-M3\Generic\GNU/os_cpu_c.c **** *
  57:uCOS-III\Ports\ARM-Cortex-M3\Generic\GNU/os_cpu_c.c **** * Arguments  : None.
  58:uCOS-III\Ports\ARM-Cortex-M3\Generic\GNU/os_cpu_c.c **** *
  59:uCOS-III\Ports\ARM-Cortex-M3\Generic\GNU/os_cpu_c.c **** * Note(s)    : None.
  60:uCOS-III\Ports\ARM-Cortex-M3\Generic\GNU/os_cpu_c.c **** ***************************************************************************************************
  61:uCOS-III\Ports\ARM-Cortex-M3\Generic\GNU/os_cpu_c.c **** */
  62:uCOS-III\Ports\ARM-Cortex-M3\Generic\GNU/os_cpu_c.c **** 
  63:uCOS-III\Ports\ARM-Cortex-M3\Generic\GNU/os_cpu_c.c **** void  OSIdleTaskHook (void)
  64:uCOS-III\Ports\ARM-Cortex-M3\Generic\GNU/os_cpu_c.c **** {
  28              		.loc 1 64 0
  29              		.cfi_startproc
  30              		@ args = 0, pretend = 0, frame = 0
  31              		@ frame_needed = 0, uses_anonymous_args = 0
  32 0000 08B5     		push	{r3, lr}
  33              		.cfi_def_cfa_offset 8
  34              		.cfi_offset 3, -8
  35              		.cfi_offset 14, -4
  65:uCOS-III\Ports\ARM-Cortex-M3\Generic\GNU/os_cpu_c.c **** #if OS_CFG_APP_HOOKS_EN > 0u
  66:uCOS-III\Ports\ARM-Cortex-M3\Generic\GNU/os_cpu_c.c ****     if (OS_AppIdleTaskHookPtr != (OS_APP_HOOK_VOID)0) {
  36              		.loc 1 66 0
  37 0002 024B     		ldr	r3, .L4
  38 0004 1B68     		ldr	r3, [r3]
  39 0006 03B1     		cbz	r3, .L1
  67:uCOS-III\Ports\ARM-Cortex-M3\Generic\GNU/os_cpu_c.c ****         (*OS_AppIdleTaskHookPtr)();
  40              		.loc 1 67 0
  41 0008 9847     		blx	r3
  42              	.LVL0:
  43              	.L1:
  44 000a 08BD     		pop	{r3, pc}
  45              	.L5:
  46              		.align	2
  47              	.L4:
ARM GAS  C:\Users\jorti\AppData\Local\Temp\ccrI1gpf.s 			page 3


  48 000c 00000000 		.word	OS_AppIdleTaskHookPtr
  49              		.cfi_endproc
  50              	.LFE1:
  51              		.size	OSIdleTaskHook, .-OSIdleTaskHook
  52              		.section	.text.OSInitHook,"ax",%progbits
  53              		.align	2
  54              		.global	OSInitHook
  55              		.thumb
  56              		.thumb_func
  57              		.type	OSInitHook, %function
  58              	OSInitHook:
  59              	.LFB2:
  68:uCOS-III\Ports\ARM-Cortex-M3\Generic\GNU/os_cpu_c.c ****     }
  69:uCOS-III\Ports\ARM-Cortex-M3\Generic\GNU/os_cpu_c.c **** #endif
  70:uCOS-III\Ports\ARM-Cortex-M3\Generic\GNU/os_cpu_c.c **** }
  71:uCOS-III\Ports\ARM-Cortex-M3\Generic\GNU/os_cpu_c.c **** 
  72:uCOS-III\Ports\ARM-Cortex-M3\Generic\GNU/os_cpu_c.c **** 
  73:uCOS-III\Ports\ARM-Cortex-M3\Generic\GNU/os_cpu_c.c **** /*$PAGE*/
  74:uCOS-III\Ports\ARM-Cortex-M3\Generic\GNU/os_cpu_c.c **** /*
  75:uCOS-III\Ports\ARM-Cortex-M3\Generic\GNU/os_cpu_c.c **** ***************************************************************************************************
  76:uCOS-III\Ports\ARM-Cortex-M3\Generic\GNU/os_cpu_c.c **** *                                       OS INITIALIZATION HOOK
  77:uCOS-III\Ports\ARM-Cortex-M3\Generic\GNU/os_cpu_c.c **** *
  78:uCOS-III\Ports\ARM-Cortex-M3\Generic\GNU/os_cpu_c.c **** * Description: This function is called by OSInit() at the beginning of OSInit().
  79:uCOS-III\Ports\ARM-Cortex-M3\Generic\GNU/os_cpu_c.c **** *
  80:uCOS-III\Ports\ARM-Cortex-M3\Generic\GNU/os_cpu_c.c **** * Arguments  : None.
  81:uCOS-III\Ports\ARM-Cortex-M3\Generic\GNU/os_cpu_c.c **** *
  82:uCOS-III\Ports\ARM-Cortex-M3\Generic\GNU/os_cpu_c.c **** * Note(s)    : None.
  83:uCOS-III\Ports\ARM-Cortex-M3\Generic\GNU/os_cpu_c.c **** ***************************************************************************************************
  84:uCOS-III\Ports\ARM-Cortex-M3\Generic\GNU/os_cpu_c.c **** */
  85:uCOS-III\Ports\ARM-Cortex-M3\Generic\GNU/os_cpu_c.c **** 
  86:uCOS-III\Ports\ARM-Cortex-M3\Generic\GNU/os_cpu_c.c **** void  OSInitHook (void)
  87:uCOS-III\Ports\ARM-Cortex-M3\Generic\GNU/os_cpu_c.c **** {
  60              		.loc 1 87 0
  61              		.cfi_startproc
  62              		@ args = 0, pretend = 0, frame = 0
  63              		@ frame_needed = 0, uses_anonymous_args = 0
  64              		@ link register save eliminated.
  65 0000 10B4     		push	{r4}
  66              		.cfi_def_cfa_offset 4
  67              		.cfi_offset 4, -4
  88:uCOS-III\Ports\ARM-Cortex-M3\Generic\GNU/os_cpu_c.c ****     CPU_STK_SIZE   i;
  89:uCOS-III\Ports\ARM-Cortex-M3\Generic\GNU/os_cpu_c.c ****     CPU_STK       *p_stk;
  90:uCOS-III\Ports\ARM-Cortex-M3\Generic\GNU/os_cpu_c.c **** 
  91:uCOS-III\Ports\ARM-Cortex-M3\Generic\GNU/os_cpu_c.c **** 
  92:uCOS-III\Ports\ARM-Cortex-M3\Generic\GNU/os_cpu_c.c ****     p_stk = OSCfg_ISRStkBasePtr;                            /* Clear the ISR stack                 
  68              		.loc 1 92 0
  69 0002 0B4B     		ldr	r3, .L10
  70 0004 1C68     		ldr	r4, [r3]
  71              	.LVL1:
  72 0006 2246     		mov	r2, r4
  93:uCOS-III\Ports\ARM-Cortex-M3\Generic\GNU/os_cpu_c.c ****     for (i = 0u; i < OSCfg_ISRStkSize; i++) {
  73              		.loc 1 93 0
  74 0008 0023     		movs	r3, #0
  75 000a 03E0     		b	.L7
  76              	.LVL2:
  77              	.L8:
  94:uCOS-III\Ports\ARM-Cortex-M3\Generic\GNU/os_cpu_c.c ****         *p_stk++ = (CPU_STK)0u;
ARM GAS  C:\Users\jorti\AppData\Local\Temp\ccrI1gpf.s 			page 4


  78              		.loc 1 94 0 discriminator 3
  79 000c 0020     		movs	r0, #0
  80 000e 1060     		str	r0, [r2]
  93:uCOS-III\Ports\ARM-Cortex-M3\Generic\GNU/os_cpu_c.c ****     for (i = 0u; i < OSCfg_ISRStkSize; i++) {
  81              		.loc 1 93 0 discriminator 3
  82 0010 0133     		adds	r3, r3, #1
  83              	.LVL3:
  84              		.loc 1 94 0 discriminator 3
  85 0012 0432     		adds	r2, r2, #4
  86              	.LVL4:
  87              	.L7:
  93:uCOS-III\Ports\ARM-Cortex-M3\Generic\GNU/os_cpu_c.c ****     for (i = 0u; i < OSCfg_ISRStkSize; i++) {
  88              		.loc 1 93 0 discriminator 1
  89 0014 0748     		ldr	r0, .L10+4
  90 0016 0168     		ldr	r1, [r0]
  91 0018 8B42     		cmp	r3, r1
  92 001a F7D3     		bcc	.L8
  95:uCOS-III\Ports\ARM-Cortex-M3\Generic\GNU/os_cpu_c.c ****     }
  96:uCOS-III\Ports\ARM-Cortex-M3\Generic\GNU/os_cpu_c.c ****     OS_CPU_ExceptStkBase = (CPU_STK *)(OSCfg_ISRStkBasePtr + OSCfg_ISRStkSize - 1u);
  93              		.loc 1 96 0
  94 001c 01F18041 		add	r1, r1, #1073741824
  95 0020 0139     		subs	r1, r1, #1
  96 0022 04EB8101 		add	r1, r4, r1, lsl #2
  97 0026 044B     		ldr	r3, .L10+8
  98              	.LVL5:
  99 0028 1960     		str	r1, [r3]
  97:uCOS-III\Ports\ARM-Cortex-M3\Generic\GNU/os_cpu_c.c **** }
 100              		.loc 1 97 0
 101 002a 10BC     		pop	{r4}
 102              		.cfi_restore 4
 103              		.cfi_def_cfa_offset 0
 104 002c 7047     		bx	lr
 105              	.L11:
 106 002e 00BF     		.align	2
 107              	.L10:
 108 0030 00000000 		.word	OSCfg_ISRStkBasePtr
 109 0034 00000000 		.word	OSCfg_ISRStkSize
 110 0038 00000000 		.word	OS_CPU_ExceptStkBase
 111              		.cfi_endproc
 112              	.LFE2:
 113              		.size	OSInitHook, .-OSInitHook
 114              		.section	.text.OSStatTaskHook,"ax",%progbits
 115              		.align	2
 116              		.global	OSStatTaskHook
 117              		.thumb
 118              		.thumb_func
 119              		.type	OSStatTaskHook, %function
 120              	OSStatTaskHook:
 121              	.LFB3:
  98:uCOS-III\Ports\ARM-Cortex-M3\Generic\GNU/os_cpu_c.c **** 
  99:uCOS-III\Ports\ARM-Cortex-M3\Generic\GNU/os_cpu_c.c **** 
 100:uCOS-III\Ports\ARM-Cortex-M3\Generic\GNU/os_cpu_c.c **** /*$PAGE*/
 101:uCOS-III\Ports\ARM-Cortex-M3\Generic\GNU/os_cpu_c.c **** /*
 102:uCOS-III\Ports\ARM-Cortex-M3\Generic\GNU/os_cpu_c.c **** ***************************************************************************************************
 103:uCOS-III\Ports\ARM-Cortex-M3\Generic\GNU/os_cpu_c.c **** *                                         STATISTIC TASK HOOK
 104:uCOS-III\Ports\ARM-Cortex-M3\Generic\GNU/os_cpu_c.c **** *
 105:uCOS-III\Ports\ARM-Cortex-M3\Generic\GNU/os_cpu_c.c **** * Description: This function is called every second by uC/OS-III's statistics task.  This allows yo
ARM GAS  C:\Users\jorti\AppData\Local\Temp\ccrI1gpf.s 			page 5


 106:uCOS-III\Ports\ARM-Cortex-M3\Generic\GNU/os_cpu_c.c **** *              application to add functionality to the statistics task.
 107:uCOS-III\Ports\ARM-Cortex-M3\Generic\GNU/os_cpu_c.c **** *
 108:uCOS-III\Ports\ARM-Cortex-M3\Generic\GNU/os_cpu_c.c **** * Arguments  : None.
 109:uCOS-III\Ports\ARM-Cortex-M3\Generic\GNU/os_cpu_c.c **** *
 110:uCOS-III\Ports\ARM-Cortex-M3\Generic\GNU/os_cpu_c.c **** * Note(s)    : None.
 111:uCOS-III\Ports\ARM-Cortex-M3\Generic\GNU/os_cpu_c.c **** ***************************************************************************************************
 112:uCOS-III\Ports\ARM-Cortex-M3\Generic\GNU/os_cpu_c.c **** */
 113:uCOS-III\Ports\ARM-Cortex-M3\Generic\GNU/os_cpu_c.c **** 
 114:uCOS-III\Ports\ARM-Cortex-M3\Generic\GNU/os_cpu_c.c **** void  OSStatTaskHook (void)
 115:uCOS-III\Ports\ARM-Cortex-M3\Generic\GNU/os_cpu_c.c **** {
 122              		.loc 1 115 0
 123              		.cfi_startproc
 124              		@ args = 0, pretend = 0, frame = 0
 125              		@ frame_needed = 0, uses_anonymous_args = 0
 126 0000 08B5     		push	{r3, lr}
 127              		.cfi_def_cfa_offset 8
 128              		.cfi_offset 3, -8
 129              		.cfi_offset 14, -4
 116:uCOS-III\Ports\ARM-Cortex-M3\Generic\GNU/os_cpu_c.c **** #if OS_CFG_APP_HOOKS_EN > 0u
 117:uCOS-III\Ports\ARM-Cortex-M3\Generic\GNU/os_cpu_c.c ****     if (OS_AppStatTaskHookPtr != (OS_APP_HOOK_VOID)0) {
 130              		.loc 1 117 0
 131 0002 024B     		ldr	r3, .L15
 132 0004 1B68     		ldr	r3, [r3]
 133 0006 03B1     		cbz	r3, .L12
 118:uCOS-III\Ports\ARM-Cortex-M3\Generic\GNU/os_cpu_c.c ****         (*OS_AppStatTaskHookPtr)();
 134              		.loc 1 118 0
 135 0008 9847     		blx	r3
 136              	.LVL6:
 137              	.L12:
 138 000a 08BD     		pop	{r3, pc}
 139              	.L16:
 140              		.align	2
 141              	.L15:
 142 000c 00000000 		.word	OS_AppStatTaskHookPtr
 143              		.cfi_endproc
 144              	.LFE3:
 145              		.size	OSStatTaskHook, .-OSStatTaskHook
 146              		.section	.text.OSTaskCreateHook,"ax",%progbits
 147              		.align	2
 148              		.global	OSTaskCreateHook
 149              		.thumb
 150              		.thumb_func
 151              		.type	OSTaskCreateHook, %function
 152              	OSTaskCreateHook:
 153              	.LFB4:
 119:uCOS-III\Ports\ARM-Cortex-M3\Generic\GNU/os_cpu_c.c ****     }
 120:uCOS-III\Ports\ARM-Cortex-M3\Generic\GNU/os_cpu_c.c **** #endif
 121:uCOS-III\Ports\ARM-Cortex-M3\Generic\GNU/os_cpu_c.c **** }
 122:uCOS-III\Ports\ARM-Cortex-M3\Generic\GNU/os_cpu_c.c **** 
 123:uCOS-III\Ports\ARM-Cortex-M3\Generic\GNU/os_cpu_c.c **** 
 124:uCOS-III\Ports\ARM-Cortex-M3\Generic\GNU/os_cpu_c.c **** /*$PAGE*/
 125:uCOS-III\Ports\ARM-Cortex-M3\Generic\GNU/os_cpu_c.c **** /*
 126:uCOS-III\Ports\ARM-Cortex-M3\Generic\GNU/os_cpu_c.c **** ***************************************************************************************************
 127:uCOS-III\Ports\ARM-Cortex-M3\Generic\GNU/os_cpu_c.c **** *                                          TASK CREATION HOOK
 128:uCOS-III\Ports\ARM-Cortex-M3\Generic\GNU/os_cpu_c.c **** *
 129:uCOS-III\Ports\ARM-Cortex-M3\Generic\GNU/os_cpu_c.c **** * Description: This function is called when a task is created.
 130:uCOS-III\Ports\ARM-Cortex-M3\Generic\GNU/os_cpu_c.c **** *
ARM GAS  C:\Users\jorti\AppData\Local\Temp\ccrI1gpf.s 			page 6


 131:uCOS-III\Ports\ARM-Cortex-M3\Generic\GNU/os_cpu_c.c **** * Arguments  : p_tcb        Pointer to the task control block of the task being created.
 132:uCOS-III\Ports\ARM-Cortex-M3\Generic\GNU/os_cpu_c.c **** *
 133:uCOS-III\Ports\ARM-Cortex-M3\Generic\GNU/os_cpu_c.c **** * Note(s)    : None.
 134:uCOS-III\Ports\ARM-Cortex-M3\Generic\GNU/os_cpu_c.c **** ***************************************************************************************************
 135:uCOS-III\Ports\ARM-Cortex-M3\Generic\GNU/os_cpu_c.c **** */
 136:uCOS-III\Ports\ARM-Cortex-M3\Generic\GNU/os_cpu_c.c **** 
 137:uCOS-III\Ports\ARM-Cortex-M3\Generic\GNU/os_cpu_c.c **** void  OSTaskCreateHook (OS_TCB  *p_tcb)
 138:uCOS-III\Ports\ARM-Cortex-M3\Generic\GNU/os_cpu_c.c **** {
 154              		.loc 1 138 0
 155              		.cfi_startproc
 156              		@ args = 0, pretend = 0, frame = 0
 157              		@ frame_needed = 0, uses_anonymous_args = 0
 158              	.LVL7:
 159 0000 08B5     		push	{r3, lr}
 160              		.cfi_def_cfa_offset 8
 161              		.cfi_offset 3, -8
 162              		.cfi_offset 14, -4
 139:uCOS-III\Ports\ARM-Cortex-M3\Generic\GNU/os_cpu_c.c **** #if OS_CFG_APP_HOOKS_EN > 0u
 140:uCOS-III\Ports\ARM-Cortex-M3\Generic\GNU/os_cpu_c.c ****     if (OS_AppTaskCreateHookPtr != (OS_APP_HOOK_TCB)0) {
 163              		.loc 1 140 0
 164 0002 024B     		ldr	r3, .L20
 165 0004 1B68     		ldr	r3, [r3]
 166 0006 03B1     		cbz	r3, .L17
 141:uCOS-III\Ports\ARM-Cortex-M3\Generic\GNU/os_cpu_c.c ****         (*OS_AppTaskCreateHookPtr)(p_tcb);
 167              		.loc 1 141 0
 168 0008 9847     		blx	r3
 169              	.LVL8:
 170              	.L17:
 171 000a 08BD     		pop	{r3, pc}
 172              	.L21:
 173              		.align	2
 174              	.L20:
 175 000c 00000000 		.word	OS_AppTaskCreateHookPtr
 176              		.cfi_endproc
 177              	.LFE4:
 178              		.size	OSTaskCreateHook, .-OSTaskCreateHook
 179              		.section	.text.OSTaskDelHook,"ax",%progbits
 180              		.align	2
 181              		.global	OSTaskDelHook
 182              		.thumb
 183              		.thumb_func
 184              		.type	OSTaskDelHook, %function
 185              	OSTaskDelHook:
 186              	.LFB5:
 142:uCOS-III\Ports\ARM-Cortex-M3\Generic\GNU/os_cpu_c.c ****     }
 143:uCOS-III\Ports\ARM-Cortex-M3\Generic\GNU/os_cpu_c.c **** #else
 144:uCOS-III\Ports\ARM-Cortex-M3\Generic\GNU/os_cpu_c.c ****     (void)p_tcb;                                            /* Prevent compiler warning            
 145:uCOS-III\Ports\ARM-Cortex-M3\Generic\GNU/os_cpu_c.c **** #endif
 146:uCOS-III\Ports\ARM-Cortex-M3\Generic\GNU/os_cpu_c.c **** }
 147:uCOS-III\Ports\ARM-Cortex-M3\Generic\GNU/os_cpu_c.c **** 
 148:uCOS-III\Ports\ARM-Cortex-M3\Generic\GNU/os_cpu_c.c **** 
 149:uCOS-III\Ports\ARM-Cortex-M3\Generic\GNU/os_cpu_c.c **** /*$PAGE*/
 150:uCOS-III\Ports\ARM-Cortex-M3\Generic\GNU/os_cpu_c.c **** /*
 151:uCOS-III\Ports\ARM-Cortex-M3\Generic\GNU/os_cpu_c.c **** ***************************************************************************************************
 152:uCOS-III\Ports\ARM-Cortex-M3\Generic\GNU/os_cpu_c.c **** *                                           TASK DELETION HOOK
 153:uCOS-III\Ports\ARM-Cortex-M3\Generic\GNU/os_cpu_c.c **** *
 154:uCOS-III\Ports\ARM-Cortex-M3\Generic\GNU/os_cpu_c.c **** * Description: This function is called when a task is deleted.
ARM GAS  C:\Users\jorti\AppData\Local\Temp\ccrI1gpf.s 			page 7


 155:uCOS-III\Ports\ARM-Cortex-M3\Generic\GNU/os_cpu_c.c **** *
 156:uCOS-III\Ports\ARM-Cortex-M3\Generic\GNU/os_cpu_c.c **** * Arguments  : p_tcb        Pointer to the task control block of the task being deleted.
 157:uCOS-III\Ports\ARM-Cortex-M3\Generic\GNU/os_cpu_c.c **** *
 158:uCOS-III\Ports\ARM-Cortex-M3\Generic\GNU/os_cpu_c.c **** * Note(s)    : None.
 159:uCOS-III\Ports\ARM-Cortex-M3\Generic\GNU/os_cpu_c.c **** ***************************************************************************************************
 160:uCOS-III\Ports\ARM-Cortex-M3\Generic\GNU/os_cpu_c.c **** */
 161:uCOS-III\Ports\ARM-Cortex-M3\Generic\GNU/os_cpu_c.c **** 
 162:uCOS-III\Ports\ARM-Cortex-M3\Generic\GNU/os_cpu_c.c **** void  OSTaskDelHook (OS_TCB  *p_tcb)
 163:uCOS-III\Ports\ARM-Cortex-M3\Generic\GNU/os_cpu_c.c **** {
 187              		.loc 1 163 0
 188              		.cfi_startproc
 189              		@ args = 0, pretend = 0, frame = 0
 190              		@ frame_needed = 0, uses_anonymous_args = 0
 191              	.LVL9:
 192 0000 08B5     		push	{r3, lr}
 193              		.cfi_def_cfa_offset 8
 194              		.cfi_offset 3, -8
 195              		.cfi_offset 14, -4
 164:uCOS-III\Ports\ARM-Cortex-M3\Generic\GNU/os_cpu_c.c **** #if OS_CFG_APP_HOOKS_EN > 0u
 165:uCOS-III\Ports\ARM-Cortex-M3\Generic\GNU/os_cpu_c.c ****     if (OS_AppTaskDelHookPtr != (OS_APP_HOOK_TCB)0) {
 196              		.loc 1 165 0
 197 0002 024B     		ldr	r3, .L25
 198 0004 1B68     		ldr	r3, [r3]
 199 0006 03B1     		cbz	r3, .L22
 166:uCOS-III\Ports\ARM-Cortex-M3\Generic\GNU/os_cpu_c.c ****         (*OS_AppTaskDelHookPtr)(p_tcb);
 200              		.loc 1 166 0
 201 0008 9847     		blx	r3
 202              	.LVL10:
 203              	.L22:
 204 000a 08BD     		pop	{r3, pc}
 205              	.L26:
 206              		.align	2
 207              	.L25:
 208 000c 00000000 		.word	OS_AppTaskDelHookPtr
 209              		.cfi_endproc
 210              	.LFE5:
 211              		.size	OSTaskDelHook, .-OSTaskDelHook
 212              		.section	.text.OSTaskReturnHook,"ax",%progbits
 213              		.align	2
 214              		.global	OSTaskReturnHook
 215              		.thumb
 216              		.thumb_func
 217              		.type	OSTaskReturnHook, %function
 218              	OSTaskReturnHook:
 219              	.LFB6:
 167:uCOS-III\Ports\ARM-Cortex-M3\Generic\GNU/os_cpu_c.c ****     }
 168:uCOS-III\Ports\ARM-Cortex-M3\Generic\GNU/os_cpu_c.c **** #else
 169:uCOS-III\Ports\ARM-Cortex-M3\Generic\GNU/os_cpu_c.c ****     (void)p_tcb;                                            /* Prevent compiler warning            
 170:uCOS-III\Ports\ARM-Cortex-M3\Generic\GNU/os_cpu_c.c **** #endif
 171:uCOS-III\Ports\ARM-Cortex-M3\Generic\GNU/os_cpu_c.c **** }
 172:uCOS-III\Ports\ARM-Cortex-M3\Generic\GNU/os_cpu_c.c **** 
 173:uCOS-III\Ports\ARM-Cortex-M3\Generic\GNU/os_cpu_c.c **** 
 174:uCOS-III\Ports\ARM-Cortex-M3\Generic\GNU/os_cpu_c.c **** /*$PAGE*/
 175:uCOS-III\Ports\ARM-Cortex-M3\Generic\GNU/os_cpu_c.c **** /*
 176:uCOS-III\Ports\ARM-Cortex-M3\Generic\GNU/os_cpu_c.c **** ***************************************************************************************************
 177:uCOS-III\Ports\ARM-Cortex-M3\Generic\GNU/os_cpu_c.c **** *                                            TASK RETURN HOOK
 178:uCOS-III\Ports\ARM-Cortex-M3\Generic\GNU/os_cpu_c.c **** *
ARM GAS  C:\Users\jorti\AppData\Local\Temp\ccrI1gpf.s 			page 8


 179:uCOS-III\Ports\ARM-Cortex-M3\Generic\GNU/os_cpu_c.c **** * Description: This function is called if a task accidentally returns.  In other words, a task shou
 180:uCOS-III\Ports\ARM-Cortex-M3\Generic\GNU/os_cpu_c.c **** *              either be an infinite loop or delete itself when done.
 181:uCOS-III\Ports\ARM-Cortex-M3\Generic\GNU/os_cpu_c.c **** *
 182:uCOS-III\Ports\ARM-Cortex-M3\Generic\GNU/os_cpu_c.c **** * Arguments  : p_tcb        Pointer to the task control block of the task that is returning.
 183:uCOS-III\Ports\ARM-Cortex-M3\Generic\GNU/os_cpu_c.c **** *
 184:uCOS-III\Ports\ARM-Cortex-M3\Generic\GNU/os_cpu_c.c **** * Note(s)    : None.
 185:uCOS-III\Ports\ARM-Cortex-M3\Generic\GNU/os_cpu_c.c **** ***************************************************************************************************
 186:uCOS-III\Ports\ARM-Cortex-M3\Generic\GNU/os_cpu_c.c **** */
 187:uCOS-III\Ports\ARM-Cortex-M3\Generic\GNU/os_cpu_c.c **** 
 188:uCOS-III\Ports\ARM-Cortex-M3\Generic\GNU/os_cpu_c.c **** void  OSTaskReturnHook (OS_TCB  *p_tcb)
 189:uCOS-III\Ports\ARM-Cortex-M3\Generic\GNU/os_cpu_c.c **** {
 220              		.loc 1 189 0
 221              		.cfi_startproc
 222              		@ args = 0, pretend = 0, frame = 0
 223              		@ frame_needed = 0, uses_anonymous_args = 0
 224              	.LVL11:
 225 0000 08B5     		push	{r3, lr}
 226              		.cfi_def_cfa_offset 8
 227              		.cfi_offset 3, -8
 228              		.cfi_offset 14, -4
 190:uCOS-III\Ports\ARM-Cortex-M3\Generic\GNU/os_cpu_c.c **** #if OS_CFG_APP_HOOKS_EN > 0u
 191:uCOS-III\Ports\ARM-Cortex-M3\Generic\GNU/os_cpu_c.c ****     if (OS_AppTaskReturnHookPtr != (OS_APP_HOOK_TCB)0) {
 229              		.loc 1 191 0
 230 0002 024B     		ldr	r3, .L30
 231 0004 1B68     		ldr	r3, [r3]
 232 0006 03B1     		cbz	r3, .L27
 192:uCOS-III\Ports\ARM-Cortex-M3\Generic\GNU/os_cpu_c.c ****         (*OS_AppTaskReturnHookPtr)(p_tcb);
 233              		.loc 1 192 0
 234 0008 9847     		blx	r3
 235              	.LVL12:
 236              	.L27:
 237 000a 08BD     		pop	{r3, pc}
 238              	.L31:
 239              		.align	2
 240              	.L30:
 241 000c 00000000 		.word	OS_AppTaskReturnHookPtr
 242              		.cfi_endproc
 243              	.LFE6:
 244              		.size	OSTaskReturnHook, .-OSTaskReturnHook
 245              		.section	.text.OSTaskStkInit,"ax",%progbits
 246              		.align	2
 247              		.global	OSTaskStkInit
 248              		.thumb
 249              		.thumb_func
 250              		.type	OSTaskStkInit, %function
 251              	OSTaskStkInit:
 252              	.LFB7:
 193:uCOS-III\Ports\ARM-Cortex-M3\Generic\GNU/os_cpu_c.c ****     }
 194:uCOS-III\Ports\ARM-Cortex-M3\Generic\GNU/os_cpu_c.c **** #else
 195:uCOS-III\Ports\ARM-Cortex-M3\Generic\GNU/os_cpu_c.c ****     (void)p_tcb;                                            /* Prevent compiler warning            
 196:uCOS-III\Ports\ARM-Cortex-M3\Generic\GNU/os_cpu_c.c **** #endif
 197:uCOS-III\Ports\ARM-Cortex-M3\Generic\GNU/os_cpu_c.c **** }
 198:uCOS-III\Ports\ARM-Cortex-M3\Generic\GNU/os_cpu_c.c **** 
 199:uCOS-III\Ports\ARM-Cortex-M3\Generic\GNU/os_cpu_c.c **** 
 200:uCOS-III\Ports\ARM-Cortex-M3\Generic\GNU/os_cpu_c.c **** /*$PAGE*/
 201:uCOS-III\Ports\ARM-Cortex-M3\Generic\GNU/os_cpu_c.c **** /*
 202:uCOS-III\Ports\ARM-Cortex-M3\Generic\GNU/os_cpu_c.c **** ***************************************************************************************************
ARM GAS  C:\Users\jorti\AppData\Local\Temp\ccrI1gpf.s 			page 9


 203:uCOS-III\Ports\ARM-Cortex-M3\Generic\GNU/os_cpu_c.c **** *                                       INITIALIZE A TASK'S STACK
 204:uCOS-III\Ports\ARM-Cortex-M3\Generic\GNU/os_cpu_c.c **** *
 205:uCOS-III\Ports\ARM-Cortex-M3\Generic\GNU/os_cpu_c.c **** * Description: This function is called by OS_Task_Create() or OSTaskCreateExt() to initialize the s
 206:uCOS-III\Ports\ARM-Cortex-M3\Generic\GNU/os_cpu_c.c **** *              frame of the task being created. This function is highly processor specific.
 207:uCOS-III\Ports\ARM-Cortex-M3\Generic\GNU/os_cpu_c.c **** *
 208:uCOS-III\Ports\ARM-Cortex-M3\Generic\GNU/os_cpu_c.c **** * Arguments  : p_task       Pointer to the task entry point address.
 209:uCOS-III\Ports\ARM-Cortex-M3\Generic\GNU/os_cpu_c.c **** *
 210:uCOS-III\Ports\ARM-Cortex-M3\Generic\GNU/os_cpu_c.c **** *              p_arg        Pointer to a user supplied data area that will be passed to the task
 211:uCOS-III\Ports\ARM-Cortex-M3\Generic\GNU/os_cpu_c.c **** *                               when the task first executes.
 212:uCOS-III\Ports\ARM-Cortex-M3\Generic\GNU/os_cpu_c.c **** *
 213:uCOS-III\Ports\ARM-Cortex-M3\Generic\GNU/os_cpu_c.c **** *              p_stk_base   Pointer to the base address of the stack.
 214:uCOS-III\Ports\ARM-Cortex-M3\Generic\GNU/os_cpu_c.c **** *
 215:uCOS-III\Ports\ARM-Cortex-M3\Generic\GNU/os_cpu_c.c **** *              stk_size     Size of the stack, in number of CPU_STK elements.
 216:uCOS-III\Ports\ARM-Cortex-M3\Generic\GNU/os_cpu_c.c **** *
 217:uCOS-III\Ports\ARM-Cortex-M3\Generic\GNU/os_cpu_c.c **** *              opt          Options used to alter the behavior of OS_Task_StkInit().
 218:uCOS-III\Ports\ARM-Cortex-M3\Generic\GNU/os_cpu_c.c **** *                            (see OS.H for OS_TASK_OPT_xxx).
 219:uCOS-III\Ports\ARM-Cortex-M3\Generic\GNU/os_cpu_c.c **** *
 220:uCOS-III\Ports\ARM-Cortex-M3\Generic\GNU/os_cpu_c.c **** * Returns    : Always returns the location of the new top-of-stack' once the processor registers ha
 221:uCOS-III\Ports\ARM-Cortex-M3\Generic\GNU/os_cpu_c.c **** *              been placed on the stack in the proper order.
 222:uCOS-III\Ports\ARM-Cortex-M3\Generic\GNU/os_cpu_c.c **** *
 223:uCOS-III\Ports\ARM-Cortex-M3\Generic\GNU/os_cpu_c.c **** * Note(s)    : 1) Interrupts are enabled when task starts executing.
 224:uCOS-III\Ports\ARM-Cortex-M3\Generic\GNU/os_cpu_c.c **** *
 225:uCOS-III\Ports\ARM-Cortex-M3\Generic\GNU/os_cpu_c.c **** *              2) All tasks run in Thread mode, using process stack.
 226:uCOS-III\Ports\ARM-Cortex-M3\Generic\GNU/os_cpu_c.c **** ***************************************************************************************************
 227:uCOS-III\Ports\ARM-Cortex-M3\Generic\GNU/os_cpu_c.c **** */
 228:uCOS-III\Ports\ARM-Cortex-M3\Generic\GNU/os_cpu_c.c **** 
 229:uCOS-III\Ports\ARM-Cortex-M3\Generic\GNU/os_cpu_c.c **** CPU_STK  *OSTaskStkInit (OS_TASK_PTR    p_task,
 230:uCOS-III\Ports\ARM-Cortex-M3\Generic\GNU/os_cpu_c.c ****                          void          *p_arg,
 231:uCOS-III\Ports\ARM-Cortex-M3\Generic\GNU/os_cpu_c.c ****                          CPU_STK       *p_stk_base,
 232:uCOS-III\Ports\ARM-Cortex-M3\Generic\GNU/os_cpu_c.c ****                          CPU_STK       *p_stk_limit,
 233:uCOS-III\Ports\ARM-Cortex-M3\Generic\GNU/os_cpu_c.c ****                          CPU_STK_SIZE   stk_size,
 234:uCOS-III\Ports\ARM-Cortex-M3\Generic\GNU/os_cpu_c.c ****                          OS_OPT         opt)
 235:uCOS-III\Ports\ARM-Cortex-M3\Generic\GNU/os_cpu_c.c **** {
 253              		.loc 1 235 0
 254              		.cfi_startproc
 255              		@ args = 8, pretend = 0, frame = 0
 256              		@ frame_needed = 0, uses_anonymous_args = 0
 257              		@ link register save eliminated.
 258              	.LVL13:
 259 0000 10B4     		push	{r4}
 260              		.cfi_def_cfa_offset 4
 261              		.cfi_offset 4, -4
 236:uCOS-III\Ports\ARM-Cortex-M3\Generic\GNU/os_cpu_c.c ****     CPU_STK  *p_stk;
 237:uCOS-III\Ports\ARM-Cortex-M3\Generic\GNU/os_cpu_c.c **** 
 238:uCOS-III\Ports\ARM-Cortex-M3\Generic\GNU/os_cpu_c.c **** 
 239:uCOS-III\Ports\ARM-Cortex-M3\Generic\GNU/os_cpu_c.c ****     (void)opt;                                              /* Prevent compiler warning            
 240:uCOS-III\Ports\ARM-Cortex-M3\Generic\GNU/os_cpu_c.c **** 
 241:uCOS-III\Ports\ARM-Cortex-M3\Generic\GNU/os_cpu_c.c ****     p_stk = &p_stk_base[stk_size];                          /* Load stack pointer                  
 262              		.loc 1 241 0
 263 0002 019C     		ldr	r4, [sp, #4]
 264 0004 02EB8402 		add	r2, r2, r4, lsl #2
 265              	.LVL14:
 242:uCOS-III\Ports\ARM-Cortex-M3\Generic\GNU/os_cpu_c.c ****                                                             /* Registers stacked as if auto-saved o
 243:uCOS-III\Ports\ARM-Cortex-M3\Generic\GNU/os_cpu_c.c ****     *--p_stk = (CPU_STK)0x01000000u;                        /* xPSR                                
 266              		.loc 1 243 0
 267 0008 4FF08074 		mov	r4, #16777216
 268 000c 42F8044C 		str	r4, [r2, #-4]
ARM GAS  C:\Users\jorti\AppData\Local\Temp\ccrI1gpf.s 			page 10


 269              	.LVL15:
 244:uCOS-III\Ports\ARM-Cortex-M3\Generic\GNU/os_cpu_c.c ****     *--p_stk = (CPU_STK)p_task;                             /* Entry Point                         
 270              		.loc 1 244 0
 271 0010 42F8080C 		str	r0, [r2, #-8]
 272              	.LVL16:
 245:uCOS-III\Ports\ARM-Cortex-M3\Generic\GNU/os_cpu_c.c ****     *--p_stk = (CPU_STK)OS_TaskReturn;                      /* R14 (LR)                            
 273              		.loc 1 245 0
 274 0014 1B48     		ldr	r0, .L34
 275              	.LVL17:
 276 0016 42F80C0C 		str	r0, [r2, #-12]
 277              	.LVL18:
 246:uCOS-III\Ports\ARM-Cortex-M3\Generic\GNU/os_cpu_c.c ****     *--p_stk = (CPU_STK)0x12121212u;                        /* R12                                 
 278              		.loc 1 246 0
 279 001a 4FF01230 		mov	r0, #303174162
 280 001e 42F8100C 		str	r0, [r2, #-16]
 281              	.LVL19:
 247:uCOS-III\Ports\ARM-Cortex-M3\Generic\GNU/os_cpu_c.c ****     *--p_stk = (CPU_STK)0x03030303u;                        /* R3                                  
 282              		.loc 1 247 0
 283 0022 4FF00330 		mov	r0, #50529027
 284 0026 42F8140C 		str	r0, [r2, #-20]
 285              	.LVL20:
 248:uCOS-III\Ports\ARM-Cortex-M3\Generic\GNU/os_cpu_c.c ****     *--p_stk = (CPU_STK)0x02020202u;                        /* R2                                  
 286              		.loc 1 248 0
 287 002a 4FF00230 		mov	r0, #33686018
 288 002e 42F8180C 		str	r0, [r2, #-24]
 289              	.LVL21:
 249:uCOS-III\Ports\ARM-Cortex-M3\Generic\GNU/os_cpu_c.c ****     *--p_stk = (CPU_STK)p_stk_limit;                        /* R1                                  
 290              		.loc 1 249 0
 291 0032 42F81C3C 		str	r3, [r2, #-28]
 292              	.LVL22:
 250:uCOS-III\Ports\ARM-Cortex-M3\Generic\GNU/os_cpu_c.c ****     *--p_stk = (CPU_STK)p_arg;                              /* R0 : argument                       
 293              		.loc 1 250 0
 294 0036 42F8201C 		str	r1, [r2, #-32]
 295              	.LVL23:
 251:uCOS-III\Ports\ARM-Cortex-M3\Generic\GNU/os_cpu_c.c ****                                                             /* Remaining registers saved on process
 252:uCOS-III\Ports\ARM-Cortex-M3\Generic\GNU/os_cpu_c.c ****     *--p_stk = (CPU_STK)0x11111111u;                        /* R11                                 
 296              		.loc 1 252 0
 297 003a 4FF01133 		mov	r3, #286331153
 298              	.LVL24:
 299 003e 42F8243C 		str	r3, [r2, #-36]
 300              	.LVL25:
 253:uCOS-III\Ports\ARM-Cortex-M3\Generic\GNU/os_cpu_c.c ****     *--p_stk = (CPU_STK)0x10101010u;                        /* R10                                 
 301              		.loc 1 253 0
 302 0042 4FF01033 		mov	r3, #269488144
 303 0046 42F8283C 		str	r3, [r2, #-40]
 304              	.LVL26:
 254:uCOS-III\Ports\ARM-Cortex-M3\Generic\GNU/os_cpu_c.c ****     *--p_stk = (CPU_STK)0x09090909u;                        /* R9                                  
 305              		.loc 1 254 0
 306 004a 4FF00933 		mov	r3, #151587081
 307 004e 42F82C3C 		str	r3, [r2, #-44]
 308              	.LVL27:
 255:uCOS-III\Ports\ARM-Cortex-M3\Generic\GNU/os_cpu_c.c ****     *--p_stk = (CPU_STK)0x08080808u;                        /* R8                                  
 309              		.loc 1 255 0
 310 0052 4FF00833 		mov	r3, #134744072
 311 0056 42F8303C 		str	r3, [r2, #-48]
 312              	.LVL28:
 256:uCOS-III\Ports\ARM-Cortex-M3\Generic\GNU/os_cpu_c.c ****     *--p_stk = (CPU_STK)0x07070707u;                        /* R7                                  
ARM GAS  C:\Users\jorti\AppData\Local\Temp\ccrI1gpf.s 			page 11


 313              		.loc 1 256 0
 314 005a 4FF00733 		mov	r3, #117901063
 315 005e 42F8343C 		str	r3, [r2, #-52]
 316              	.LVL29:
 257:uCOS-III\Ports\ARM-Cortex-M3\Generic\GNU/os_cpu_c.c ****     *--p_stk = (CPU_STK)0x06060606u;                        /* R6                                  
 317              		.loc 1 257 0
 318 0062 4FF00633 		mov	r3, #101058054
 319 0066 42F8383C 		str	r3, [r2, #-56]
 320              	.LVL30:
 258:uCOS-III\Ports\ARM-Cortex-M3\Generic\GNU/os_cpu_c.c ****     *--p_stk = (CPU_STK)0x05050505u;                        /* R5                                  
 321              		.loc 1 258 0
 322 006a 4FF00533 		mov	r3, #84215045
 323 006e 42F83C3C 		str	r3, [r2, #-60]
 324              	.LVL31:
 259:uCOS-III\Ports\ARM-Cortex-M3\Generic\GNU/os_cpu_c.c ****     *--p_stk = (CPU_STK)0x04040404u;                        /* R4                                  
 325              		.loc 1 259 0
 326 0072 4FF00433 		mov	r3, #67372036
 327 0076 42F8403C 		str	r3, [r2, #-64]
 260:uCOS-III\Ports\ARM-Cortex-M3\Generic\GNU/os_cpu_c.c **** 
 261:uCOS-III\Ports\ARM-Cortex-M3\Generic\GNU/os_cpu_c.c ****     return (p_stk);
 262:uCOS-III\Ports\ARM-Cortex-M3\Generic\GNU/os_cpu_c.c **** }
 328              		.loc 1 262 0
 329 007a A2F14000 		sub	r0, r2, #64
 330              	.LVL32:
 331 007e 10BC     		pop	{r4}
 332              		.cfi_restore 4
 333              		.cfi_def_cfa_offset 0
 334              	.LVL33:
 335 0080 7047     		bx	lr
 336              	.L35:
 337 0082 00BF     		.align	2
 338              	.L34:
 339 0084 00000000 		.word	OS_TaskReturn
 340              		.cfi_endproc
 341              	.LFE7:
 342              		.size	OSTaskStkInit, .-OSTaskStkInit
 343              		.section	.text.OSTaskSwHook,"ax",%progbits
 344              		.align	2
 345              		.global	OSTaskSwHook
 346              		.thumb
 347              		.thumb_func
 348              		.type	OSTaskSwHook, %function
 349              	OSTaskSwHook:
 350              	.LFB8:
 263:uCOS-III\Ports\ARM-Cortex-M3\Generic\GNU/os_cpu_c.c **** 
 264:uCOS-III\Ports\ARM-Cortex-M3\Generic\GNU/os_cpu_c.c **** 
 265:uCOS-III\Ports\ARM-Cortex-M3\Generic\GNU/os_cpu_c.c **** /*$PAGE*/
 266:uCOS-III\Ports\ARM-Cortex-M3\Generic\GNU/os_cpu_c.c **** /*
 267:uCOS-III\Ports\ARM-Cortex-M3\Generic\GNU/os_cpu_c.c **** ***************************************************************************************************
 268:uCOS-III\Ports\ARM-Cortex-M3\Generic\GNU/os_cpu_c.c **** *                                           TASK SWITCH HOOK
 269:uCOS-III\Ports\ARM-Cortex-M3\Generic\GNU/os_cpu_c.c **** *
 270:uCOS-III\Ports\ARM-Cortex-M3\Generic\GNU/os_cpu_c.c **** * Description: This function is called when a task switch is performed.  This allows you to perform
 271:uCOS-III\Ports\ARM-Cortex-M3\Generic\GNU/os_cpu_c.c **** *              operations during a context switch.
 272:uCOS-III\Ports\ARM-Cortex-M3\Generic\GNU/os_cpu_c.c **** *
 273:uCOS-III\Ports\ARM-Cortex-M3\Generic\GNU/os_cpu_c.c **** * Arguments  : None.
 274:uCOS-III\Ports\ARM-Cortex-M3\Generic\GNU/os_cpu_c.c **** *
 275:uCOS-III\Ports\ARM-Cortex-M3\Generic\GNU/os_cpu_c.c **** * Note(s)    : 1) Interrupts are disabled during this call.
ARM GAS  C:\Users\jorti\AppData\Local\Temp\ccrI1gpf.s 			page 12


 276:uCOS-III\Ports\ARM-Cortex-M3\Generic\GNU/os_cpu_c.c **** *              2) It is assumed that the global pointer 'OSTCBHighRdyPtr' points to the TCB of the 
 277:uCOS-III\Ports\ARM-Cortex-M3\Generic\GNU/os_cpu_c.c **** *                 that will be 'switched in' (i.e. the highest priority task) and, 'OSTCBCurPtr' po
 278:uCOS-III\Ports\ARM-Cortex-M3\Generic\GNU/os_cpu_c.c **** *                 to the task being switched out (i.e. the preempted task).
 279:uCOS-III\Ports\ARM-Cortex-M3\Generic\GNU/os_cpu_c.c **** ***************************************************************************************************
 280:uCOS-III\Ports\ARM-Cortex-M3\Generic\GNU/os_cpu_c.c **** */
 281:uCOS-III\Ports\ARM-Cortex-M3\Generic\GNU/os_cpu_c.c **** 
 282:uCOS-III\Ports\ARM-Cortex-M3\Generic\GNU/os_cpu_c.c **** void  OSTaskSwHook (void)
 283:uCOS-III\Ports\ARM-Cortex-M3\Generic\GNU/os_cpu_c.c **** {
 351              		.loc 1 283 0
 352              		.cfi_startproc
 353              		@ args = 0, pretend = 0, frame = 0
 354              		@ frame_needed = 0, uses_anonymous_args = 0
 355 0000 10B5     		push	{r4, lr}
 356              		.cfi_def_cfa_offset 8
 357              		.cfi_offset 4, -8
 358              		.cfi_offset 14, -4
 284:uCOS-III\Ports\ARM-Cortex-M3\Generic\GNU/os_cpu_c.c **** #if OS_CFG_TASK_PROFILE_EN > 0u
 285:uCOS-III\Ports\ARM-Cortex-M3\Generic\GNU/os_cpu_c.c ****     CPU_TS  ts;
 286:uCOS-III\Ports\ARM-Cortex-M3\Generic\GNU/os_cpu_c.c **** #endif
 287:uCOS-III\Ports\ARM-Cortex-M3\Generic\GNU/os_cpu_c.c **** #ifdef  CPU_CFG_INT_DIS_MEAS_EN
 288:uCOS-III\Ports\ARM-Cortex-M3\Generic\GNU/os_cpu_c.c ****     CPU_TS  int_dis_time;
 289:uCOS-III\Ports\ARM-Cortex-M3\Generic\GNU/os_cpu_c.c **** #endif
 290:uCOS-III\Ports\ARM-Cortex-M3\Generic\GNU/os_cpu_c.c **** 
 291:uCOS-III\Ports\ARM-Cortex-M3\Generic\GNU/os_cpu_c.c **** 
 292:uCOS-III\Ports\ARM-Cortex-M3\Generic\GNU/os_cpu_c.c **** 
 293:uCOS-III\Ports\ARM-Cortex-M3\Generic\GNU/os_cpu_c.c **** #if OS_CFG_APP_HOOKS_EN > 0u
 294:uCOS-III\Ports\ARM-Cortex-M3\Generic\GNU/os_cpu_c.c ****     if (OS_AppTaskSwHookPtr != (OS_APP_HOOK_VOID)0) {
 359              		.loc 1 294 0
 360 0002 0C4B     		ldr	r3, .L40
 361 0004 1B68     		ldr	r3, [r3]
 362 0006 03B1     		cbz	r3, .L37
 295:uCOS-III\Ports\ARM-Cortex-M3\Generic\GNU/os_cpu_c.c ****         (*OS_AppTaskSwHookPtr)();
 363              		.loc 1 295 0
 364 0008 9847     		blx	r3
 365              	.LVL34:
 366              	.L37:
 296:uCOS-III\Ports\ARM-Cortex-M3\Generic\GNU/os_cpu_c.c ****     }
 297:uCOS-III\Ports\ARM-Cortex-M3\Generic\GNU/os_cpu_c.c **** #endif
 298:uCOS-III\Ports\ARM-Cortex-M3\Generic\GNU/os_cpu_c.c **** 
 299:uCOS-III\Ports\ARM-Cortex-M3\Generic\GNU/os_cpu_c.c **** #if OS_CFG_TASK_PROFILE_EN > 0u
 300:uCOS-III\Ports\ARM-Cortex-M3\Generic\GNU/os_cpu_c.c ****     ts = OS_TS_GET();
 367              		.loc 1 300 0
 368 000a FFF7FEFF 		bl	CPU_TS_TmrRd
 369              	.LVL35:
 301:uCOS-III\Ports\ARM-Cortex-M3\Generic\GNU/os_cpu_c.c ****     if (OSTCBCurPtr != OSTCBHighRdyPtr) {
 370              		.loc 1 301 0
 371 000e 0A4B     		ldr	r3, .L40+4
 372 0010 1A68     		ldr	r2, [r3]
 373 0012 0A4B     		ldr	r3, .L40+8
 374 0014 1968     		ldr	r1, [r3]
 375 0016 8A42     		cmp	r2, r1
 376 0018 09D0     		beq	.L38
 302:uCOS-III\Ports\ARM-Cortex-M3\Generic\GNU/os_cpu_c.c ****         OSTCBCurPtr->CyclesDelta  = ts - OSTCBCurPtr->CyclesStart;
 377              		.loc 1 302 0
 378 001a D2F89830 		ldr	r3, [r2, #152]
 379 001e C31A     		subs	r3, r0, r3
 380 0020 C2F89430 		str	r3, [r2, #148]
ARM GAS  C:\Users\jorti\AppData\Local\Temp\ccrI1gpf.s 			page 13


 303:uCOS-III\Ports\ARM-Cortex-M3\Generic\GNU/os_cpu_c.c ****         OSTCBCurPtr->CyclesTotal += (OS_CYCLES)OSTCBCurPtr->CyclesDelta;
 381              		.loc 1 303 0
 382 0024 D2F89C40 		ldr	r4, [r2, #156]
 383 0028 2344     		add	r3, r3, r4
 384 002a C2F89C30 		str	r3, [r2, #156]
 385              	.L38:
 304:uCOS-III\Ports\ARM-Cortex-M3\Generic\GNU/os_cpu_c.c ****     }
 305:uCOS-III\Ports\ARM-Cortex-M3\Generic\GNU/os_cpu_c.c **** 
 306:uCOS-III\Ports\ARM-Cortex-M3\Generic\GNU/os_cpu_c.c ****     OSTCBHighRdyPtr->CyclesStart = ts;
 386              		.loc 1 306 0
 387 002e C1F89800 		str	r0, [r1, #152]
 388 0032 10BD     		pop	{r4, pc}
 389              	.L41:
 390              		.align	2
 391              	.L40:
 392 0034 00000000 		.word	OS_AppTaskSwHookPtr
 393 0038 00000000 		.word	OSTCBCurPtr
 394 003c 00000000 		.word	OSTCBHighRdyPtr
 395              		.cfi_endproc
 396              	.LFE8:
 397              		.size	OSTaskSwHook, .-OSTaskSwHook
 398              		.section	.text.OSTimeTickHook,"ax",%progbits
 399              		.align	2
 400              		.global	OSTimeTickHook
 401              		.thumb
 402              		.thumb_func
 403              		.type	OSTimeTickHook, %function
 404              	OSTimeTickHook:
 405              	.LFB9:
 307:uCOS-III\Ports\ARM-Cortex-M3\Generic\GNU/os_cpu_c.c **** #endif
 308:uCOS-III\Ports\ARM-Cortex-M3\Generic\GNU/os_cpu_c.c **** 
 309:uCOS-III\Ports\ARM-Cortex-M3\Generic\GNU/os_cpu_c.c **** #ifdef  CPU_CFG_INT_DIS_MEAS_EN
 310:uCOS-III\Ports\ARM-Cortex-M3\Generic\GNU/os_cpu_c.c ****     int_dis_time = CPU_IntDisMeasMaxCurReset();             /* Keep track of per-task interrupt dis
 311:uCOS-III\Ports\ARM-Cortex-M3\Generic\GNU/os_cpu_c.c ****     if (OSTCBCurPtr->IntDisTimeMax < int_dis_time) {
 312:uCOS-III\Ports\ARM-Cortex-M3\Generic\GNU/os_cpu_c.c ****         OSTCBCurPtr->IntDisTimeMax = int_dis_time;
 313:uCOS-III\Ports\ARM-Cortex-M3\Generic\GNU/os_cpu_c.c ****     }
 314:uCOS-III\Ports\ARM-Cortex-M3\Generic\GNU/os_cpu_c.c **** #endif
 315:uCOS-III\Ports\ARM-Cortex-M3\Generic\GNU/os_cpu_c.c **** 
 316:uCOS-III\Ports\ARM-Cortex-M3\Generic\GNU/os_cpu_c.c **** #if OS_CFG_SCHED_LOCK_TIME_MEAS_EN > 0u
 317:uCOS-III\Ports\ARM-Cortex-M3\Generic\GNU/os_cpu_c.c ****                                                             /* Keep track of per-task scheduler loc
 318:uCOS-III\Ports\ARM-Cortex-M3\Generic\GNU/os_cpu_c.c ****     if (OSTCBCurPtr->SchedLockTimeMax < OSSchedLockTimeMaxCur) {
 319:uCOS-III\Ports\ARM-Cortex-M3\Generic\GNU/os_cpu_c.c ****         OSTCBCurPtr->SchedLockTimeMax = OSSchedLockTimeMaxCur;
 320:uCOS-III\Ports\ARM-Cortex-M3\Generic\GNU/os_cpu_c.c ****     }
 321:uCOS-III\Ports\ARM-Cortex-M3\Generic\GNU/os_cpu_c.c ****     OSSchedLockTimeMaxCur = (CPU_TS)0;                      /* Reset the per-task value            
 322:uCOS-III\Ports\ARM-Cortex-M3\Generic\GNU/os_cpu_c.c **** #endif
 323:uCOS-III\Ports\ARM-Cortex-M3\Generic\GNU/os_cpu_c.c **** }
 324:uCOS-III\Ports\ARM-Cortex-M3\Generic\GNU/os_cpu_c.c **** 
 325:uCOS-III\Ports\ARM-Cortex-M3\Generic\GNU/os_cpu_c.c **** 
 326:uCOS-III\Ports\ARM-Cortex-M3\Generic\GNU/os_cpu_c.c **** /*$PAGE*/
 327:uCOS-III\Ports\ARM-Cortex-M3\Generic\GNU/os_cpu_c.c **** /*
 328:uCOS-III\Ports\ARM-Cortex-M3\Generic\GNU/os_cpu_c.c **** ***************************************************************************************************
 329:uCOS-III\Ports\ARM-Cortex-M3\Generic\GNU/os_cpu_c.c **** *                                              TICK HOOK
 330:uCOS-III\Ports\ARM-Cortex-M3\Generic\GNU/os_cpu_c.c **** *
 331:uCOS-III\Ports\ARM-Cortex-M3\Generic\GNU/os_cpu_c.c **** * Description: This function is called every tick.
 332:uCOS-III\Ports\ARM-Cortex-M3\Generic\GNU/os_cpu_c.c **** *
 333:uCOS-III\Ports\ARM-Cortex-M3\Generic\GNU/os_cpu_c.c **** * Arguments  : None.
 334:uCOS-III\Ports\ARM-Cortex-M3\Generic\GNU/os_cpu_c.c **** *
ARM GAS  C:\Users\jorti\AppData\Local\Temp\ccrI1gpf.s 			page 14


 335:uCOS-III\Ports\ARM-Cortex-M3\Generic\GNU/os_cpu_c.c **** * Note(s)    : 1) This function is assumed to be called from the Tick ISR.
 336:uCOS-III\Ports\ARM-Cortex-M3\Generic\GNU/os_cpu_c.c **** ***************************************************************************************************
 337:uCOS-III\Ports\ARM-Cortex-M3\Generic\GNU/os_cpu_c.c **** */
 338:uCOS-III\Ports\ARM-Cortex-M3\Generic\GNU/os_cpu_c.c **** 
 339:uCOS-III\Ports\ARM-Cortex-M3\Generic\GNU/os_cpu_c.c **** void  OSTimeTickHook (void)
 340:uCOS-III\Ports\ARM-Cortex-M3\Generic\GNU/os_cpu_c.c **** {
 406              		.loc 1 340 0
 407              		.cfi_startproc
 408              		@ args = 0, pretend = 0, frame = 0
 409              		@ frame_needed = 0, uses_anonymous_args = 0
 410 0000 08B5     		push	{r3, lr}
 411              		.cfi_def_cfa_offset 8
 412              		.cfi_offset 3, -8
 413              		.cfi_offset 14, -4
 341:uCOS-III\Ports\ARM-Cortex-M3\Generic\GNU/os_cpu_c.c **** #if OS_CFG_APP_HOOKS_EN > 0u
 342:uCOS-III\Ports\ARM-Cortex-M3\Generic\GNU/os_cpu_c.c ****     if (OS_AppTimeTickHookPtr != (OS_APP_HOOK_VOID)0) {
 414              		.loc 1 342 0
 415 0002 024B     		ldr	r3, .L45
 416 0004 1B68     		ldr	r3, [r3]
 417 0006 03B1     		cbz	r3, .L42
 343:uCOS-III\Ports\ARM-Cortex-M3\Generic\GNU/os_cpu_c.c ****         (*OS_AppTimeTickHookPtr)();
 418              		.loc 1 343 0
 419 0008 9847     		blx	r3
 420              	.LVL36:
 421              	.L42:
 422 000a 08BD     		pop	{r3, pc}
 423              	.L46:
 424              		.align	2
 425              	.L45:
 426 000c 00000000 		.word	OS_AppTimeTickHookPtr
 427              		.cfi_endproc
 428              	.LFE9:
 429              		.size	OSTimeTickHook, .-OSTimeTickHook
 430              		.section	.text.OS_CPU_SysTickHandler,"ax",%progbits
 431              		.align	2
 432              		.global	OS_CPU_SysTickHandler
 433              		.thumb
 434              		.thumb_func
 435              		.type	OS_CPU_SysTickHandler, %function
 436              	OS_CPU_SysTickHandler:
 437              	.LFB10:
 344:uCOS-III\Ports\ARM-Cortex-M3\Generic\GNU/os_cpu_c.c ****     }
 345:uCOS-III\Ports\ARM-Cortex-M3\Generic\GNU/os_cpu_c.c **** #endif
 346:uCOS-III\Ports\ARM-Cortex-M3\Generic\GNU/os_cpu_c.c **** }
 347:uCOS-III\Ports\ARM-Cortex-M3\Generic\GNU/os_cpu_c.c **** 
 348:uCOS-III\Ports\ARM-Cortex-M3\Generic\GNU/os_cpu_c.c **** 
 349:uCOS-III\Ports\ARM-Cortex-M3\Generic\GNU/os_cpu_c.c **** /*$PAGE*/
 350:uCOS-III\Ports\ARM-Cortex-M3\Generic\GNU/os_cpu_c.c **** /*
 351:uCOS-III\Ports\ARM-Cortex-M3\Generic\GNU/os_cpu_c.c **** ***************************************************************************************************
 352:uCOS-III\Ports\ARM-Cortex-M3\Generic\GNU/os_cpu_c.c **** *                                          SYS TICK HANDLER
 353:uCOS-III\Ports\ARM-Cortex-M3\Generic\GNU/os_cpu_c.c **** *
 354:uCOS-III\Ports\ARM-Cortex-M3\Generic\GNU/os_cpu_c.c **** * Description: Handle the system tick (SysTick) interrupt, which is used to generate the uC/OS-II t
 355:uCOS-III\Ports\ARM-Cortex-M3\Generic\GNU/os_cpu_c.c **** *              interrupt.
 356:uCOS-III\Ports\ARM-Cortex-M3\Generic\GNU/os_cpu_c.c **** *
 357:uCOS-III\Ports\ARM-Cortex-M3\Generic\GNU/os_cpu_c.c **** * Arguments  : None.
 358:uCOS-III\Ports\ARM-Cortex-M3\Generic\GNU/os_cpu_c.c **** *
 359:uCOS-III\Ports\ARM-Cortex-M3\Generic\GNU/os_cpu_c.c **** * Note(s)    : 1) This function MUST be placed on entry 15 of the Cortex-M3 vector table.
ARM GAS  C:\Users\jorti\AppData\Local\Temp\ccrI1gpf.s 			page 15


 360:uCOS-III\Ports\ARM-Cortex-M3\Generic\GNU/os_cpu_c.c **** ***************************************************************************************************
 361:uCOS-III\Ports\ARM-Cortex-M3\Generic\GNU/os_cpu_c.c **** */
 362:uCOS-III\Ports\ARM-Cortex-M3\Generic\GNU/os_cpu_c.c **** 
 363:uCOS-III\Ports\ARM-Cortex-M3\Generic\GNU/os_cpu_c.c **** void  OS_CPU_SysTickHandler (void)
 364:uCOS-III\Ports\ARM-Cortex-M3\Generic\GNU/os_cpu_c.c **** {
 438              		.loc 1 364 0
 439              		.cfi_startproc
 440              		@ args = 0, pretend = 0, frame = 0
 441              		@ frame_needed = 0, uses_anonymous_args = 0
 442 0000 08B5     		push	{r3, lr}
 443              		.cfi_def_cfa_offset 8
 444              		.cfi_offset 3, -8
 445              		.cfi_offset 14, -4
 446              	.LVL37:
 365:uCOS-III\Ports\ARM-Cortex-M3\Generic\GNU/os_cpu_c.c ****     CPU_SR_ALLOC();
 366:uCOS-III\Ports\ARM-Cortex-M3\Generic\GNU/os_cpu_c.c **** 
 367:uCOS-III\Ports\ARM-Cortex-M3\Generic\GNU/os_cpu_c.c **** 
 368:uCOS-III\Ports\ARM-Cortex-M3\Generic\GNU/os_cpu_c.c ****     CPU_CRITICAL_ENTER();
 447              		.loc 1 368 0
 448 0002 FFF7FEFF 		bl	CPU_SR_Save
 449              	.LVL38:
 369:uCOS-III\Ports\ARM-Cortex-M3\Generic\GNU/os_cpu_c.c ****     OSIntNestingCtr++;                                      /* Tell uC/OS-III that we are starting 
 450              		.loc 1 369 0
 451 0006 054A     		ldr	r2, .L49
 452 0008 1378     		ldrb	r3, [r2]	@ zero_extendqisi2
 453 000a 0133     		adds	r3, r3, #1
 454 000c 1370     		strb	r3, [r2]
 370:uCOS-III\Ports\ARM-Cortex-M3\Generic\GNU/os_cpu_c.c ****     CPU_CRITICAL_EXIT();
 455              		.loc 1 370 0
 456 000e FFF7FEFF 		bl	CPU_SR_Restore
 457              	.LVL39:
 371:uCOS-III\Ports\ARM-Cortex-M3\Generic\GNU/os_cpu_c.c **** 
 372:uCOS-III\Ports\ARM-Cortex-M3\Generic\GNU/os_cpu_c.c ****     OSTimeTick();                                           /* Call uC/OS-III's OSTimeTick()       
 458              		.loc 1 372 0
 459 0012 FFF7FEFF 		bl	OSTimeTick
 460              	.LVL40:
 373:uCOS-III\Ports\ARM-Cortex-M3\Generic\GNU/os_cpu_c.c **** 
 374:uCOS-III\Ports\ARM-Cortex-M3\Generic\GNU/os_cpu_c.c ****     OSIntExit();                                            /* Tell uC/OS-III that we are leaving t
 461              		.loc 1 374 0
 462 0016 FFF7FEFF 		bl	OSIntExit
 463              	.LVL41:
 464 001a 08BD     		pop	{r3, pc}
 465              	.L50:
 466              		.align	2
 467              	.L49:
 468 001c 00000000 		.word	OSIntNestingCtr
 469              		.cfi_endproc
 470              	.LFE10:
 471              		.size	OS_CPU_SysTickHandler, .-OS_CPU_SysTickHandler
 472              		.section	.text.OS_CPU_SysTickInit,"ax",%progbits
 473              		.align	2
 474              		.global	OS_CPU_SysTickInit
 475              		.thumb
 476              		.thumb_func
 477              		.type	OS_CPU_SysTickInit, %function
 478              	OS_CPU_SysTickInit:
 479              	.LFB11:
ARM GAS  C:\Users\jorti\AppData\Local\Temp\ccrI1gpf.s 			page 16


 375:uCOS-III\Ports\ARM-Cortex-M3\Generic\GNU/os_cpu_c.c **** }
 376:uCOS-III\Ports\ARM-Cortex-M3\Generic\GNU/os_cpu_c.c **** 
 377:uCOS-III\Ports\ARM-Cortex-M3\Generic\GNU/os_cpu_c.c **** 
 378:uCOS-III\Ports\ARM-Cortex-M3\Generic\GNU/os_cpu_c.c **** /*$PAGE*/
 379:uCOS-III\Ports\ARM-Cortex-M3\Generic\GNU/os_cpu_c.c **** /*
 380:uCOS-III\Ports\ARM-Cortex-M3\Generic\GNU/os_cpu_c.c **** ***************************************************************************************************
 381:uCOS-III\Ports\ARM-Cortex-M3\Generic\GNU/os_cpu_c.c **** *                                         INITIALIZE SYS TICK
 382:uCOS-III\Ports\ARM-Cortex-M3\Generic\GNU/os_cpu_c.c **** *
 383:uCOS-III\Ports\ARM-Cortex-M3\Generic\GNU/os_cpu_c.c **** * Description: Initialize the SysTick.
 384:uCOS-III\Ports\ARM-Cortex-M3\Generic\GNU/os_cpu_c.c **** *
 385:uCOS-III\Ports\ARM-Cortex-M3\Generic\GNU/os_cpu_c.c **** * Arguments  : cnts         Number of SysTick counts between two OS tick interrupts.
 386:uCOS-III\Ports\ARM-Cortex-M3\Generic\GNU/os_cpu_c.c **** *
 387:uCOS-III\Ports\ARM-Cortex-M3\Generic\GNU/os_cpu_c.c **** * Note(s)    : 1) This function MUST be called after OSStart() & after processor initialization.
 388:uCOS-III\Ports\ARM-Cortex-M3\Generic\GNU/os_cpu_c.c **** ***************************************************************************************************
 389:uCOS-III\Ports\ARM-Cortex-M3\Generic\GNU/os_cpu_c.c **** */
 390:uCOS-III\Ports\ARM-Cortex-M3\Generic\GNU/os_cpu_c.c **** 
 391:uCOS-III\Ports\ARM-Cortex-M3\Generic\GNU/os_cpu_c.c **** void  OS_CPU_SysTickInit (CPU_INT32U  cnts)
 392:uCOS-III\Ports\ARM-Cortex-M3\Generic\GNU/os_cpu_c.c **** {
 480              		.loc 1 392 0
 481              		.cfi_startproc
 482              		@ args = 0, pretend = 0, frame = 0
 483              		@ frame_needed = 0, uses_anonymous_args = 0
 484              		@ link register save eliminated.
 485              	.LVL42:
 393:uCOS-III\Ports\ARM-Cortex-M3\Generic\GNU/os_cpu_c.c ****     CPU_INT32U  prio;
 394:uCOS-III\Ports\ARM-Cortex-M3\Generic\GNU/os_cpu_c.c **** 
 395:uCOS-III\Ports\ARM-Cortex-M3\Generic\GNU/os_cpu_c.c **** 
 396:uCOS-III\Ports\ARM-Cortex-M3\Generic\GNU/os_cpu_c.c ****     CPU_REG_NVIC_ST_RELOAD = cnts - 1u;
 486              		.loc 1 396 0
 487 0000 0138     		subs	r0, r0, #1
 488              	.LVL43:
 489 0002 084B     		ldr	r3, .L52
 490 0004 1860     		str	r0, [r3]
 397:uCOS-III\Ports\ARM-Cortex-M3\Generic\GNU/os_cpu_c.c **** 
 398:uCOS-III\Ports\ARM-Cortex-M3\Generic\GNU/os_cpu_c.c ****                                                             /* Set SysTick handler prio.           
 399:uCOS-III\Ports\ARM-Cortex-M3\Generic\GNU/os_cpu_c.c ****     prio  = CPU_REG_NVIC_SHPRI3;
 491              		.loc 1 399 0
 492 0006 084A     		ldr	r2, .L52+4
 493 0008 1368     		ldr	r3, [r2]
 494              	.LVL44:
 400:uCOS-III\Ports\ARM-Cortex-M3\Generic\GNU/os_cpu_c.c ****     prio &= DEF_BIT_FIELD(24, 0);
 495              		.loc 1 400 0
 496 000a 23F07F43 		bic	r3, r3, #-16777216
 497              	.LVL45:
 401:uCOS-III\Ports\ARM-Cortex-M3\Generic\GNU/os_cpu_c.c ****     prio |= DEF_BIT_MASK(OS_CPU_CFG_SYSTICK_PRIO, 24);
 402:uCOS-III\Ports\ARM-Cortex-M3\Generic\GNU/os_cpu_c.c **** 
 403:uCOS-III\Ports\ARM-Cortex-M3\Generic\GNU/os_cpu_c.c ****     CPU_REG_NVIC_SHPRI3 = prio;
 498              		.loc 1 403 0
 499 000e 1360     		str	r3, [r2]
 404:uCOS-III\Ports\ARM-Cortex-M3\Generic\GNU/os_cpu_c.c **** 
 405:uCOS-III\Ports\ARM-Cortex-M3\Generic\GNU/os_cpu_c.c ****                                                             /* Enable timer.                       
 406:uCOS-III\Ports\ARM-Cortex-M3\Generic\GNU/os_cpu_c.c ****     CPU_REG_NVIC_ST_CTRL |= CPU_REG_NVIC_ST_CTRL_CLKSOURCE |
 500              		.loc 1 406 0
 501 0010 064B     		ldr	r3, .L52+8
 502              	.LVL46:
 503 0012 1A68     		ldr	r2, [r3]
 504              	.LVL47:
ARM GAS  C:\Users\jorti\AppData\Local\Temp\ccrI1gpf.s 			page 17


 505 0014 42F00502 		orr	r2, r2, #5
 506 0018 1A60     		str	r2, [r3]
 507              	.LVL48:
 407:uCOS-III\Ports\ARM-Cortex-M3\Generic\GNU/os_cpu_c.c ****                             CPU_REG_NVIC_ST_CTRL_ENABLE;
 408:uCOS-III\Ports\ARM-Cortex-M3\Generic\GNU/os_cpu_c.c ****                                                             /* Enable timer interrupt.             
 409:uCOS-III\Ports\ARM-Cortex-M3\Generic\GNU/os_cpu_c.c ****     CPU_REG_NVIC_ST_CTRL |= CPU_REG_NVIC_ST_CTRL_TICKINT;
 508              		.loc 1 409 0
 509 001a 1A68     		ldr	r2, [r3]
 510 001c 42F00202 		orr	r2, r2, #2
 511 0020 1A60     		str	r2, [r3]
 512 0022 7047     		bx	lr
 513              	.L53:
 514              		.align	2
 515              	.L52:
 516 0024 14E000E0 		.word	-536813548
 517 0028 20ED00E0 		.word	-536810208
 518 002c 10E000E0 		.word	-536813552
 519              		.cfi_endproc
 520              	.LFE11:
 521              		.size	OS_CPU_SysTickInit, .-OS_CPU_SysTickInit
 522              		.comm	OS_CPU_ExceptStkBase,4,4
 523              		.text
 524              	.Letext0:
 525              		.file 2 ".\\uC-CPU\\ARM-Cortex-M3\\GNU/cpu.h"
 526              		.file 3 ".\\uC-CPU/cpu_core.h"
 527              		.file 4 ".\\uCOS-III\\Source/os_type.h"
 528              		.file 5 ".\\uCOS-III\\Source/os.h"
 529              		.file 6 ".\\uCOS-III\\Ports\\ARM-Cortex-M3\\Generic\\GNU/os_cpu.h"