ARM GAS  C:\Users\jorti\AppData\Local\Temp\ccCX4ftZ.s 			page 1


   1              		.syntax unified
   2              		.cpu cortex-m3
   3              		.fpu softvfp
   4              		.eabi_attribute 20, 1
   5              		.eabi_attribute 21, 1
   6              		.eabi_attribute 23, 3
   7              		.eabi_attribute 24, 1
   8              		.eabi_attribute 25, 1
   9              		.eabi_attribute 26, 1
  10              		.eabi_attribute 30, 1
  11              		.eabi_attribute 34, 1
  12              		.eabi_attribute 18, 4
  13              		.thumb
  14              		.syntax unified
  15              		.file	"os_flag.c"
  16              		.text
  17              	.Ltext0:
  18              		.cfi_sections	.debug_frame
  19              		.section	.text.OSFlagPendAbort,"ax",%progbits
  20              		.align	2
  21              		.global	OSFlagPendAbort
  22              		.thumb
  23              		.thumb_func
  24              		.type	OSFlagPendAbort, %function
  25              	OSFlagPendAbort:
  26              	.LFB4:
  27              		.file 1 "uCOS-III\\Source\\os_flag.c"
   1:uCOS-III\Source/os_flag.c **** /*
   2:uCOS-III\Source/os_flag.c **** ***************************************************************************************************
   3:uCOS-III\Source/os_flag.c **** *                                                      uC/OS-III
   4:uCOS-III\Source/os_flag.c **** *                                                 The Real-Time Kernel
   5:uCOS-III\Source/os_flag.c **** *
   6:uCOS-III\Source/os_flag.c **** *                                  (c) Copyright 2009-2012; Micrium, Inc.; Weston, FL
   7:uCOS-III\Source/os_flag.c **** *                           All rights reserved.  Protected by international copyright laws.
   8:uCOS-III\Source/os_flag.c **** *
   9:uCOS-III\Source/os_flag.c **** *                                                EVENT FLAG MANAGEMENT
  10:uCOS-III\Source/os_flag.c **** *
  11:uCOS-III\Source/os_flag.c **** * File    : OS_FLAG.C
  12:uCOS-III\Source/os_flag.c **** * By      : JJL
  13:uCOS-III\Source/os_flag.c **** * Version : V3.03.01
  14:uCOS-III\Source/os_flag.c **** *
  15:uCOS-III\Source/os_flag.c **** * LICENSING TERMS:
  16:uCOS-III\Source/os_flag.c **** * ---------------
  17:uCOS-III\Source/os_flag.c **** *           uC/OS-III is provided in source form for FREE short-term evaluation, for educational us
  18:uCOS-III\Source/os_flag.c **** *           for peaceful research.  If you plan or intend to use uC/OS-III in a commercial applicat
  19:uCOS-III\Source/os_flag.c **** *           product then, you need to contact Micrium to properly license uC/OS-III for its use in 
  20:uCOS-III\Source/os_flag.c **** *           application/product.   We provide ALL the source code for your convenience and to help 
  21:uCOS-III\Source/os_flag.c **** *           experience uC/OS-III.  The fact that the source is provided does NOT mean that you can 
  22:uCOS-III\Source/os_flag.c **** *           it commercially without paying a licensing fee.
  23:uCOS-III\Source/os_flag.c **** *
  24:uCOS-III\Source/os_flag.c **** *           Knowledge of the source code may NOT be used to develop a similar product.
  25:uCOS-III\Source/os_flag.c **** *
  26:uCOS-III\Source/os_flag.c **** *           Please help us continue to provide the embedded community with the finest software avai
  27:uCOS-III\Source/os_flag.c **** *           Your honesty is greatly appreciated.
  28:uCOS-III\Source/os_flag.c **** *
  29:uCOS-III\Source/os_flag.c **** *           You can contact us at www.micrium.com, or by phone at +1 (954) 217-2036.
  30:uCOS-III\Source/os_flag.c **** ***************************************************************************************************
ARM GAS  C:\Users\jorti\AppData\Local\Temp\ccCX4ftZ.s 			page 2


  31:uCOS-III\Source/os_flag.c **** */
  32:uCOS-III\Source/os_flag.c **** 
  33:uCOS-III\Source/os_flag.c **** #define  MICRIUM_SOURCE
  34:uCOS-III\Source/os_flag.c **** #include <os.h>
  35:uCOS-III\Source/os_flag.c **** 
  36:uCOS-III\Source/os_flag.c **** #ifdef VSC_INCLUDE_SOURCE_FILE_NAMES
  37:uCOS-III\Source/os_flag.c **** const  CPU_CHAR  *os_flag__c = "$Id: $";
  38:uCOS-III\Source/os_flag.c **** #endif
  39:uCOS-III\Source/os_flag.c **** 
  40:uCOS-III\Source/os_flag.c **** 
  41:uCOS-III\Source/os_flag.c **** #if OS_CFG_FLAG_EN > 0u
  42:uCOS-III\Source/os_flag.c **** 
  43:uCOS-III\Source/os_flag.c **** /*$PAGE*/
  44:uCOS-III\Source/os_flag.c **** /*
  45:uCOS-III\Source/os_flag.c **** ***************************************************************************************************
  46:uCOS-III\Source/os_flag.c **** *                                                 CREATE AN EVENT FLAG
  47:uCOS-III\Source/os_flag.c **** *
  48:uCOS-III\Source/os_flag.c **** * Description: This function is called to create an event flag group.
  49:uCOS-III\Source/os_flag.c **** *
  50:uCOS-III\Source/os_flag.c **** * Arguments  : p_grp          is a pointer to the event flag group to create
  51:uCOS-III\Source/os_flag.c **** *
  52:uCOS-III\Source/os_flag.c **** *              p_name         is the name of the event flag group
  53:uCOS-III\Source/os_flag.c **** *
  54:uCOS-III\Source/os_flag.c **** *              flags          contains the initial value to store in the event flag group (typicall
  55:uCOS-III\Source/os_flag.c **** *
  56:uCOS-III\Source/os_flag.c **** *              p_err          is a pointer to an error code which will be returned to your applicat
  57:uCOS-III\Source/os_flag.c **** *
  58:uCOS-III\Source/os_flag.c **** *                                 OS_ERR_NONE                    if the call was successful.
  59:uCOS-III\Source/os_flag.c **** *                                 OS_ERR_CREATE_ISR              if you attempted to create an Even
  60:uCOS-III\Source/os_flag.c **** *                                 OS_ERR_ILLEGAL_CREATE_RUN_TIME if you are trying to create the Ev
  61:uCOS-III\Source/os_flag.c **** *                                                                   called OSSafetyCriticalStart().
  62:uCOS-III\Source/os_flag.c **** *                                 OS_ERR_NAME                    if 'p_name' is a NULL pointer
  63:uCOS-III\Source/os_flag.c **** *                                 OS_ERR_OBJ_CREATED             if the event flag group has alread
  64:uCOS-III\Source/os_flag.c **** *                                 OS_ERR_OBJ_PTR_NULL            if 'p_grp' is a NULL pointer
  65:uCOS-III\Source/os_flag.c **** *
  66:uCOS-III\Source/os_flag.c **** * Returns    : none
  67:uCOS-III\Source/os_flag.c **** ***************************************************************************************************
  68:uCOS-III\Source/os_flag.c **** */
  69:uCOS-III\Source/os_flag.c **** 
  70:uCOS-III\Source/os_flag.c **** void  OSFlagCreate (OS_FLAG_GRP  *p_grp,
  71:uCOS-III\Source/os_flag.c ****                     CPU_CHAR     *p_name,
  72:uCOS-III\Source/os_flag.c ****                     OS_FLAGS      flags,
  73:uCOS-III\Source/os_flag.c ****                     OS_ERR       *p_err)
  74:uCOS-III\Source/os_flag.c **** {
  75:uCOS-III\Source/os_flag.c ****     CPU_SR_ALLOC();
  76:uCOS-III\Source/os_flag.c **** 
  77:uCOS-III\Source/os_flag.c **** 
  78:uCOS-III\Source/os_flag.c **** 
  79:uCOS-III\Source/os_flag.c **** #ifdef OS_SAFETY_CRITICAL
  80:uCOS-III\Source/os_flag.c ****     if (p_err == (OS_ERR *)0) {
  81:uCOS-III\Source/os_flag.c ****         OS_SAFETY_CRITICAL_EXCEPTION();
  82:uCOS-III\Source/os_flag.c ****         return;
  83:uCOS-III\Source/os_flag.c ****     }
  84:uCOS-III\Source/os_flag.c **** #endif
  85:uCOS-III\Source/os_flag.c **** 
  86:uCOS-III\Source/os_flag.c **** #ifdef OS_SAFETY_CRITICAL_IEC61508
  87:uCOS-III\Source/os_flag.c ****     if (OSSafetyCriticalStartFlag == DEF_TRUE) {
ARM GAS  C:\Users\jorti\AppData\Local\Temp\ccCX4ftZ.s 			page 3


  88:uCOS-III\Source/os_flag.c ****        *p_err = OS_ERR_ILLEGAL_CREATE_RUN_TIME;
  89:uCOS-III\Source/os_flag.c ****         return;
  90:uCOS-III\Source/os_flag.c ****     }
  91:uCOS-III\Source/os_flag.c **** #endif
  92:uCOS-III\Source/os_flag.c **** 
  93:uCOS-III\Source/os_flag.c **** #if OS_CFG_CALLED_FROM_ISR_CHK_EN > 0u
  94:uCOS-III\Source/os_flag.c ****     if (OSIntNestingCtr > (OS_NESTING_CTR)0) {              /* See if called from ISR ...          
  95:uCOS-III\Source/os_flag.c ****        *p_err = OS_ERR_CREATE_ISR;                          /* ... can't CREATE from an ISR        
  96:uCOS-III\Source/os_flag.c ****         return;
  97:uCOS-III\Source/os_flag.c ****     }
  98:uCOS-III\Source/os_flag.c **** #endif
  99:uCOS-III\Source/os_flag.c **** 
 100:uCOS-III\Source/os_flag.c **** #if OS_CFG_ARG_CHK_EN > 0u
 101:uCOS-III\Source/os_flag.c ****     if (p_grp == (OS_FLAG_GRP *)0) {                        /* Validate 'p_grp'                    
 102:uCOS-III\Source/os_flag.c ****        *p_err = OS_ERR_OBJ_PTR_NULL;
 103:uCOS-III\Source/os_flag.c ****         return;
 104:uCOS-III\Source/os_flag.c ****     }
 105:uCOS-III\Source/os_flag.c **** #endif
 106:uCOS-III\Source/os_flag.c **** 
 107:uCOS-III\Source/os_flag.c ****     OS_CRITICAL_ENTER();
 108:uCOS-III\Source/os_flag.c ****     p_grp->Type    = OS_OBJ_TYPE_FLAG;                      /* Set to event flag group type        
 109:uCOS-III\Source/os_flag.c ****     p_grp->NamePtr = p_name;
 110:uCOS-III\Source/os_flag.c ****     p_grp->Flags   = flags;                                 /* Set to desired initial value        
 111:uCOS-III\Source/os_flag.c ****     p_grp->TS      = (CPU_TS)0;
 112:uCOS-III\Source/os_flag.c ****     OS_PendListInit(&p_grp->PendList);
 113:uCOS-III\Source/os_flag.c **** 
 114:uCOS-III\Source/os_flag.c **** #if OS_CFG_DBG_EN > 0u
 115:uCOS-III\Source/os_flag.c ****     OS_FlagDbgListAdd(p_grp);
 116:uCOS-III\Source/os_flag.c **** #endif
 117:uCOS-III\Source/os_flag.c ****     OSFlagQty++;
 118:uCOS-III\Source/os_flag.c **** 
 119:uCOS-III\Source/os_flag.c ****     OS_CRITICAL_EXIT_NO_SCHED();
 120:uCOS-III\Source/os_flag.c ****    *p_err = OS_ERR_NONE;
 121:uCOS-III\Source/os_flag.c **** }
 122:uCOS-III\Source/os_flag.c **** 
 123:uCOS-III\Source/os_flag.c **** /*$PAGE*/
 124:uCOS-III\Source/os_flag.c **** /*
 125:uCOS-III\Source/os_flag.c **** ***************************************************************************************************
 126:uCOS-III\Source/os_flag.c **** *                                             DELETE AN EVENT FLAG GROUP
 127:uCOS-III\Source/os_flag.c **** *
 128:uCOS-III\Source/os_flag.c **** * Description: This function deletes an event flag group and readies all tasks pending on the event
 129:uCOS-III\Source/os_flag.c **** *
 130:uCOS-III\Source/os_flag.c **** * Arguments  : p_grp     is a pointer to the desired event flag group.
 131:uCOS-III\Source/os_flag.c **** *
 132:uCOS-III\Source/os_flag.c **** *              opt       determines delete options as follows:
 133:uCOS-III\Source/os_flag.c **** *
 134:uCOS-III\Source/os_flag.c **** *                            OS_OPT_DEL_NO_PEND           Deletes the event flag group ONLY if no t
 135:uCOS-III\Source/os_flag.c **** *                            OS_OPT_DEL_ALWAYS            Deletes the event flag group even if task
 136:uCOS-III\Source/os_flag.c **** *                                                         In this case, all the tasks pending will 
 137:uCOS-III\Source/os_flag.c **** *
 138:uCOS-III\Source/os_flag.c **** *              p_err     is a pointer to an error code that can contain one of the following values
 139:uCOS-III\Source/os_flag.c **** *
 140:uCOS-III\Source/os_flag.c **** *                            OS_ERR_NONE                  The call was successful and the event fla
 141:uCOS-III\Source/os_flag.c **** *                            OS_ERR_DEL_ISR               If you attempted to delete the event flag
 142:uCOS-III\Source/os_flag.c **** *                            OS_ERR_OBJ_PTR_NULL          If 'p_grp' is a NULL pointer.
 143:uCOS-III\Source/os_flag.c **** *                            OS_ERR_OBJ_TYPE              If you didn't pass a pointer to an event 
 144:uCOS-III\Source/os_flag.c **** *                            OS_ERR_OPT_INVALID           An invalid option was specified
ARM GAS  C:\Users\jorti\AppData\Local\Temp\ccCX4ftZ.s 			page 4


 145:uCOS-III\Source/os_flag.c **** *                            OS_ERR_TASK_WAITING          One or more tasks were waiting on the eve
 146:uCOS-III\Source/os_flag.c **** *
 147:uCOS-III\Source/os_flag.c **** * Returns    : == 0          if no tasks were waiting on the event flag group, or upon error.
 148:uCOS-III\Source/os_flag.c **** *              >  0          if one or more tasks waiting on the event flag group are now readied a
 149:uCOS-III\Source/os_flag.c **** *
 150:uCOS-III\Source/os_flag.c **** * Note(s)    : 1) This function must be used with care.  Tasks that would normally expect the prese
 151:uCOS-III\Source/os_flag.c **** *                 group MUST check the return code of OSFlagPost and OSFlagPend().
 152:uCOS-III\Source/os_flag.c **** ***************************************************************************************************
 153:uCOS-III\Source/os_flag.c **** */
 154:uCOS-III\Source/os_flag.c **** 
 155:uCOS-III\Source/os_flag.c **** #if OS_CFG_FLAG_DEL_EN > 0u
 156:uCOS-III\Source/os_flag.c **** OS_OBJ_QTY  OSFlagDel (OS_FLAG_GRP  *p_grp,
 157:uCOS-III\Source/os_flag.c ****                        OS_OPT        opt,
 158:uCOS-III\Source/os_flag.c ****                        OS_ERR       *p_err)
 159:uCOS-III\Source/os_flag.c **** {
 160:uCOS-III\Source/os_flag.c ****     OS_OBJ_QTY        cnt;
 161:uCOS-III\Source/os_flag.c ****     OS_OBJ_QTY        nbr_tasks;
 162:uCOS-III\Source/os_flag.c ****     OS_PEND_DATA     *p_pend_data;
 163:uCOS-III\Source/os_flag.c ****     OS_PEND_LIST     *p_pend_list;
 164:uCOS-III\Source/os_flag.c ****     OS_TCB           *p_tcb;
 165:uCOS-III\Source/os_flag.c ****     CPU_TS            ts;
 166:uCOS-III\Source/os_flag.c ****     CPU_SR_ALLOC();
 167:uCOS-III\Source/os_flag.c **** 
 168:uCOS-III\Source/os_flag.c **** 
 169:uCOS-III\Source/os_flag.c **** 
 170:uCOS-III\Source/os_flag.c **** #ifdef OS_SAFETY_CRITICAL
 171:uCOS-III\Source/os_flag.c ****     if (p_err == (OS_ERR *)0) {
 172:uCOS-III\Source/os_flag.c ****         OS_SAFETY_CRITICAL_EXCEPTION();
 173:uCOS-III\Source/os_flag.c ****         return ((OS_OBJ_QTY)0);
 174:uCOS-III\Source/os_flag.c ****     }
 175:uCOS-III\Source/os_flag.c **** #endif
 176:uCOS-III\Source/os_flag.c **** 
 177:uCOS-III\Source/os_flag.c **** #if OS_CFG_CALLED_FROM_ISR_CHK_EN > 0u
 178:uCOS-III\Source/os_flag.c ****     if (OSIntNestingCtr > (OS_NESTING_CTR)0) {              /* See if called from ISR ...          
 179:uCOS-III\Source/os_flag.c ****        *p_err = OS_ERR_DEL_ISR;                             /* ... can't DELETE from an ISR        
 180:uCOS-III\Source/os_flag.c ****         return ((OS_OBJ_QTY)0);
 181:uCOS-III\Source/os_flag.c ****     }
 182:uCOS-III\Source/os_flag.c **** #endif
 183:uCOS-III\Source/os_flag.c **** 
 184:uCOS-III\Source/os_flag.c **** #if OS_CFG_ARG_CHK_EN > 0u
 185:uCOS-III\Source/os_flag.c ****     if (p_grp == (OS_FLAG_GRP *)0) {                        /* Validate 'p_grp'                    
 186:uCOS-III\Source/os_flag.c ****        *p_err  = OS_ERR_OBJ_PTR_NULL;
 187:uCOS-III\Source/os_flag.c ****         return ((OS_OBJ_QTY)0);
 188:uCOS-III\Source/os_flag.c ****     }
 189:uCOS-III\Source/os_flag.c ****     switch (opt) {                                          /* Validate 'opt'                      
 190:uCOS-III\Source/os_flag.c ****         case OS_OPT_DEL_NO_PEND:
 191:uCOS-III\Source/os_flag.c ****         case OS_OPT_DEL_ALWAYS:
 192:uCOS-III\Source/os_flag.c ****              break;
 193:uCOS-III\Source/os_flag.c **** 
 194:uCOS-III\Source/os_flag.c ****         default:
 195:uCOS-III\Source/os_flag.c ****             *p_err = OS_ERR_OPT_INVALID;
 196:uCOS-III\Source/os_flag.c ****              return ((OS_OBJ_QTY)0);
 197:uCOS-III\Source/os_flag.c ****     }
 198:uCOS-III\Source/os_flag.c **** #endif
 199:uCOS-III\Source/os_flag.c **** 
 200:uCOS-III\Source/os_flag.c **** #if OS_CFG_OBJ_TYPE_CHK_EN > 0u
 201:uCOS-III\Source/os_flag.c ****     if (p_grp->Type != OS_OBJ_TYPE_FLAG) {                  /* Validate event group object         
ARM GAS  C:\Users\jorti\AppData\Local\Temp\ccCX4ftZ.s 			page 5


 202:uCOS-III\Source/os_flag.c ****        *p_err = OS_ERR_OBJ_TYPE;
 203:uCOS-III\Source/os_flag.c ****         return ((OS_OBJ_QTY)0);
 204:uCOS-III\Source/os_flag.c ****     }
 205:uCOS-III\Source/os_flag.c **** #endif
 206:uCOS-III\Source/os_flag.c ****     OS_CRITICAL_ENTER();
 207:uCOS-III\Source/os_flag.c ****     p_pend_list = &p_grp->PendList;
 208:uCOS-III\Source/os_flag.c ****     cnt         = p_pend_list->NbrEntries;
 209:uCOS-III\Source/os_flag.c ****     nbr_tasks   = cnt;
 210:uCOS-III\Source/os_flag.c ****     switch (opt) {
 211:uCOS-III\Source/os_flag.c ****         case OS_OPT_DEL_NO_PEND:                            /* Delete group if no task waiting     
 212:uCOS-III\Source/os_flag.c ****              if (nbr_tasks == (OS_OBJ_QTY)0) {
 213:uCOS-III\Source/os_flag.c **** #if OS_CFG_DBG_EN > 0u
 214:uCOS-III\Source/os_flag.c ****                  OS_FlagDbgListRemove(p_grp);
 215:uCOS-III\Source/os_flag.c **** #endif
 216:uCOS-III\Source/os_flag.c ****                  OSFlagQty--;
 217:uCOS-III\Source/os_flag.c ****                  OS_FlagClr(p_grp);
 218:uCOS-III\Source/os_flag.c **** 
 219:uCOS-III\Source/os_flag.c ****                  OS_CRITICAL_EXIT();
 220:uCOS-III\Source/os_flag.c ****                 *p_err = OS_ERR_NONE;
 221:uCOS-III\Source/os_flag.c ****              } else {
 222:uCOS-III\Source/os_flag.c ****                  OS_CRITICAL_EXIT();
 223:uCOS-III\Source/os_flag.c ****                 *p_err = OS_ERR_TASK_WAITING;
 224:uCOS-III\Source/os_flag.c ****              }
 225:uCOS-III\Source/os_flag.c ****              break;
 226:uCOS-III\Source/os_flag.c **** 
 227:uCOS-III\Source/os_flag.c ****         case OS_OPT_DEL_ALWAYS:                             /* Always delete the event flag group  
 228:uCOS-III\Source/os_flag.c ****              ts = OS_TS_GET();                              /* Get local time stamp so all tasks ge
 229:uCOS-III\Source/os_flag.c ****              while (cnt > 0u) {                             /* Remove all tasks from the pend list 
 230:uCOS-III\Source/os_flag.c ****                  p_pend_data = p_pend_list->HeadPtr;
 231:uCOS-III\Source/os_flag.c ****                  p_tcb       = p_pend_data->TCBPtr;
 232:uCOS-III\Source/os_flag.c ****                  OS_PendObjDel((OS_PEND_OBJ *)((void *)p_grp),
 233:uCOS-III\Source/os_flag.c ****                                p_tcb,
 234:uCOS-III\Source/os_flag.c ****                                ts);
 235:uCOS-III\Source/os_flag.c ****                  cnt--;
 236:uCOS-III\Source/os_flag.c ****              }
 237:uCOS-III\Source/os_flag.c **** #if OS_CFG_DBG_EN > 0u
 238:uCOS-III\Source/os_flag.c ****              OS_FlagDbgListRemove(p_grp);
 239:uCOS-III\Source/os_flag.c **** #endif
 240:uCOS-III\Source/os_flag.c ****              OSFlagQty--;
 241:uCOS-III\Source/os_flag.c ****              OS_FlagClr(p_grp);
 242:uCOS-III\Source/os_flag.c ****              OS_CRITICAL_EXIT_NO_SCHED();
 243:uCOS-III\Source/os_flag.c ****              OSSched();                                     /* Find highest priority task ready to 
 244:uCOS-III\Source/os_flag.c ****             *p_err = OS_ERR_NONE;
 245:uCOS-III\Source/os_flag.c ****              break;
 246:uCOS-III\Source/os_flag.c **** 
 247:uCOS-III\Source/os_flag.c ****         default:
 248:uCOS-III\Source/os_flag.c ****              OS_CRITICAL_EXIT();
 249:uCOS-III\Source/os_flag.c ****             *p_err = OS_ERR_OPT_INVALID;
 250:uCOS-III\Source/os_flag.c ****              break;
 251:uCOS-III\Source/os_flag.c ****     }
 252:uCOS-III\Source/os_flag.c ****     return (nbr_tasks);
 253:uCOS-III\Source/os_flag.c **** }
 254:uCOS-III\Source/os_flag.c **** #endif
 255:uCOS-III\Source/os_flag.c **** 
 256:uCOS-III\Source/os_flag.c **** /*
 257:uCOS-III\Source/os_flag.c **** ***************************************************************************************************
 258:uCOS-III\Source/os_flag.c **** *                                             WAIT ON AN EVENT FLAG GROUP
ARM GAS  C:\Users\jorti\AppData\Local\Temp\ccCX4ftZ.s 			page 6


 259:uCOS-III\Source/os_flag.c **** *
 260:uCOS-III\Source/os_flag.c **** * Description: This function is called to wait for a combination of bits to be set in an event flag
 261:uCOS-III\Source/os_flag.c **** *              application can wait for ANY bit to be set or ALL bits to be set.
 262:uCOS-III\Source/os_flag.c **** *
 263:uCOS-III\Source/os_flag.c **** * Arguments  : p_grp         is a pointer to the desired event flag group.
 264:uCOS-III\Source/os_flag.c **** *
 265:uCOS-III\Source/os_flag.c **** *              flags         Is a bit pattern indicating which bit(s) (i.e. flags) you wish to wait
 266:uCOS-III\Source/os_flag.c **** *                            The bits you want are specified by setting the corresponding bits in '
 267:uCOS-III\Source/os_flag.c **** *                            e.g. if your application wants to wait for bits 0 and 1 then 'flags' w
 268:uCOS-III\Source/os_flag.c **** *
 269:uCOS-III\Source/os_flag.c **** *              timeout       is an optional timeout (in clock ticks) that your task will wait for t
 270:uCOS-III\Source/os_flag.c **** *                            desired bit combination.  If you specify 0, however, your task will wa
 271:uCOS-III\Source/os_flag.c **** *                            forever at the specified event flag group or, until a message arrives.
 272:uCOS-III\Source/os_flag.c **** *
 273:uCOS-III\Source/os_flag.c **** *              opt           specifies whether you want ALL bits to be set or ANY of the bits to be
 274:uCOS-III\Source/os_flag.c **** *                            You can specify the 'ONE' of the following arguments:
 275:uCOS-III\Source/os_flag.c **** *
 276:uCOS-III\Source/os_flag.c **** *                                OS_OPT_PEND_FLAG_CLR_ALL   You will wait for ALL bits in 'flags' t
 277:uCOS-III\Source/os_flag.c **** *                                OS_OPT_PEND_FLAG_CLR_ANY   You will wait for ANY bit  in 'flags' t
 278:uCOS-III\Source/os_flag.c **** *                                OS_OPT_PEND_FLAG_SET_ALL   You will wait for ALL bits in 'flags' t
 279:uCOS-III\Source/os_flag.c **** *                                OS_OPT_PEND_FLAG_SET_ANY   You will wait for ANY bit  in 'flags' t
 280:uCOS-III\Source/os_flag.c **** *
 281:uCOS-III\Source/os_flag.c **** *                            You can 'ADD' OS_OPT_PEND_FLAG_CONSUME if you want the event flag to b
 282:uCOS-III\Source/os_flag.c **** *                                      the call.  Example, to wait for any flag in a group AND then
 283:uCOS-III\Source/os_flag.c **** *                                      the flags that are present, set 'wait_opt' to:
 284:uCOS-III\Source/os_flag.c **** *
 285:uCOS-III\Source/os_flag.c **** *                                      OS_OPT_PEND_FLAG_SET_ANY + OS_OPT_PEND_FLAG_CONSUME
 286:uCOS-III\Source/os_flag.c **** *
 287:uCOS-III\Source/os_flag.c **** *                            You can also 'ADD' the type of pend with 'ONE' of the two option:
 288:uCOS-III\Source/os_flag.c **** *
 289:uCOS-III\Source/os_flag.c **** *                                OS_OPT_PEND_NON_BLOCKING   Task will NOT block if flags are not av
 290:uCOS-III\Source/os_flag.c **** *                                OS_OPT_PEND_BLOCKING       Task will     block if flags are not av
 291:uCOS-III\Source/os_flag.c **** *
 292:uCOS-III\Source/os_flag.c **** *              p_ts          is a pointer to a variable that will receive the timestamp of when the
 293:uCOS-III\Source/os_flag.c **** *                            posted, aborted or the event flag group deleted.  If you pass a NULL p
 294:uCOS-III\Source/os_flag.c **** *                            then you will not get the timestamp.  In other words, passing a NULL p
 295:uCOS-III\Source/os_flag.c **** *                            indicates that you don't need the timestamp.
 296:uCOS-III\Source/os_flag.c **** *
 297:uCOS-III\Source/os_flag.c **** *              p_err         is a pointer to an error code and can be:
 298:uCOS-III\Source/os_flag.c **** *
 299:uCOS-III\Source/os_flag.c **** *                                OS_ERR_NONE                The desired bits have been set within t
 300:uCOS-III\Source/os_flag.c **** *                                OS_ERR_OBJ_PTR_NULL        If 'p_grp' is a NULL pointer.
 301:uCOS-III\Source/os_flag.c **** *                                OS_ERR_OBJ_TYPE            You are not pointing to an event flag g
 302:uCOS-III\Source/os_flag.c **** *                                OS_ERR_OPT_INVALID         You didn't specify a proper 'opt' argum
 303:uCOS-III\Source/os_flag.c **** *                                OS_ERR_PEND_ABORT          The wait on the flag was aborted.
 304:uCOS-III\Source/os_flag.c **** *                                OS_ERR_PEND_ISR            If you tried to PEND from an ISR
 305:uCOS-III\Source/os_flag.c **** *                                OS_ERR_PEND_WOULD_BLOCK    If you specified non-blocking but the f
 306:uCOS-III\Source/os_flag.c **** *                                                           available.
 307:uCOS-III\Source/os_flag.c **** *                                OS_ERR_SCHED_LOCKED        If you called this function when the sc
 308:uCOS-III\Source/os_flag.c **** *                                OS_ERR_TIMEOUT             The bit(s) have not been set in the spe
 309:uCOS-III\Source/os_flag.c **** *
 310:uCOS-III\Source/os_flag.c **** * Returns    : The flags in the event flag group that made the task ready or, 0 if a timeout or an 
 311:uCOS-III\Source/os_flag.c **** *              occurred.
 312:uCOS-III\Source/os_flag.c **** ***************************************************************************************************
 313:uCOS-III\Source/os_flag.c **** */
 314:uCOS-III\Source/os_flag.c **** 
 315:uCOS-III\Source/os_flag.c **** OS_FLAGS  OSFlagPend (OS_FLAG_GRP  *p_grp,
ARM GAS  C:\Users\jorti\AppData\Local\Temp\ccCX4ftZ.s 			page 7


 316:uCOS-III\Source/os_flag.c ****                       OS_FLAGS      flags,
 317:uCOS-III\Source/os_flag.c ****                       OS_TICK       timeout,
 318:uCOS-III\Source/os_flag.c ****                       OS_OPT        opt,
 319:uCOS-III\Source/os_flag.c ****                       CPU_TS       *p_ts,
 320:uCOS-III\Source/os_flag.c ****                       OS_ERR       *p_err)
 321:uCOS-III\Source/os_flag.c **** {
 322:uCOS-III\Source/os_flag.c ****     CPU_BOOLEAN   consume;
 323:uCOS-III\Source/os_flag.c ****     OS_FLAGS      flags_rdy;
 324:uCOS-III\Source/os_flag.c ****     OS_OPT        mode;
 325:uCOS-III\Source/os_flag.c ****     OS_PEND_DATA  pend_data;
 326:uCOS-III\Source/os_flag.c ****     CPU_SR_ALLOC();
 327:uCOS-III\Source/os_flag.c **** 
 328:uCOS-III\Source/os_flag.c **** 
 329:uCOS-III\Source/os_flag.c **** 
 330:uCOS-III\Source/os_flag.c **** #ifdef OS_SAFETY_CRITICAL
 331:uCOS-III\Source/os_flag.c ****     if (p_err == (OS_ERR *)0) {
 332:uCOS-III\Source/os_flag.c ****         OS_SAFETY_CRITICAL_EXCEPTION();
 333:uCOS-III\Source/os_flag.c ****         return ((OS_FLAGS)0);
 334:uCOS-III\Source/os_flag.c ****     }
 335:uCOS-III\Source/os_flag.c **** #endif
 336:uCOS-III\Source/os_flag.c **** 
 337:uCOS-III\Source/os_flag.c **** #if OS_CFG_CALLED_FROM_ISR_CHK_EN > 0u
 338:uCOS-III\Source/os_flag.c ****     if (OSIntNestingCtr > (OS_NESTING_CTR)0) {              /* See if called from ISR ...          
 339:uCOS-III\Source/os_flag.c ****        *p_err = OS_ERR_PEND_ISR;                            /* ... can't PEND from an ISR          
 340:uCOS-III\Source/os_flag.c ****         return ((OS_FLAGS)0);
 341:uCOS-III\Source/os_flag.c ****     }
 342:uCOS-III\Source/os_flag.c **** #endif
 343:uCOS-III\Source/os_flag.c **** 
 344:uCOS-III\Source/os_flag.c **** #if OS_CFG_ARG_CHK_EN > 0u
 345:uCOS-III\Source/os_flag.c ****     if (p_grp == (OS_FLAG_GRP *)0) {                        /* Validate 'p_grp'                    
 346:uCOS-III\Source/os_flag.c ****        *p_err = OS_ERR_OBJ_PTR_NULL;
 347:uCOS-III\Source/os_flag.c ****         return ((OS_FLAGS)0);
 348:uCOS-III\Source/os_flag.c ****     }
 349:uCOS-III\Source/os_flag.c ****     switch (opt) {                                          /* Validate 'opt'                      
 350:uCOS-III\Source/os_flag.c ****         case OS_OPT_PEND_FLAG_CLR_ALL:
 351:uCOS-III\Source/os_flag.c ****         case OS_OPT_PEND_FLAG_CLR_ANY:
 352:uCOS-III\Source/os_flag.c ****         case OS_OPT_PEND_FLAG_SET_ALL:
 353:uCOS-III\Source/os_flag.c ****         case OS_OPT_PEND_FLAG_SET_ANY:
 354:uCOS-III\Source/os_flag.c ****         case OS_OPT_PEND_FLAG_CLR_ALL | OS_OPT_PEND_FLAG_CONSUME:
 355:uCOS-III\Source/os_flag.c ****         case OS_OPT_PEND_FLAG_CLR_ANY | OS_OPT_PEND_FLAG_CONSUME:
 356:uCOS-III\Source/os_flag.c ****         case OS_OPT_PEND_FLAG_SET_ALL | OS_OPT_PEND_FLAG_CONSUME:
 357:uCOS-III\Source/os_flag.c ****         case OS_OPT_PEND_FLAG_SET_ANY | OS_OPT_PEND_FLAG_CONSUME:
 358:uCOS-III\Source/os_flag.c ****         case OS_OPT_PEND_FLAG_CLR_ALL | OS_OPT_PEND_NON_BLOCKING:
 359:uCOS-III\Source/os_flag.c ****         case OS_OPT_PEND_FLAG_CLR_ANY | OS_OPT_PEND_NON_BLOCKING:
 360:uCOS-III\Source/os_flag.c ****         case OS_OPT_PEND_FLAG_SET_ALL | OS_OPT_PEND_NON_BLOCKING:
 361:uCOS-III\Source/os_flag.c ****         case OS_OPT_PEND_FLAG_SET_ANY | OS_OPT_PEND_NON_BLOCKING:
 362:uCOS-III\Source/os_flag.c ****         case OS_OPT_PEND_FLAG_CLR_ALL | OS_OPT_PEND_FLAG_CONSUME | OS_OPT_PEND_NON_BLOCKING:
 363:uCOS-III\Source/os_flag.c ****         case OS_OPT_PEND_FLAG_CLR_ANY | OS_OPT_PEND_FLAG_CONSUME | OS_OPT_PEND_NON_BLOCKING:
 364:uCOS-III\Source/os_flag.c ****         case OS_OPT_PEND_FLAG_SET_ALL | OS_OPT_PEND_FLAG_CONSUME | OS_OPT_PEND_NON_BLOCKING:
 365:uCOS-III\Source/os_flag.c ****         case OS_OPT_PEND_FLAG_SET_ANY | OS_OPT_PEND_FLAG_CONSUME | OS_OPT_PEND_NON_BLOCKING:
 366:uCOS-III\Source/os_flag.c ****              break;
 367:uCOS-III\Source/os_flag.c **** 
 368:uCOS-III\Source/os_flag.c ****         default:
 369:uCOS-III\Source/os_flag.c ****             *p_err = OS_ERR_OPT_INVALID;
 370:uCOS-III\Source/os_flag.c ****              return ((OS_OBJ_QTY)0);
 371:uCOS-III\Source/os_flag.c ****     }
 372:uCOS-III\Source/os_flag.c **** #endif
ARM GAS  C:\Users\jorti\AppData\Local\Temp\ccCX4ftZ.s 			page 8


 373:uCOS-III\Source/os_flag.c **** 
 374:uCOS-III\Source/os_flag.c **** #if OS_CFG_OBJ_TYPE_CHK_EN > 0u
 375:uCOS-III\Source/os_flag.c ****     if (p_grp->Type != OS_OBJ_TYPE_FLAG) {                  /* Validate that we are pointing at an 
 376:uCOS-III\Source/os_flag.c ****        *p_err = OS_ERR_OBJ_TYPE;
 377:uCOS-III\Source/os_flag.c ****         return ((OS_FLAGS)0);
 378:uCOS-III\Source/os_flag.c ****     }
 379:uCOS-III\Source/os_flag.c **** #endif
 380:uCOS-III\Source/os_flag.c **** 
 381:uCOS-III\Source/os_flag.c ****     if ((opt & OS_OPT_PEND_FLAG_CONSUME) != (OS_OPT)0) {    /* See if we need to consume the flags 
 382:uCOS-III\Source/os_flag.c ****         consume = DEF_TRUE;
 383:uCOS-III\Source/os_flag.c ****     } else {
 384:uCOS-III\Source/os_flag.c ****         consume = DEF_FALSE;
 385:uCOS-III\Source/os_flag.c ****     }
 386:uCOS-III\Source/os_flag.c **** 
 387:uCOS-III\Source/os_flag.c ****     if (p_ts != (CPU_TS *)0) {
 388:uCOS-III\Source/os_flag.c ****        *p_ts = (CPU_TS)0;                                   /* Initialize the returned timestamp   
 389:uCOS-III\Source/os_flag.c ****     }
 390:uCOS-III\Source/os_flag.c **** 
 391:uCOS-III\Source/os_flag.c ****     mode = opt & OS_OPT_PEND_FLAG_MASK;
 392:uCOS-III\Source/os_flag.c ****     CPU_CRITICAL_ENTER();
 393:uCOS-III\Source/os_flag.c ****     switch (mode) {
 394:uCOS-III\Source/os_flag.c ****         case OS_OPT_PEND_FLAG_SET_ALL:                      /* See if all required flags are set   
 395:uCOS-III\Source/os_flag.c ****              flags_rdy = (OS_FLAGS)(p_grp->Flags & flags);  /* Extract only the bits we want       
 396:uCOS-III\Source/os_flag.c ****              if (flags_rdy == flags) {                      /* Must match ALL the bits that we want
 397:uCOS-III\Source/os_flag.c ****                  if (consume == DEF_TRUE) {                 /* See if we need to consume the flags 
 398:uCOS-III\Source/os_flag.c ****                      p_grp->Flags &= ~flags_rdy;            /* Clear ONLY the flags that we wanted 
 399:uCOS-III\Source/os_flag.c ****                  }
 400:uCOS-III\Source/os_flag.c ****                  OSTCBCurPtr->FlagsRdy = flags_rdy;         /* Save flags that were ready          
 401:uCOS-III\Source/os_flag.c ****                  if (p_ts != (CPU_TS *)0) {
 402:uCOS-III\Source/os_flag.c ****                     *p_ts  = p_grp->TS;
 403:uCOS-III\Source/os_flag.c ****                  }
 404:uCOS-III\Source/os_flag.c ****                  CPU_CRITICAL_EXIT();                       /* Yes, condition met, return to caller
 405:uCOS-III\Source/os_flag.c ****                 *p_err = OS_ERR_NONE;
 406:uCOS-III\Source/os_flag.c ****                  return (flags_rdy);
 407:uCOS-III\Source/os_flag.c ****              } else {                                       /* Block task until events occur or tim
 408:uCOS-III\Source/os_flag.c ****                  if ((opt & OS_OPT_PEND_NON_BLOCKING) != (OS_OPT)0) {
 409:uCOS-III\Source/os_flag.c ****                      CPU_CRITICAL_EXIT();
 410:uCOS-III\Source/os_flag.c ****                     *p_err = OS_ERR_PEND_WOULD_BLOCK;       /* Specified non-blocking so task would
 411:uCOS-III\Source/os_flag.c ****                      return ((OS_FLAGS)0);
 412:uCOS-III\Source/os_flag.c ****                  } else {                                   /* Specified blocking so check is sched
 413:uCOS-III\Source/os_flag.c ****                      if (OSSchedLockNestingCtr > (OS_NESTING_CTR)0) { /* See if called with schedul
 414:uCOS-III\Source/os_flag.c ****                          CPU_CRITICAL_EXIT();
 415:uCOS-III\Source/os_flag.c ****                         *p_err = OS_ERR_SCHED_LOCKED;                 /* ... can't PEND when locked
 416:uCOS-III\Source/os_flag.c ****                          return ((OS_FLAGS)0);
 417:uCOS-III\Source/os_flag.c ****                      }
 418:uCOS-III\Source/os_flag.c ****                  }
 419:uCOS-III\Source/os_flag.c ****                                                             /* Lock the scheduler/re-enable interru
 420:uCOS-III\Source/os_flag.c ****                  OS_CRITICAL_ENTER_CPU_EXIT();              
 421:uCOS-III\Source/os_flag.c ****                  OS_FlagBlock(&pend_data,
 422:uCOS-III\Source/os_flag.c ****                               p_grp,
 423:uCOS-III\Source/os_flag.c ****                               flags,
 424:uCOS-III\Source/os_flag.c ****                               opt,
 425:uCOS-III\Source/os_flag.c ****                               timeout);
 426:uCOS-III\Source/os_flag.c ****                  OS_CRITICAL_EXIT_NO_SCHED();
 427:uCOS-III\Source/os_flag.c ****              }
 428:uCOS-III\Source/os_flag.c ****              break;
 429:uCOS-III\Source/os_flag.c **** 
ARM GAS  C:\Users\jorti\AppData\Local\Temp\ccCX4ftZ.s 			page 9


 430:uCOS-III\Source/os_flag.c ****         case OS_OPT_PEND_FLAG_SET_ANY:
 431:uCOS-III\Source/os_flag.c ****              flags_rdy = (OS_FLAGS)(p_grp->Flags & flags);  /* Extract only the bits we want       
 432:uCOS-III\Source/os_flag.c ****              if (flags_rdy != (OS_FLAGS)0) {                /* See if any flag set                 
 433:uCOS-III\Source/os_flag.c ****                  if (consume == DEF_TRUE) {                 /* See if we need to consume the flags 
 434:uCOS-III\Source/os_flag.c ****                      p_grp->Flags &= ~flags_rdy;            /* Clear ONLY the flags that we got    
 435:uCOS-III\Source/os_flag.c ****                  }
 436:uCOS-III\Source/os_flag.c ****                  OSTCBCurPtr->FlagsRdy = flags_rdy;         /* Save flags that were ready          
 437:uCOS-III\Source/os_flag.c ****                  if (p_ts != (CPU_TS *)0) {
 438:uCOS-III\Source/os_flag.c ****                     *p_ts  = p_grp->TS;
 439:uCOS-III\Source/os_flag.c ****                  }
 440:uCOS-III\Source/os_flag.c ****                  CPU_CRITICAL_EXIT();                       /* Yes, condition met, return to caller
 441:uCOS-III\Source/os_flag.c ****                 *p_err = OS_ERR_NONE;
 442:uCOS-III\Source/os_flag.c ****                  return (flags_rdy);
 443:uCOS-III\Source/os_flag.c ****              } else {                                       /* Block task until events occur or tim
 444:uCOS-III\Source/os_flag.c ****                  if ((opt & OS_OPT_PEND_NON_BLOCKING) != (OS_OPT)0) {
 445:uCOS-III\Source/os_flag.c ****                      CPU_CRITICAL_EXIT();
 446:uCOS-III\Source/os_flag.c ****                     *p_err = OS_ERR_PEND_WOULD_BLOCK;       /* Specified non-blocking so task would
 447:uCOS-III\Source/os_flag.c ****                      return ((OS_FLAGS)0);
 448:uCOS-III\Source/os_flag.c ****                  } else {                                   /* Specified blocking so check is sched
 449:uCOS-III\Source/os_flag.c ****                      if (OSSchedLockNestingCtr > (OS_NESTING_CTR)0) { /* See if called with schedul
 450:uCOS-III\Source/os_flag.c ****                          CPU_CRITICAL_EXIT();
 451:uCOS-III\Source/os_flag.c ****                         *p_err = OS_ERR_SCHED_LOCKED;                 /* ... can't PEND when locked
 452:uCOS-III\Source/os_flag.c ****                          return ((OS_FLAGS)0);
 453:uCOS-III\Source/os_flag.c ****                      }
 454:uCOS-III\Source/os_flag.c ****                  }
 455:uCOS-III\Source/os_flag.c ****                                                             /* Lock the scheduler/re-enable interru
 456:uCOS-III\Source/os_flag.c ****                  OS_CRITICAL_ENTER_CPU_EXIT();              
 457:uCOS-III\Source/os_flag.c ****                  OS_FlagBlock(&pend_data,
 458:uCOS-III\Source/os_flag.c ****                               p_grp,
 459:uCOS-III\Source/os_flag.c ****                               flags,
 460:uCOS-III\Source/os_flag.c ****                               opt,
 461:uCOS-III\Source/os_flag.c ****                               timeout);
 462:uCOS-III\Source/os_flag.c ****                  OS_CRITICAL_EXIT_NO_SCHED();
 463:uCOS-III\Source/os_flag.c ****              }
 464:uCOS-III\Source/os_flag.c ****              break;
 465:uCOS-III\Source/os_flag.c **** 
 466:uCOS-III\Source/os_flag.c **** #if OS_CFG_FLAG_MODE_CLR_EN > 0u
 467:uCOS-III\Source/os_flag.c ****         case OS_OPT_PEND_FLAG_CLR_ALL:                      /* See if all required flags are cleare
 468:uCOS-III\Source/os_flag.c ****              flags_rdy = (OS_FLAGS)(~p_grp->Flags & flags); /* Extract only the bits we want       
 469:uCOS-III\Source/os_flag.c ****              if (flags_rdy == flags) {                      /* Must match ALL the bits that we want
 470:uCOS-III\Source/os_flag.c ****                  if (consume == DEF_TRUE) {                 /* See if we need to consume the flags 
 471:uCOS-III\Source/os_flag.c ****                      p_grp->Flags |= flags_rdy;             /* Set ONLY the flags that we wanted   
 472:uCOS-III\Source/os_flag.c ****                  }
 473:uCOS-III\Source/os_flag.c ****                  OSTCBCurPtr->FlagsRdy = flags_rdy;         /* Save flags that were ready          
 474:uCOS-III\Source/os_flag.c ****                  if (p_ts != (CPU_TS *)0) {
 475:uCOS-III\Source/os_flag.c ****                     *p_ts  = p_grp->TS;
 476:uCOS-III\Source/os_flag.c ****                  }
 477:uCOS-III\Source/os_flag.c ****                  CPU_CRITICAL_EXIT();                       /* Yes, condition met, return to caller
 478:uCOS-III\Source/os_flag.c ****                 *p_err = OS_ERR_NONE;
 479:uCOS-III\Source/os_flag.c ****                  return (flags_rdy);
 480:uCOS-III\Source/os_flag.c ****              } else {                                       /* Block task until events occur or tim
 481:uCOS-III\Source/os_flag.c ****                  if ((opt & OS_OPT_PEND_NON_BLOCKING) != (OS_OPT)0) {
 482:uCOS-III\Source/os_flag.c ****                      CPU_CRITICAL_EXIT();
 483:uCOS-III\Source/os_flag.c ****                     *p_err = OS_ERR_PEND_WOULD_BLOCK;       /* Specified non-blocking so task would
 484:uCOS-III\Source/os_flag.c ****                      return ((OS_FLAGS)0);
 485:uCOS-III\Source/os_flag.c ****                  } else {                                   /* Specified blocking so check is sched
 486:uCOS-III\Source/os_flag.c ****                      if (OSSchedLockNestingCtr > (OS_NESTING_CTR)0) { /* See if called with schedul
ARM GAS  C:\Users\jorti\AppData\Local\Temp\ccCX4ftZ.s 			page 10


 487:uCOS-III\Source/os_flag.c ****                          CPU_CRITICAL_EXIT();
 488:uCOS-III\Source/os_flag.c ****                         *p_err = OS_ERR_SCHED_LOCKED;                 /* ... can't PEND when locked
 489:uCOS-III\Source/os_flag.c ****                          return ((OS_FLAGS)0);
 490:uCOS-III\Source/os_flag.c ****                      }
 491:uCOS-III\Source/os_flag.c ****                  }
 492:uCOS-III\Source/os_flag.c ****                                                             
 493:uCOS-III\Source/os_flag.c ****                  OS_CRITICAL_ENTER_CPU_EXIT();              /* Lock the scheduler/re-enable interru
 494:uCOS-III\Source/os_flag.c ****                  OS_FlagBlock(&pend_data,
 495:uCOS-III\Source/os_flag.c ****                               p_grp,
 496:uCOS-III\Source/os_flag.c ****                               flags,
 497:uCOS-III\Source/os_flag.c ****                               opt,
 498:uCOS-III\Source/os_flag.c ****                               timeout);
 499:uCOS-III\Source/os_flag.c ****                  OS_CRITICAL_EXIT_NO_SCHED();
 500:uCOS-III\Source/os_flag.c ****              }
 501:uCOS-III\Source/os_flag.c ****              break;
 502:uCOS-III\Source/os_flag.c **** 
 503:uCOS-III\Source/os_flag.c ****         case OS_OPT_PEND_FLAG_CLR_ANY:
 504:uCOS-III\Source/os_flag.c ****              flags_rdy = (OS_FLAGS)(~p_grp->Flags & flags); /* Extract only the bits we want       
 505:uCOS-III\Source/os_flag.c ****              if (flags_rdy != (OS_FLAGS)0) {                /* See if any flag cleared             
 506:uCOS-III\Source/os_flag.c ****                  if (consume == DEF_TRUE) {                 /* See if we need to consume the flags 
 507:uCOS-III\Source/os_flag.c ****                      p_grp->Flags |= flags_rdy;             /* Set ONLY the flags that we got      
 508:uCOS-III\Source/os_flag.c ****                  }
 509:uCOS-III\Source/os_flag.c ****                  OSTCBCurPtr->FlagsRdy = flags_rdy;         /* Save flags that were ready          
 510:uCOS-III\Source/os_flag.c ****                  if (p_ts != (CPU_TS *)0) {
 511:uCOS-III\Source/os_flag.c ****                     *p_ts  = p_grp->TS;
 512:uCOS-III\Source/os_flag.c ****                  }
 513:uCOS-III\Source/os_flag.c ****                  CPU_CRITICAL_EXIT();                       /* Yes, condition met, return to caller
 514:uCOS-III\Source/os_flag.c ****                 *p_err = OS_ERR_NONE;
 515:uCOS-III\Source/os_flag.c ****                  return (flags_rdy);
 516:uCOS-III\Source/os_flag.c ****              } else {                                       /* Block task until events occur or tim
 517:uCOS-III\Source/os_flag.c ****                  if ((opt & OS_OPT_PEND_NON_BLOCKING) != (OS_OPT)0) {
 518:uCOS-III\Source/os_flag.c ****                      CPU_CRITICAL_EXIT();
 519:uCOS-III\Source/os_flag.c ****                     *p_err = OS_ERR_PEND_WOULD_BLOCK;       /* Specified non-blocking so task would
 520:uCOS-III\Source/os_flag.c ****                      return ((OS_FLAGS)0);
 521:uCOS-III\Source/os_flag.c ****                  } else {                                   /* Specified blocking so check is sched
 522:uCOS-III\Source/os_flag.c ****                      if (OSSchedLockNestingCtr > (OS_NESTING_CTR)0) { /* See if called with schedul
 523:uCOS-III\Source/os_flag.c ****                          CPU_CRITICAL_EXIT();
 524:uCOS-III\Source/os_flag.c ****                         *p_err = OS_ERR_SCHED_LOCKED;                 /* ... can't PEND when locked
 525:uCOS-III\Source/os_flag.c ****                          return ((OS_FLAGS)0);
 526:uCOS-III\Source/os_flag.c ****                      }
 527:uCOS-III\Source/os_flag.c ****                  }
 528:uCOS-III\Source/os_flag.c ****                                                             
 529:uCOS-III\Source/os_flag.c ****                  OS_CRITICAL_ENTER_CPU_EXIT();              /* Lock the scheduler/re-enable interru
 530:uCOS-III\Source/os_flag.c ****                  OS_FlagBlock(&pend_data,              
 531:uCOS-III\Source/os_flag.c ****                               p_grp,
 532:uCOS-III\Source/os_flag.c ****                               flags,
 533:uCOS-III\Source/os_flag.c ****                               opt,
 534:uCOS-III\Source/os_flag.c ****                               timeout);
 535:uCOS-III\Source/os_flag.c ****                  OS_CRITICAL_EXIT_NO_SCHED();
 536:uCOS-III\Source/os_flag.c ****              }
 537:uCOS-III\Source/os_flag.c ****              break;
 538:uCOS-III\Source/os_flag.c **** #endif
 539:uCOS-III\Source/os_flag.c **** 
 540:uCOS-III\Source/os_flag.c ****         default:
 541:uCOS-III\Source/os_flag.c ****              CPU_CRITICAL_EXIT();
 542:uCOS-III\Source/os_flag.c ****             *p_err = OS_ERR_OPT_INVALID;
 543:uCOS-III\Source/os_flag.c ****              return ((OS_FLAGS)0);
ARM GAS  C:\Users\jorti\AppData\Local\Temp\ccCX4ftZ.s 			page 11


 544:uCOS-III\Source/os_flag.c ****     }
 545:uCOS-III\Source/os_flag.c **** 
 546:uCOS-III\Source/os_flag.c ****     OSSched();                                              /* Find next HPT ready to run          
 547:uCOS-III\Source/os_flag.c **** 
 548:uCOS-III\Source/os_flag.c ****     CPU_CRITICAL_ENTER();
 549:uCOS-III\Source/os_flag.c ****     switch (OSTCBCurPtr->PendStatus) {
 550:uCOS-III\Source/os_flag.c ****         case OS_STATUS_PEND_OK:                             /* We got the vent flags               
 551:uCOS-III\Source/os_flag.c ****              if (p_ts != (CPU_TS *)0) {
 552:uCOS-III\Source/os_flag.c ****                 *p_ts  = OSTCBCurPtr->TS;
 553:uCOS-III\Source/os_flag.c ****              }
 554:uCOS-III\Source/os_flag.c ****             *p_err = OS_ERR_NONE;
 555:uCOS-III\Source/os_flag.c ****              break;
 556:uCOS-III\Source/os_flag.c **** 
 557:uCOS-III\Source/os_flag.c ****         case OS_STATUS_PEND_ABORT:                          /* Indicate that we aborted            
 558:uCOS-III\Source/os_flag.c ****              if (p_ts != (CPU_TS *)0) {
 559:uCOS-III\Source/os_flag.c ****                 *p_ts  = OSTCBCurPtr->TS;
 560:uCOS-III\Source/os_flag.c ****              }
 561:uCOS-III\Source/os_flag.c ****              CPU_CRITICAL_EXIT();
 562:uCOS-III\Source/os_flag.c ****             *p_err = OS_ERR_PEND_ABORT;
 563:uCOS-III\Source/os_flag.c ****              break;
 564:uCOS-III\Source/os_flag.c **** 
 565:uCOS-III\Source/os_flag.c ****         case OS_STATUS_PEND_TIMEOUT:                        /* Indicate that we didn't get semaphor
 566:uCOS-III\Source/os_flag.c ****              if (p_ts != (CPU_TS *)0) {
 567:uCOS-III\Source/os_flag.c ****                 *p_ts  = (CPU_TS  )0;
 568:uCOS-III\Source/os_flag.c ****              }
 569:uCOS-III\Source/os_flag.c ****              CPU_CRITICAL_EXIT();
 570:uCOS-III\Source/os_flag.c ****             *p_err = OS_ERR_TIMEOUT;
 571:uCOS-III\Source/os_flag.c ****              break;
 572:uCOS-III\Source/os_flag.c **** 
 573:uCOS-III\Source/os_flag.c ****         case OS_STATUS_PEND_DEL:                            /* Indicate that object pended on has b
 574:uCOS-III\Source/os_flag.c ****              if (p_ts != (CPU_TS *)0) {
 575:uCOS-III\Source/os_flag.c ****                 *p_ts  = OSTCBCurPtr->TS;
 576:uCOS-III\Source/os_flag.c ****              }
 577:uCOS-III\Source/os_flag.c ****              CPU_CRITICAL_EXIT();
 578:uCOS-III\Source/os_flag.c ****             *p_err = OS_ERR_OBJ_DEL;
 579:uCOS-III\Source/os_flag.c ****              break;
 580:uCOS-III\Source/os_flag.c **** 
 581:uCOS-III\Source/os_flag.c ****         default:
 582:uCOS-III\Source/os_flag.c ****              CPU_CRITICAL_EXIT();
 583:uCOS-III\Source/os_flag.c ****             *p_err = OS_ERR_STATUS_INVALID;
 584:uCOS-III\Source/os_flag.c ****              break;
 585:uCOS-III\Source/os_flag.c ****     }
 586:uCOS-III\Source/os_flag.c ****     if (*p_err != OS_ERR_NONE) {
 587:uCOS-III\Source/os_flag.c ****         return ((OS_FLAGS)0);
 588:uCOS-III\Source/os_flag.c ****     }
 589:uCOS-III\Source/os_flag.c **** 
 590:uCOS-III\Source/os_flag.c ****     flags_rdy = OSTCBCurPtr->FlagsRdy;
 591:uCOS-III\Source/os_flag.c ****     if (consume == DEF_TRUE) {                              /* See if we need to consume the flags 
 592:uCOS-III\Source/os_flag.c ****         switch (mode) {
 593:uCOS-III\Source/os_flag.c ****             case OS_OPT_PEND_FLAG_SET_ALL:
 594:uCOS-III\Source/os_flag.c ****             case OS_OPT_PEND_FLAG_SET_ANY:                  /* Clear ONLY the flags we got         
 595:uCOS-III\Source/os_flag.c ****                  p_grp->Flags &= ~flags_rdy;
 596:uCOS-III\Source/os_flag.c ****                  break;
 597:uCOS-III\Source/os_flag.c **** 
 598:uCOS-III\Source/os_flag.c **** #if OS_CFG_FLAG_MODE_CLR_EN > 0u
 599:uCOS-III\Source/os_flag.c ****             case OS_OPT_PEND_FLAG_CLR_ALL:
 600:uCOS-III\Source/os_flag.c ****             case OS_OPT_PEND_FLAG_CLR_ANY:                  /* Set   ONLY the flags we got         
ARM GAS  C:\Users\jorti\AppData\Local\Temp\ccCX4ftZ.s 			page 12


 601:uCOS-III\Source/os_flag.c ****                  p_grp->Flags |=  flags_rdy;
 602:uCOS-III\Source/os_flag.c ****                  break;
 603:uCOS-III\Source/os_flag.c **** #endif
 604:uCOS-III\Source/os_flag.c ****             default:
 605:uCOS-III\Source/os_flag.c ****                  CPU_CRITICAL_EXIT();
 606:uCOS-III\Source/os_flag.c ****                 *p_err = OS_ERR_OPT_INVALID;
 607:uCOS-III\Source/os_flag.c ****                  return ((OS_FLAGS)0);
 608:uCOS-III\Source/os_flag.c ****         }
 609:uCOS-III\Source/os_flag.c ****     }
 610:uCOS-III\Source/os_flag.c ****     CPU_CRITICAL_EXIT();
 611:uCOS-III\Source/os_flag.c ****    *p_err = OS_ERR_NONE;                                    /* Event(s) must have occurred         
 612:uCOS-III\Source/os_flag.c ****     return (flags_rdy);
 613:uCOS-III\Source/os_flag.c **** }
 614:uCOS-III\Source/os_flag.c **** 
 615:uCOS-III\Source/os_flag.c **** /*$PAGE*/
 616:uCOS-III\Source/os_flag.c **** /*
 617:uCOS-III\Source/os_flag.c **** ***************************************************************************************************
 618:uCOS-III\Source/os_flag.c **** *                                          ABORT WAITING ON AN EVENT FLAG GROUP
 619:uCOS-III\Source/os_flag.c **** *
 620:uCOS-III\Source/os_flag.c **** * Description: This function aborts & readies any tasks currently waiting on an event flag group.  
 621:uCOS-III\Source/os_flag.c **** *              be used to fault-abort the wait on the event flag group, rather than to normally pos
 622:uCOS-III\Source/os_flag.c **** *              group OSFlagPost().
 623:uCOS-III\Source/os_flag.c **** *
 624:uCOS-III\Source/os_flag.c **** * Arguments  : p_grp     is a pointer to the event flag group
 625:uCOS-III\Source/os_flag.c **** *
 626:uCOS-III\Source/os_flag.c **** *              opt       determines the type of ABORT performed:
 627:uCOS-III\Source/os_flag.c **** *
 628:uCOS-III\Source/os_flag.c **** *                            OS_OPT_PEND_ABORT_1          ABORT wait for a single task (HPT) waitin
 629:uCOS-III\Source/os_flag.c **** *                            OS_OPT_PEND_ABORT_ALL        ABORT wait for ALL tasks that are  waitin
 630:uCOS-III\Source/os_flag.c **** *                            OS_OPT_POST_NO_SCHED         Do not call the scheduler
 631:uCOS-III\Source/os_flag.c **** *
 632:uCOS-III\Source/os_flag.c **** *              p_err     is a pointer to a variable that will contain an error code returned by thi
 633:uCOS-III\Source/os_flag.c **** *
 634:uCOS-III\Source/os_flag.c **** *                            OS_ERR_NONE                  At least one task waiting on the event fl
 635:uCOS-III\Source/os_flag.c **** *                                                         readied and informed of the aborted wait;
 636:uCOS-III\Source/os_flag.c **** *                                                         for the number of tasks whose wait on the
 637:uCOS-III\Source/os_flag.c **** *                                                         was aborted.
 638:uCOS-III\Source/os_flag.c **** *                            OS_ERR_OBJ_PTR_NULL          If 'p_grp' is a NULL pointer.
 639:uCOS-III\Source/os_flag.c **** *                            OS_ERR_OBJ_TYPE              If 'p_grp' is not pointing at an event fl
 640:uCOS-III\Source/os_flag.c **** *                            OS_ERR_OPT_INVALID           If you specified an invalid option
 641:uCOS-III\Source/os_flag.c **** *                            OS_ERR_PEND_ABORT_ISR        If you called this function from an ISR
 642:uCOS-III\Source/os_flag.c **** *                            OS_ERR_PEND_ABORT_NONE       No task were pending
 643:uCOS-III\Source/os_flag.c **** *
 644:uCOS-III\Source/os_flag.c **** * Returns    : == 0          if no tasks were waiting on the event flag group, or upon error.
 645:uCOS-III\Source/os_flag.c **** *              >  0          if one or more tasks waiting on the event flag group are now readied a
 646:uCOS-III\Source/os_flag.c **** ***************************************************************************************************
 647:uCOS-III\Source/os_flag.c **** */
 648:uCOS-III\Source/os_flag.c **** 
 649:uCOS-III\Source/os_flag.c **** #if OS_CFG_FLAG_PEND_ABORT_EN > 0u
 650:uCOS-III\Source/os_flag.c **** OS_OBJ_QTY  OSFlagPendAbort (OS_FLAG_GRP  *p_grp,
 651:uCOS-III\Source/os_flag.c ****                              OS_OPT        opt,
 652:uCOS-III\Source/os_flag.c ****                              OS_ERR       *p_err)
 653:uCOS-III\Source/os_flag.c **** {
  28              		.loc 1 653 0
  29              		.cfi_startproc
  30              		@ args = 0, pretend = 0, frame = 0
  31              		@ frame_needed = 0, uses_anonymous_args = 0
ARM GAS  C:\Users\jorti\AppData\Local\Temp\ccCX4ftZ.s 			page 13


  32              	.LVL0:
  33 0000 2DE9F843 		push	{r3, r4, r5, r6, r7, r8, r9, lr}
  34              		.cfi_def_cfa_offset 32
  35              		.cfi_offset 3, -32
  36              		.cfi_offset 4, -28
  37              		.cfi_offset 5, -24
  38              		.cfi_offset 6, -20
  39              		.cfi_offset 7, -16
  40              		.cfi_offset 8, -12
  41              		.cfi_offset 9, -8
  42              		.cfi_offset 14, -4
  43              	.LVL1:
 654:uCOS-III\Source/os_flag.c ****     OS_PEND_LIST  *p_pend_list;
 655:uCOS-III\Source/os_flag.c ****     OS_TCB        *p_tcb;
 656:uCOS-III\Source/os_flag.c ****     CPU_TS         ts;
 657:uCOS-III\Source/os_flag.c ****     OS_OBJ_QTY     nbr_tasks;
 658:uCOS-III\Source/os_flag.c ****     CPU_SR_ALLOC();
 659:uCOS-III\Source/os_flag.c **** 
 660:uCOS-III\Source/os_flag.c **** 
 661:uCOS-III\Source/os_flag.c **** 
 662:uCOS-III\Source/os_flag.c **** #ifdef OS_SAFETY_CRITICAL
 663:uCOS-III\Source/os_flag.c ****     if (p_err == (OS_ERR *)0) {
 664:uCOS-III\Source/os_flag.c ****         OS_SAFETY_CRITICAL_EXCEPTION();
 665:uCOS-III\Source/os_flag.c ****         return ((OS_OBJ_QTY)0u);
 666:uCOS-III\Source/os_flag.c ****     }
 667:uCOS-III\Source/os_flag.c **** #endif
 668:uCOS-III\Source/os_flag.c **** 
 669:uCOS-III\Source/os_flag.c **** #if OS_CFG_CALLED_FROM_ISR_CHK_EN > 0u
 670:uCOS-III\Source/os_flag.c ****     if (OSIntNestingCtr > (OS_NESTING_CTR)0u) {             /* Not allowed to Pend Abort from an IS
  44              		.loc 1 670 0
  45 0004 264B     		ldr	r3, .L14
  46 0006 1B78     		ldrb	r3, [r3]	@ zero_extendqisi2
  47 0008 23B1     		cbz	r3, .L2
 671:uCOS-III\Source/os_flag.c ****        *p_err = OS_ERR_PEND_ABORT_ISR;
  48              		.loc 1 671 0
  49 000a 46F2AA13 		movw	r3, #25002
  50 000e 1380     		strh	r3, [r2]	@ movhi
 672:uCOS-III\Source/os_flag.c ****         return ((OS_OBJ_QTY)0u);
  51              		.loc 1 672 0
  52 0010 0024     		movs	r4, #0
  53 0012 41E0     		b	.L3
  54              	.L2:
 673:uCOS-III\Source/os_flag.c ****     }
 674:uCOS-III\Source/os_flag.c **** #endif
 675:uCOS-III\Source/os_flag.c **** 
 676:uCOS-III\Source/os_flag.c **** #if OS_CFG_ARG_CHK_EN > 0u
 677:uCOS-III\Source/os_flag.c ****     if (p_grp == (OS_FLAG_GRP *)0) {                        /* Validate 'p_grp'                    
  55              		.loc 1 677 0
  56 0014 20B9     		cbnz	r0, .L4
 678:uCOS-III\Source/os_flag.c ****        *p_err  =  OS_ERR_OBJ_PTR_NULL;
  57              		.loc 1 678 0
  58 0016 45F6C353 		movw	r3, #24003
  59 001a 1380     		strh	r3, [r2]	@ movhi
 679:uCOS-III\Source/os_flag.c ****         return ((OS_OBJ_QTY)0u);
  60              		.loc 1 679 0
  61 001c 0024     		movs	r4, #0
  62 001e 3BE0     		b	.L3
ARM GAS  C:\Users\jorti\AppData\Local\Temp\ccCX4ftZ.s 			page 14


  63              	.L4:
 680:uCOS-III\Source/os_flag.c ****     }
 681:uCOS-III\Source/os_flag.c ****     switch (opt) {                                          /* Validate 'opt'                      
  64              		.loc 1 681 0
  65 0020 B1F5807F 		cmp	r1, #256
  66 0024 0DD0     		beq	.L6
  67 0026 01D8     		bhi	.L7
  68 0028 31B9     		cbnz	r1, .L5
  69 002a 0AE0     		b	.L6
  70              	.L7:
  71 002c B1F5004F 		cmp	r1, #32768
  72 0030 07D0     		beq	.L6
  73 0032 B1F5014F 		cmp	r1, #33024
  74 0036 04D0     		beq	.L6
  75              	.L5:
 682:uCOS-III\Source/os_flag.c ****         case OS_OPT_PEND_ABORT_1:
 683:uCOS-III\Source/os_flag.c ****         case OS_OPT_PEND_ABORT_ALL:
 684:uCOS-III\Source/os_flag.c ****         case OS_OPT_PEND_ABORT_1   | OS_OPT_POST_NO_SCHED:
 685:uCOS-III\Source/os_flag.c ****         case OS_OPT_PEND_ABORT_ALL | OS_OPT_POST_NO_SCHED:
 686:uCOS-III\Source/os_flag.c ****              break;
 687:uCOS-III\Source/os_flag.c **** 
 688:uCOS-III\Source/os_flag.c ****         default:
 689:uCOS-III\Source/os_flag.c ****             *p_err = OS_ERR_OPT_INVALID;
  76              		.loc 1 689 0
  77 0038 45F62563 		movw	r3, #24101
  78 003c 1380     		strh	r3, [r2]	@ movhi
 690:uCOS-III\Source/os_flag.c ****              return ((OS_OBJ_QTY)0u);
  79              		.loc 1 690 0
  80 003e 0024     		movs	r4, #0
  81 0040 2AE0     		b	.L3
  82              	.L6:
  83 0042 1746     		mov	r7, r2
  84 0044 0E46     		mov	r6, r1
  85 0046 0546     		mov	r5, r0
 691:uCOS-III\Source/os_flag.c ****     }
 692:uCOS-III\Source/os_flag.c **** #endif
 693:uCOS-III\Source/os_flag.c **** 
 694:uCOS-III\Source/os_flag.c **** #if OS_CFG_OBJ_TYPE_CHK_EN > 0u
 695:uCOS-III\Source/os_flag.c ****     if (p_grp->Type != OS_OBJ_TYPE_FLAG) {                  /* Make sure event flag group was creat
 696:uCOS-III\Source/os_flag.c ****        *p_err = OS_ERR_OBJ_TYPE;
 697:uCOS-III\Source/os_flag.c ****         return ((OS_OBJ_QTY)0u);
 698:uCOS-III\Source/os_flag.c ****     }
 699:uCOS-III\Source/os_flag.c **** #endif
 700:uCOS-III\Source/os_flag.c **** 
 701:uCOS-III\Source/os_flag.c ****     CPU_CRITICAL_ENTER();
  86              		.loc 1 701 0
  87 0048 FFF7FEFF 		bl	CPU_SR_Save
  88              	.LVL2:
  89 004c 8046     		mov	r8, r0
  90              	.LVL3:
 702:uCOS-III\Source/os_flag.c ****     p_pend_list = &p_grp->PendList;
 703:uCOS-III\Source/os_flag.c ****     if (p_pend_list->NbrEntries == (OS_OBJ_QTY)0u) {        /* Any task waiting on flag group?     
  91              		.loc 1 703 0
  92 004e 2C8A     		ldrh	r4, [r5, #16]
  93 0050 2CB9     		cbnz	r4, .L8
 704:uCOS-III\Source/os_flag.c ****         CPU_CRITICAL_EXIT();                                /* No                                  
  94              		.loc 1 704 0
ARM GAS  C:\Users\jorti\AppData\Local\Temp\ccCX4ftZ.s 			page 15


  95 0052 FFF7FEFF 		bl	CPU_SR_Restore
  96              	.LVL4:
 705:uCOS-III\Source/os_flag.c ****        *p_err = OS_ERR_PEND_ABORT_NONE;
  97              		.loc 1 705 0
  98 0056 46F2AB13 		movw	r3, #25003
  99 005a 3B80     		strh	r3, [r7]	@ movhi
 706:uCOS-III\Source/os_flag.c ****         return ((OS_OBJ_QTY)0u);
 100              		.loc 1 706 0
 101 005c 1CE0     		b	.L3
 102              	.LVL5:
 103              	.L8:
 707:uCOS-III\Source/os_flag.c ****     }
 708:uCOS-III\Source/os_flag.c **** 
 709:uCOS-III\Source/os_flag.c ****     OS_CRITICAL_ENTER_CPU_EXIT();
 710:uCOS-III\Source/os_flag.c ****     nbr_tasks = 0u;
 711:uCOS-III\Source/os_flag.c ****     ts        = OS_TS_GET();                                /* Get local time stamp so all tasks ge
 104              		.loc 1 711 0
 105 005e FFF7FEFF 		bl	CPU_TS_TmrRd
 106              	.LVL6:
 107 0062 8146     		mov	r9, r0
 108              	.LVL7:
 710:uCOS-III\Source/os_flag.c ****     ts        = OS_TS_GET();                                /* Get local time stamp so all tasks ge
 109              		.loc 1 710 0
 110 0064 0024     		movs	r4, #0
 712:uCOS-III\Source/os_flag.c ****     while (p_pend_list->NbrEntries > (OS_OBJ_QTY)0u) {
 111              		.loc 1 712 0
 112 0066 0AE0     		b	.L9
 113              	.LVL8:
 114              	.L11:
 713:uCOS-III\Source/os_flag.c ****         p_tcb = p_pend_list->HeadPtr->TCBPtr;
 115              		.loc 1 713 0
 116 0068 AB68     		ldr	r3, [r5, #8]
 117              	.LVL9:
 714:uCOS-III\Source/os_flag.c ****         OS_PendAbort((OS_PEND_OBJ *)((void *)p_grp),
 118              		.loc 1 714 0
 119 006a 4A46     		mov	r2, r9
 120 006c 9968     		ldr	r1, [r3, #8]
 121 006e 2846     		mov	r0, r5
 122 0070 FFF7FEFF 		bl	OS_PendAbort
 123              	.LVL10:
 715:uCOS-III\Source/os_flag.c ****                      p_tcb,
 716:uCOS-III\Source/os_flag.c ****                      ts);
 717:uCOS-III\Source/os_flag.c ****         nbr_tasks++;
 124              		.loc 1 717 0
 125 0074 0134     		adds	r4, r4, #1
 126              	.LVL11:
 127 0076 A4B2     		uxth	r4, r4
 128              	.LVL12:
 718:uCOS-III\Source/os_flag.c ****         if (opt != OS_OPT_PEND_ABORT_ALL) {                 /* Pend abort all tasks waiting?       
 129              		.loc 1 718 0
 130 0078 B6F5807F 		cmp	r6, #256
 131 007c 02D1     		bne	.L10
 132              	.LVL13:
 133              	.L9:
 712:uCOS-III\Source/os_flag.c ****         p_tcb = p_pend_list->HeadPtr->TCBPtr;
 134              		.loc 1 712 0
 135 007e 2B8A     		ldrh	r3, [r5, #16]
ARM GAS  C:\Users\jorti\AppData\Local\Temp\ccCX4ftZ.s 			page 16


 136 0080 002B     		cmp	r3, #0
 137 0082 F1D1     		bne	.L11
 138              	.L10:
 719:uCOS-III\Source/os_flag.c ****             break;                                          /* No                                  
 720:uCOS-III\Source/os_flag.c ****         }
 721:uCOS-III\Source/os_flag.c ****     }
 722:uCOS-III\Source/os_flag.c ****     OS_CRITICAL_EXIT_NO_SCHED();
 139              		.loc 1 722 0
 140 0084 4046     		mov	r0, r8
 141 0086 FFF7FEFF 		bl	CPU_SR_Restore
 142              	.LVL14:
 723:uCOS-III\Source/os_flag.c **** 
 724:uCOS-III\Source/os_flag.c ****     if ((opt & OS_OPT_POST_NO_SCHED) == (OS_OPT)0u) {
 143              		.loc 1 724 0
 144 008a 16F4004F 		tst	r6, #32768
 145 008e 01D1     		bne	.L12
 725:uCOS-III\Source/os_flag.c ****         OSSched();                                          /* Run the scheduler                   
 146              		.loc 1 725 0
 147 0090 FFF7FEFF 		bl	OSSched
 148              	.LVL15:
 149              	.L12:
 726:uCOS-III\Source/os_flag.c ****     }
 727:uCOS-III\Source/os_flag.c **** 
 728:uCOS-III\Source/os_flag.c ****    *p_err = OS_ERR_NONE;
 150              		.loc 1 728 0
 151 0094 0023     		movs	r3, #0
 152 0096 3B80     		strh	r3, [r7]	@ movhi
 153              	.LVL16:
 154              	.L3:
 729:uCOS-III\Source/os_flag.c ****     return (nbr_tasks);
 730:uCOS-III\Source/os_flag.c **** }
 155              		.loc 1 730 0
 156 0098 2046     		mov	r0, r4
 157 009a BDE8F883 		pop	{r3, r4, r5, r6, r7, r8, r9, pc}
 158              	.L15:
 159 009e 00BF     		.align	2
 160              	.L14:
 161 00a0 00000000 		.word	OSIntNestingCtr
 162              		.cfi_endproc
 163              	.LFE4:
 164              		.size	OSFlagPendAbort, .-OSFlagPendAbort
 165              		.section	.text.OSFlagPendGetFlagsRdy,"ax",%progbits
 166              		.align	2
 167              		.global	OSFlagPendGetFlagsRdy
 168              		.thumb
 169              		.thumb_func
 170              		.type	OSFlagPendGetFlagsRdy, %function
 171              	OSFlagPendGetFlagsRdy:
 172              	.LFB5:
 731:uCOS-III\Source/os_flag.c **** #endif
 732:uCOS-III\Source/os_flag.c **** 
 733:uCOS-III\Source/os_flag.c **** /*$PAGE*/
 734:uCOS-III\Source/os_flag.c **** /*
 735:uCOS-III\Source/os_flag.c **** ***************************************************************************************************
 736:uCOS-III\Source/os_flag.c **** *                                       GET FLAGS WHO CAUSED TASK TO BECOME READY
 737:uCOS-III\Source/os_flag.c **** *
 738:uCOS-III\Source/os_flag.c **** * Description: This function is called to obtain the flags that caused the task to become ready to 
ARM GAS  C:\Users\jorti\AppData\Local\Temp\ccCX4ftZ.s 			page 17


 739:uCOS-III\Source/os_flag.c **** *              In other words, this function allows you to tell "Who done it!".
 740:uCOS-III\Source/os_flag.c **** *
 741:uCOS-III\Source/os_flag.c **** * Arguments  : p_err     is a pointer to an error code
 742:uCOS-III\Source/os_flag.c **** *
 743:uCOS-III\Source/os_flag.c **** *                            OS_ERR_NONE       if the call was successful
 744:uCOS-III\Source/os_flag.c **** *                            OS_ERR_PEND_ISR   if called from an ISR
 745:uCOS-III\Source/os_flag.c **** *
 746:uCOS-III\Source/os_flag.c **** * Returns    : The flags that caused the task to be ready.
 747:uCOS-III\Source/os_flag.c **** ***************************************************************************************************
 748:uCOS-III\Source/os_flag.c **** */
 749:uCOS-III\Source/os_flag.c **** 
 750:uCOS-III\Source/os_flag.c **** OS_FLAGS  OSFlagPendGetFlagsRdy (OS_ERR  *p_err)
 751:uCOS-III\Source/os_flag.c **** {
 173              		.loc 1 751 0
 174              		.cfi_startproc
 175              		@ args = 0, pretend = 0, frame = 0
 176              		@ frame_needed = 0, uses_anonymous_args = 0
 177              	.LVL17:
 178 0000 38B5     		push	{r3, r4, r5, lr}
 179              		.cfi_def_cfa_offset 16
 180              		.cfi_offset 3, -16
 181              		.cfi_offset 4, -12
 182              		.cfi_offset 5, -8
 183              		.cfi_offset 14, -4
 184              	.LVL18:
 752:uCOS-III\Source/os_flag.c ****     OS_FLAGS   flags;
 753:uCOS-III\Source/os_flag.c ****     CPU_SR_ALLOC();
 754:uCOS-III\Source/os_flag.c **** 
 755:uCOS-III\Source/os_flag.c **** 
 756:uCOS-III\Source/os_flag.c **** 
 757:uCOS-III\Source/os_flag.c **** #ifdef OS_SAFETY_CRITICAL
 758:uCOS-III\Source/os_flag.c ****     if (p_err == (OS_ERR *)0) {
 759:uCOS-III\Source/os_flag.c ****         OS_SAFETY_CRITICAL_EXCEPTION();
 760:uCOS-III\Source/os_flag.c ****         return ((OS_FLAGS)0);
 761:uCOS-III\Source/os_flag.c ****     }
 762:uCOS-III\Source/os_flag.c **** #endif
 763:uCOS-III\Source/os_flag.c **** 
 764:uCOS-III\Source/os_flag.c **** #if OS_CFG_CALLED_FROM_ISR_CHK_EN > 0u
 765:uCOS-III\Source/os_flag.c ****     if (OSIntNestingCtr > (OS_NESTING_CTR)0) {              /* See if called from ISR ...          
 185              		.loc 1 765 0
 186 0002 0A4B     		ldr	r3, .L20
 187 0004 1B78     		ldrb	r3, [r3]	@ zero_extendqisi2
 188 0006 23B1     		cbz	r3, .L17
 766:uCOS-III\Source/os_flag.c ****        *p_err = OS_ERR_PEND_ISR;                            /* ... can't get from an ISR           
 189              		.loc 1 766 0
 190 0008 46F2AE13 		movw	r3, #25006
 191 000c 0380     		strh	r3, [r0]	@ movhi
 767:uCOS-III\Source/os_flag.c ****         return ((OS_FLAGS)0);
 192              		.loc 1 767 0
 193 000e 0020     		movs	r0, #0
 194              	.LVL19:
 195 0010 38BD     		pop	{r3, r4, r5, pc}
 196              	.LVL20:
 197              	.L17:
 198 0012 0546     		mov	r5, r0
 768:uCOS-III\Source/os_flag.c ****     }
 769:uCOS-III\Source/os_flag.c **** #endif
ARM GAS  C:\Users\jorti\AppData\Local\Temp\ccCX4ftZ.s 			page 18


 770:uCOS-III\Source/os_flag.c **** 
 771:uCOS-III\Source/os_flag.c ****     CPU_CRITICAL_ENTER();
 199              		.loc 1 771 0
 200 0014 FFF7FEFF 		bl	CPU_SR_Save
 201              	.LVL21:
 772:uCOS-III\Source/os_flag.c ****     flags = OSTCBCurPtr->FlagsRdy;
 202              		.loc 1 772 0
 203 0018 054B     		ldr	r3, .L20+4
 204 001a 1B68     		ldr	r3, [r3]
 205 001c D3F88440 		ldr	r4, [r3, #132]
 206              	.LVL22:
 773:uCOS-III\Source/os_flag.c ****     CPU_CRITICAL_EXIT();
 207              		.loc 1 773 0
 208 0020 FFF7FEFF 		bl	CPU_SR_Restore
 209              	.LVL23:
 774:uCOS-III\Source/os_flag.c ****    *p_err = OS_ERR_NONE;
 210              		.loc 1 774 0
 211 0024 0023     		movs	r3, #0
 212 0026 2B80     		strh	r3, [r5]	@ movhi
 775:uCOS-III\Source/os_flag.c ****     return (flags);
 213              		.loc 1 775 0
 214 0028 2046     		mov	r0, r4
 776:uCOS-III\Source/os_flag.c **** }
 215              		.loc 1 776 0
 216 002a 38BD     		pop	{r3, r4, r5, pc}
 217              	.LVL24:
 218              	.L21:
 219              		.align	2
 220              	.L20:
 221 002c 00000000 		.word	OSIntNestingCtr
 222 0030 00000000 		.word	OSTCBCurPtr
 223              		.cfi_endproc
 224              	.LFE5:
 225              		.size	OSFlagPendGetFlagsRdy, .-OSFlagPendGetFlagsRdy
 226              		.section	.text.OS_FlagBlock,"ax",%progbits
 227              		.align	2
 228              		.global	OS_FlagBlock
 229              		.thumb
 230              		.thumb_func
 231              		.type	OS_FlagBlock, %function
 232              	OS_FlagBlock:
 233              	.LFB7:
 777:uCOS-III\Source/os_flag.c **** 
 778:uCOS-III\Source/os_flag.c **** /*$PAGE*/
 779:uCOS-III\Source/os_flag.c **** /*
 780:uCOS-III\Source/os_flag.c **** ***************************************************************************************************
 781:uCOS-III\Source/os_flag.c **** *                                                POST EVENT FLAG BIT(S)
 782:uCOS-III\Source/os_flag.c **** *
 783:uCOS-III\Source/os_flag.c **** * Description: This function is called to set or clear some bits in an event flag group.  The bits 
 784:uCOS-III\Source/os_flag.c **** *              specified by a 'bit mask'.
 785:uCOS-III\Source/os_flag.c **** *
 786:uCOS-III\Source/os_flag.c **** * Arguments  : p_grp         is a pointer to the desired event flag group.
 787:uCOS-III\Source/os_flag.c **** *
 788:uCOS-III\Source/os_flag.c **** *              flags         If 'opt' (see below) is OS_OPT_POST_FLAG_SET, each bit that is set in 
 789:uCOS-III\Source/os_flag.c **** *                            set the corresponding bit in the event flag group.  e.g. to set bits 0
 790:uCOS-III\Source/os_flag.c **** *                            and 5 you would set 'flags' to:
 791:uCOS-III\Source/os_flag.c **** *
ARM GAS  C:\Users\jorti\AppData\Local\Temp\ccCX4ftZ.s 			page 19


 792:uCOS-III\Source/os_flag.c **** *                                0x31     (note, bit 0 is least significant bit)
 793:uCOS-III\Source/os_flag.c **** *
 794:uCOS-III\Source/os_flag.c **** *                            If 'opt' (see below) is OS_OPT_POST_FLAG_CLR, each bit that is set in 
 795:uCOS-III\Source/os_flag.c **** *                            CLEAR the corresponding bit in the event flag group.  e.g. to clear bi
 796:uCOS-III\Source/os_flag.c **** *                            4 and 5 you would specify 'flags' as:
 797:uCOS-III\Source/os_flag.c **** *
 798:uCOS-III\Source/os_flag.c **** *                                0x31     (note, bit 0 is least significant bit)
 799:uCOS-III\Source/os_flag.c **** *
 800:uCOS-III\Source/os_flag.c **** *              opt           indicates whether the flags will be:
 801:uCOS-III\Source/os_flag.c **** *
 802:uCOS-III\Source/os_flag.c **** *                                OS_OPT_POST_FLAG_SET       set
 803:uCOS-III\Source/os_flag.c **** *                                OS_OPT_POST_FLAG_CLR       cleared
 804:uCOS-III\Source/os_flag.c **** *
 805:uCOS-III\Source/os_flag.c **** *                            you can also 'add' OS_OPT_POST_NO_SCHED to prevent the scheduler from 
 806:uCOS-III\Source/os_flag.c **** *
 807:uCOS-III\Source/os_flag.c **** *              p_err         is a pointer to an error code and can be:
 808:uCOS-III\Source/os_flag.c **** *
 809:uCOS-III\Source/os_flag.c **** *                                OS_ERR_NONE                The call was successful
 810:uCOS-III\Source/os_flag.c **** *                                OS_ERR_OBJ_PTR_NULL        You passed a NULL pointer
 811:uCOS-III\Source/os_flag.c **** *                                OS_ERR_OBJ_TYPE            You are not pointing to an event flag g
 812:uCOS-III\Source/os_flag.c **** *                                OS_ERR_OPT_INVALID         You specified an invalid option
 813:uCOS-III\Source/os_flag.c **** *
 814:uCOS-III\Source/os_flag.c **** * Returns    : the new value of the event flags bits that are still set.
 815:uCOS-III\Source/os_flag.c **** *
 816:uCOS-III\Source/os_flag.c **** * Note(s)    : 1) The execution time of this function depends on the number of tasks waiting on the
 817:uCOS-III\Source/os_flag.c **** ***************************************************************************************************
 818:uCOS-III\Source/os_flag.c **** */
 819:uCOS-III\Source/os_flag.c **** 
 820:uCOS-III\Source/os_flag.c **** OS_FLAGS  OSFlagPost (OS_FLAG_GRP  *p_grp,
 821:uCOS-III\Source/os_flag.c ****                       OS_FLAGS      flags,
 822:uCOS-III\Source/os_flag.c ****                       OS_OPT        opt,
 823:uCOS-III\Source/os_flag.c ****                       OS_ERR       *p_err)
 824:uCOS-III\Source/os_flag.c **** {
 825:uCOS-III\Source/os_flag.c ****     OS_FLAGS  flags_cur;
 826:uCOS-III\Source/os_flag.c ****     CPU_TS    ts;
 827:uCOS-III\Source/os_flag.c **** 
 828:uCOS-III\Source/os_flag.c **** 
 829:uCOS-III\Source/os_flag.c **** 
 830:uCOS-III\Source/os_flag.c **** #ifdef OS_SAFETY_CRITICAL
 831:uCOS-III\Source/os_flag.c ****     if (p_err == (OS_ERR *)0) {
 832:uCOS-III\Source/os_flag.c ****         OS_SAFETY_CRITICAL_EXCEPTION();
 833:uCOS-III\Source/os_flag.c ****         return ((OS_FLAGS)0);
 834:uCOS-III\Source/os_flag.c ****     }
 835:uCOS-III\Source/os_flag.c **** #endif
 836:uCOS-III\Source/os_flag.c **** 
 837:uCOS-III\Source/os_flag.c **** #if OS_CFG_ARG_CHK_EN > 0u
 838:uCOS-III\Source/os_flag.c ****     if (p_grp == (OS_FLAG_GRP *)0) {                        /* Validate 'p_grp'                    
 839:uCOS-III\Source/os_flag.c ****        *p_err  = OS_ERR_OBJ_PTR_NULL;
 840:uCOS-III\Source/os_flag.c ****         return ((OS_FLAGS)0);
 841:uCOS-III\Source/os_flag.c ****     }
 842:uCOS-III\Source/os_flag.c ****     switch (opt) {                                          /* Validate 'opt'                      
 843:uCOS-III\Source/os_flag.c ****         case OS_OPT_POST_FLAG_SET:
 844:uCOS-III\Source/os_flag.c ****         case OS_OPT_POST_FLAG_CLR:
 845:uCOS-III\Source/os_flag.c ****         case OS_OPT_POST_FLAG_SET | OS_OPT_POST_NO_SCHED:
 846:uCOS-III\Source/os_flag.c ****         case OS_OPT_POST_FLAG_CLR | OS_OPT_POST_NO_SCHED:
 847:uCOS-III\Source/os_flag.c ****              break;
 848:uCOS-III\Source/os_flag.c **** 
ARM GAS  C:\Users\jorti\AppData\Local\Temp\ccCX4ftZ.s 			page 20


 849:uCOS-III\Source/os_flag.c ****         default:
 850:uCOS-III\Source/os_flag.c ****             *p_err = OS_ERR_OPT_INVALID;
 851:uCOS-III\Source/os_flag.c ****              return ((OS_FLAGS)0);
 852:uCOS-III\Source/os_flag.c ****     }
 853:uCOS-III\Source/os_flag.c **** #endif
 854:uCOS-III\Source/os_flag.c **** 
 855:uCOS-III\Source/os_flag.c **** #if OS_CFG_OBJ_TYPE_CHK_EN > 0u
 856:uCOS-III\Source/os_flag.c ****     if (p_grp->Type != OS_OBJ_TYPE_FLAG) {                  /* Make sure we are pointing to an even
 857:uCOS-III\Source/os_flag.c ****        *p_err = OS_ERR_OBJ_TYPE;
 858:uCOS-III\Source/os_flag.c ****         return ((OS_FLAGS)0);
 859:uCOS-III\Source/os_flag.c ****     }
 860:uCOS-III\Source/os_flag.c **** #endif
 861:uCOS-III\Source/os_flag.c **** 
 862:uCOS-III\Source/os_flag.c ****     ts = OS_TS_GET();                                       /* Get timestamp                       
 863:uCOS-III\Source/os_flag.c **** #if OS_CFG_ISR_POST_DEFERRED_EN > 0u
 864:uCOS-III\Source/os_flag.c ****     if (OSIntNestingCtr > (OS_NESTING_CTR)0) {              /* See if called from an ISR           
 865:uCOS-III\Source/os_flag.c ****         OS_IntQPost((OS_OBJ_TYPE)OS_OBJ_TYPE_FLAG,          /* Post to ISR queue                   
 866:uCOS-III\Source/os_flag.c ****                     (void      *)p_grp,
 867:uCOS-III\Source/os_flag.c ****                     (void      *)0,
 868:uCOS-III\Source/os_flag.c ****                     (OS_MSG_SIZE)0,
 869:uCOS-III\Source/os_flag.c ****                     (OS_FLAGS   )flags,
 870:uCOS-III\Source/os_flag.c ****                     (OS_OPT     )opt,
 871:uCOS-III\Source/os_flag.c ****                     (CPU_TS     )ts,
 872:uCOS-III\Source/os_flag.c ****                     (OS_ERR    *)p_err);
 873:uCOS-III\Source/os_flag.c ****         return ((OS_FLAGS)0);
 874:uCOS-III\Source/os_flag.c ****     }
 875:uCOS-III\Source/os_flag.c **** #endif
 876:uCOS-III\Source/os_flag.c **** 
 877:uCOS-III\Source/os_flag.c ****     flags_cur = OS_FlagPost(p_grp,
 878:uCOS-III\Source/os_flag.c ****                             flags,
 879:uCOS-III\Source/os_flag.c ****                             opt,
 880:uCOS-III\Source/os_flag.c ****                             ts,
 881:uCOS-III\Source/os_flag.c ****                             p_err);
 882:uCOS-III\Source/os_flag.c **** 
 883:uCOS-III\Source/os_flag.c ****     return (flags_cur);
 884:uCOS-III\Source/os_flag.c **** }
 885:uCOS-III\Source/os_flag.c **** 
 886:uCOS-III\Source/os_flag.c **** /*$PAGE*/
 887:uCOS-III\Source/os_flag.c **** /*
 888:uCOS-III\Source/os_flag.c **** ***************************************************************************************************
 889:uCOS-III\Source/os_flag.c **** *                         SUSPEND TASK UNTIL EVENT FLAG(s) RECEIVED OR TIMEOUT OCCURS
 890:uCOS-III\Source/os_flag.c **** *
 891:uCOS-III\Source/os_flag.c **** * Description: This function is internal to uC/OS-III and is used to put a task to sleep until the 
 892:uCOS-III\Source/os_flag.c **** *              event flag bit(s) are set.
 893:uCOS-III\Source/os_flag.c **** *
 894:uCOS-III\Source/os_flag.c **** * Arguments  : p_pend_data    is a pointer to an object used to link the task being blocked to the 
 895:uCOS-III\Source/os_flag.c **** *              -----------    pending on the desired event flag group.
 896:uCOS-III\Source/os_flag.c **** *
 897:uCOS-III\Source/os_flag.c **** *              p_grp         is a pointer to the desired event flag group.
 898:uCOS-III\Source/os_flag.c **** *              -----
 899:uCOS-III\Source/os_flag.c **** *
 900:uCOS-III\Source/os_flag.c **** *              flags         Is a bit pattern indicating which bit(s) (i.e. flags) you wish to chec
 901:uCOS-III\Source/os_flag.c **** *                            The bits you want are specified by setting the corresponding bits in
 902:uCOS-III\Source/os_flag.c **** *                            'flags'.  e.g. if your application wants to wait for bits 0 and 1 then
 903:uCOS-III\Source/os_flag.c **** *                            'flags' would contain 0x03.
 904:uCOS-III\Source/os_flag.c **** *
 905:uCOS-III\Source/os_flag.c **** *              opt           specifies whether you want ALL bits to be set/cleared or ANY of the bi
ARM GAS  C:\Users\jorti\AppData\Local\Temp\ccCX4ftZ.s 			page 21


 906:uCOS-III\Source/os_flag.c **** *                            to be set/cleared.
 907:uCOS-III\Source/os_flag.c **** *                            You can specify the following argument:
 908:uCOS-III\Source/os_flag.c **** *
 909:uCOS-III\Source/os_flag.c **** *                                OS_OPT_PEND_FLAG_CLR_ALL   You will check ALL bits in 'mask' to be
 910:uCOS-III\Source/os_flag.c **** *                                OS_OPT_PEND_FLAG_CLR_ANY   You will check ANY bit  in 'mask' to be
 911:uCOS-III\Source/os_flag.c **** *                                OS_OPT_PEND_FLAG_SET_ALL   You will check ALL bits in 'mask' to be
 912:uCOS-III\Source/os_flag.c **** *                                OS_OPT_PEND_FLAG_SET_ANY   You will check ANY bit  in 'mask' to be
 913:uCOS-III\Source/os_flag.c **** *
 914:uCOS-III\Source/os_flag.c **** *              timeout       is the desired amount of time that the task will wait for the event fl
 915:uCOS-III\Source/os_flag.c **** *                            bit(s) to be set.
 916:uCOS-III\Source/os_flag.c **** *
 917:uCOS-III\Source/os_flag.c **** * Returns    : none
 918:uCOS-III\Source/os_flag.c **** *
 919:uCOS-III\Source/os_flag.c **** * Note(s)    : This function is INTERNAL to uC/OS-III and your application should not call it.
 920:uCOS-III\Source/os_flag.c **** ***************************************************************************************************
 921:uCOS-III\Source/os_flag.c **** */
 922:uCOS-III\Source/os_flag.c **** 
 923:uCOS-III\Source/os_flag.c **** void  OS_FlagBlock (OS_PEND_DATA  *p_pend_data,
 924:uCOS-III\Source/os_flag.c ****                     OS_FLAG_GRP   *p_grp,
 925:uCOS-III\Source/os_flag.c ****                     OS_FLAGS       flags,
 926:uCOS-III\Source/os_flag.c ****                     OS_OPT         opt,
 927:uCOS-III\Source/os_flag.c ****                     OS_TICK        timeout)
 928:uCOS-III\Source/os_flag.c **** {
 234              		.loc 1 928 0
 235              		.cfi_startproc
 236              		@ args = 4, pretend = 0, frame = 0
 237              		@ frame_needed = 0, uses_anonymous_args = 0
 238              	.LVL25:
 239 0000 10B5     		push	{r4, lr}
 240              		.cfi_def_cfa_offset 8
 241              		.cfi_offset 4, -8
 242              		.cfi_offset 14, -4
 929:uCOS-III\Source/os_flag.c ****     OSTCBCurPtr->FlagsPend = flags;                         /* Save the flags that we need to wait 
 243              		.loc 1 929 0
 244 0002 074C     		ldr	r4, .L24
 245 0004 2468     		ldr	r4, [r4]
 246 0006 C4F88020 		str	r2, [r4, #128]
 930:uCOS-III\Source/os_flag.c ****     OSTCBCurPtr->FlagsOpt  = opt;                           /* Save the type of wait we are doing  
 247              		.loc 1 930 0
 248 000a A4F88830 		strh	r3, [r4, #136]	@ movhi
 931:uCOS-III\Source/os_flag.c ****     OSTCBCurPtr->FlagsRdy  = (OS_FLAGS)0;
 249              		.loc 1 931 0
 250 000e 0023     		movs	r3, #0
 251              	.LVL26:
 252 0010 C4F88430 		str	r3, [r4, #132]
 932:uCOS-III\Source/os_flag.c **** 
 933:uCOS-III\Source/os_flag.c ****     OS_Pend(p_pend_data,
 253              		.loc 1 933 0
 254 0014 029B     		ldr	r3, [sp, #8]
 255 0016 0122     		movs	r2, #1
 256              	.LVL27:
 257 0018 FFF7FEFF 		bl	OS_Pend
 258              	.LVL28:
 259 001c 10BD     		pop	{r4, pc}
 260              	.LVL29:
 261              	.L25:
 262 001e 00BF     		.align	2
ARM GAS  C:\Users\jorti\AppData\Local\Temp\ccCX4ftZ.s 			page 22


 263              	.L24:
 264 0020 00000000 		.word	OSTCBCurPtr
 265              		.cfi_endproc
 266              	.LFE7:
 267              		.size	OS_FlagBlock, .-OS_FlagBlock
 268              		.section	.text.OSFlagPend,"ax",%progbits
 269              		.align	2
 270              		.global	OSFlagPend
 271              		.thumb
 272              		.thumb_func
 273              		.type	OSFlagPend, %function
 274              	OSFlagPend:
 275              	.LFB3:
 321:uCOS-III\Source/os_flag.c ****     CPU_BOOLEAN   consume;
 276              		.loc 1 321 0
 277              		.cfi_startproc
 278              		@ args = 8, pretend = 0, frame = 40
 279              		@ frame_needed = 0, uses_anonymous_args = 0
 280              	.LVL30:
 281 0000 2DE9F04F 		push	{r4, r5, r6, r7, r8, r9, r10, fp, lr}
 282              		.cfi_def_cfa_offset 36
 283              		.cfi_offset 4, -36
 284              		.cfi_offset 5, -32
 285              		.cfi_offset 6, -28
 286              		.cfi_offset 7, -24
 287              		.cfi_offset 8, -20
 288              		.cfi_offset 9, -16
 289              		.cfi_offset 10, -12
 290              		.cfi_offset 11, -8
 291              		.cfi_offset 14, -4
 292 0004 8DB0     		sub	sp, sp, #52
 293              		.cfi_def_cfa_offset 88
 294 0006 179F     		ldr	r7, [sp, #92]
 295              	.LVL31:
 338:uCOS-III\Source/os_flag.c ****        *p_err = OS_ERR_PEND_ISR;                            /* ... can't PEND from an ISR          
 296              		.loc 1 338 0
 297 0008 A34C     		ldr	r4, .L84
 298 000a 2478     		ldrb	r4, [r4]	@ zero_extendqisi2
 299 000c 24B1     		cbz	r4, .L27
 339:uCOS-III\Source/os_flag.c ****         return ((OS_FLAGS)0);
 300              		.loc 1 339 0
 301 000e 46F2AE13 		movw	r3, #25006
 302              	.LVL32:
 303 0012 3B80     		strh	r3, [r7]	@ movhi
 340:uCOS-III\Source/os_flag.c ****     }
 304              		.loc 1 340 0
 305 0014 0020     		movs	r0, #0
 306              	.LVL33:
 307 0016 D1E1     		b	.L28
 308              	.LVL34:
 309              	.L27:
 345:uCOS-III\Source/os_flag.c ****        *p_err = OS_ERR_OBJ_PTR_NULL;
 310              		.loc 1 345 0
 311 0018 18B9     		cbnz	r0, .L29
 346:uCOS-III\Source/os_flag.c ****         return ((OS_FLAGS)0);
 312              		.loc 1 346 0
 313 001a 45F6C353 		movw	r3, #24003
ARM GAS  C:\Users\jorti\AppData\Local\Temp\ccCX4ftZ.s 			page 23


 314              	.LVL35:
 315 001e 3B80     		strh	r3, [r7]	@ movhi
 347:uCOS-III\Source/os_flag.c ****     }
 316              		.loc 1 347 0
 317 0020 CCE1     		b	.L28
 318              	.LVL36:
 319              	.L29:
 349:uCOS-III\Source/os_flag.c ****         case OS_OPT_PEND_FLAG_CLR_ALL:
 320              		.loc 1 349 0
 321 0022 B3F5847F 		cmp	r3, #264
 322 0026 38D0     		beq	.L31
 323 0028 12D8     		bhi	.L32
 324 002a 082B     		cmp	r3, #8
 325 002c 35D0     		beq	.L31
 326 002e 05D8     		bhi	.L33
 327 0030 73B3     		cbz	r3, .L30
 328 0032 022B     		cmp	r3, #2
 329 0034 31D9     		bls	.L31
 330 0036 042B     		cmp	r3, #4
 331 0038 2FD0     		beq	.L31
 332 003a 29E0     		b	.L30
 333              	.L33:
 334 003c B3F5807F 		cmp	r3, #256
 335 0040 26D9     		bls	.L30
 336 0042 B3F5817F 		cmp	r3, #258
 337 0046 28D9     		bls	.L31
 338 0048 B3F5827F 		cmp	r3, #260
 339 004c 25D0     		beq	.L31
 340 004e 1FE0     		b	.L30
 341              	.L32:
 342 0050 48F20804 		movw	r4, #32776
 343 0054 A342     		cmp	r3, r4
 344 0056 20D0     		beq	.L31
 345 0058 0BD8     		bhi	.L34
 346 005a B3F5004F 		cmp	r3, #32768
 347 005e 17D9     		bls	.L30
 348 0060 48F20204 		movw	r4, #32770
 349 0064 A342     		cmp	r3, r4
 350 0066 18D9     		bls	.L31
 351 0068 48F20404 		movw	r4, #32772
 352 006c A342     		cmp	r3, r4
 353 006e 14D0     		beq	.L31
 354 0070 0EE0     		b	.L30
 355              	.L34:
 356 0072 48F20414 		movw	r4, #33028
 357 0076 A342     		cmp	r3, r4
 358 0078 0FD0     		beq	.L31
 359 007a 05D8     		bhi	.L35
 360 007c A3F50144 		sub	r4, r3, #33024
 361 0080 013C     		subs	r4, r4, #1
 362 0082 012C     		cmp	r4, #1
 363 0084 09D9     		bls	.L31
 364 0086 03E0     		b	.L30
 365              	.L35:
 366 0088 48F20814 		movw	r4, #33032
 367 008c A342     		cmp	r3, r4
 368 008e 04D0     		beq	.L31
ARM GAS  C:\Users\jorti\AppData\Local\Temp\ccCX4ftZ.s 			page 24


 369              	.L30:
 369:uCOS-III\Source/os_flag.c ****              return ((OS_OBJ_QTY)0);
 370              		.loc 1 369 0
 371 0090 45F62563 		movw	r3, #24101
 372              	.LVL37:
 373 0094 3B80     		strh	r3, [r7]	@ movhi
 370:uCOS-III\Source/os_flag.c ****     }
 374              		.loc 1 370 0
 375 0096 0020     		movs	r0, #0
 376              	.LVL38:
 377 0098 90E1     		b	.L28
 378              	.LVL39:
 379              	.L31:
 381:uCOS-III\Source/os_flag.c ****         consume = DEF_TRUE;
 380              		.loc 1 381 0
 381 009a 03F48074 		and	r4, r3, #256
 382 009e A4B2     		uxth	r4, r4
 383 00a0 14B1     		cbz	r4, .L81
 382:uCOS-III\Source/os_flag.c ****     } else {
 384              		.loc 1 382 0
 385 00a2 4FF0010B 		mov	fp, #1
 386 00a6 01E0     		b	.L36
 387              	.L81:
 384:uCOS-III\Source/os_flag.c ****     }
 388              		.loc 1 384 0
 389 00a8 4FF0000B 		mov	fp, #0
 390              	.L36:
 391              	.LVL40:
 387:uCOS-III\Source/os_flag.c ****        *p_ts = (CPU_TS)0;                                   /* Initialize the returned timestamp   
 392              		.loc 1 387 0
 393 00ac 169C     		ldr	r4, [sp, #88]
 394 00ae 14B1     		cbz	r4, .L37
 388:uCOS-III\Source/os_flag.c ****     }
 395              		.loc 1 388 0
 396 00b0 0024     		movs	r4, #0
 397 00b2 169D     		ldr	r5, [sp, #88]
 398 00b4 2C60     		str	r4, [r5]
 399              	.L37:
 400 00b6 1C46     		mov	r4, r3
 401 00b8 9246     		mov	r10, r2
 402 00ba 8846     		mov	r8, r1
 403 00bc 0546     		mov	r5, r0
 391:uCOS-III\Source/os_flag.c ****     CPU_CRITICAL_ENTER();
 404              		.loc 1 391 0
 405 00be 03F00F09 		and	r9, r3, #15
 406              	.LVL41:
 392:uCOS-III\Source/os_flag.c ****     switch (mode) {
 407              		.loc 1 392 0
 408 00c2 FFF7FEFF 		bl	CPU_SR_Save
 409              	.LVL42:
 410 00c6 0390     		str	r0, [sp, #12]
 411              	.LVL43:
 393:uCOS-III\Source/os_flag.c ****         case OS_OPT_PEND_FLAG_SET_ALL:                      /* See if all required flags are set   
 412              		.loc 1 393 0
 413 00c8 09F1FF33 		add	r3, r9, #-1
 414 00cc 072B     		cmp	r3, #7
 415 00ce 00F20081 		bhi	.L38
ARM GAS  C:\Users\jorti\AppData\Local\Temp\ccCX4ftZ.s 			page 25


 416 00d2 DFE813F0 		tbh	[pc, r3, lsl #1]
 417              	.L40:
 418 00d6 8100     		.2byte	(.L39-.L40)/2
 419 00d8 BD00     		.2byte	(.L41-.L40)/2
 420 00da FE00     		.2byte	(.L38-.L40)/2
 421 00dc 0800     		.2byte	(.L42-.L40)/2
 422 00de FE00     		.2byte	(.L38-.L40)/2
 423 00e0 FE00     		.2byte	(.L38-.L40)/2
 424 00e2 FE00     		.2byte	(.L38-.L40)/2
 425 00e4 4500     		.2byte	(.L43-.L40)/2
 426              		.p2align 1
 427              	.L42:
 395:uCOS-III\Source/os_flag.c ****              if (flags_rdy == flags) {                      /* Must match ALL the bits that we want
 428              		.loc 1 395 0
 429 00e6 2B6A     		ldr	r3, [r5, #32]
 430 00e8 03EA0806 		and	r6, r3, r8
 431              	.LVL44:
 396:uCOS-III\Source/os_flag.c ****                  if (consume == DEF_TRUE) {                 /* See if we need to consume the flags 
 432              		.loc 1 396 0
 433 00ec B045     		cmp	r8, r6
 434 00ee 15D1     		bne	.L44
 397:uCOS-III\Source/os_flag.c ****                      p_grp->Flags &= ~flags_rdy;            /* Clear ONLY the flags that we wanted 
 435              		.loc 1 397 0
 436 00f0 BBF1000F 		cmp	fp, #0
 437 00f4 02D0     		beq	.L45
 398:uCOS-III\Source/os_flag.c ****                  }
 438              		.loc 1 398 0
 439 00f6 23EA0603 		bic	r3, r3, r6
 440 00fa 2B62     		str	r3, [r5, #32]
 441              	.L45:
 400:uCOS-III\Source/os_flag.c ****                  if (p_ts != (CPU_TS *)0) {
 442              		.loc 1 400 0
 443 00fc 674B     		ldr	r3, .L84+4
 444 00fe 1B68     		ldr	r3, [r3]
 445 0100 C3F88460 		str	r6, [r3, #132]
 401:uCOS-III\Source/os_flag.c ****                     *p_ts  = p_grp->TS;
 446              		.loc 1 401 0
 447 0104 169B     		ldr	r3, [sp, #88]
 448 0106 13B1     		cbz	r3, .L46
 402:uCOS-III\Source/os_flag.c ****                  }
 449              		.loc 1 402 0
 450 0108 6B6A     		ldr	r3, [r5, #36]
 451 010a 169A     		ldr	r2, [sp, #88]
 452 010c 1360     		str	r3, [r2]
 453              	.L46:
 404:uCOS-III\Source/os_flag.c ****                 *p_err = OS_ERR_NONE;
 454              		.loc 1 404 0
 455 010e 0398     		ldr	r0, [sp, #12]
 456              	.LVL45:
 457 0110 FFF7FEFF 		bl	CPU_SR_Restore
 458              	.LVL46:
 405:uCOS-III\Source/os_flag.c ****                  return (flags_rdy);
 459              		.loc 1 405 0
 460 0114 0023     		movs	r3, #0
 461 0116 3B80     		strh	r3, [r7]	@ movhi
 406:uCOS-III\Source/os_flag.c ****              } else {                                       /* Block task until events occur or tim
 462              		.loc 1 406 0
ARM GAS  C:\Users\jorti\AppData\Local\Temp\ccCX4ftZ.s 			page 26


 463 0118 3046     		mov	r0, r6
 464 011a 4FE1     		b	.L28
 465              	.LVL47:
 466              	.L44:
 408:uCOS-III\Source/os_flag.c ****                      CPU_CRITICAL_EXIT();
 467              		.loc 1 408 0
 468 011c 14F4004F 		tst	r4, #32768
 469 0120 07D0     		beq	.L47
 409:uCOS-III\Source/os_flag.c ****                     *p_err = OS_ERR_PEND_WOULD_BLOCK;       /* Specified non-blocking so task would
 470              		.loc 1 409 0
 471 0122 0398     		ldr	r0, [sp, #12]
 472              	.LVL48:
 473 0124 FFF7FEFF 		bl	CPU_SR_Restore
 474              	.LVL49:
 410:uCOS-III\Source/os_flag.c ****                      return ((OS_FLAGS)0);
 475              		.loc 1 410 0
 476 0128 46F2B013 		movw	r3, #25008
 477 012c 3B80     		strh	r3, [r7]	@ movhi
 411:uCOS-III\Source/os_flag.c ****                  } else {                                   /* Specified blocking so check is sched
 478              		.loc 1 411 0
 479 012e 0020     		movs	r0, #0
 480 0130 44E1     		b	.L28
 481              	.LVL50:
 482              	.L47:
 413:uCOS-III\Source/os_flag.c ****                          CPU_CRITICAL_EXIT();
 483              		.loc 1 413 0
 484 0132 5B4B     		ldr	r3, .L84+8
 485 0134 1B78     		ldrb	r3, [r3]	@ zero_extendqisi2
 486 0136 3BB1     		cbz	r3, .L48
 414:uCOS-III\Source/os_flag.c ****                         *p_err = OS_ERR_SCHED_LOCKED;                 /* ... can't PEND when locked
 487              		.loc 1 414 0
 488 0138 0398     		ldr	r0, [sp, #12]
 489              	.LVL51:
 490 013a FFF7FEFF 		bl	CPU_SR_Restore
 491              	.LVL52:
 415:uCOS-III\Source/os_flag.c ****                          return ((OS_FLAGS)0);
 492              		.loc 1 415 0
 493 013e 46F66353 		movw	r3, #28003
 494 0142 3B80     		strh	r3, [r7]	@ movhi
 416:uCOS-III\Source/os_flag.c ****                      }
 495              		.loc 1 416 0
 496 0144 0020     		movs	r0, #0
 497 0146 39E1     		b	.L28
 498              	.LVL53:
 499              	.L48:
 421:uCOS-III\Source/os_flag.c ****                               p_grp,
 500              		.loc 1 421 0
 501 0148 CDF800A0 		str	r10, [sp]
 502 014c 2346     		mov	r3, r4
 503 014e 4246     		mov	r2, r8
 504 0150 2946     		mov	r1, r5
 505 0152 04A8     		add	r0, sp, #16
 506              	.LVL54:
 507 0154 FFF7FEFF 		bl	OS_FlagBlock
 508              	.LVL55:
 426:uCOS-III\Source/os_flag.c ****              }
 509              		.loc 1 426 0
ARM GAS  C:\Users\jorti\AppData\Local\Temp\ccCX4ftZ.s 			page 27


 510 0158 0398     		ldr	r0, [sp, #12]
 511 015a FFF7FEFF 		bl	CPU_SR_Restore
 512              	.LVL56:
 428:uCOS-III\Source/os_flag.c **** 
 513              		.loc 1 428 0
 514 015e C0E0     		b	.L49
 515              	.LVL57:
 516              	.L43:
 431:uCOS-III\Source/os_flag.c ****              if (flags_rdy != (OS_FLAGS)0) {                /* See if any flag set                 
 517              		.loc 1 431 0
 518 0160 2B6A     		ldr	r3, [r5, #32]
 519              	.LVL58:
 432:uCOS-III\Source/os_flag.c ****                  if (consume == DEF_TRUE) {                 /* See if we need to consume the flags 
 520              		.loc 1 432 0
 521 0162 18EA0306 		ands	r6, r8, r3
 522              	.LVL59:
 523 0166 15D0     		beq	.L50
 433:uCOS-III\Source/os_flag.c ****                      p_grp->Flags &= ~flags_rdy;            /* Clear ONLY the flags that we got    
 524              		.loc 1 433 0
 525 0168 BBF1000F 		cmp	fp, #0
 526 016c 02D0     		beq	.L51
 434:uCOS-III\Source/os_flag.c ****                  }
 527              		.loc 1 434 0
 528 016e 23EA0603 		bic	r3, r3, r6
 529 0172 2B62     		str	r3, [r5, #32]
 530              	.L51:
 436:uCOS-III\Source/os_flag.c ****                  if (p_ts != (CPU_TS *)0) {
 531              		.loc 1 436 0
 532 0174 494B     		ldr	r3, .L84+4
 533 0176 1B68     		ldr	r3, [r3]
 534 0178 C3F88460 		str	r6, [r3, #132]
 437:uCOS-III\Source/os_flag.c ****                     *p_ts  = p_grp->TS;
 535              		.loc 1 437 0
 536 017c 169B     		ldr	r3, [sp, #88]
 537 017e 13B1     		cbz	r3, .L52
 438:uCOS-III\Source/os_flag.c ****                  }
 538              		.loc 1 438 0
 539 0180 6B6A     		ldr	r3, [r5, #36]
 540 0182 169A     		ldr	r2, [sp, #88]
 541 0184 1360     		str	r3, [r2]
 542              	.L52:
 440:uCOS-III\Source/os_flag.c ****                 *p_err = OS_ERR_NONE;
 543              		.loc 1 440 0
 544 0186 0398     		ldr	r0, [sp, #12]
 545              	.LVL60:
 546 0188 FFF7FEFF 		bl	CPU_SR_Restore
 547              	.LVL61:
 441:uCOS-III\Source/os_flag.c ****                  return (flags_rdy);
 548              		.loc 1 441 0
 549 018c 0023     		movs	r3, #0
 550 018e 3B80     		strh	r3, [r7]	@ movhi
 442:uCOS-III\Source/os_flag.c ****              } else {                                       /* Block task until events occur or tim
 551              		.loc 1 442 0
 552 0190 3046     		mov	r0, r6
 553 0192 13E1     		b	.L28
 554              	.LVL62:
 555              	.L50:
ARM GAS  C:\Users\jorti\AppData\Local\Temp\ccCX4ftZ.s 			page 28


 444:uCOS-III\Source/os_flag.c ****                      CPU_CRITICAL_EXIT();
 556              		.loc 1 444 0
 557 0194 14F4004F 		tst	r4, #32768
 558 0198 07D0     		beq	.L53
 445:uCOS-III\Source/os_flag.c ****                     *p_err = OS_ERR_PEND_WOULD_BLOCK;       /* Specified non-blocking so task would
 559              		.loc 1 445 0
 560 019a 0398     		ldr	r0, [sp, #12]
 561              	.LVL63:
 562 019c FFF7FEFF 		bl	CPU_SR_Restore
 563              	.LVL64:
 446:uCOS-III\Source/os_flag.c ****                      return ((OS_FLAGS)0);
 564              		.loc 1 446 0
 565 01a0 46F2B013 		movw	r3, #25008
 566 01a4 3B80     		strh	r3, [r7]	@ movhi
 447:uCOS-III\Source/os_flag.c ****                  } else {                                   /* Specified blocking so check is sched
 567              		.loc 1 447 0
 568 01a6 0020     		movs	r0, #0
 569 01a8 08E1     		b	.L28
 570              	.LVL65:
 571              	.L53:
 449:uCOS-III\Source/os_flag.c ****                          CPU_CRITICAL_EXIT();
 572              		.loc 1 449 0
 573 01aa 3D4B     		ldr	r3, .L84+8
 574 01ac 1B78     		ldrb	r3, [r3]	@ zero_extendqisi2
 575 01ae 3BB1     		cbz	r3, .L54
 450:uCOS-III\Source/os_flag.c ****                         *p_err = OS_ERR_SCHED_LOCKED;                 /* ... can't PEND when locked
 576              		.loc 1 450 0
 577 01b0 0398     		ldr	r0, [sp, #12]
 578              	.LVL66:
 579 01b2 FFF7FEFF 		bl	CPU_SR_Restore
 580              	.LVL67:
 451:uCOS-III\Source/os_flag.c ****                          return ((OS_FLAGS)0);
 581              		.loc 1 451 0
 582 01b6 46F66353 		movw	r3, #28003
 583 01ba 3B80     		strh	r3, [r7]	@ movhi
 452:uCOS-III\Source/os_flag.c ****                      }
 584              		.loc 1 452 0
 585 01bc 0020     		movs	r0, #0
 586 01be FDE0     		b	.L28
 587              	.LVL68:
 588              	.L54:
 457:uCOS-III\Source/os_flag.c ****                               p_grp,
 589              		.loc 1 457 0
 590 01c0 CDF800A0 		str	r10, [sp]
 591 01c4 2346     		mov	r3, r4
 592 01c6 4246     		mov	r2, r8
 593 01c8 2946     		mov	r1, r5
 594 01ca 04A8     		add	r0, sp, #16
 595              	.LVL69:
 596 01cc FFF7FEFF 		bl	OS_FlagBlock
 597              	.LVL70:
 462:uCOS-III\Source/os_flag.c ****              }
 598              		.loc 1 462 0
 599 01d0 0398     		ldr	r0, [sp, #12]
 600 01d2 FFF7FEFF 		bl	CPU_SR_Restore
 601              	.LVL71:
 464:uCOS-III\Source/os_flag.c **** 
ARM GAS  C:\Users\jorti\AppData\Local\Temp\ccCX4ftZ.s 			page 29


 602              		.loc 1 464 0
 603 01d6 84E0     		b	.L49
 604              	.LVL72:
 605              	.L39:
 468:uCOS-III\Source/os_flag.c ****              if (flags_rdy == flags) {                      /* Must match ALL the bits that we want
 606              		.loc 1 468 0
 607 01d8 2B6A     		ldr	r3, [r5, #32]
 608 01da 28EA0306 		bic	r6, r8, r3
 609              	.LVL73:
 469:uCOS-III\Source/os_flag.c ****                  if (consume == DEF_TRUE) {                 /* See if we need to consume the flags 
 610              		.loc 1 469 0
 611 01de B045     		cmp	r8, r6
 612 01e0 14D1     		bne	.L55
 470:uCOS-III\Source/os_flag.c ****                      p_grp->Flags |= flags_rdy;             /* Set ONLY the flags that we wanted   
 613              		.loc 1 470 0
 614 01e2 BBF1000F 		cmp	fp, #0
 615 01e6 01D0     		beq	.L56
 471:uCOS-III\Source/os_flag.c ****                  }
 616              		.loc 1 471 0
 617 01e8 3343     		orrs	r3, r3, r6
 618 01ea 2B62     		str	r3, [r5, #32]
 619              	.L56:
 473:uCOS-III\Source/os_flag.c ****                  if (p_ts != (CPU_TS *)0) {
 620              		.loc 1 473 0
 621 01ec 2B4B     		ldr	r3, .L84+4
 622 01ee 1B68     		ldr	r3, [r3]
 623 01f0 C3F88460 		str	r6, [r3, #132]
 474:uCOS-III\Source/os_flag.c ****                     *p_ts  = p_grp->TS;
 624              		.loc 1 474 0
 625 01f4 169B     		ldr	r3, [sp, #88]
 626 01f6 13B1     		cbz	r3, .L57
 475:uCOS-III\Source/os_flag.c ****                  }
 627              		.loc 1 475 0
 628 01f8 6B6A     		ldr	r3, [r5, #36]
 629 01fa 169A     		ldr	r2, [sp, #88]
 630 01fc 1360     		str	r3, [r2]
 631              	.L57:
 477:uCOS-III\Source/os_flag.c ****                 *p_err = OS_ERR_NONE;
 632              		.loc 1 477 0
 633 01fe 0398     		ldr	r0, [sp, #12]
 634              	.LVL74:
 635 0200 FFF7FEFF 		bl	CPU_SR_Restore
 636              	.LVL75:
 478:uCOS-III\Source/os_flag.c ****                  return (flags_rdy);
 637              		.loc 1 478 0
 638 0204 0023     		movs	r3, #0
 639 0206 3B80     		strh	r3, [r7]	@ movhi
 479:uCOS-III\Source/os_flag.c ****              } else {                                       /* Block task until events occur or tim
 640              		.loc 1 479 0
 641 0208 3046     		mov	r0, r6
 642 020a D7E0     		b	.L28
 643              	.LVL76:
 644              	.L55:
 481:uCOS-III\Source/os_flag.c ****                      CPU_CRITICAL_EXIT();
 645              		.loc 1 481 0
 646 020c 14F4004F 		tst	r4, #32768
 647 0210 07D0     		beq	.L58
ARM GAS  C:\Users\jorti\AppData\Local\Temp\ccCX4ftZ.s 			page 30


 482:uCOS-III\Source/os_flag.c ****                     *p_err = OS_ERR_PEND_WOULD_BLOCK;       /* Specified non-blocking so task would
 648              		.loc 1 482 0
 649 0212 0398     		ldr	r0, [sp, #12]
 650              	.LVL77:
 651 0214 FFF7FEFF 		bl	CPU_SR_Restore
 652              	.LVL78:
 483:uCOS-III\Source/os_flag.c ****                      return ((OS_FLAGS)0);
 653              		.loc 1 483 0
 654 0218 46F2B013 		movw	r3, #25008
 655 021c 3B80     		strh	r3, [r7]	@ movhi
 484:uCOS-III\Source/os_flag.c ****                  } else {                                   /* Specified blocking so check is sched
 656              		.loc 1 484 0
 657 021e 0020     		movs	r0, #0
 658 0220 CCE0     		b	.L28
 659              	.LVL79:
 660              	.L58:
 486:uCOS-III\Source/os_flag.c ****                          CPU_CRITICAL_EXIT();
 661              		.loc 1 486 0
 662 0222 1F4B     		ldr	r3, .L84+8
 663 0224 1B78     		ldrb	r3, [r3]	@ zero_extendqisi2
 664 0226 3BB1     		cbz	r3, .L59
 487:uCOS-III\Source/os_flag.c ****                         *p_err = OS_ERR_SCHED_LOCKED;                 /* ... can't PEND when locked
 665              		.loc 1 487 0
 666 0228 0398     		ldr	r0, [sp, #12]
 667              	.LVL80:
 668 022a FFF7FEFF 		bl	CPU_SR_Restore
 669              	.LVL81:
 488:uCOS-III\Source/os_flag.c ****                          return ((OS_FLAGS)0);
 670              		.loc 1 488 0
 671 022e 46F66353 		movw	r3, #28003
 672 0232 3B80     		strh	r3, [r7]	@ movhi
 489:uCOS-III\Source/os_flag.c ****                      }
 673              		.loc 1 489 0
 674 0234 0020     		movs	r0, #0
 675 0236 C1E0     		b	.L28
 676              	.LVL82:
 677              	.L59:
 494:uCOS-III\Source/os_flag.c ****                               p_grp,
 678              		.loc 1 494 0
 679 0238 CDF800A0 		str	r10, [sp]
 680 023c 2346     		mov	r3, r4
 681 023e 4246     		mov	r2, r8
 682 0240 2946     		mov	r1, r5
 683 0242 04A8     		add	r0, sp, #16
 684              	.LVL83:
 685 0244 FFF7FEFF 		bl	OS_FlagBlock
 686              	.LVL84:
 499:uCOS-III\Source/os_flag.c ****              }
 687              		.loc 1 499 0
 688 0248 0398     		ldr	r0, [sp, #12]
 689 024a FFF7FEFF 		bl	CPU_SR_Restore
 690              	.LVL85:
 501:uCOS-III\Source/os_flag.c **** 
 691              		.loc 1 501 0
 692 024e 48E0     		b	.L49
 693              	.LVL86:
 694              	.L41:
ARM GAS  C:\Users\jorti\AppData\Local\Temp\ccCX4ftZ.s 			page 31


 504:uCOS-III\Source/os_flag.c ****              if (flags_rdy != (OS_FLAGS)0) {                /* See if any flag cleared             
 695              		.loc 1 504 0
 696 0250 2B6A     		ldr	r3, [r5, #32]
 697              	.LVL87:
 505:uCOS-III\Source/os_flag.c ****                  if (consume == DEF_TRUE) {                 /* See if we need to consume the flags 
 698              		.loc 1 505 0
 699 0252 38EA0306 		bics	r6, r8, r3
 700              	.LVL88:
 701 0256 14D0     		beq	.L60
 506:uCOS-III\Source/os_flag.c ****                      p_grp->Flags |= flags_rdy;             /* Set ONLY the flags that we got      
 702              		.loc 1 506 0
 703 0258 BBF1000F 		cmp	fp, #0
 704 025c 01D0     		beq	.L61
 507:uCOS-III\Source/os_flag.c ****                  }
 705              		.loc 1 507 0
 706 025e 3343     		orrs	r3, r3, r6
 707 0260 2B62     		str	r3, [r5, #32]
 708              	.L61:
 509:uCOS-III\Source/os_flag.c ****                  if (p_ts != (CPU_TS *)0) {
 709              		.loc 1 509 0
 710 0262 0E4B     		ldr	r3, .L84+4
 711 0264 1B68     		ldr	r3, [r3]
 712 0266 C3F88460 		str	r6, [r3, #132]
 510:uCOS-III\Source/os_flag.c ****                     *p_ts  = p_grp->TS;
 713              		.loc 1 510 0
 714 026a 169B     		ldr	r3, [sp, #88]
 715 026c 13B1     		cbz	r3, .L62
 511:uCOS-III\Source/os_flag.c ****                  }
 716              		.loc 1 511 0
 717 026e 6B6A     		ldr	r3, [r5, #36]
 718 0270 169A     		ldr	r2, [sp, #88]
 719 0272 1360     		str	r3, [r2]
 720              	.L62:
 513:uCOS-III\Source/os_flag.c ****                 *p_err = OS_ERR_NONE;
 721              		.loc 1 513 0
 722 0274 0398     		ldr	r0, [sp, #12]
 723              	.LVL89:
 724 0276 FFF7FEFF 		bl	CPU_SR_Restore
 725              	.LVL90:
 514:uCOS-III\Source/os_flag.c ****                  return (flags_rdy);
 726              		.loc 1 514 0
 727 027a 0023     		movs	r3, #0
 728 027c 3B80     		strh	r3, [r7]	@ movhi
 515:uCOS-III\Source/os_flag.c ****              } else {                                       /* Block task until events occur or tim
 729              		.loc 1 515 0
 730 027e 3046     		mov	r0, r6
 731 0280 9CE0     		b	.L28
 732              	.LVL91:
 733              	.L60:
 517:uCOS-III\Source/os_flag.c ****                      CPU_CRITICAL_EXIT();
 734              		.loc 1 517 0
 735 0282 14F4004F 		tst	r4, #32768
 736 0286 0DD0     		beq	.L63
 518:uCOS-III\Source/os_flag.c ****                     *p_err = OS_ERR_PEND_WOULD_BLOCK;       /* Specified non-blocking so task would
 737              		.loc 1 518 0
 738 0288 0398     		ldr	r0, [sp, #12]
 739              	.LVL92:
ARM GAS  C:\Users\jorti\AppData\Local\Temp\ccCX4ftZ.s 			page 32


 740 028a FFF7FEFF 		bl	CPU_SR_Restore
 741              	.LVL93:
 519:uCOS-III\Source/os_flag.c ****                      return ((OS_FLAGS)0);
 742              		.loc 1 519 0
 743 028e 46F2B013 		movw	r3, #25008
 744 0292 3B80     		strh	r3, [r7]	@ movhi
 520:uCOS-III\Source/os_flag.c ****                  } else {                                   /* Specified blocking so check is sched
 745              		.loc 1 520 0
 746 0294 0020     		movs	r0, #0
 747 0296 91E0     		b	.L28
 748              	.L85:
 749              		.align	2
 750              	.L84:
 751 0298 00000000 		.word	OSIntNestingCtr
 752 029c 00000000 		.word	OSTCBCurPtr
 753 02a0 00000000 		.word	OSSchedLockNestingCtr
 754              	.LVL94:
 755              	.L63:
 522:uCOS-III\Source/os_flag.c ****                          CPU_CRITICAL_EXIT();
 756              		.loc 1 522 0
 757 02a4 474B     		ldr	r3, .L86
 758 02a6 1B78     		ldrb	r3, [r3]	@ zero_extendqisi2
 759 02a8 3BB1     		cbz	r3, .L64
 523:uCOS-III\Source/os_flag.c ****                         *p_err = OS_ERR_SCHED_LOCKED;                 /* ... can't PEND when locked
 760              		.loc 1 523 0
 761 02aa 0398     		ldr	r0, [sp, #12]
 762              	.LVL95:
 763 02ac FFF7FEFF 		bl	CPU_SR_Restore
 764              	.LVL96:
 524:uCOS-III\Source/os_flag.c ****                          return ((OS_FLAGS)0);
 765              		.loc 1 524 0
 766 02b0 46F66353 		movw	r3, #28003
 767 02b4 3B80     		strh	r3, [r7]	@ movhi
 525:uCOS-III\Source/os_flag.c ****                      }
 768              		.loc 1 525 0
 769 02b6 0020     		movs	r0, #0
 770 02b8 80E0     		b	.L28
 771              	.LVL97:
 772              	.L64:
 530:uCOS-III\Source/os_flag.c ****                               p_grp,
 773              		.loc 1 530 0
 774 02ba CDF800A0 		str	r10, [sp]
 775 02be 2346     		mov	r3, r4
 776 02c0 4246     		mov	r2, r8
 777 02c2 2946     		mov	r1, r5
 778 02c4 04A8     		add	r0, sp, #16
 779              	.LVL98:
 780 02c6 FFF7FEFF 		bl	OS_FlagBlock
 781              	.LVL99:
 535:uCOS-III\Source/os_flag.c ****              }
 782              		.loc 1 535 0
 783 02ca 0398     		ldr	r0, [sp, #12]
 784 02cc FFF7FEFF 		bl	CPU_SR_Restore
 785              	.LVL100:
 537:uCOS-III\Source/os_flag.c **** #endif
 786              		.loc 1 537 0
 787 02d0 07E0     		b	.L49
ARM GAS  C:\Users\jorti\AppData\Local\Temp\ccCX4ftZ.s 			page 33


 788              	.LVL101:
 789              	.L38:
 541:uCOS-III\Source/os_flag.c ****             *p_err = OS_ERR_OPT_INVALID;
 790              		.loc 1 541 0
 791 02d2 0398     		ldr	r0, [sp, #12]
 792              	.LVL102:
 793 02d4 FFF7FEFF 		bl	CPU_SR_Restore
 794              	.LVL103:
 542:uCOS-III\Source/os_flag.c ****              return ((OS_FLAGS)0);
 795              		.loc 1 542 0
 796 02d8 45F62563 		movw	r3, #24101
 797 02dc 3B80     		strh	r3, [r7]	@ movhi
 543:uCOS-III\Source/os_flag.c ****     }
 798              		.loc 1 543 0
 799 02de 0020     		movs	r0, #0
 800 02e0 6CE0     		b	.L28
 801              	.LVL104:
 802              	.L49:
 546:uCOS-III\Source/os_flag.c **** 
 803              		.loc 1 546 0
 804 02e2 FFF7FEFF 		bl	OSSched
 805              	.LVL105:
 548:uCOS-III\Source/os_flag.c ****     switch (OSTCBCurPtr->PendStatus) {
 806              		.loc 1 548 0
 807 02e6 FFF7FEFF 		bl	CPU_SR_Save
 808              	.LVL106:
 809 02ea 0446     		mov	r4, r0
 810              	.LVL107:
 549:uCOS-III\Source/os_flag.c ****         case OS_STATUS_PEND_OK:                             /* We got the vent flags               
 811              		.loc 1 549 0
 812 02ec 364B     		ldr	r3, .L86+4
 813 02ee 1A68     		ldr	r2, [r3]
 814 02f0 92F83530 		ldrb	r3, [r2, #53]	@ zero_extendqisi2
 815 02f4 032B     		cmp	r3, #3
 816 02f6 2FD8     		bhi	.L65
 817 02f8 DFE803F0 		tbb	[pc, r3]
 818              	.L67:
 819 02fc 02       		.byte	(.L66-.L67)/2
 820 02fd 0A       		.byte	(.L68-.L67)/2
 821 02fe 22       		.byte	(.L69-.L67)/2
 822 02ff 16       		.byte	(.L70-.L67)/2
 823              		.p2align 1
 824              	.L66:
 551:uCOS-III\Source/os_flag.c ****                 *p_ts  = OSTCBCurPtr->TS;
 825              		.loc 1 551 0
 826 0300 169B     		ldr	r3, [sp, #88]
 827 0302 13B1     		cbz	r3, .L71
 552:uCOS-III\Source/os_flag.c ****              }
 828              		.loc 1 552 0
 829 0304 136C     		ldr	r3, [r2, #64]
 830 0306 169A     		ldr	r2, [sp, #88]
 831 0308 1360     		str	r3, [r2]
 832              	.L71:
 554:uCOS-III\Source/os_flag.c ****              break;
 833              		.loc 1 554 0
 834 030a 0023     		movs	r3, #0
 835 030c 3B80     		strh	r3, [r7]	@ movhi
ARM GAS  C:\Users\jorti\AppData\Local\Temp\ccCX4ftZ.s 			page 34


 555:uCOS-III\Source/os_flag.c **** 
 836              		.loc 1 555 0
 837 030e 28E0     		b	.L72
 838              	.L68:
 558:uCOS-III\Source/os_flag.c ****                 *p_ts  = OSTCBCurPtr->TS;
 839              		.loc 1 558 0
 840 0310 169B     		ldr	r3, [sp, #88]
 841 0312 13B1     		cbz	r3, .L73
 559:uCOS-III\Source/os_flag.c ****              }
 842              		.loc 1 559 0
 843 0314 136C     		ldr	r3, [r2, #64]
 844 0316 169A     		ldr	r2, [sp, #88]
 845 0318 1360     		str	r3, [r2]
 846              	.L73:
 561:uCOS-III\Source/os_flag.c ****             *p_err = OS_ERR_PEND_ABORT;
 847              		.loc 1 561 0
 848 031a 2046     		mov	r0, r4
 849              	.LVL108:
 850 031c FFF7FEFF 		bl	CPU_SR_Restore
 851              	.LVL109:
 562:uCOS-III\Source/os_flag.c ****              break;
 852              		.loc 1 562 0
 853 0320 46F2A913 		movw	r3, #25001
 854 0324 3B80     		strh	r3, [r7]	@ movhi
 563:uCOS-III\Source/os_flag.c **** 
 855              		.loc 1 563 0
 856 0326 1CE0     		b	.L72
 857              	.LVL110:
 858              	.L70:
 566:uCOS-III\Source/os_flag.c ****                 *p_ts  = (CPU_TS  )0;
 859              		.loc 1 566 0
 860 0328 169B     		ldr	r3, [sp, #88]
 861 032a 13B1     		cbz	r3, .L74
 567:uCOS-III\Source/os_flag.c ****              }
 862              		.loc 1 567 0
 863 032c 0023     		movs	r3, #0
 864 032e 169A     		ldr	r2, [sp, #88]
 865 0330 1360     		str	r3, [r2]
 866              	.L74:
 569:uCOS-III\Source/os_flag.c ****             *p_err = OS_ERR_TIMEOUT;
 867              		.loc 1 569 0
 868 0332 2046     		mov	r0, r4
 869              	.LVL111:
 870 0334 FFF7FEFF 		bl	CPU_SR_Restore
 871              	.LVL112:
 570:uCOS-III\Source/os_flag.c ****              break;
 872              		.loc 1 570 0
 873 0338 47F2D923 		movw	r3, #29401
 874 033c 3B80     		strh	r3, [r7]	@ movhi
 571:uCOS-III\Source/os_flag.c **** 
 875              		.loc 1 571 0
 876 033e 10E0     		b	.L72
 877              	.LVL113:
 878              	.L69:
 574:uCOS-III\Source/os_flag.c ****                 *p_ts  = OSTCBCurPtr->TS;
 879              		.loc 1 574 0
 880 0340 169B     		ldr	r3, [sp, #88]
ARM GAS  C:\Users\jorti\AppData\Local\Temp\ccCX4ftZ.s 			page 35


 881 0342 13B1     		cbz	r3, .L75
 575:uCOS-III\Source/os_flag.c ****              }
 882              		.loc 1 575 0
 883 0344 136C     		ldr	r3, [r2, #64]
 884 0346 169A     		ldr	r2, [sp, #88]
 885 0348 1360     		str	r3, [r2]
 886              	.L75:
 577:uCOS-III\Source/os_flag.c ****             *p_err = OS_ERR_OBJ_DEL;
 887              		.loc 1 577 0
 888 034a 2046     		mov	r0, r4
 889              	.LVL114:
 890 034c FFF7FEFF 		bl	CPU_SR_Restore
 891              	.LVL115:
 578:uCOS-III\Source/os_flag.c ****              break;
 892              		.loc 1 578 0
 893 0350 45F6C253 		movw	r3, #24002
 894 0354 3B80     		strh	r3, [r7]	@ movhi
 579:uCOS-III\Source/os_flag.c **** 
 895              		.loc 1 579 0
 896 0356 04E0     		b	.L72
 897              	.LVL116:
 898              	.L65:
 582:uCOS-III\Source/os_flag.c ****             *p_err = OS_ERR_STATUS_INVALID;
 899              		.loc 1 582 0
 900 0358 FFF7FEFF 		bl	CPU_SR_Restore
 901              	.LVL117:
 583:uCOS-III\Source/os_flag.c ****              break;
 902              		.loc 1 583 0
 903 035c 46F62E63 		movw	r3, #28206
 904 0360 3B80     		strh	r3, [r7]	@ movhi
 905              	.L72:
 586:uCOS-III\Source/os_flag.c ****         return ((OS_FLAGS)0);
 906              		.loc 1 586 0
 907 0362 3B88     		ldrh	r3, [r7]
 908 0364 4BBB     		cbnz	r3, .L82
 590:uCOS-III\Source/os_flag.c ****     if (consume == DEF_TRUE) {                              /* See if we need to consume the flags 
 909              		.loc 1 590 0
 910 0366 184B     		ldr	r3, .L86+4
 911 0368 1B68     		ldr	r3, [r3]
 912 036a D3F88460 		ldr	r6, [r3, #132]
 913              	.LVL118:
 591:uCOS-III\Source/os_flag.c ****         switch (mode) {
 914              		.loc 1 591 0
 915 036e BBF1000F 		cmp	fp, #0
 916 0372 1BD0     		beq	.L76
 592:uCOS-III\Source/os_flag.c ****             case OS_OPT_PEND_FLAG_SET_ALL:
 917              		.loc 1 592 0
 918 0374 09F1FF39 		add	r9, r9, #-1
 919              	.LVL119:
 920 0378 B9F1070F 		cmp	r9, #7
 921 037c 0ED8     		bhi	.L77
 922 037e DFE809F0 		tbb	[pc, r9]
 923              	.L79:
 924 0382 09       		.byte	(.L78-.L79)/2
 925 0383 09       		.byte	(.L78-.L79)/2
 926 0384 0D       		.byte	(.L77-.L79)/2
 927 0385 04       		.byte	(.L80-.L79)/2
ARM GAS  C:\Users\jorti\AppData\Local\Temp\ccCX4ftZ.s 			page 36


 928 0386 0D       		.byte	(.L77-.L79)/2
 929 0387 0D       		.byte	(.L77-.L79)/2
 930 0388 0D       		.byte	(.L77-.L79)/2
 931 0389 04       		.byte	(.L80-.L79)/2
 932              		.p2align 1
 933              	.L80:
 595:uCOS-III\Source/os_flag.c ****                  break;
 934              		.loc 1 595 0
 935 038a 2B6A     		ldr	r3, [r5, #32]
 936 038c 23EA0603 		bic	r3, r3, r6
 937 0390 2B62     		str	r3, [r5, #32]
 596:uCOS-III\Source/os_flag.c **** 
 938              		.loc 1 596 0
 939 0392 0BE0     		b	.L76
 940              	.L78:
 601:uCOS-III\Source/os_flag.c ****                  break;
 941              		.loc 1 601 0
 942 0394 2B6A     		ldr	r3, [r5, #32]
 943 0396 3343     		orrs	r3, r3, r6
 944 0398 2B62     		str	r3, [r5, #32]
 602:uCOS-III\Source/os_flag.c **** #endif
 945              		.loc 1 602 0
 946 039a 07E0     		b	.L76
 947              	.L77:
 605:uCOS-III\Source/os_flag.c ****                 *p_err = OS_ERR_OPT_INVALID;
 948              		.loc 1 605 0
 949 039c 2046     		mov	r0, r4
 950 039e FFF7FEFF 		bl	CPU_SR_Restore
 951              	.LVL120:
 606:uCOS-III\Source/os_flag.c ****                  return ((OS_FLAGS)0);
 952              		.loc 1 606 0
 953 03a2 45F62563 		movw	r3, #24101
 954 03a6 3B80     		strh	r3, [r7]	@ movhi
 607:uCOS-III\Source/os_flag.c ****         }
 955              		.loc 1 607 0
 956 03a8 0020     		movs	r0, #0
 957 03aa 07E0     		b	.L28
 958              	.LVL121:
 959              	.L76:
 610:uCOS-III\Source/os_flag.c ****    *p_err = OS_ERR_NONE;                                    /* Event(s) must have occurred         
 960              		.loc 1 610 0
 961 03ac 2046     		mov	r0, r4
 962 03ae FFF7FEFF 		bl	CPU_SR_Restore
 963              	.LVL122:
 611:uCOS-III\Source/os_flag.c ****     return (flags_rdy);
 964              		.loc 1 611 0
 965 03b2 0023     		movs	r3, #0
 966 03b4 3B80     		strh	r3, [r7]	@ movhi
 612:uCOS-III\Source/os_flag.c **** }
 967              		.loc 1 612 0
 968 03b6 3046     		mov	r0, r6
 969 03b8 00E0     		b	.L28
 970              	.LVL123:
 971              	.L82:
 587:uCOS-III\Source/os_flag.c ****     }
 972              		.loc 1 587 0
 973 03ba 0020     		movs	r0, #0
ARM GAS  C:\Users\jorti\AppData\Local\Temp\ccCX4ftZ.s 			page 37


 974              	.LVL124:
 975              	.L28:
 613:uCOS-III\Source/os_flag.c **** 
 976              		.loc 1 613 0
 977 03bc 0DB0     		add	sp, sp, #52
 978              		.cfi_def_cfa_offset 36
 979              		@ sp needed
 980 03be BDE8F08F 		pop	{r4, r5, r6, r7, r8, r9, r10, fp, pc}
 981              	.LVL125:
 982              	.L87:
 983 03c2 00BF     		.align	2
 984              	.L86:
 985 03c4 00000000 		.word	OSSchedLockNestingCtr
 986 03c8 00000000 		.word	OSTCBCurPtr
 987              		.cfi_endproc
 988              	.LFE3:
 989              		.size	OSFlagPend, .-OSFlagPend
 990              		.section	.text.OS_FlagClr,"ax",%progbits
 991              		.align	2
 992              		.global	OS_FlagClr
 993              		.thumb
 994              		.thumb_func
 995              		.type	OS_FlagClr, %function
 996              	OS_FlagClr:
 997              	.LFB8:
 934:uCOS-III\Source/os_flag.c ****             (OS_PEND_OBJ *)((void *)p_grp),
 935:uCOS-III\Source/os_flag.c ****              OS_TASK_PEND_ON_FLAG,
 936:uCOS-III\Source/os_flag.c ****              timeout);
 937:uCOS-III\Source/os_flag.c **** }
 938:uCOS-III\Source/os_flag.c **** 
 939:uCOS-III\Source/os_flag.c **** /*$PAGE*/
 940:uCOS-III\Source/os_flag.c **** /*
 941:uCOS-III\Source/os_flag.c **** ***************************************************************************************************
 942:uCOS-III\Source/os_flag.c **** *                                      CLEAR THE CONTENTS OF AN EVENT FLAG GROUP
 943:uCOS-III\Source/os_flag.c **** *
 944:uCOS-III\Source/os_flag.c **** * Description: This function is called by OSFlagDel() to clear the contents of an event flag group
 945:uCOS-III\Source/os_flag.c **** *
 946:uCOS-III\Source/os_flag.c **** 
 947:uCOS-III\Source/os_flag.c **** * Argument(s): p_grp     is a pointer to the event flag group to clear
 948:uCOS-III\Source/os_flag.c **** *              -----
 949:uCOS-III\Source/os_flag.c **** *
 950:uCOS-III\Source/os_flag.c **** * Returns    : none
 951:uCOS-III\Source/os_flag.c **** *
 952:uCOS-III\Source/os_flag.c **** * Note(s)    : This function is INTERNAL to uC/OS-III and your application should not call it.
 953:uCOS-III\Source/os_flag.c **** ***************************************************************************************************
 954:uCOS-III\Source/os_flag.c **** */
 955:uCOS-III\Source/os_flag.c **** 
 956:uCOS-III\Source/os_flag.c **** void  OS_FlagClr (OS_FLAG_GRP  *p_grp)
 957:uCOS-III\Source/os_flag.c **** {
 998              		.loc 1 957 0
 999              		.cfi_startproc
 1000              		@ args = 0, pretend = 0, frame = 0
 1001              		@ frame_needed = 0, uses_anonymous_args = 0
 1002              	.LVL126:
 1003 0000 08B5     		push	{r3, lr}
 1004              		.cfi_def_cfa_offset 8
 1005              		.cfi_offset 3, -8
ARM GAS  C:\Users\jorti\AppData\Local\Temp\ccCX4ftZ.s 			page 38


 1006              		.cfi_offset 14, -4
 958:uCOS-III\Source/os_flag.c ****     OS_PEND_LIST  *p_pend_list;
 959:uCOS-III\Source/os_flag.c **** 
 960:uCOS-III\Source/os_flag.c **** 
 961:uCOS-III\Source/os_flag.c **** 
 962:uCOS-III\Source/os_flag.c ****     p_grp->Type             = OS_OBJ_TYPE_NONE;
 1007              		.loc 1 962 0
 1008 0002 054B     		ldr	r3, .L90
 1009 0004 0360     		str	r3, [r0]
 963:uCOS-III\Source/os_flag.c ****     p_grp->NamePtr          = (CPU_CHAR *)((void *)"?FLAG");    /* Unknown name                    
 1010              		.loc 1 963 0
 1011 0006 054B     		ldr	r3, .L90+4
 1012 0008 4360     		str	r3, [r0, #4]
 964:uCOS-III\Source/os_flag.c ****     p_grp->Flags            = (OS_FLAGS )0;
 1013              		.loc 1 964 0
 1014 000a 0023     		movs	r3, #0
 1015 000c 0362     		str	r3, [r0, #32]
 1016              	.LVL127:
 965:uCOS-III\Source/os_flag.c ****     p_pend_list             = &p_grp->PendList;
 966:uCOS-III\Source/os_flag.c ****     OS_PendListInit(p_pend_list);
 1017              		.loc 1 966 0
 1018 000e 0830     		adds	r0, r0, #8
 1019              	.LVL128:
 1020 0010 FFF7FEFF 		bl	OS_PendListInit
 1021              	.LVL129:
 1022 0014 08BD     		pop	{r3, pc}
 1023              	.L91:
 1024 0016 00BF     		.align	2
 1025              	.L90:
 1026 0018 4E4F4E45 		.word	1162760014
 1027 001c 00000000 		.word	.LC0
 1028              		.cfi_endproc
 1029              	.LFE8:
 1030              		.size	OS_FlagClr, .-OS_FlagClr
 1031              		.section	.text.OS_FlagInit,"ax",%progbits
 1032              		.align	2
 1033              		.global	OS_FlagInit
 1034              		.thumb
 1035              		.thumb_func
 1036              		.type	OS_FlagInit, %function
 1037              	OS_FlagInit:
 1038              	.LFB9:
 967:uCOS-III\Source/os_flag.c **** }
 968:uCOS-III\Source/os_flag.c **** 
 969:uCOS-III\Source/os_flag.c **** /*$PAGE*/
 970:uCOS-III\Source/os_flag.c **** /*
 971:uCOS-III\Source/os_flag.c **** ***************************************************************************************************
 972:uCOS-III\Source/os_flag.c **** *                                          INITIALIZE THE EVENT FLAG MODULE
 973:uCOS-III\Source/os_flag.c **** *
 974:uCOS-III\Source/os_flag.c **** * Description: This function is called by uC/OS-III to initialize the event flag module.  Your appl
 975:uCOS-III\Source/os_flag.c **** *              this function.  In other words, this function is internal to uC/OS-III.
 976:uCOS-III\Source/os_flag.c **** *
 977:uCOS-III\Source/os_flag.c **** * Arguments  : p_err     is a pointer to an error code that can contain one of the following values
 978:uCOS-III\Source/os_flag.c **** *
 979:uCOS-III\Source/os_flag.c **** *                            OS_ERR_NONE   The call was successful.
 980:uCOS-III\Source/os_flag.c **** *
 981:uCOS-III\Source/os_flag.c **** * Returns    : none
ARM GAS  C:\Users\jorti\AppData\Local\Temp\ccCX4ftZ.s 			page 39


 982:uCOS-III\Source/os_flag.c **** *
 983:uCOS-III\Source/os_flag.c **** * Note(s)    : This function is INTERNAL to uC/OS-III and your application should not call it.
 984:uCOS-III\Source/os_flag.c **** ***************************************************************************************************
 985:uCOS-III\Source/os_flag.c **** */
 986:uCOS-III\Source/os_flag.c **** 
 987:uCOS-III\Source/os_flag.c **** void  OS_FlagInit (OS_ERR  *p_err)
 988:uCOS-III\Source/os_flag.c **** {
 1039              		.loc 1 988 0
 1040              		.cfi_startproc
 1041              		@ args = 0, pretend = 0, frame = 0
 1042              		@ frame_needed = 0, uses_anonymous_args = 0
 1043              		@ link register save eliminated.
 1044              	.LVL130:
 989:uCOS-III\Source/os_flag.c **** #ifdef OS_SAFETY_CRITICAL
 990:uCOS-III\Source/os_flag.c ****     if (p_err == (OS_ERR *)0) {
 991:uCOS-III\Source/os_flag.c ****         OS_SAFETY_CRITICAL_EXCEPTION();
 992:uCOS-III\Source/os_flag.c ****         return;
 993:uCOS-III\Source/os_flag.c ****     }
 994:uCOS-III\Source/os_flag.c **** #endif
 995:uCOS-III\Source/os_flag.c **** 
 996:uCOS-III\Source/os_flag.c **** #if OS_CFG_DBG_EN > 0u
 997:uCOS-III\Source/os_flag.c ****     OSFlagDbgListPtr = (OS_FLAG_GRP *)0;
 1045              		.loc 1 997 0
 1046 0000 0023     		movs	r3, #0
 1047 0002 034A     		ldr	r2, .L93
 1048 0004 1360     		str	r3, [r2]
 998:uCOS-III\Source/os_flag.c **** #endif
 999:uCOS-III\Source/os_flag.c **** 
1000:uCOS-III\Source/os_flag.c ****     OSFlagQty        = (OS_OBJ_QTY   )0;
 1049              		.loc 1 1000 0
 1050 0006 034A     		ldr	r2, .L93+4
 1051 0008 1380     		strh	r3, [r2]	@ movhi
1001:uCOS-III\Source/os_flag.c ****    *p_err            = OS_ERR_NONE;
 1052              		.loc 1 1001 0
 1053 000a 0380     		strh	r3, [r0]	@ movhi
 1054 000c 7047     		bx	lr
 1055              	.L94:
 1056 000e 00BF     		.align	2
 1057              	.L93:
 1058 0010 00000000 		.word	OSFlagDbgListPtr
 1059 0014 00000000 		.word	OSFlagQty
 1060              		.cfi_endproc
 1061              	.LFE9:
 1062              		.size	OS_FlagInit, .-OS_FlagInit
 1063              		.section	.text.OS_FlagDbgListAdd,"ax",%progbits
 1064              		.align	2
 1065              		.global	OS_FlagDbgListAdd
 1066              		.thumb
 1067              		.thumb_func
 1068              		.type	OS_FlagDbgListAdd, %function
 1069              	OS_FlagDbgListAdd:
 1070              	.LFB10:
1002:uCOS-III\Source/os_flag.c **** }
1003:uCOS-III\Source/os_flag.c **** 
1004:uCOS-III\Source/os_flag.c **** /*$PAGE*/
1005:uCOS-III\Source/os_flag.c **** /*
1006:uCOS-III\Source/os_flag.c **** ***************************************************************************************************
ARM GAS  C:\Users\jorti\AppData\Local\Temp\ccCX4ftZ.s 			page 40


1007:uCOS-III\Source/os_flag.c **** *                                    ADD/REMOVE EVENT FLAG GROUP TO/FROM DEBUG LIST
1008:uCOS-III\Source/os_flag.c **** *
1009:uCOS-III\Source/os_flag.c **** * Description: These functions are called by uC/OS-III to add or remove an event flag group from th
1010:uCOS-III\Source/os_flag.c **** *              list.
1011:uCOS-III\Source/os_flag.c **** *
1012:uCOS-III\Source/os_flag.c **** * Arguments  : p_grp     is a pointer to the event flag group to add/remove
1013:uCOS-III\Source/os_flag.c **** *
1014:uCOS-III\Source/os_flag.c **** * Returns    : none
1015:uCOS-III\Source/os_flag.c **** *
1016:uCOS-III\Source/os_flag.c **** * Note(s)    : These functions are INTERNAL to uC/OS-III and your application should not call it.
1017:uCOS-III\Source/os_flag.c **** ***************************************************************************************************
1018:uCOS-III\Source/os_flag.c **** */
1019:uCOS-III\Source/os_flag.c **** 
1020:uCOS-III\Source/os_flag.c **** #if OS_CFG_DBG_EN > 0u
1021:uCOS-III\Source/os_flag.c **** void  OS_FlagDbgListAdd (OS_FLAG_GRP  *p_grp)
1022:uCOS-III\Source/os_flag.c **** {
 1071              		.loc 1 1022 0
 1072              		.cfi_startproc
 1073              		@ args = 0, pretend = 0, frame = 0
 1074              		@ frame_needed = 0, uses_anonymous_args = 0
 1075              		@ link register save eliminated.
 1076              	.LVL131:
1023:uCOS-III\Source/os_flag.c ****     p_grp->DbgNamePtr                = (CPU_CHAR    *)((void *)" ");
 1077              		.loc 1 1023 0
 1078 0000 064B     		ldr	r3, .L98
 1079 0002 C361     		str	r3, [r0, #28]
1024:uCOS-III\Source/os_flag.c ****     p_grp->DbgPrevPtr                = (OS_FLAG_GRP *)0;
 1080              		.loc 1 1024 0
 1081 0004 0023     		movs	r3, #0
 1082 0006 4361     		str	r3, [r0, #20]
1025:uCOS-III\Source/os_flag.c ****     if (OSFlagDbgListPtr == (OS_FLAG_GRP *)0) {
 1083              		.loc 1 1025 0
 1084 0008 054B     		ldr	r3, .L98+4
 1085 000a 1B68     		ldr	r3, [r3]
 1086 000c 0BB9     		cbnz	r3, .L96
1026:uCOS-III\Source/os_flag.c ****         p_grp->DbgNextPtr            = (OS_FLAG_GRP *)0;
 1087              		.loc 1 1026 0
 1088 000e 8361     		str	r3, [r0, #24]
 1089 0010 01E0     		b	.L97
 1090              	.L96:
1027:uCOS-III\Source/os_flag.c ****     } else {
1028:uCOS-III\Source/os_flag.c ****         p_grp->DbgNextPtr            =  OSFlagDbgListPtr;
 1091              		.loc 1 1028 0
 1092 0012 8361     		str	r3, [r0, #24]
1029:uCOS-III\Source/os_flag.c ****         OSFlagDbgListPtr->DbgPrevPtr =  p_grp;
 1093              		.loc 1 1029 0
 1094 0014 5861     		str	r0, [r3, #20]
 1095              	.L97:
1030:uCOS-III\Source/os_flag.c ****     }
1031:uCOS-III\Source/os_flag.c ****     OSFlagDbgListPtr                 =  p_grp;
 1096              		.loc 1 1031 0
 1097 0016 024B     		ldr	r3, .L98+4
 1098 0018 1860     		str	r0, [r3]
 1099 001a 7047     		bx	lr
 1100              	.L99:
 1101              		.align	2
 1102              	.L98:
ARM GAS  C:\Users\jorti\AppData\Local\Temp\ccCX4ftZ.s 			page 41


 1103 001c 08000000 		.word	.LC1
 1104 0020 00000000 		.word	OSFlagDbgListPtr
 1105              		.cfi_endproc
 1106              	.LFE10:
 1107              		.size	OS_FlagDbgListAdd, .-OS_FlagDbgListAdd
 1108              		.section	.text.OSFlagCreate,"ax",%progbits
 1109              		.align	2
 1110              		.global	OSFlagCreate
 1111              		.thumb
 1112              		.thumb_func
 1113              		.type	OSFlagCreate, %function
 1114              	OSFlagCreate:
 1115              	.LFB1:
  74:uCOS-III\Source/os_flag.c ****     CPU_SR_ALLOC();
 1116              		.loc 1 74 0
 1117              		.cfi_startproc
 1118              		@ args = 0, pretend = 0, frame = 0
 1119              		@ frame_needed = 0, uses_anonymous_args = 0
 1120              	.LVL132:
 1121 0000 2DE9F041 		push	{r4, r5, r6, r7, r8, lr}
 1122              		.cfi_def_cfa_offset 24
 1123              		.cfi_offset 4, -24
 1124              		.cfi_offset 5, -20
 1125              		.cfi_offset 6, -16
 1126              		.cfi_offset 7, -12
 1127              		.cfi_offset 8, -8
 1128              		.cfi_offset 14, -4
 1129              	.LVL133:
  94:uCOS-III\Source/os_flag.c ****        *p_err = OS_ERR_CREATE_ISR;                          /* ... can't CREATE from an ISR        
 1130              		.loc 1 94 0
 1131 0004 154C     		ldr	r4, .L105
 1132 0006 2478     		ldrb	r4, [r4]	@ zero_extendqisi2
 1133 0008 24B1     		cbz	r4, .L101
  95:uCOS-III\Source/os_flag.c ****         return;
 1134              		.loc 1 95 0
 1135 000a 42F6E162 		movw	r2, #12001
 1136              	.LVL134:
 1137 000e 1A80     		strh	r2, [r3]	@ movhi
  96:uCOS-III\Source/os_flag.c ****     }
 1138              		.loc 1 96 0
 1139 0010 BDE8F081 		pop	{r4, r5, r6, r7, r8, pc}
 1140              	.LVL135:
 1141              	.L101:
 101:uCOS-III\Source/os_flag.c ****        *p_err = OS_ERR_OBJ_PTR_NULL;
 1142              		.loc 1 101 0
 1143 0014 20B9     		cbnz	r0, .L103
 102:uCOS-III\Source/os_flag.c ****         return;
 1144              		.loc 1 102 0
 1145 0016 45F6C352 		movw	r2, #24003
 1146              	.LVL136:
 1147 001a 1A80     		strh	r2, [r3]	@ movhi
 103:uCOS-III\Source/os_flag.c ****     }
 1148              		.loc 1 103 0
 1149 001c BDE8F081 		pop	{r4, r5, r6, r7, r8, pc}
 1150              	.LVL137:
 1151              	.L103:
 1152 0020 1F46     		mov	r7, r3
ARM GAS  C:\Users\jorti\AppData\Local\Temp\ccCX4ftZ.s 			page 42


 1153 0022 1546     		mov	r5, r2
 1154 0024 0E46     		mov	r6, r1
 1155 0026 0446     		mov	r4, r0
 107:uCOS-III\Source/os_flag.c ****     p_grp->Type    = OS_OBJ_TYPE_FLAG;                      /* Set to event flag group type        
 1156              		.loc 1 107 0
 1157 0028 FFF7FEFF 		bl	CPU_SR_Save
 1158              	.LVL138:
 1159 002c 8046     		mov	r8, r0
 1160              	.LVL139:
 108:uCOS-III\Source/os_flag.c ****     p_grp->NamePtr = p_name;
 1161              		.loc 1 108 0
 1162 002e 0C4B     		ldr	r3, .L105+4
 1163 0030 2360     		str	r3, [r4]
 109:uCOS-III\Source/os_flag.c ****     p_grp->Flags   = flags;                                 /* Set to desired initial value        
 1164              		.loc 1 109 0
 1165 0032 6660     		str	r6, [r4, #4]
 110:uCOS-III\Source/os_flag.c ****     p_grp->TS      = (CPU_TS)0;
 1166              		.loc 1 110 0
 1167 0034 2562     		str	r5, [r4, #32]
 111:uCOS-III\Source/os_flag.c ****     OS_PendListInit(&p_grp->PendList);
 1168              		.loc 1 111 0
 1169 0036 0025     		movs	r5, #0
 1170              	.LVL140:
 1171 0038 6562     		str	r5, [r4, #36]
 112:uCOS-III\Source/os_flag.c **** 
 1172              		.loc 1 112 0
 1173 003a 04F10800 		add	r0, r4, #8
 1174              	.LVL141:
 1175 003e FFF7FEFF 		bl	OS_PendListInit
 1176              	.LVL142:
 115:uCOS-III\Source/os_flag.c **** #endif
 1177              		.loc 1 115 0
 1178 0042 2046     		mov	r0, r4
 1179 0044 FFF7FEFF 		bl	OS_FlagDbgListAdd
 1180              	.LVL143:
 117:uCOS-III\Source/os_flag.c **** 
 1181              		.loc 1 117 0
 1182 0048 064A     		ldr	r2, .L105+8
 1183 004a 1388     		ldrh	r3, [r2]
 1184 004c 0133     		adds	r3, r3, #1
 1185 004e 1380     		strh	r3, [r2]	@ movhi
 119:uCOS-III\Source/os_flag.c ****    *p_err = OS_ERR_NONE;
 1186              		.loc 1 119 0
 1187 0050 4046     		mov	r0, r8
 1188 0052 FFF7FEFF 		bl	CPU_SR_Restore
 1189              	.LVL144:
 120:uCOS-III\Source/os_flag.c **** }
 1190              		.loc 1 120 0
 1191 0056 3D80     		strh	r5, [r7]	@ movhi
 1192 0058 BDE8F081 		pop	{r4, r5, r6, r7, r8, pc}
 1193              	.LVL145:
 1194              	.L106:
 1195              		.align	2
 1196              	.L105:
 1197 005c 00000000 		.word	OSIntNestingCtr
 1198 0060 464C4147 		.word	1195461702
 1199 0064 00000000 		.word	OSFlagQty
ARM GAS  C:\Users\jorti\AppData\Local\Temp\ccCX4ftZ.s 			page 43


 1200              		.cfi_endproc
 1201              	.LFE1:
 1202              		.size	OSFlagCreate, .-OSFlagCreate
 1203              		.section	.text.OS_FlagDbgListRemove,"ax",%progbits
 1204              		.align	2
 1205              		.global	OS_FlagDbgListRemove
 1206              		.thumb
 1207              		.thumb_func
 1208              		.type	OS_FlagDbgListRemove, %function
 1209              	OS_FlagDbgListRemove:
 1210              	.LFB11:
1032:uCOS-III\Source/os_flag.c **** }
1033:uCOS-III\Source/os_flag.c **** 
1034:uCOS-III\Source/os_flag.c **** 
1035:uCOS-III\Source/os_flag.c **** 
1036:uCOS-III\Source/os_flag.c **** void  OS_FlagDbgListRemove (OS_FLAG_GRP  *p_grp)
1037:uCOS-III\Source/os_flag.c **** {
 1211              		.loc 1 1037 0
 1212              		.cfi_startproc
 1213              		@ args = 0, pretend = 0, frame = 0
 1214              		@ frame_needed = 0, uses_anonymous_args = 0
 1215              		@ link register save eliminated.
 1216              	.LVL146:
1038:uCOS-III\Source/os_flag.c ****     OS_FLAG_GRP  *p_grp_next;
1039:uCOS-III\Source/os_flag.c ****     OS_FLAG_GRP  *p_grp_prev;
1040:uCOS-III\Source/os_flag.c **** 
1041:uCOS-III\Source/os_flag.c **** 
1042:uCOS-III\Source/os_flag.c ****     p_grp_prev = p_grp->DbgPrevPtr;
 1217              		.loc 1 1042 0
 1218 0000 4269     		ldr	r2, [r0, #20]
 1219              	.LVL147:
1043:uCOS-III\Source/os_flag.c ****     p_grp_next = p_grp->DbgNextPtr;
 1220              		.loc 1 1043 0
 1221 0002 8369     		ldr	r3, [r0, #24]
 1222              	.LVL148:
1044:uCOS-III\Source/os_flag.c **** 
1045:uCOS-III\Source/os_flag.c ****     if (p_grp_prev == (OS_FLAG_GRP *)0) {
 1223              		.loc 1 1045 0
 1224 0004 3AB9     		cbnz	r2, .L108
1046:uCOS-III\Source/os_flag.c ****         OSFlagDbgListPtr = p_grp_next;
 1225              		.loc 1 1046 0
 1226 0006 094A     		ldr	r2, .L112
 1227              	.LVL149:
 1228 0008 1360     		str	r3, [r2]
1047:uCOS-III\Source/os_flag.c ****         if (p_grp_next != (OS_FLAG_GRP *)0) {
 1229              		.loc 1 1047 0
 1230 000a 0BB1     		cbz	r3, .L109
1048:uCOS-III\Source/os_flag.c ****             p_grp_next->DbgPrevPtr = (OS_FLAG_GRP *)0;
 1231              		.loc 1 1048 0
 1232 000c 0022     		movs	r2, #0
 1233 000e 5A61     		str	r2, [r3, #20]
 1234              	.LVL150:
 1235              	.L109:
1049:uCOS-III\Source/os_flag.c ****         }
1050:uCOS-III\Source/os_flag.c ****         p_grp->DbgNextPtr = (OS_FLAG_GRP *)0;
 1236              		.loc 1 1050 0
 1237 0010 0023     		movs	r3, #0
ARM GAS  C:\Users\jorti\AppData\Local\Temp\ccCX4ftZ.s 			page 44


 1238              	.LVL151:
 1239 0012 8361     		str	r3, [r0, #24]
 1240 0014 7047     		bx	lr
 1241              	.LVL152:
 1242              	.L108:
1051:uCOS-III\Source/os_flag.c **** 
1052:uCOS-III\Source/os_flag.c ****     } else if (p_grp_next == (OS_FLAG_GRP *)0) {
 1243              		.loc 1 1052 0
 1244 0016 13B9     		cbnz	r3, .L111
1053:uCOS-III\Source/os_flag.c ****         p_grp_prev->DbgNextPtr = (OS_FLAG_GRP *)0;
 1245              		.loc 1 1053 0
 1246 0018 9361     		str	r3, [r2, #24]
1054:uCOS-III\Source/os_flag.c ****         p_grp->DbgPrevPtr      = (OS_FLAG_GRP *)0;
 1247              		.loc 1 1054 0
 1248 001a 4361     		str	r3, [r0, #20]
 1249 001c 7047     		bx	lr
 1250              	.L111:
1055:uCOS-III\Source/os_flag.c **** 
1056:uCOS-III\Source/os_flag.c ****     } else {
1057:uCOS-III\Source/os_flag.c ****         p_grp_prev->DbgNextPtr =  p_grp_next;
 1251              		.loc 1 1057 0
 1252 001e 9361     		str	r3, [r2, #24]
1058:uCOS-III\Source/os_flag.c ****         p_grp_next->DbgPrevPtr =  p_grp_prev;
 1253              		.loc 1 1058 0
 1254 0020 5A61     		str	r2, [r3, #20]
1059:uCOS-III\Source/os_flag.c ****         p_grp->DbgNextPtr      = (OS_FLAG_GRP *)0;
 1255              		.loc 1 1059 0
 1256 0022 0023     		movs	r3, #0
 1257              	.LVL153:
 1258 0024 8361     		str	r3, [r0, #24]
1060:uCOS-III\Source/os_flag.c ****         p_grp->DbgPrevPtr      = (OS_FLAG_GRP *)0;
 1259              		.loc 1 1060 0
 1260 0026 4361     		str	r3, [r0, #20]
 1261 0028 7047     		bx	lr
 1262              	.L113:
 1263 002a 00BF     		.align	2
 1264              	.L112:
 1265 002c 00000000 		.word	OSFlagDbgListPtr
 1266              		.cfi_endproc
 1267              	.LFE11:
 1268              		.size	OS_FlagDbgListRemove, .-OS_FlagDbgListRemove
 1269              		.section	.text.OSFlagDel,"ax",%progbits
 1270              		.align	2
 1271              		.global	OSFlagDel
 1272              		.thumb
 1273              		.thumb_func
 1274              		.type	OSFlagDel, %function
 1275              	OSFlagDel:
 1276              	.LFB2:
 159:uCOS-III\Source/os_flag.c ****     OS_OBJ_QTY        cnt;
 1277              		.loc 1 159 0
 1278              		.cfi_startproc
 1279              		@ args = 0, pretend = 0, frame = 0
 1280              		@ frame_needed = 0, uses_anonymous_args = 0
 1281              	.LVL154:
 1282 0000 2DE9F843 		push	{r3, r4, r5, r6, r7, r8, r9, lr}
 1283              		.cfi_def_cfa_offset 32
ARM GAS  C:\Users\jorti\AppData\Local\Temp\ccCX4ftZ.s 			page 45


 1284              		.cfi_offset 3, -32
 1285              		.cfi_offset 4, -28
 1286              		.cfi_offset 5, -24
 1287              		.cfi_offset 6, -20
 1288              		.cfi_offset 7, -16
 1289              		.cfi_offset 8, -12
 1290              		.cfi_offset 9, -8
 1291              		.cfi_offset 14, -4
 1292              	.LVL155:
 178:uCOS-III\Source/os_flag.c ****        *p_err = OS_ERR_DEL_ISR;                             /* ... can't DELETE from an ISR        
 1293              		.loc 1 178 0
 1294 0004 334B     		ldr	r3, .L129
 1295 0006 1B78     		ldrb	r3, [r3]	@ zero_extendqisi2
 1296 0008 2BB1     		cbz	r3, .L115
 179:uCOS-III\Source/os_flag.c ****         return ((OS_OBJ_QTY)0);
 1297              		.loc 1 179 0
 1298 000a 43F2C923 		movw	r3, #13001
 1299 000e 1380     		strh	r3, [r2]	@ movhi
 180:uCOS-III\Source/os_flag.c ****     }
 1300              		.loc 1 180 0
 1301 0010 0020     		movs	r0, #0
 1302              	.LVL156:
 1303 0012 BDE8F883 		pop	{r3, r4, r5, r6, r7, r8, r9, pc}
 1304              	.LVL157:
 1305              	.L115:
 185:uCOS-III\Source/os_flag.c ****        *p_err  = OS_ERR_OBJ_PTR_NULL;
 1306              		.loc 1 185 0
 1307 0016 20B9     		cbnz	r0, .L117
 186:uCOS-III\Source/os_flag.c ****         return ((OS_OBJ_QTY)0);
 1308              		.loc 1 186 0
 1309 0018 45F6C353 		movw	r3, #24003
 1310 001c 1380     		strh	r3, [r2]	@ movhi
 187:uCOS-III\Source/os_flag.c ****     }
 1311              		.loc 1 187 0
 1312 001e BDE8F883 		pop	{r3, r4, r5, r6, r7, r8, r9, pc}
 1313              	.L117:
 189:uCOS-III\Source/os_flag.c ****         case OS_OPT_DEL_NO_PEND:
 1314              		.loc 1 189 0
 1315 0022 0129     		cmp	r1, #1
 1316 0024 05D9     		bls	.L126
 195:uCOS-III\Source/os_flag.c ****              return ((OS_OBJ_QTY)0);
 1317              		.loc 1 195 0
 1318 0026 45F62563 		movw	r3, #24101
 1319 002a 1380     		strh	r3, [r2]	@ movhi
 196:uCOS-III\Source/os_flag.c ****     }
 1320              		.loc 1 196 0
 1321 002c 0020     		movs	r0, #0
 1322              	.LVL158:
 1323 002e BDE8F883 		pop	{r3, r4, r5, r6, r7, r8, r9, pc}
 1324              	.LVL159:
 1325              	.L126:
 1326 0032 1746     		mov	r7, r2
 1327 0034 0D46     		mov	r5, r1
 1328 0036 0446     		mov	r4, r0
 206:uCOS-III\Source/os_flag.c ****     p_pend_list = &p_grp->PendList;
 1329              		.loc 1 206 0
 1330 0038 FFF7FEFF 		bl	CPU_SR_Save
ARM GAS  C:\Users\jorti\AppData\Local\Temp\ccCX4ftZ.s 			page 46


 1331              	.LVL160:
 1332 003c 8046     		mov	r8, r0
 1333              	.LVL161:
 208:uCOS-III\Source/os_flag.c ****     nbr_tasks   = cnt;
 1334              		.loc 1 208 0
 1335 003e 268A     		ldrh	r6, [r4, #16]
 1336              	.LVL162:
 210:uCOS-III\Source/os_flag.c ****         case OS_OPT_DEL_NO_PEND:                            /* Delete group if no task waiting     
 1337              		.loc 1 210 0
 1338 0040 15B1     		cbz	r5, .L121
 1339 0042 012D     		cmp	r5, #1
 1340 0044 1BD0     		beq	.L122
 1341 0046 3DE0     		b	.L127
 1342              	.L121:
 212:uCOS-III\Source/os_flag.c **** #if OS_CFG_DBG_EN > 0u
 1343              		.loc 1 212 0
 1344 0048 8EB9     		cbnz	r6, .L123
 214:uCOS-III\Source/os_flag.c **** #endif
 1345              		.loc 1 214 0
 1346 004a 2046     		mov	r0, r4
 1347              	.LVL163:
 1348 004c FFF7FEFF 		bl	OS_FlagDbgListRemove
 1349              	.LVL164:
 216:uCOS-III\Source/os_flag.c ****                  OS_FlagClr(p_grp);
 1350              		.loc 1 216 0
 1351 0050 214A     		ldr	r2, .L129+4
 1352 0052 1388     		ldrh	r3, [r2]
 1353 0054 013B     		subs	r3, r3, #1
 1354 0056 1380     		strh	r3, [r2]	@ movhi
 217:uCOS-III\Source/os_flag.c **** 
 1355              		.loc 1 217 0
 1356 0058 2046     		mov	r0, r4
 1357 005a FFF7FEFF 		bl	OS_FlagClr
 1358              	.LVL165:
 219:uCOS-III\Source/os_flag.c ****                 *p_err = OS_ERR_NONE;
 1359              		.loc 1 219 0
 1360 005e 4046     		mov	r0, r8
 1361 0060 FFF7FEFF 		bl	CPU_SR_Restore
 1362              	.LVL166:
 220:uCOS-III\Source/os_flag.c ****              } else {
 1363              		.loc 1 220 0
 1364 0064 0023     		movs	r3, #0
 1365 0066 3B80     		strh	r3, [r7]	@ movhi
 252:uCOS-III\Source/os_flag.c **** }
 1366              		.loc 1 252 0
 1367 0068 3046     		mov	r0, r6
 1368 006a BDE8F883 		pop	{r3, r4, r5, r6, r7, r8, r9, pc}
 1369              	.LVL167:
 1370              	.L123:
 222:uCOS-III\Source/os_flag.c ****                 *p_err = OS_ERR_TASK_WAITING;
 1371              		.loc 1 222 0
 1372 006e FFF7FEFF 		bl	CPU_SR_Restore
 1373              	.LVL168:
 223:uCOS-III\Source/os_flag.c ****              }
 1374              		.loc 1 223 0
 1375 0072 47F25F13 		movw	r3, #29023
 1376 0076 3B80     		strh	r3, [r7]	@ movhi
ARM GAS  C:\Users\jorti\AppData\Local\Temp\ccCX4ftZ.s 			page 47


 252:uCOS-III\Source/os_flag.c **** }
 1377              		.loc 1 252 0
 1378 0078 3046     		mov	r0, r6
 1379 007a BDE8F883 		pop	{r3, r4, r5, r6, r7, r8, r9, pc}
 1380              	.LVL169:
 1381              	.L122:
 228:uCOS-III\Source/os_flag.c ****              while (cnt > 0u) {                             /* Remove all tasks from the pend list 
 1382              		.loc 1 228 0
 1383 007e FFF7FEFF 		bl	CPU_TS_TmrRd
 1384              	.LVL170:
 1385 0082 8146     		mov	r9, r0
 1386              	.LVL171:
 208:uCOS-III\Source/os_flag.c ****     nbr_tasks   = cnt;
 1387              		.loc 1 208 0
 1388 0084 3546     		mov	r5, r6
 229:uCOS-III\Source/os_flag.c ****                  p_pend_data = p_pend_list->HeadPtr;
 1389              		.loc 1 229 0
 1390 0086 07E0     		b	.L124
 1391              	.LVL172:
 1392              	.L125:
 230:uCOS-III\Source/os_flag.c ****                  p_tcb       = p_pend_data->TCBPtr;
 1393              		.loc 1 230 0
 1394 0088 A368     		ldr	r3, [r4, #8]
 1395              	.LVL173:
 232:uCOS-III\Source/os_flag.c ****                                p_tcb,
 1396              		.loc 1 232 0
 1397 008a 4A46     		mov	r2, r9
 1398 008c 9968     		ldr	r1, [r3, #8]
 1399 008e 2046     		mov	r0, r4
 1400 0090 FFF7FEFF 		bl	OS_PendObjDel
 1401              	.LVL174:
 235:uCOS-III\Source/os_flag.c ****              }
 1402              		.loc 1 235 0
 1403 0094 013D     		subs	r5, r5, #1
 1404              	.LVL175:
 1405 0096 ADB2     		uxth	r5, r5
 1406              	.LVL176:
 1407              	.L124:
 229:uCOS-III\Source/os_flag.c ****                  p_pend_data = p_pend_list->HeadPtr;
 1408              		.loc 1 229 0
 1409 0098 002D     		cmp	r5, #0
 1410 009a F5D1     		bne	.L125
 238:uCOS-III\Source/os_flag.c **** #endif
 1411              		.loc 1 238 0
 1412 009c 2046     		mov	r0, r4
 1413 009e FFF7FEFF 		bl	OS_FlagDbgListRemove
 1414              	.LVL177:
 240:uCOS-III\Source/os_flag.c ****              OS_FlagClr(p_grp);
 1415              		.loc 1 240 0
 1416 00a2 0D4A     		ldr	r2, .L129+4
 1417 00a4 1388     		ldrh	r3, [r2]
 1418 00a6 013B     		subs	r3, r3, #1
 1419 00a8 1380     		strh	r3, [r2]	@ movhi
 241:uCOS-III\Source/os_flag.c ****              OS_CRITICAL_EXIT_NO_SCHED();
 1420              		.loc 1 241 0
 1421 00aa 2046     		mov	r0, r4
 1422 00ac FFF7FEFF 		bl	OS_FlagClr
ARM GAS  C:\Users\jorti\AppData\Local\Temp\ccCX4ftZ.s 			page 48


 1423              	.LVL178:
 242:uCOS-III\Source/os_flag.c ****              OSSched();                                     /* Find highest priority task ready to 
 1424              		.loc 1 242 0
 1425 00b0 4046     		mov	r0, r8
 1426 00b2 FFF7FEFF 		bl	CPU_SR_Restore
 1427              	.LVL179:
 243:uCOS-III\Source/os_flag.c ****             *p_err = OS_ERR_NONE;
 1428              		.loc 1 243 0
 1429 00b6 FFF7FEFF 		bl	OSSched
 1430              	.LVL180:
 244:uCOS-III\Source/os_flag.c ****              break;
 1431              		.loc 1 244 0
 1432 00ba 0023     		movs	r3, #0
 1433 00bc 3B80     		strh	r3, [r7]	@ movhi
 252:uCOS-III\Source/os_flag.c **** }
 1434              		.loc 1 252 0
 1435 00be 3046     		mov	r0, r6
 245:uCOS-III\Source/os_flag.c **** 
 1436              		.loc 1 245 0
 1437 00c0 BDE8F883 		pop	{r3, r4, r5, r6, r7, r8, r9, pc}
 1438              	.LVL181:
 1439              	.L127:
 248:uCOS-III\Source/os_flag.c ****             *p_err = OS_ERR_OPT_INVALID;
 1440              		.loc 1 248 0
 1441 00c4 FFF7FEFF 		bl	CPU_SR_Restore
 1442              	.LVL182:
 249:uCOS-III\Source/os_flag.c ****              break;
 1443              		.loc 1 249 0
 1444 00c8 45F62563 		movw	r3, #24101
 1445 00cc 3B80     		strh	r3, [r7]	@ movhi
 252:uCOS-III\Source/os_flag.c **** }
 1446              		.loc 1 252 0
 1447 00ce 3046     		mov	r0, r6
 253:uCOS-III\Source/os_flag.c **** #endif
 1448              		.loc 1 253 0
 1449 00d0 BDE8F883 		pop	{r3, r4, r5, r6, r7, r8, r9, pc}
 1450              	.LVL183:
 1451              	.L130:
 1452              		.align	2
 1453              	.L129:
 1454 00d4 00000000 		.word	OSIntNestingCtr
 1455 00d8 00000000 		.word	OSFlagQty
 1456              		.cfi_endproc
 1457              	.LFE2:
 1458              		.size	OSFlagDel, .-OSFlagDel
 1459              		.section	.text.OS_FlagTaskRdy,"ax",%progbits
 1460              		.align	2
 1461              		.global	OS_FlagTaskRdy
 1462              		.thumb
 1463              		.thumb_func
 1464              		.type	OS_FlagTaskRdy, %function
 1465              	OS_FlagTaskRdy:
 1466              	.LFB13:
1061:uCOS-III\Source/os_flag.c ****     }
1062:uCOS-III\Source/os_flag.c **** }
1063:uCOS-III\Source/os_flag.c **** #endif
1064:uCOS-III\Source/os_flag.c **** 
ARM GAS  C:\Users\jorti\AppData\Local\Temp\ccCX4ftZ.s 			page 49


1065:uCOS-III\Source/os_flag.c **** /*$PAGE*/
1066:uCOS-III\Source/os_flag.c **** /*
1067:uCOS-III\Source/os_flag.c **** ***************************************************************************************************
1068:uCOS-III\Source/os_flag.c **** *                                                POST EVENT FLAG BIT(S)
1069:uCOS-III\Source/os_flag.c **** *
1070:uCOS-III\Source/os_flag.c **** * Description: This function is called to set or clear some bits in an event flag group.  The bits 
1071:uCOS-III\Source/os_flag.c **** *              specified by a 'bit mask'.
1072:uCOS-III\Source/os_flag.c **** *
1073:uCOS-III\Source/os_flag.c **** * Arguments  : p_grp         is a pointer to the desired event flag group.
1074:uCOS-III\Source/os_flag.c **** *
1075:uCOS-III\Source/os_flag.c **** *              flags         If 'opt' (see below) is OS_OPT_POST_FLAG_SET, each bit that is set in 
1076:uCOS-III\Source/os_flag.c **** *                            set the corresponding bit in the event flag group.  e.g. to set bits 0
1077:uCOS-III\Source/os_flag.c **** *                            and 5 you would set 'flags' to:
1078:uCOS-III\Source/os_flag.c **** *
1079:uCOS-III\Source/os_flag.c **** *                                0x31     (note, bit 0 is least significant bit)
1080:uCOS-III\Source/os_flag.c **** *
1081:uCOS-III\Source/os_flag.c **** *                            If 'opt' (see below) is OS_OPT_POST_FLAG_CLR, each bit that is set in 
1082:uCOS-III\Source/os_flag.c **** *                            CLEAR the corresponding bit in the event flag group.  e.g. to clear bi
1083:uCOS-III\Source/os_flag.c **** *                            4 and 5 you would specify 'flags' as:
1084:uCOS-III\Source/os_flag.c **** *
1085:uCOS-III\Source/os_flag.c **** *                                0x31     (note, bit 0 is least significant bit)
1086:uCOS-III\Source/os_flag.c **** *
1087:uCOS-III\Source/os_flag.c **** *              opt           indicates whether the flags will be:
1088:uCOS-III\Source/os_flag.c **** *
1089:uCOS-III\Source/os_flag.c **** *                                OS_OPT_POST_FLAG_SET       set
1090:uCOS-III\Source/os_flag.c **** *                                OS_OPT_POST_FLAG_CLR       cleared
1091:uCOS-III\Source/os_flag.c **** *
1092:uCOS-III\Source/os_flag.c **** *                            you can also 'add' OS_OPT_POST_NO_SCHED to prevent the scheduler from 
1093:uCOS-III\Source/os_flag.c **** *
1094:uCOS-III\Source/os_flag.c **** *              ts            is the timestamp of the post
1095:uCOS-III\Source/os_flag.c **** *
1096:uCOS-III\Source/os_flag.c **** *              p_err         is a pointer to an error code and can be:
1097:uCOS-III\Source/os_flag.c **** *
1098:uCOS-III\Source/os_flag.c **** *                                OS_ERR_NONE                The call was successful
1099:uCOS-III\Source/os_flag.c **** *                                OS_ERR_OBJ_PTR_NULL        You passed a NULL pointer
1100:uCOS-III\Source/os_flag.c **** *                                OS_ERR_OBJ_TYPE            You are not pointing to an event flag g
1101:uCOS-III\Source/os_flag.c **** *                                OS_ERR_OPT_INVALID         You specified an invalid option
1102:uCOS-III\Source/os_flag.c **** *
1103:uCOS-III\Source/os_flag.c **** * Returns    : the new value of the event flags bits that are still set.
1104:uCOS-III\Source/os_flag.c **** *
1105:uCOS-III\Source/os_flag.c **** * Note(s)    : 1) The execution time of this function depends on the number of tasks waiting on the
1106:uCOS-III\Source/os_flag.c **** ***************************************************************************************************
1107:uCOS-III\Source/os_flag.c **** */
1108:uCOS-III\Source/os_flag.c **** 
1109:uCOS-III\Source/os_flag.c **** OS_FLAGS  OS_FlagPost (OS_FLAG_GRP  *p_grp,
1110:uCOS-III\Source/os_flag.c ****                        OS_FLAGS      flags,
1111:uCOS-III\Source/os_flag.c ****                        OS_OPT        opt,
1112:uCOS-III\Source/os_flag.c ****                        CPU_TS        ts,
1113:uCOS-III\Source/os_flag.c ****                        OS_ERR       *p_err)
1114:uCOS-III\Source/os_flag.c **** {
1115:uCOS-III\Source/os_flag.c ****     OS_FLAGS        flags_cur;
1116:uCOS-III\Source/os_flag.c ****     OS_FLAGS        flags_rdy;
1117:uCOS-III\Source/os_flag.c ****     OS_OPT          mode;
1118:uCOS-III\Source/os_flag.c ****     OS_PEND_DATA   *p_pend_data;
1119:uCOS-III\Source/os_flag.c ****     OS_PEND_DATA   *p_pend_data_next;
1120:uCOS-III\Source/os_flag.c ****     OS_PEND_LIST   *p_pend_list;
1121:uCOS-III\Source/os_flag.c ****     OS_TCB         *p_tcb;
ARM GAS  C:\Users\jorti\AppData\Local\Temp\ccCX4ftZ.s 			page 50


1122:uCOS-III\Source/os_flag.c ****     CPU_SR_ALLOC();
1123:uCOS-III\Source/os_flag.c **** 
1124:uCOS-III\Source/os_flag.c **** 
1125:uCOS-III\Source/os_flag.c **** 
1126:uCOS-III\Source/os_flag.c ****     CPU_CRITICAL_ENTER();
1127:uCOS-III\Source/os_flag.c ****     switch (opt) {
1128:uCOS-III\Source/os_flag.c ****         case OS_OPT_POST_FLAG_SET:
1129:uCOS-III\Source/os_flag.c ****         case OS_OPT_POST_FLAG_SET | OS_OPT_POST_NO_SCHED:
1130:uCOS-III\Source/os_flag.c ****              p_grp->Flags |=  flags;                            /* Set   the flags specified in the
1131:uCOS-III\Source/os_flag.c ****              break;
1132:uCOS-III\Source/os_flag.c **** 
1133:uCOS-III\Source/os_flag.c ****         case OS_OPT_POST_FLAG_CLR:
1134:uCOS-III\Source/os_flag.c ****         case OS_OPT_POST_FLAG_CLR | OS_OPT_POST_NO_SCHED:
1135:uCOS-III\Source/os_flag.c ****              p_grp->Flags &= ~flags;                            /* Clear the flags specified in the
1136:uCOS-III\Source/os_flag.c ****              break;
1137:uCOS-III\Source/os_flag.c **** 
1138:uCOS-III\Source/os_flag.c ****         default:
1139:uCOS-III\Source/os_flag.c ****              CPU_CRITICAL_EXIT();                               /* INVALID option                  
1140:uCOS-III\Source/os_flag.c ****             *p_err = OS_ERR_OPT_INVALID;
1141:uCOS-III\Source/os_flag.c ****              return ((OS_FLAGS)0);
1142:uCOS-III\Source/os_flag.c ****     }
1143:uCOS-III\Source/os_flag.c ****     p_grp->TS   = ts;
1144:uCOS-III\Source/os_flag.c ****     p_pend_list = &p_grp->PendList;
1145:uCOS-III\Source/os_flag.c ****     if (p_pend_list->NbrEntries == 0u) {                        /* Any task waiting on event flag g
1146:uCOS-III\Source/os_flag.c ****         CPU_CRITICAL_EXIT();                                    /* No                              
1147:uCOS-III\Source/os_flag.c ****        *p_err = OS_ERR_NONE;
1148:uCOS-III\Source/os_flag.c ****         return (p_grp->Flags);
1149:uCOS-III\Source/os_flag.c ****     }
1150:uCOS-III\Source/os_flag.c **** 
1151:uCOS-III\Source/os_flag.c ****     OS_CRITICAL_ENTER_CPU_EXIT();
1152:uCOS-III\Source/os_flag.c ****     p_pend_data = p_pend_list->HeadPtr;
1153:uCOS-III\Source/os_flag.c ****     p_tcb       = p_pend_data->TCBPtr;
1154:uCOS-III\Source/os_flag.c ****     while (p_tcb != (OS_TCB *)0) {                              /* Go through all tasks waiting on 
1155:uCOS-III\Source/os_flag.c ****         p_pend_data_next = p_pend_data->NextPtr;
1156:uCOS-III\Source/os_flag.c ****         mode             = p_tcb->FlagsOpt & OS_OPT_PEND_FLAG_MASK;
1157:uCOS-III\Source/os_flag.c ****         switch (mode) {
1158:uCOS-III\Source/os_flag.c ****             case OS_OPT_PEND_FLAG_SET_ALL:                      /* See if all req. flags are set fo
1159:uCOS-III\Source/os_flag.c ****                  flags_rdy = (OS_FLAGS)(p_grp->Flags & p_tcb->FlagsPend);
1160:uCOS-III\Source/os_flag.c ****                  if (flags_rdy == p_tcb->FlagsPend) {
1161:uCOS-III\Source/os_flag.c ****                      OS_FlagTaskRdy(p_tcb,                      /* Make task RTR, event(s) Rx'd    
1162:uCOS-III\Source/os_flag.c ****                                     flags_rdy,
1163:uCOS-III\Source/os_flag.c ****                                     ts);
1164:uCOS-III\Source/os_flag.c ****                  }
1165:uCOS-III\Source/os_flag.c ****                  break;
1166:uCOS-III\Source/os_flag.c **** 
1167:uCOS-III\Source/os_flag.c ****             case OS_OPT_PEND_FLAG_SET_ANY:                      /* See if any flag set             
1168:uCOS-III\Source/os_flag.c ****                  flags_rdy = (OS_FLAGS)(p_grp->Flags & p_tcb->FlagsPend);
1169:uCOS-III\Source/os_flag.c ****                  if (flags_rdy != (OS_FLAGS)0) {
1170:uCOS-III\Source/os_flag.c ****                      OS_FlagTaskRdy(p_tcb,                      /* Make task RTR, event(s) Rx'd    
1171:uCOS-III\Source/os_flag.c ****                                     flags_rdy,
1172:uCOS-III\Source/os_flag.c ****                                     ts);
1173:uCOS-III\Source/os_flag.c ****                  }
1174:uCOS-III\Source/os_flag.c ****                  break;
1175:uCOS-III\Source/os_flag.c **** 
1176:uCOS-III\Source/os_flag.c **** #if OS_CFG_FLAG_MODE_CLR_EN > 0u
1177:uCOS-III\Source/os_flag.c ****             case OS_OPT_PEND_FLAG_CLR_ALL:                      /* See if all req. flags are set fo
1178:uCOS-III\Source/os_flag.c ****                  flags_rdy = (OS_FLAGS)(~p_grp->Flags & p_tcb->FlagsPend);
ARM GAS  C:\Users\jorti\AppData\Local\Temp\ccCX4ftZ.s 			page 51


1179:uCOS-III\Source/os_flag.c ****                  if (flags_rdy == p_tcb->FlagsPend) {
1180:uCOS-III\Source/os_flag.c ****                      OS_FlagTaskRdy(p_tcb,                      /* Make task RTR, event(s) Rx'd    
1181:uCOS-III\Source/os_flag.c ****                                     flags_rdy,
1182:uCOS-III\Source/os_flag.c ****                                     ts);
1183:uCOS-III\Source/os_flag.c ****                  }
1184:uCOS-III\Source/os_flag.c ****                  break;
1185:uCOS-III\Source/os_flag.c **** 
1186:uCOS-III\Source/os_flag.c ****             case OS_OPT_PEND_FLAG_CLR_ANY:                      /* See if any flag set             
1187:uCOS-III\Source/os_flag.c ****                  flags_rdy = (OS_FLAGS)(~p_grp->Flags & p_tcb->FlagsPend);
1188:uCOS-III\Source/os_flag.c ****                  if (flags_rdy != (OS_FLAGS)0) {
1189:uCOS-III\Source/os_flag.c ****                      OS_FlagTaskRdy(p_tcb,                      /* Make task RTR, event(s) Rx'd    
1190:uCOS-III\Source/os_flag.c ****                                     flags_rdy,
1191:uCOS-III\Source/os_flag.c ****                                     ts);
1192:uCOS-III\Source/os_flag.c ****                  }
1193:uCOS-III\Source/os_flag.c ****                  break;
1194:uCOS-III\Source/os_flag.c **** #endif
1195:uCOS-III\Source/os_flag.c ****             default:
1196:uCOS-III\Source/os_flag.c ****                  OS_CRITICAL_EXIT();
1197:uCOS-III\Source/os_flag.c ****                 *p_err = OS_ERR_FLAG_PEND_OPT;
1198:uCOS-III\Source/os_flag.c ****                  return ((OS_FLAGS)0);
1199:uCOS-III\Source/os_flag.c ****         }
1200:uCOS-III\Source/os_flag.c ****         p_pend_data = p_pend_data_next;                         /* Point to next task waiting for e
1201:uCOS-III\Source/os_flag.c ****         if (p_pend_data != (OS_PEND_DATA *)0) {
1202:uCOS-III\Source/os_flag.c ****             p_tcb = p_pend_data->TCBPtr;
1203:uCOS-III\Source/os_flag.c ****         } else {
1204:uCOS-III\Source/os_flag.c ****             p_tcb = (OS_TCB *)0;
1205:uCOS-III\Source/os_flag.c ****         }
1206:uCOS-III\Source/os_flag.c ****     }
1207:uCOS-III\Source/os_flag.c ****     OS_CRITICAL_EXIT_NO_SCHED();
1208:uCOS-III\Source/os_flag.c **** 
1209:uCOS-III\Source/os_flag.c ****     if ((opt & OS_OPT_POST_NO_SCHED) == (OS_OPT)0) {
1210:uCOS-III\Source/os_flag.c ****         OSSched();
1211:uCOS-III\Source/os_flag.c ****     }
1212:uCOS-III\Source/os_flag.c **** 
1213:uCOS-III\Source/os_flag.c ****     CPU_CRITICAL_ENTER();
1214:uCOS-III\Source/os_flag.c ****     flags_cur = p_grp->Flags;
1215:uCOS-III\Source/os_flag.c ****     CPU_CRITICAL_EXIT();
1216:uCOS-III\Source/os_flag.c ****    *p_err     = OS_ERR_NONE;
1217:uCOS-III\Source/os_flag.c ****     return (flags_cur);
1218:uCOS-III\Source/os_flag.c **** }
1219:uCOS-III\Source/os_flag.c **** 
1220:uCOS-III\Source/os_flag.c **** /*$PAGE*/
1221:uCOS-III\Source/os_flag.c **** /*
1222:uCOS-III\Source/os_flag.c **** ***************************************************************************************************
1223:uCOS-III\Source/os_flag.c **** *                                        MAKE TASK READY-TO-RUN, EVENT(s) OCCURRED
1224:uCOS-III\Source/os_flag.c **** *
1225:uCOS-III\Source/os_flag.c **** * Description: This function is internal to uC/OS-III and is used to make a task ready-to-run becau
1226:uCOS-III\Source/os_flag.c **** *              flag bits have been set.
1227:uCOS-III\Source/os_flag.c **** *
1228:uCOS-III\Source/os_flag.c **** * Arguments  : p_tcb         is a pointer to the OS_TCB of the task to remove
1229:uCOS-III\Source/os_flag.c **** *              -----
1230:uCOS-III\Source/os_flag.c **** *
1231:uCOS-III\Source/os_flag.c **** *              flags_rdy     contains the bit pattern of the event flags that cause the task to bec
1232:uCOS-III\Source/os_flag.c **** *
1233:uCOS-III\Source/os_flag.c **** *              ts            is a timestamp associated with the post
1234:uCOS-III\Source/os_flag.c **** *
1235:uCOS-III\Source/os_flag.c **** * Returns    : none
ARM GAS  C:\Users\jorti\AppData\Local\Temp\ccCX4ftZ.s 			page 52


1236:uCOS-III\Source/os_flag.c **** *
1237:uCOS-III\Source/os_flag.c **** * Note(s)    : This function is INTERNAL to uC/OS-III and your application should not call it.
1238:uCOS-III\Source/os_flag.c **** ***************************************************************************************************
1239:uCOS-III\Source/os_flag.c **** */
1240:uCOS-III\Source/os_flag.c **** 
1241:uCOS-III\Source/os_flag.c **** void   OS_FlagTaskRdy (OS_TCB    *p_tcb,
1242:uCOS-III\Source/os_flag.c ****                        OS_FLAGS   flags_rdy,
1243:uCOS-III\Source/os_flag.c ****                        CPU_TS     ts)
1244:uCOS-III\Source/os_flag.c **** {
 1467              		.loc 1 1244 0
 1468              		.cfi_startproc
 1469              		@ args = 0, pretend = 0, frame = 0
 1470              		@ frame_needed = 0, uses_anonymous_args = 0
 1471              	.LVL184:
 1472 0000 10B5     		push	{r4, lr}
 1473              		.cfi_def_cfa_offset 8
 1474              		.cfi_offset 4, -8
 1475              		.cfi_offset 14, -4
 1476 0002 0446     		mov	r4, r0
1245:uCOS-III\Source/os_flag.c ****     p_tcb->FlagsRdy   = flags_rdy;
 1477              		.loc 1 1245 0
 1478 0004 C0F88410 		str	r1, [r0, #132]
1246:uCOS-III\Source/os_flag.c ****     p_tcb->PendStatus = OS_STATUS_PEND_OK;                  /* Clear pend status                   
 1479              		.loc 1 1246 0
 1480 0008 0023     		movs	r3, #0
 1481 000a 80F83530 		strb	r3, [r0, #53]
1247:uCOS-III\Source/os_flag.c ****     p_tcb->PendOn     = OS_TASK_PEND_ON_NOTHING;            /* Indicate no longer pending          
 1482              		.loc 1 1247 0
 1483 000e 80F83430 		strb	r3, [r0, #52]
1248:uCOS-III\Source/os_flag.c ****     p_tcb->TS         = ts;
 1484              		.loc 1 1248 0
 1485 0012 0264     		str	r2, [r0, #64]
1249:uCOS-III\Source/os_flag.c ****     switch (p_tcb->TaskState) {
 1486              		.loc 1 1249 0
 1487 0014 90F83630 		ldrb	r3, [r0, #54]	@ zero_extendqisi2
 1488 0018 023B     		subs	r3, r3, #2
 1489 001a 052B     		cmp	r3, #5
 1490 001c 0DD8     		bhi	.L132
 1491 001e DFE803F0 		tbb	[pc, r3]
 1492              	.LVL185:
 1493              	.L134:
 1494 0022 03       		.byte	(.L133-.L134)/2
 1495 0023 03       		.byte	(.L133-.L134)/2
 1496 0024 0C       		.byte	(.L132-.L134)/2
 1497 0025 0C       		.byte	(.L132-.L134)/2
 1498 0026 09       		.byte	(.L135-.L134)/2
 1499 0027 09       		.byte	(.L135-.L134)/2
 1500              		.p2align 1
 1501              	.L133:
1250:uCOS-III\Source/os_flag.c ****         case OS_TASK_STATE_RDY:
1251:uCOS-III\Source/os_flag.c ****         case OS_TASK_STATE_DLY:
1252:uCOS-III\Source/os_flag.c ****         case OS_TASK_STATE_DLY_SUSPENDED:
1253:uCOS-III\Source/os_flag.c ****         case OS_TASK_STATE_SUSPENDED:
1254:uCOS-III\Source/os_flag.c ****              break;
1255:uCOS-III\Source/os_flag.c **** 
1256:uCOS-III\Source/os_flag.c ****         case OS_TASK_STATE_PEND:
1257:uCOS-III\Source/os_flag.c ****         case OS_TASK_STATE_PEND_TIMEOUT:
ARM GAS  C:\Users\jorti\AppData\Local\Temp\ccCX4ftZ.s 			page 53


1258:uCOS-III\Source/os_flag.c ****              OS_TaskRdy(p_tcb);
 1502              		.loc 1 1258 0
 1503 0028 FFF7FEFF 		bl	OS_TaskRdy
 1504              	.LVL186:
1259:uCOS-III\Source/os_flag.c ****              p_tcb->TaskState = OS_TASK_STATE_RDY;
 1505              		.loc 1 1259 0
 1506 002c 0023     		movs	r3, #0
 1507 002e 84F83630 		strb	r3, [r4, #54]
1260:uCOS-III\Source/os_flag.c ****              break;
 1508              		.loc 1 1260 0
 1509 0032 02E0     		b	.L132
 1510              	.LVL187:
 1511              	.L135:
1261:uCOS-III\Source/os_flag.c **** 
1262:uCOS-III\Source/os_flag.c ****         case OS_TASK_STATE_PEND_SUSPENDED:
1263:uCOS-III\Source/os_flag.c ****         case OS_TASK_STATE_PEND_TIMEOUT_SUSPENDED:
1264:uCOS-III\Source/os_flag.c ****              p_tcb->TaskState = OS_TASK_STATE_SUSPENDED;
 1512              		.loc 1 1264 0
 1513 0034 0423     		movs	r3, #4
 1514 0036 80F83630 		strb	r3, [r0, #54]
 1515              	.LVL188:
 1516              	.L132:
1265:uCOS-III\Source/os_flag.c ****              break;
1266:uCOS-III\Source/os_flag.c **** 
1267:uCOS-III\Source/os_flag.c ****         default:
1268:uCOS-III\Source/os_flag.c ****              break;
1269:uCOS-III\Source/os_flag.c ****     }
1270:uCOS-III\Source/os_flag.c ****     OS_PendListRemove(p_tcb);
 1517              		.loc 1 1270 0
 1518 003a 2046     		mov	r0, r4
 1519 003c FFF7FEFF 		bl	OS_PendListRemove
 1520              	.LVL189:
 1521 0040 10BD     		pop	{r4, pc}
 1522              		.cfi_endproc
 1523              	.LFE13:
 1524              		.size	OS_FlagTaskRdy, .-OS_FlagTaskRdy
 1525 0042 00BF     		.section	.text.OS_FlagPost,"ax",%progbits
 1526              		.align	2
 1527              		.global	OS_FlagPost
 1528              		.thumb
 1529              		.thumb_func
 1530              		.type	OS_FlagPost, %function
 1531              	OS_FlagPost:
 1532              	.LFB12:
1114:uCOS-III\Source/os_flag.c ****     OS_FLAGS        flags_cur;
 1533              		.loc 1 1114 0
 1534              		.cfi_startproc
 1535              		@ args = 4, pretend = 0, frame = 0
 1536              		@ frame_needed = 0, uses_anonymous_args = 0
 1537              	.LVL190:
 1538 0000 2DE9F041 		push	{r4, r5, r6, r7, r8, lr}
 1539              		.cfi_def_cfa_offset 24
 1540              		.cfi_offset 4, -24
 1541              		.cfi_offset 5, -20
 1542              		.cfi_offset 6, -16
 1543              		.cfi_offset 7, -12
 1544              		.cfi_offset 8, -8
ARM GAS  C:\Users\jorti\AppData\Local\Temp\ccCX4ftZ.s 			page 54


 1545              		.cfi_offset 14, -4
 1546 0004 0546     		mov	r5, r0
 1547 0006 0C46     		mov	r4, r1
 1548 0008 1646     		mov	r6, r2
 1549 000a 1F46     		mov	r7, r3
 1550              	.LVL191:
1126:uCOS-III\Source/os_flag.c ****     switch (opt) {
 1551              		.loc 1 1126 0
 1552 000c FFF7FEFF 		bl	CPU_SR_Save
 1553              	.LVL192:
 1554 0010 8046     		mov	r8, r0
 1555              	.LVL193:
1127:uCOS-III\Source/os_flag.c ****         case OS_OPT_POST_FLAG_SET:
 1556              		.loc 1 1127 0
 1557 0012 012E     		cmp	r6, #1
 1558 0014 0CD0     		beq	.L139
 1559 0016 3EB1     		cbz	r6, .L140
 1560 0018 B6F5004F 		cmp	r6, #32768
 1561 001c 04D0     		beq	.L140
 1562 001e 48F20103 		movw	r3, #32769
 1563 0022 9E42     		cmp	r6, r3
 1564 0024 09D1     		bne	.L156
 1565 0026 03E0     		b	.L139
 1566              	.L140:
1130:uCOS-III\Source/os_flag.c ****              break;
 1567              		.loc 1 1130 0
 1568 0028 2B6A     		ldr	r3, [r5, #32]
 1569 002a 1C43     		orrs	r4, r4, r3
 1570              	.LVL194:
 1571 002c 2C62     		str	r4, [r5, #32]
1131:uCOS-III\Source/os_flag.c **** 
 1572              		.loc 1 1131 0
 1573 002e 0DE0     		b	.L141
 1574              	.LVL195:
 1575              	.L139:
1135:uCOS-III\Source/os_flag.c ****              break;
 1576              		.loc 1 1135 0
 1577 0030 2B6A     		ldr	r3, [r5, #32]
 1578 0032 23EA0404 		bic	r4, r3, r4
 1579              	.LVL196:
 1580 0036 2C62     		str	r4, [r5, #32]
1136:uCOS-III\Source/os_flag.c **** 
 1581              		.loc 1 1136 0
 1582 0038 08E0     		b	.L141
 1583              	.LVL197:
 1584              	.L156:
1139:uCOS-III\Source/os_flag.c ****             *p_err = OS_ERR_OPT_INVALID;
 1585              		.loc 1 1139 0
 1586 003a FFF7FEFF 		bl	CPU_SR_Restore
 1587              	.LVL198:
1140:uCOS-III\Source/os_flag.c ****              return ((OS_FLAGS)0);
 1588              		.loc 1 1140 0
 1589 003e 45F62563 		movw	r3, #24101
 1590 0042 069A     		ldr	r2, [sp, #24]
 1591 0044 1380     		strh	r3, [r2]	@ movhi
1141:uCOS-III\Source/os_flag.c ****     }
 1592              		.loc 1 1141 0
ARM GAS  C:\Users\jorti\AppData\Local\Temp\ccCX4ftZ.s 			page 55


 1593 0046 0020     		movs	r0, #0
 1594 0048 BDE8F081 		pop	{r4, r5, r6, r7, r8, pc}
 1595              	.LVL199:
 1596              	.L141:
1143:uCOS-III\Source/os_flag.c ****     p_pend_list = &p_grp->PendList;
 1597              		.loc 1 1143 0
 1598 004c 6F62     		str	r7, [r5, #36]
 1599              	.LVL200:
1145:uCOS-III\Source/os_flag.c ****         CPU_CRITICAL_EXIT();                                    /* No                              
 1600              		.loc 1 1145 0
 1601 004e 2B8A     		ldrh	r3, [r5, #16]
 1602 0050 43B9     		cbnz	r3, .L143
1146:uCOS-III\Source/os_flag.c ****        *p_err = OS_ERR_NONE;
 1603              		.loc 1 1146 0
 1604 0052 4046     		mov	r0, r8
 1605              	.LVL201:
 1606 0054 FFF7FEFF 		bl	CPU_SR_Restore
 1607              	.LVL202:
1147:uCOS-III\Source/os_flag.c ****         return (p_grp->Flags);
 1608              		.loc 1 1147 0
 1609 0058 0023     		movs	r3, #0
 1610 005a 069A     		ldr	r2, [sp, #24]
 1611 005c 1380     		strh	r3, [r2]	@ movhi
1148:uCOS-III\Source/os_flag.c ****     }
 1612              		.loc 1 1148 0
 1613 005e 286A     		ldr	r0, [r5, #32]
 1614 0060 BDE8F081 		pop	{r4, r5, r6, r7, r8, pc}
 1615              	.LVL203:
 1616              	.L143:
1152:uCOS-III\Source/os_flag.c ****     p_tcb       = p_pend_data->TCBPtr;
 1617              		.loc 1 1152 0
 1618 0064 AC68     		ldr	r4, [r5, #8]
 1619              	.LVL204:
1153:uCOS-III\Source/os_flag.c ****     while (p_tcb != (OS_TCB *)0) {                              /* Go through all tasks waiting on 
 1620              		.loc 1 1153 0
 1621 0066 A068     		ldr	r0, [r4, #8]
 1622              	.LVL205:
1154:uCOS-III\Source/os_flag.c ****         p_pend_data_next = p_pend_data->NextPtr;
 1623              		.loc 1 1154 0
 1624 0068 43E0     		b	.L144
 1625              	.L153:
1155:uCOS-III\Source/os_flag.c ****         mode             = p_tcb->FlagsOpt & OS_OPT_PEND_FLAG_MASK;
 1626              		.loc 1 1155 0
 1627 006a 6468     		ldr	r4, [r4, #4]
 1628              	.LVL206:
1156:uCOS-III\Source/os_flag.c ****         switch (mode) {
 1629              		.loc 1 1156 0
 1630 006c B0F88830 		ldrh	r3, [r0, #136]
 1631 0070 03F00F03 		and	r3, r3, #15
 1632              	.LVL207:
1157:uCOS-III\Source/os_flag.c ****             case OS_OPT_PEND_FLAG_SET_ALL:                      /* See if all req. flags are set fo
 1633              		.loc 1 1157 0
 1634 0074 013B     		subs	r3, r3, #1
 1635              	.LVL208:
 1636 0076 072B     		cmp	r3, #7
 1637 0078 2DD8     		bhi	.L145
 1638 007a DFE803F0 		tbb	[pc, r3]
ARM GAS  C:\Users\jorti\AppData\Local\Temp\ccCX4ftZ.s 			page 56


 1639              	.L147:
 1640 007e 17       		.byte	(.L146-.L147)/2
 1641 007f 22       		.byte	(.L148-.L147)/2
 1642 0080 2C       		.byte	(.L145-.L147)/2
 1643 0081 04       		.byte	(.L149-.L147)/2
 1644 0082 2C       		.byte	(.L145-.L147)/2
 1645 0083 2C       		.byte	(.L145-.L147)/2
 1646 0084 2C       		.byte	(.L145-.L147)/2
 1647 0085 0E       		.byte	(.L150-.L147)/2
 1648              		.p2align 1
 1649              	.L149:
1159:uCOS-III\Source/os_flag.c ****                  if (flags_rdy == p_tcb->FlagsPend) {
 1650              		.loc 1 1159 0
 1651 0086 296A     		ldr	r1, [r5, #32]
 1652 0088 D0F88030 		ldr	r3, [r0, #128]
 1653              	.LVL209:
 1654 008c 1940     		ands	r1, r1, r3
 1655              	.LVL210:
1160:uCOS-III\Source/os_flag.c ****                      OS_FlagTaskRdy(p_tcb,                      /* Make task RTR, event(s) Rx'd    
 1656              		.loc 1 1160 0
 1657 008e 8B42     		cmp	r3, r1
 1658 0090 2BD1     		bne	.L151
1161:uCOS-III\Source/os_flag.c ****                                     flags_rdy,
 1659              		.loc 1 1161 0
 1660 0092 3A46     		mov	r2, r7
 1661 0094 FFF7FEFF 		bl	OS_FlagTaskRdy
 1662              	.LVL211:
 1663 0098 27E0     		b	.L151
 1664              	.LVL212:
 1665              	.L150:
1168:uCOS-III\Source/os_flag.c ****                  if (flags_rdy != (OS_FLAGS)0) {
 1666              		.loc 1 1168 0
 1667 009a 2B6A     		ldr	r3, [r5, #32]
 1668              	.LVL213:
 1669 009c D0F88010 		ldr	r1, [r0, #128]
 1670              	.LVL214:
1169:uCOS-III\Source/os_flag.c ****                      OS_FlagTaskRdy(p_tcb,                      /* Make task RTR, event(s) Rx'd    
 1671              		.loc 1 1169 0
 1672 00a0 1940     		ands	r1, r3, r1
 1673              	.LVL215:
 1674 00a2 22D0     		beq	.L151
1170:uCOS-III\Source/os_flag.c ****                                     flags_rdy,
 1675              		.loc 1 1170 0
 1676 00a4 3A46     		mov	r2, r7
 1677 00a6 FFF7FEFF 		bl	OS_FlagTaskRdy
 1678              	.LVL216:
 1679 00aa 1EE0     		b	.L151
 1680              	.LVL217:
 1681              	.L146:
1178:uCOS-III\Source/os_flag.c ****                  if (flags_rdy == p_tcb->FlagsPend) {
 1682              		.loc 1 1178 0
 1683 00ac 296A     		ldr	r1, [r5, #32]
 1684 00ae D0F88030 		ldr	r3, [r0, #128]
 1685              	.LVL218:
 1686 00b2 23EA0101 		bic	r1, r3, r1
 1687              	.LVL219:
1179:uCOS-III\Source/os_flag.c ****                      OS_FlagTaskRdy(p_tcb,                      /* Make task RTR, event(s) Rx'd    
ARM GAS  C:\Users\jorti\AppData\Local\Temp\ccCX4ftZ.s 			page 57


 1688              		.loc 1 1179 0
 1689 00b6 8B42     		cmp	r3, r1
 1690 00b8 17D1     		bne	.L151
1180:uCOS-III\Source/os_flag.c ****                                     flags_rdy,
 1691              		.loc 1 1180 0
 1692 00ba 3A46     		mov	r2, r7
 1693 00bc FFF7FEFF 		bl	OS_FlagTaskRdy
 1694              	.LVL220:
 1695 00c0 13E0     		b	.L151
 1696              	.LVL221:
 1697              	.L148:
1187:uCOS-III\Source/os_flag.c ****                  if (flags_rdy != (OS_FLAGS)0) {
 1698              		.loc 1 1187 0
 1699 00c2 296A     		ldr	r1, [r5, #32]
 1700 00c4 D0F88030 		ldr	r3, [r0, #128]
 1701              	.LVL222:
1188:uCOS-III\Source/os_flag.c ****                      OS_FlagTaskRdy(p_tcb,                      /* Make task RTR, event(s) Rx'd    
 1702              		.loc 1 1188 0
 1703 00c8 33EA0101 		bics	r1, r3, r1
 1704              	.LVL223:
 1705 00cc 0DD0     		beq	.L151
1189:uCOS-III\Source/os_flag.c ****                                     flags_rdy,
 1706              		.loc 1 1189 0
 1707 00ce 3A46     		mov	r2, r7
 1708 00d0 FFF7FEFF 		bl	OS_FlagTaskRdy
 1709              	.LVL224:
 1710 00d4 09E0     		b	.L151
 1711              	.LVL225:
 1712              	.L145:
1196:uCOS-III\Source/os_flag.c ****                 *p_err = OS_ERR_FLAG_PEND_OPT;
 1713              		.loc 1 1196 0
 1714 00d6 4046     		mov	r0, r8
 1715              	.LVL226:
 1716 00d8 FFF7FEFF 		bl	CPU_SR_Restore
 1717              	.LVL227:
1197:uCOS-III\Source/os_flag.c ****                  return ((OS_FLAGS)0);
 1718              		.loc 1 1197 0
 1719 00dc 43F6FF23 		movw	r3, #15103
 1720 00e0 069A     		ldr	r2, [sp, #24]
 1721 00e2 1380     		strh	r3, [r2]	@ movhi
1198:uCOS-III\Source/os_flag.c ****         }
 1722              		.loc 1 1198 0
 1723 00e4 0020     		movs	r0, #0
 1724 00e6 BDE8F081 		pop	{r4, r5, r6, r7, r8, pc}
 1725              	.LVL228:
 1726              	.L151:
1201:uCOS-III\Source/os_flag.c ****             p_tcb = p_pend_data->TCBPtr;
 1727              		.loc 1 1201 0
 1728 00ea 0CB1     		cbz	r4, .L155
1202:uCOS-III\Source/os_flag.c ****         } else {
 1729              		.loc 1 1202 0
 1730 00ec A068     		ldr	r0, [r4, #8]
 1731              	.LVL229:
 1732 00ee 00E0     		b	.L144
 1733              	.LVL230:
 1734              	.L155:
1204:uCOS-III\Source/os_flag.c ****         }
ARM GAS  C:\Users\jorti\AppData\Local\Temp\ccCX4ftZ.s 			page 58


 1735              		.loc 1 1204 0
 1736 00f0 0020     		movs	r0, #0
 1737              	.LVL231:
 1738              	.L144:
1154:uCOS-III\Source/os_flag.c ****         p_pend_data_next = p_pend_data->NextPtr;
 1739              		.loc 1 1154 0
 1740 00f2 0028     		cmp	r0, #0
 1741 00f4 B9D1     		bne	.L153
1207:uCOS-III\Source/os_flag.c **** 
 1742              		.loc 1 1207 0
 1743 00f6 4046     		mov	r0, r8
 1744              	.LVL232:
 1745 00f8 FFF7FEFF 		bl	CPU_SR_Restore
 1746              	.LVL233:
1209:uCOS-III\Source/os_flag.c ****         OSSched();
 1747              		.loc 1 1209 0
 1748 00fc 16F4004F 		tst	r6, #32768
 1749 0100 01D1     		bne	.L154
1210:uCOS-III\Source/os_flag.c ****     }
 1750              		.loc 1 1210 0
 1751 0102 FFF7FEFF 		bl	OSSched
 1752              	.LVL234:
 1753              	.L154:
1213:uCOS-III\Source/os_flag.c ****     flags_cur = p_grp->Flags;
 1754              		.loc 1 1213 0
 1755 0106 FFF7FEFF 		bl	CPU_SR_Save
 1756              	.LVL235:
1214:uCOS-III\Source/os_flag.c ****     CPU_CRITICAL_EXIT();
 1757              		.loc 1 1214 0
 1758 010a 2C6A     		ldr	r4, [r5, #32]
 1759              	.LVL236:
1215:uCOS-III\Source/os_flag.c ****    *p_err     = OS_ERR_NONE;
 1760              		.loc 1 1215 0
 1761 010c FFF7FEFF 		bl	CPU_SR_Restore
 1762              	.LVL237:
1216:uCOS-III\Source/os_flag.c ****     return (flags_cur);
 1763              		.loc 1 1216 0
 1764 0110 0023     		movs	r3, #0
 1765 0112 069A     		ldr	r2, [sp, #24]
 1766 0114 1380     		strh	r3, [r2]	@ movhi
1217:uCOS-III\Source/os_flag.c **** }
 1767              		.loc 1 1217 0
 1768 0116 2046     		mov	r0, r4
1218:uCOS-III\Source/os_flag.c **** 
 1769              		.loc 1 1218 0
 1770 0118 BDE8F081 		pop	{r4, r5, r6, r7, r8, pc}
 1771              		.cfi_endproc
 1772              	.LFE12:
 1773              		.size	OS_FlagPost, .-OS_FlagPost
 1774              		.section	.text.OSFlagPost,"ax",%progbits
 1775              		.align	2
 1776              		.global	OSFlagPost
 1777              		.thumb
 1778              		.thumb_func
 1779              		.type	OSFlagPost, %function
 1780              	OSFlagPost:
 1781              	.LFB6:
ARM GAS  C:\Users\jorti\AppData\Local\Temp\ccCX4ftZ.s 			page 59


 824:uCOS-III\Source/os_flag.c ****     OS_FLAGS  flags_cur;
 1782              		.loc 1 824 0
 1783              		.cfi_startproc
 1784              		@ args = 0, pretend = 0, frame = 0
 1785              		@ frame_needed = 0, uses_anonymous_args = 0
 1786              	.LVL238:
 838:uCOS-III\Source/os_flag.c ****        *p_err  = OS_ERR_OBJ_PTR_NULL;
 1787              		.loc 1 838 0
 1788 0000 18B9     		cbnz	r0, .L159
 839:uCOS-III\Source/os_flag.c ****         return ((OS_FLAGS)0);
 1789              		.loc 1 839 0
 1790 0002 45F6C352 		movw	r2, #24003
 1791              	.LVL239:
 1792 0006 1A80     		strh	r2, [r3]	@ movhi
 884:uCOS-III\Source/os_flag.c **** 
 1793              		.loc 1 884 0
 1794 0008 7047     		bx	lr
 1795              	.LVL240:
 1796              	.L159:
 824:uCOS-III\Source/os_flag.c ****     OS_FLAGS  flags_cur;
 1797              		.loc 1 824 0
 1798 000a F0B5     		push	{r4, r5, r6, r7, lr}
 1799              		.cfi_def_cfa_offset 20
 1800              		.cfi_offset 4, -20
 1801              		.cfi_offset 5, -16
 1802              		.cfi_offset 6, -12
 1803              		.cfi_offset 7, -8
 1804              		.cfi_offset 14, -4
 1805 000c 83B0     		sub	sp, sp, #12
 1806              		.cfi_def_cfa_offset 32
 1807 000e 0446     		mov	r4, r0
 842:uCOS-III\Source/os_flag.c ****         case OS_OPT_POST_FLAG_SET:
 1808              		.loc 1 842 0
 1809 0010 012A     		cmp	r2, #1
 1810 0012 08D9     		bls	.L162
 1811 0014 A2F50040 		sub	r0, r2, #32768
 1812              	.LVL241:
 1813 0018 0128     		cmp	r0, #1
 1814 001a 04D9     		bls	.L162
 850:uCOS-III\Source/os_flag.c ****              return ((OS_FLAGS)0);
 1815              		.loc 1 850 0
 1816 001c 45F62562 		movw	r2, #24101
 1817              	.LVL242:
 1818 0020 1A80     		strh	r2, [r3]	@ movhi
 851:uCOS-III\Source/os_flag.c ****     }
 1819              		.loc 1 851 0
 1820 0022 0020     		movs	r0, #0
 1821 0024 0CE0     		b	.L160
 1822              	.LVL243:
 1823              	.L162:
 1824 0026 2646     		mov	r6, r4
 1825 0028 1D46     		mov	r5, r3
 1826 002a 1446     		mov	r4, r2
 1827              	.LVL244:
 1828 002c 0F46     		mov	r7, r1
 862:uCOS-III\Source/os_flag.c **** #if OS_CFG_ISR_POST_DEFERRED_EN > 0u
 1829              		.loc 1 862 0
ARM GAS  C:\Users\jorti\AppData\Local\Temp\ccCX4ftZ.s 			page 60


 1830 002e FFF7FEFF 		bl	CPU_TS_TmrRd
 1831              	.LVL245:
 877:uCOS-III\Source/os_flag.c ****                             flags,
 1832              		.loc 1 877 0
 1833 0032 0095     		str	r5, [sp]
 1834 0034 0346     		mov	r3, r0
 1835 0036 2246     		mov	r2, r4
 1836 0038 3946     		mov	r1, r7
 1837 003a 3046     		mov	r0, r6
 1838              	.LVL246:
 1839 003c FFF7FEFF 		bl	OS_FlagPost
 1840              	.LVL247:
 1841              	.L160:
 884:uCOS-III\Source/os_flag.c **** 
 1842              		.loc 1 884 0
 1843 0040 03B0     		add	sp, sp, #12
 1844              		.cfi_def_cfa_offset 20
 1845              		@ sp needed
 1846 0042 F0BD     		pop	{r4, r5, r6, r7, pc}
 1847              		.cfi_endproc
 1848              	.LFE6:
 1849              		.size	OSFlagPost, .-OSFlagPost
 1850              		.section	.rodata.str1.4,"aMS",%progbits,1
 1851              		.align	2
 1852              	.LC0:
 1853 0000 3F464C41 		.ascii	"?FLAG\000"
 1853      4700
 1854 0006 0000     		.space	2
 1855              	.LC1:
 1856 0008 2000     		.ascii	" \000"
 1857              		.text
 1858              	.Letext0:
 1859              		.file 2 ".\\uC-CPU\\ARM-Cortex-M3\\GNU/cpu.h"
 1860              		.file 3 ".\\uC-CPU/cpu_core.h"
 1861              		.file 4 ".\\uCOS-III\\Source/os_type.h"
 1862              		.file 5 ".\\uCOS-III\\Source/os.h"