ARM GAS  C:\Users\jorti\AppData\Local\Temp\ccCX4ftZ.s 			page 1


   1              		.syntax unified
   2              		.cpu cortex-m3
   3              		.fpu softvfp
   4              		.eabi_attribute 20, 1
   5              		.eabi_attribute 21, 1
   6              		.eabi_attribute 23, 3
   7              		.eabi_attribute 24, 1
   8              		.eabi_attribute 25, 1
   9              		.eabi_attribute 26, 1
  10              		.eabi_attribute 30, 1
  11              		.eabi_attribute 34, 1
  12              		.eabi_attribute 18, 4
  13              		.thumb
  14              		.syntax unified
  15              		.file	"os_flag.c"
  16              		.text
  17              	.Ltext0:
  18              		.cfi_sections	.debug_frame
  19              		.section	.text.OSFlagPendAbort,"ax",%progbits
  20              		.align	2
  21              		.global	OSFlagPendAbort
  22              		.thumb
  23              		.thumb_func
  24              		.type	OSFlagPendAbort, %function
  25              	OSFlagPendAbort:
  26              	.LFB4:
  27              		.file 1 "uCOS-III\\Source\\os_flag.c"
   1:uCOS-III\Source/os_flag.c **** /*
   2:uCOS-III\Source/os_flag.c **** ***************************************************************************************************
   3:uCOS-III\Source/os_flag.c **** *                                                      uC/OS-III
   4:uCOS-III\Source/os_flag.c **** *                                                 The Real-Time Kernel
   5:uCOS-III\Source/os_flag.c **** *
   6:uCOS-III\Source/os_flag.c **** *                                  (c) Copyright 2009-2012; Micrium, Inc.; Weston, FL
   7:uCOS-III\Source/os_flag.c **** *                           All rights reserved.  Protected by international copyright laws.
   8:uCOS-III\Source/os_flag.c **** *
   9:uCOS-III\Source/os_flag.c **** *                                                EVENT FLAG MANAGEMENT
  10:uCOS-III\Source/os_flag.c **** *
  11:uCOS-III\Source/os_flag.c **** * File    : OS_FLAG.C
  12:uCOS-III\Source/os_flag.c **** * By      : JJL
  13:uCOS-III\Source/os_flag.c **** * Version : V3.03.01
  14:uCOS-III\Source/os_flag.c **** *
  15:uCOS-III\Source/os_flag.c **** * LICENSING TERMS:
  16:uCOS-III\Source/os_flag.c **** * ---------------
  17:uCOS-III\Source/os_flag.c **** *           uC/OS-III is provided in source form for FREE short-term evaluation, for educational us
  18:uCOS-III\Source/os_flag.c **** *           for peaceful research.  If you plan or intend to use uC/OS-III in a commercial applicat
  19:uCOS-III\Source/os_flag.c **** *           product then, you need to contact Micrium to properly license uC/OS-III for its use in 
  20:uCOS-III\Source/os_flag.c **** *           application/product.   We provide ALL the source code for your convenience and to help 
  21:uCOS-III\Source/os_flag.c **** *           experience uC/OS-III.  The fact that the source is provided does NOT mean that you can 
  22:uCOS-III\Source/os_flag.c **** *           it commercially without paying a licensing fee.
  23:uCOS-III\Source/os_flag.c **** *
  24:uCOS-III\Source/os_flag.c **** *           Knowledge of the source code may NOT be used to develop a similar product.
  25:uCOS-III\Source/os_flag.c **** *
  26:uCOS-III\Source/os_flag.c **** *           Please help us continue to provide the embedded community with the finest software avai
  27:uCOS-III\Source/os_flag.c **** *           Your honesty is greatly appreciated.
  28:uCOS-III\Source/os_flag.c **** *
  29:uCOS-III\Source/os_flag.c **** *           You can contact us at www.micrium.com, or by phone at +1 (954) 217-2036.
  30:uCOS-III\Source/os_flag.c **** ***************************************************************************************************
ARM GAS  C:\Users\jorti\AppData\Local\Temp\ccCX4ftZ.s 			page 2


  31:uCOS-III\Source/os_flag.c **** */
  32:uCOS-III\Source/os_flag.c **** 
  33:uCOS-III\Source/os_flag.c **** #define  MICRIUM_SOURCE
  34:uCOS-III\Source/os_flag.c **** #include <os.h>
  35:uCOS-III\Source/os_flag.c **** 
  36:uCOS-III\Source/os_flag.c **** #ifdef VSC_INCLUDE_SOURCE_FILE_NAMES
  37:uCOS-III\Source/os_flag.c **** const  CPU_CHAR  *os_flag__c = "$Id: $";
  38:uCOS-III\Source/os_flag.c **** #endif
  39:uCOS-III\Source/os_flag.c **** 
  40:uCOS-III\Source/os_flag.c **** 
  41:uCOS-III\Source/os_flag.c **** #if OS_CFG_FLAG_EN > 0u
  42:uCOS-III\Source/os_flag.c **** 
  43:uCOS-III\Source/os_flag.c **** /*$PAGE*/
  44:uCOS-III\Source/os_flag.c **** /*
  45:uCOS-III\Source/os_flag.c **** ***************************************************************************************************
  46:uCOS-III\Source/os_flag.c **** *                                                 CREATE AN EVENT FLAG
  47:uCOS-III\Source/os_flag.c **** *
  48:uCOS-III\Source/os_flag.c **** * Description: This function is called to create an event flag group.
  49:uCOS-III\Source/os_flag.c **** *
  50:uCOS-III\Source/os_flag.c **** * Arguments  : p_grp          is a pointer to the event flag group to create
  51:uCOS-III\Source/os_flag.c **** *
  52:uCOS-III\Source/os_flag.c **** *              p_name         is the name of the event flag group
  53:uCOS-III\Source/os_flag.c **** *
  54:uCOS-III\Source/os_flag.c **** *              flags          contains the initial value to store in the event flag group (typicall
  55:uCOS-III\Source/os_flag.c **** *
  56:uCOS-III\Source/os_flag.c **** *              p_err          is a pointer to an error code which will be returned to your applicat
  57:uCOS-III\Source/os_flag.c **** *
  58:uCOS-III\Source/os_flag.c **** *                                 OS_ERR_NONE                    if the call was successful.
  59:uCOS-III\Source/os_flag.c **** *                                 OS_ERR_CREATE_ISR              if you attempted to create an Even
  60:uCOS-III\Source/os_flag.c **** *                                 OS_ERR_ILLEGAL_CREATE_RUN_TIME if you are trying to create the Ev
  61:uCOS-III\Source/os_flag.c **** *                                                                   called OSSafetyCriticalStart().
  62:uCOS-III\Source/os_flag.c **** *                                 OS_ERR_NAME                    if 'p_name' is a NULL pointer
  63:uCOS-III\Source/os_flag.c **** *                                 OS_ERR_OBJ_CREATED             if the event flag group has alread
  64:uCOS-III\Source/os_flag.c **** *                                 OS_ERR_OBJ_PTR_NULL            if 'p_grp' is a NULL pointer
  65:uCOS-III\Source/os_flag.c **** *
  66:uCOS-III\Source/os_flag.c **** * Returns    : none
  67:uCOS-III\Source/os_flag.c **** ***************************************************************************************************
  68:uCOS-III\Source/os_flag.c **** */
  69:uCOS-III\Source/os_flag.c **** 
  70:uCOS-III\Source/os_flag.c **** void  OSFlagCreate (OS_FLAG_GRP  *p_grp,
  71:uCOS-III\Source/os_flag.c ****                     CPU_CHAR     *p_name,
  72:uCOS-III\Source/os_flag.c ****                     OS_FLAGS      flags,
  73:uCOS-III\Source/os_flag.c ****                     OS_ERR       *p_err)
  74:uCOS-III\Source/os_flag.c **** {
  75:uCOS-III\Source/os_flag.c ****     CPU_SR_ALLOC();
  76:uCOS-III\Source/os_flag.c **** 
  77:uCOS-III\Source/os_flag.c **** 
  78:uCOS-III\Source/os_flag.c **** 
  79:uCOS-III\Source/os_flag.c **** #ifdef OS_SAFETY_CRITICAL
  80:uCOS-III\Source/os_flag.c ****     if (p_err == (OS_ERR *)0) {
  81:uCOS-III\Source/os_flag.c ****         OS_SAFETY_CRITICAL_EXCEPTION();
  82:uCOS-III\Source/os_flag.c ****         return;
  83:uCOS-III\Source/os_flag.c ****     }
  84:uCOS-III\Source/os_flag.c **** #endif
  85:uCOS-III\Source/os_flag.c **** 
  86:uCOS-III\Source/os_flag.c **** #ifdef OS_SAFETY_CRITICAL_IEC61508
  87:uCOS-III\Source/os_flag.c ****     if (OSSafetyCriticalStartFlag == DEF_TRUE) {
ARM GAS  C:\Users\jorti\AppData\Local\Temp\ccCX4ftZ.s 			page 3


  88:uCOS-III\Source/os_flag.c ****        *p_err = OS_ERR_ILLEGAL_CREATE_RUN_TIME;
  89:uCOS-III\Source/os_flag.c ****         return;
  90:uCOS-III\Source/os_flag.c ****     }
  91:uCOS-III\Source/os_flag.c **** #endif
  92:uCOS-III\Source/os_flag.c **** 
  93:uCOS-III\Source/os_flag.c **** #if OS_CFG_CALLED_FROM_ISR_CHK_EN > 0u
  94:uCOS-III\Source/os_flag.c ****     if (OSIntNestingCtr > (OS_NESTING_CTR)0) {              /* See if called from ISR ...          
  95:uCOS-III\Source/os_flag.c ****        *p_err = OS_ERR_CREATE_ISR;                          /* ... can't CREATE from an ISR        
  96:uCOS-III\Source/os_flag.c ****         return;
  97:uCOS-III\Source/os_flag.c ****     }
  98:uCOS-III\Source/os_flag.c **** #endif
  99:uCOS-III\Source/os_flag.c **** 
 100:uCOS-III\Source/os_flag.c **** #if OS_CFG_ARG_CHK_EN > 0u
 101:uCOS-III\Source/os_flag.c ****     if (p_grp == (OS_FLAG_GRP *)0) {                        /* Validate 'p_grp'                    
 102:uCOS-III\Source/os_flag.c ****        *p_err = OS_ERR_OBJ_PTR_NULL;
 103:uCOS-III\Source/os_flag.c ****         return;
 104:uCOS-III\Source/os_flag.c ****     }
 105:uCOS-III\Source/os_flag.c **** #endif
 106:uCOS-III\Source/os_flag.c **** 
 107:uCOS-III\Source/os_flag.c ****     OS_CRITICAL_ENTER();
 108:uCOS-III\Source/os_flag.c ****     p_grp->Type    = OS_OBJ_TYPE_FLAG;                      /* Set to event flag group type        
 109:uCOS-III\Source/os_flag.c ****     p_grp->NamePtr = p_name;
 110:uCOS-III\Source/os_flag.c ****     p_grp->Flags   = flags;                                 /* Set to desired initial value        
 111:uCOS-III\Source/os_flag.c ****     p_grp->TS      = (CPU_TS)0;
 112:uCOS-III\Source/os_flag.c ****     OS_PendListInit(&p_grp->PendList);
 113:uCOS-III\Source/os_flag.c **** 
 114:uCOS-III\Source/os_flag.c **** #if OS_CFG_DBG_EN > 0u
 115:uCOS-III\Source/os_flag.c ****     OS_FlagDbgListAdd(p_grp);
 116:uCOS-III\Source/os_flag.c **** #endif
 117:uCOS-III\Source/os_flag.c ****     OSFlagQty++;
 118:uCOS-III\Source/os_flag.c **** 
 119:uCOS-III\Source/os_flag.c ****     OS_CRITICAL_EXIT_NO_SCHED();
 120:uCOS-III\Source/os_flag.c ****    *p_err = OS_ERR_NONE;
 121:uCOS-III\Source/os_flag.c **** }
 122:uCOS-III\Source/os_flag.c **** 
 123:uCOS-III\Source/os_flag.c **** /*$PAGE*/
 124:uCOS-III\Source/os_flag.c **** /*
 125:uCOS-III\Source/os_flag.c **** ***************************************************************************************************
 126:uCOS-III\Source/os_flag.c **** *                                             DELETE AN EVENT FLAG GROUP
 127:uCOS-III\Source/os_flag.c **** *
 128:uCOS-III\Source/os_flag.c **** * Description: This function deletes an event flag group and readies all tasks pending on the event
 129:uCOS-III\Source/os_flag.c **** *
 130:uCOS-III\Source/os_flag.c **** * Arguments  : p_grp     is a pointer to the desired event flag group.
 131:uCOS-III\Source/os_flag.c **** *
 132:uCOS-III\Source/os_flag.c **** *              opt       determines delete options as follows:
 133:uCOS-III\Source/os_flag.c **** *
 134:uCOS-III\Source/os_flag.c **** *                            OS_OPT_DEL_NO_PEND           Deletes the event flag group ONLY if no t
 135:uCOS-III\Source/os_flag.c **** *                            OS_OPT_DEL_ALWAYS            Deletes the event flag group even if task
 136:uCOS-III\Source/os_flag.c **** *                                                         In this case, all the tasks pending will 
 137:uCOS-III\Source/os_flag.c **** *
 138:uCOS-III\Source/os_flag.c **** *              p_err     is a pointer to an error code that can contain one of the following values
 139:uCOS-III\Source/os_flag.c **** *
 140:uCOS-III\Source/os_flag.c **** *                            OS_ERR_NONE                  The call was successful and the event fla
 141:uCOS-III\Source/os_flag.c **** *                            OS_ERR_DEL_ISR               If you attempted to delete the event flag
 142:uCOS-III\Source/os_flag.c **** *                            OS_ERR_OBJ_PTR_NULL          If 'p_grp' is a NULL pointer.
 143:uCOS-III\Source/os_flag.c **** *                            OS_ERR_OBJ_TYPE              If you didn't pass a pointer to an event 
 144:uCOS-III\Source/os_flag.c **** *                            OS_ERR_OPT_INVALID           An invalid option was specified
ARM GAS  C:\Users\jorti\AppData\Local\Temp\ccCX4ftZ.s 			page 4


 145:uCOS-III\Source/os_flag.c **** *                            OS_ERR_TASK_WAITING          One or more tasks were waiting on the eve
 146:uCOS-III\Source/os_flag.c **** *
 147:uCOS-III\Source/os_flag.c **** * Returns    : == 0          if no tasks were waiting on the event flag group, or upon error.
 148:uCOS-III\Source/os_flag.c **** *              >  0          if one or more tasks waiting on the event flag group are now readied a
 149:uCOS-III\Source/os_flag.c **** *
 150:uCOS-III\Source/os_flag.c **** * Note(s)    : 1) This function must be used with care.  Tasks that would normally expect the prese
 151:uCOS-III\Source/os_flag.c **** *                 group MUST check the return code of OSFlagPost and OSFlagPend().
 152:uCOS-III\Source/os_flag.c **** ***************************************************************************************************
 153:uCOS-III\Source/os_flag.c **** */
 154:uCOS-III\Source/os_flag.c **** 
 155:uCOS-III\Source/os_flag.c **** #if OS_CFG_FLAG_DEL_EN > 0u
 156:uCOS-III\Source/os_flag.c **** OS_OBJ_QTY  OSFlagDel (OS_FLAG_GRP  *p_grp,
 157:uCOS-III\Source/os_flag.c ****                        OS_OPT        opt,
 158:uCOS-III\Source/os_flag.c ****                        OS_ERR       *p_err)
 159:uCOS-III\Source/os_flag.c **** {
 160:uCOS-III\Source/os_flag.c ****     OS_OBJ_QTY        cnt;
 161:uCOS-III\Source/os_flag.c ****     OS_OBJ_QTY        nbr_tasks;
 162:uCOS-III\Source/os_flag.c ****     OS_PEND_DATA     *p_pend_data;
 163:uCOS-III\Source/os_flag.c ****     OS_PEND_LIST     *p_pend_list;
 164:uCOS-III\Source/os_flag.c ****     OS_TCB           *p_tcb;
 165:uCOS-III\Source/os_flag.c ****     CPU_TS            ts;
 166:uCOS-III\Source/os_flag.c ****     CPU_SR_ALLOC();
 167:uCOS-III\Source/os_flag.c **** 
 168:uCOS-III\Source/os_flag.c **** 
 169:uCOS-III\Source/os_flag.c **** 
 170:uCOS-III\Source/os_flag.c **** #ifdef OS_SAFETY_CRITICAL
 171:uCOS-III\Source/os_flag.c ****     if (p_err == (OS_ERR *)0) {
 172:uCOS-III\Source/os_flag.c ****         OS_SAFETY_CRITICAL_EXCEPTION();
 173:uCOS-III\Source/os_flag.c ****         return ((OS_OBJ_QTY)0);
 174:uCOS-III\Source/os_flag.c ****     }
 175:uCOS-III\Source/os_flag.c **** #endif
 176:uCOS-III\Source/os_flag.c **** 
 177:uCOS-III\Source/os_flag.c **** #if OS_CFG_CALLED_FROM_ISR_CHK_EN > 0u
 178:uCOS-III\Source/os_flag.c ****     if (OSIntNestingCtr > (OS_NESTING_CTR)0) {              /* See if called from ISR ...          
 179:uCOS-III\Source/os_flag.c ****        *p_err = OS_ERR_DEL_ISR;                             /* ... can't DELETE from an ISR        
 180:uCOS-III\Source/os_flag.c ****         return ((OS_OBJ_QTY)0);
 181:uCOS-III\Source/os_flag.c ****     }
 182:uCOS-III\Source/os_flag.c **** #endif
 183:uCOS-III\Source/os_flag.c **** 
 184:uCOS-III\Source/os_flag.c **** #if OS_CFG_ARG_CHK_EN > 0u
 185:uCOS-III\Source/os_flag.c ****     if (p_grp == (OS_FLAG_GRP *)0) {                        /* Validate 'p_grp'                    
 186:uCOS-III\Source/os_flag.c ****        *p_err  = OS_ERR_OBJ_PTR_NULL;
 187:uCOS-III\Source/os_flag.c ****         return ((OS_OBJ_QTY)0);
 188:uCOS-III\Source/os_flag.c ****     }
 189:uCOS-III\Source/os_flag.c ****     switch (opt) {                                          /* Validate 'opt'                      
 190:uCOS-III\Source/os_flag.c ****         case OS_OPT_DEL_NO_PEND:
 191:uCOS-III\Source/os_flag.c ****         case OS_OPT_DEL_ALWAYS:
 192:uCOS-III\Source/os_flag.c ****              break;
 193:uCOS-III\Source/os_flag.c **** 
 194:uCOS-III\Source/os_flag.c ****         default:
 195:uCOS-III\Source/os_flag.c ****             *p_err = OS_ERR_OPT_INVALID;
 196:uCOS-III\Source/os_flag.c ****              return ((OS_OBJ_QTY)0);
 197:uCOS-III\Source/os_flag.c ****     }
 198:uCOS-III\Source/os_flag.c **** #endif
 199:uCOS-III\Source/os_flag.c **** 
 200:uCOS-III\Source/os_flag.c **** #if OS_CFG_OBJ_TYPE_CHK_EN > 0u
 201:uCOS-III\Source/os_flag.c ****     if (p_grp->Type != OS_OBJ_TYPE_FLAG) {                  /* Validate event group object         
ARM GAS  C:\Users\jorti\AppData\Local\Temp\ccCX4ftZ.s 			page 5


 202:uCOS-III\Source/os_flag.c ****        *p_err = OS_ERR_OBJ_TYPE;
 203:uCOS-III\Source/os_flag.c ****         return ((OS_OBJ_QTY)0);
 204:uCOS-III\Source/os_flag.c ****     }
 205:uCOS-III\Source/os_flag.c **** #endif
 206:uCOS-III\Source/os_flag.c ****     OS_CRITICAL_ENTER();
 207:uCOS-III\Source/os_flag.c ****     p_pend_list = &p_grp->PendList;
 208:uCOS-III\Source/os_flag.c ****     cnt         = p_pend_list->NbrEntries;
 209:uCOS-III\Source/os_flag.c ****     nbr_tasks   = cnt;
 210:uCOS-III\Source/os_flag.c ****     switch (opt) {
 211:uCOS-III\Source/os_flag.c ****         case OS_OPT_DEL_NO_PEND:                            /* Delete group if no task waiting     
 212:uCOS-III\Source/os_flag.c ****              if (nbr_tasks == (OS_OBJ_QTY)0) {
 213:uCOS-III\Source/os_flag.c **** #if OS_CFG_DBG_EN > 0u
 214:uCOS-III\Source/os_flag.c ****                  OS_FlagDbgListRemove(p_grp);
 215:uCOS-III\Source/os_flag.c **** #endif
 216:uCOS-III\Source/os_flag.c ****                  OSFlagQty--;
 217:uCOS-III\Source/os_flag.c ****                  OS_FlagClr(p_grp);
 218:uCOS-III\Source/os_flag.c **** 
 219:uCOS-III\Source/os_flag.c ****                  OS_CRITICAL_EXIT();
 220:uCOS-III\Source/os_flag.c ****                 *p_err = OS_ERR_NONE;
 221:uCOS-III\Source/os_flag.c ****              } else {
 222:uCOS-III\Source/os_flag.c ****                  OS_CRITICAL_EXIT();
 223:uCOS-III\Source/os_flag.c ****                 *p_err = OS_ERR_TASK_WAITING;
 224:uCOS-III\Source/os_flag.c ****              }
 225:uCOS-III\Source/os_flag.c ****              break;
 226:uCOS-III\Source/os_flag.c **** 
 227:uCOS-III\Source/os_flag.c ****         case OS_OPT_DEL_ALWAYS:                             /* Always delete the event flag group  
 228:uCOS-III\Source/os_flag.c ****              ts = OS_TS_GET();                              /* Get local time stamp so all tasks ge
 229:uCOS-III\Source/os_flag.c ****              while (cnt > 0u) {                             /* Remove all tasks from the pend list 
 230:uCOS-III\Source/os_flag.c ****                  p_pend_data = p_pend_list->HeadPtr;
 231:uCOS-III\Source/os_flag.c ****                  p_tcb       = p_pend_data->TCBPtr;
 232:uCOS-III\Source/os_flag.c ****                  OS_PendObjDel((OS_PEND_OBJ *)((void *)p_grp),
 233:uCOS-III\Source/os_flag.c ****                                p_tcb,
 234:uCOS-III\Source/os_flag.c ****                                ts);
 235:uCOS-III\Source/os_flag.c ****                  cnt--;
 236:uCOS-III\Source/os_flag.c ****              }
 237:uCOS-III\Source/os_flag.c **** #if OS_CFG_DBG_EN > 0u
 238:uCOS-III\Source/os_flag.c ****              OS_FlagDbgListRemove(p_grp);
 239:uCOS-III\Source/os_flag.c **** #endif
 240:uCOS-III\Source/os_flag.c ****              OSFlagQty--;
 241:uCOS-III\Source/os_flag.c ****              OS_FlagClr(p_grp);
 242:uCOS-III\Source/os_flag.c ****              OS_CRITICAL_EXIT_NO_SCHED();
 243:uCOS-III\Source/os_flag.c ****              OSSched();                                     /* Find highest priority task ready to 
 244:uCOS-III\Source/os_flag.c ****             *p_err = OS_ERR_NONE;
 245:uCOS-III\Source/os_flag.c ****              break;
 246:uCOS-III\Source/os_flag.c **** 
 247:uCOS-III\Source/os_flag.c ****         default:
 248:uCOS-III\Source/os_flag.c ****              OS_CRITICAL_EXIT();
 249:uCOS-III\Source/os_flag.c ****             *p_err = OS_ERR_OPT_INVALID;
 250:uCOS-III\Source/os_flag.c ****              break;
 251:uCOS-III\Source/os_flag.c ****     }
 252:uCOS-III\Source/os_flag.c ****     return (nbr_tasks);
 253:uCOS-III\Source/os_flag.c **** }
 254:uCOS-III\Source/os_flag.c **** #endif
 255:uCOS-III\Source/os_flag.c **** 
 256:uCOS-III\Source/os_flag.c **** /*
 257:uCOS-III\Source/os_flag.c **** ***************************************************************************************************
 258:uCOS-III\Source/os_flag.c **** *                                             WAIT ON AN EVENT FLAG GROUP
ARM GAS  C:\Users\jorti\AppData\Local\Temp\ccCX4ftZ.s 			page 6


 259:uCOS-III\Source/os_flag.c **** *
 260:uCOS-III\Source/os_flag.c **** * Description: This function is called to wait for a combination of bits to be set in an event flag
 261:uCOS-III\Source/os_flag.c **** *              application can wait for ANY bit to be set or ALL bits to be set.
 262:uCOS-III\Source/os_flag.c **** *
 263:uCOS-III\Source/os_flag.c **** * Arguments  : p_grp         is a pointer to the desired event flag group.
 264:uCOS-III\Source/os_flag.c **** *
 265:uCOS-III\Source/os_flag.c **** *              flags         Is a bit pattern indicating which bit(s) (i.e. flags) you wish to wait
 266:uCOS-III\Source/os_flag.c **** *                            The bits you want are specified by setting the corresponding bits in '
 267:uCOS-III\Source/os_flag.c **** *                            e.g. if your application wants to wait for bits 0 and 1 then 'flags' w
 268:uCOS-III\Source/os_flag.c **** *
 269:uCOS-III\Source/os_flag.c **** *              timeout       is an optional timeout (in clock ticks) that your task will wait for t
 270:uCOS-III\Source/os_flag.c **** *                            desired bit combination.  If you specify 0, however, your task will wa
 271:uCOS-III\Source/os_flag.c **** *                            forever at the specified event flag group or, until a message arrives.
 272:uCOS-III\Source/os_flag.c **** *
 273:uCOS-III\Source/os_flag.c **** *              opt           specifies whether you want ALL bits to be set or ANY of the bits to be
 274:uCOS-III\Source/os_flag.c **** *                            You can specify the 'ONE' of the following arguments:
 275:uCOS-III\Source/os_flag.c **** *
 276:uCOS-III\Source/os_flag.c **** *                                OS_OPT_PEND_FLAG_CLR_ALL   You will wait for ALL bits in 'flags' t
 277:uCOS-III\Source/os_flag.c **** *                                OS_OPT_PEND_FLAG_CLR_ANY   You will wait for ANY bit  in 'flags' t
 278:uCOS-III\Source/os_flag.c **** *                                OS_OPT_PEND_FLAG_SET_ALL   You will wait for ALL bits in 'flags' t
 279:uCOS-III\Source/os_flag.c **** *                                OS_OPT_PEND_FLAG_SET_ANY   You will wait for ANY bit  in 'flags' t
 280:uCOS-III\Source/os_flag.c **** *
 281:uCOS-III\Source/os_flag.c **** *                            You can 'ADD' OS_OPT_PEND_FLAG_CONSUME if you want the event flag to b
 282:uCOS-III\Source/os_flag.c **** *                                      the call.  Example, to wait for any flag in a group AND then
 283:uCOS-III\Source/os_flag.c **** *                                      the flags that are present, set 'wait_opt' to:
 284:uCOS-III\Source/os_flag.c **** *
 285:uCOS-III\Source/os_flag.c **** *                                      OS_OPT_PEND_FLAG_SET_ANY + OS_OPT_PEND_FLAG_CONSUME
 286:uCOS-III\Source/os_flag.c **** *
 287:uCOS-III\Source/os_flag.c **** *                            You can also 'ADD' the type of pend with 'ONE' of the two option:
 288:uCOS-III\Source/os_flag.c **** *
 289:uCOS-III\Source/os_flag.c **** *                                OS_OPT_PEND_NON_BLOCKING   Task will NOT block if flags are not av
 290:uCOS-III\Source/os_flag.c **** *                                OS_OPT_PEND_BLOCKING       Task will     block if flags are not av
 291:uCOS-III\Source/os_flag.c **** *
 292:uCOS-III\Source/os_flag.c **** *              p_ts          is a pointer to a variable that will receive the timestamp of when the
 293:uCOS-III\Source/os_flag.c **** *                            posted, aborted or the event flag group deleted.  If you pass a NULL p
 294:uCOS-III\Source/os_flag.c **** *                            then you will not get the timestamp.  In other words, passing a NULL p
 295:uCOS-III\Source/os_flag.c **** *                            indicates that you don't need the timestamp.
 296:uCOS-III\Source/os_flag.c **** *
 297:uCOS-III\Source/os_flag.c **** *              p_err         is a pointer to an error code and can be:
 298:uCOS-III\Source/os_flag.c **** *
 299:uCOS-III\Source/os_flag.c **** *                                OS_ERR_NONE                The desired bits have been set within t
 300:uCOS-III\Source/os_flag.c **** *                                OS_ERR_OBJ_PTR_NULL        If 'p_grp' is a NULL pointer.
 301:uCOS-III\Source/os_flag.c **** *                                OS_ERR_OBJ_TYPE            You are not pointing to an event flag g
 302:uCOS-III\Source/os_flag.c **** *                                OS_ERR_OPT_INVALID         You didn't specify a proper 'opt' argum
 303:uCOS-III\Source/os_flag.c **** *                                OS_ERR_PEND_ABORT          The wait on the flag was aborted.
 304:uCOS-III\Source/os_flag.c **** *                                OS_ERR_PEND_ISR            If you tried to PEND from an ISR
 305:uCOS-III\Source/os_flag.c **** *                                OS_ERR_PEND_WOULD_BLOCK    If you specified non-blocking but the f
 306:uCOS-III\Source/os_flag.c **** *                                                           available.
 307:uCOS-III\Source/os_flag.c **** *                                OS_ERR_SCHED_LOCKED        If you called this function when the sc
 308:uCOS-III\Source/os_flag.c **** *                                OS_ERR_TIMEOUT             The bit(s) have not been set in the spe
 309:uCOS-III\Source/os_flag.c **** *
 310:uCOS-III\Source/os_flag.c **** * Returns    : The flags in the event flag group that made the task ready or, 0 if a timeout or an 
 311:uCOS-III\Source/os_flag.c **** *              occurred.
 312:uCOS-III\Source/os_flag.c **** ***************************************************************************************************
 313:uCOS-III\Source/os_flag.c **** */
 314:uCOS-III\Source/os_flag.c **** 
 315:uCOS-III\Source/os_flag.c **** OS_FLAGS  OSFlagPend (OS_FLAG_GRP  *p_grp,
ARM GAS  C:\Users\jorti\AppData\Local\Temp\ccCX4ftZ.s 			page 7


 316:uCOS-III\Source/os_flag.c ****                       OS_FLAGS      flags,
 317:uCOS-III\Source/os_flag.c ****                       OS_TICK       timeout,
 318:uCOS-III\Source/os_flag.c ****                       OS_OPT        opt,
 319:uCOS-III\Source/os_flag.c ****                       CPU_TS       *p_ts,
 320:uCOS-III\Source/os_flag.c ****                       OS_ERR       *p_err)
 321:uCOS-III\Source/os_flag.c **** {
 322:uCOS-III\Source/os_flag.c ****     CPU_BOOLEAN   consume;
 323:uCOS-III\Source/os_flag.c ****     OS_FLAGS      flags_rdy;
 324:uCOS-III\Source/os_flag.c ****     OS_OPT        mode;
 325:uCOS-III\Source/os_flag.c ****     OS_PEND_DATA  pend_data;
 326:uCOS-III\Source/os_flag.c ****     CPU_SR_ALLOC();
 327:uCOS-III\Source/os_flag.c **** 
 328:uCOS-III\Source/os_flag.c **** 
 329:uCOS-III\Source/os_flag.c **** 
 330:uCOS-III\Source/os_flag.c **** #ifdef OS_SAFETY_CRITICAL
 331:uCOS-III\Source/os_flag.c ****     if (p_err == (OS_ERR *)0) {
 332:uCOS-III\Source/os_flag.c ****         OS_SAFETY_CRITICAL_EXCEPTION();
 333:uCOS-III\Source/os_flag.c ****         return ((OS_FLAGS)0);
 334:uCOS-III\Source/os_flag.c ****     }
 335:uCOS-III\Source/os_flag.c **** #endif
 336:uCOS-III\Source/os_flag.c **** 
 337:uCOS-III\Source/os_flag.c **** #if OS_CFG_CALLED_FROM_ISR_CHK_EN > 0u
 338:uCOS-III\Source/os_flag.c ****     if (OSIntNestingCtr > (OS_NESTING_CTR)0) {              /* See if called from ISR ...          
 339:uCOS-III\Source/os_flag.c ****        *p_err = OS_ERR_PEND_ISR;                            /* ... can't PEND from an ISR          
 340:uCOS-III\Source/os_flag.c ****         return ((OS_FLAGS)0);
 341:uCOS-III\Source/os_flag.c ****     }
 342:uCOS-III\Source/os_flag.c **** #endif
 343:uCOS-III\Source/os_flag.c **** 
 344:uCOS-III\Source/os_flag.c **** #if OS_CFG_ARG_CHK_EN > 0u
 345:uCOS-III\Source/os_flag.c ****     if (p_grp == (OS_FLAG_GRP *)0) {                        /* Validate 'p_grp'                    
 346:uCOS-III\Source/os_flag.c ****        *p_err = OS_ERR_OBJ_PTR_NULL;
 347:uCOS-III\Source/os_flag.c ****         return ((OS_FLAGS)0);
 348:uCOS-III\Source/os_flag.c ****     }
 349:uCOS-III\Source/os_flag.c ****     switch (opt) {                                          /* Validate 'opt'                      
 350:uCOS-III\Source/os_flag.c ****         case OS_OPT_PEND_FLAG_CLR_ALL:
 351:uCOS-III\Source/os_flag.c ****         case OS_OPT_PEND_FLAG_CLR_ANY:
 352:uCOS-III\Source/os_flag.c ****         case OS_OPT_PEND_FLAG_SET_ALL:
 353:uCOS-III\Source/os_flag.c ****         case OS_OPT_PEND_FLAG_SET_ANY:
 354:uCOS-III\Source/os_flag.c ****         case OS_OPT_PEND_FLAG_CLR_ALL | OS_OPT_PEND_FLAG_CONSUME:
 355:uCOS-III\Source/os_flag.c ****         case OS_OPT_PEND_FLAG_CLR_ANY | OS_OPT_PEND_FLAG_CONSUME:
 356:uCOS-III\Source/os_flag.c ****         case OS_OPT_PEND_FLAG_SET_ALL | OS_OPT_PEND_FLAG_CONSUME:
 357:uCOS-III\Source/os_flag.c ****         case OS_OPT_PEND_FLAG_SET_ANY | OS_OPT_PEND_FLAG_CONSUME:
 358:uCOS-III\Source/os_flag.c ****         case OS_OPT_PEND_FLAG_CLR_ALL | OS_OPT_PEND_NON_BLOCKING:
 359:uCOS-III\Source/os_flag.c ****         case OS_OPT_PEND_FLAG_CLR_ANY | OS_OPT_PEND_NON_BLOCKING:
 360:uCOS-III\Source/os_flag.c ****         case OS_OPT_PEND_FLAG_SET_ALL | OS_OPT_PEND_NON_BLOCKING:
 361:uCOS-III\Source/os_flag.c ****         case OS_OPT_PEND_FLAG_SET_ANY | OS_OPT_PEND_NON_BLOCKING:
 362:uCOS-III\Source/os_flag.c ****         case OS_OPT_PEND_FLAG_CLR_ALL | OS_OPT_PEND_FLAG_CONSUME | OS_OPT_PEND_NON_BLOCKING:
 363:uCOS-III\Source/os_flag.c ****         case OS_OPT_PEND_FLAG_CLR_ANY | OS_OPT_PEND_FLAG_CONSUME | OS_OPT_PEND_NON_BLOCKING:
 364:uCOS-III\Source/os_flag.c ****         case OS_OPT_PEND_FLAG_SET_ALL | OS_OPT_PEND_FLAG_CONSUME | OS_OPT_PEND_NON_BLOCKING:
 365:uCOS-III\Source/os_flag.c ****         case OS_OPT_PEND_FLAG_SET_ANY | OS_OPT_PEND_FLAG_CONSUME | OS_OPT_PEND_NON_BLOCKING:
 366:uCOS-III\Source/os_flag.c ****              break;
 367:uCOS-III\Source/os_flag.c **** 
 368:uCOS-III\Source/os_flag.c ****         default:
 369:uCOS-III\Source/os_flag.c ****             *p_err = OS_ERR_OPT_INVALID;
 370:uCOS-III\Source/os_flag.c ****              return ((OS_OBJ_QTY)0);
 371:uCOS-III\Source/os_flag.c ****     }
 372:uCOS-III\Source/os_flag.c **** #endif
ARM GAS  C:\Users\jorti\AppData\Local\Temp\ccCX4ftZ.s 			page 8


 373:uCOS-III\Source/os_flag.c **** 
 374:uCOS-III\Source/os_flag.c **** #if OS_CFG_OBJ_TYPE_CHK_EN > 0u
 375:uCOS-III\Source/os_flag.c ****     if (p_grp->Type != OS_OBJ_TYPE_FLAG) {                  /* Validate that we are pointing at an 
 376:uCOS-III\Source/os_flag.c ****        *p_err = OS_ERR_OBJ_TYPE;
 377:uCOS-III\Source/os_flag.c ****         return ((OS_FLAGS)0);
 378:uCOS-III\Source/os_flag.c ****     }
 379:uCOS-III\Source/os_flag.c **** #endif
 380:uCOS-III\Source/os_flag.c **** 
 381:uCOS-III\Source/os_flag.c ****     if ((opt & OS_OPT_PEND_FLAG_CONSUME) != (OS_OPT)0) {    /* See if we need to consume the flags 
 382:uCOS-III\Source/os_flag.c ****         consume = DEF_TRUE;
 383:uCOS-III\Source/os_flag.c ****     } else {
 384:uCOS-III\Source/os_flag.c ****         consume = DEF_FALSE;
 385:uCOS-III\Source/os_flag.c ****     }
 386:uCOS-III\Source/os_flag.c **** 
 387:uCOS-III\Source/os_flag.c ****     if (p_ts != (CPU_TS *)0) {
 388:uCOS-III\Source/os_flag.c ****        *p_ts = (CPU_TS)0;                                   /* Initialize the returned timestamp   
 389:uCOS-III\Source/os_flag.c ****     }
 390:uCOS-III\Source/os_flag.c **** 
 391:uCOS-III\Source/os_flag.c ****     mode = opt & OS_OPT_PEND_FLAG_MASK;
 392:uCOS-III\Source/os_flag.c ****     CPU_CRITICAL_ENTER();
 393:uCOS-III\Source/os_flag.c ****     switch (mode) {
 394:uCOS-III\Source/os_flag.c ****         case OS_OPT_PEND_FLAG_SET_ALL:                      /* See if all required flags are set   
 395:uCOS-III\Source/os_flag.c ****              flags_rdy = (OS_FLAGS)(p_grp->Flags & flags);  /* Extract only the bits we want       
 396:uCOS-III\Source/os_flag.c ****              if (flags_rdy == flags) {                      /* Must match ALL the bits that we want
 397:uCOS-III\Source/os_flag.c ****                  if (consume == DEF_TRUE) {                 /* See if we need to consume the flags 
 398:uCOS-III\Source/os_flag.c ****                      p_grp->Flags &= ~flags_rdy;            /* Clear ONLY the flags that we wanted 
 399:uCOS-III\Source/os_flag.c ****                  }
 400:uCOS-III\Source/os_flag.c ****                  OSTCBCurPtr->FlagsRdy = flags_rdy;         /* Save flags that were ready          
 401:uCOS-III\Source/os_flag.c ****                  if (p_ts != (CPU_TS *)0) {
 402:uCOS-III\Source/os_flag.c ****                     *p_ts  = p_grp->TS;
 403:uCOS-III\Source/os_flag.c ****                  }
 404:uCOS-III\Source/os_flag.c ****                  CPU_CRITICAL_EXIT();                       /* Yes, condition met, return to caller
 405:uCOS-III\Source/os_flag.c ****                 *p_err = OS_ERR_NONE;
 406:uCOS-III\Source/os_flag.c ****                  return (flags_rdy);
 407:uCOS-III\Source/os_flag.c ****              } else {                                       /* Block task until events occur or tim
 408:uCOS-III\Source/os_flag.c ****                  if ((opt & OS_OPT_PEND_NON_BLOCKING) != (OS_OPT)0) {
 409:uCOS-III\Source/os_flag.c ****                      CPU_CRITICAL_EXIT();
 410:uCOS-III\Source/os_flag.c ****                     *p_err = OS_ERR_PEND_WOULD_BLOCK;       /* Specified non-blocking so task would
 411:uCOS-III\Source/os_flag.c ****                      return ((OS_FLAGS)0);
 412:uCOS-III\Source/os_flag.c ****                  } else {                                   /* Specified blocking so check is sched
 413:uCOS-III\Source/os_flag.c ****                      if (OSSchedLockNestingCtr > (OS_NESTING_CTR)0) { /* See if called with schedul
 414:uCOS-III\Source/os_flag.c ****                          CPU_CRITICAL_EXIT();
 415:uCOS-III\Source/os_flag.c ****                         *p_err = OS_ERR_SCHED_LOCKED;                 /* ... can't PEND when locked
 416:uCOS-III\Source/os_flag.c ****                          return ((OS_FLAGS)0);
 417:uCOS-III\Source/os_flag.c ****                      }
 418:uCOS-III\Source/os_flag.c ****                  }
 419:uCOS-III\Source/os_flag.c ****                                                             /* Lock the scheduler/re-enable interru
 420:uCOS-III\Source/os_flag.c ****                  OS_CRITICAL_ENTER_CPU_EXIT();              
 421:uCOS-III\Source/os_flag.c ****                  OS_FlagBlock(&pend_data,
 422:uCOS-III\Source/os_flag.c ****                               p_grp,
 423:uCOS-III\Source/os_flag.c ****                               flags,
 424:uCOS-III\Source/os_flag.c ****                               opt,
 425:uCOS-III\Source/os_flag.c ****                               timeout);
 426:uCOS-III\Source/os_flag.c ****                  OS_CRITICAL_EXIT_NO_SCHED();
 427:uCOS-III\Source/os_flag.c ****              }
 428:uCOS-III\Source/os_flag.c ****              break;
 429:uCOS-III\Source/os_flag.c **** 
ARM GAS  C:\Users\jorti\AppData\Local\Temp\ccCX4ftZ.s 			page 9


 430:uCOS-III\Source/os_flag.c ****         case OS_OPT_PEND_FLAG_SET_ANY:
 431:uCOS-III\Source/os_flag.c ****              flags_rdy = (OS_FLAGS)(p_grp->Flags & flags);  /* Extract only the bits we want       
 432:uCOS-III\Source/os_flag.c ****              if (flags_rdy != (OS_FLAGS)0) {                /* See if any flag set                 
 433:uCOS-III\Source/os_flag.c ****                  if (consume == DEF_TRUE) {                 /* See if we need to consume the flags 
 434:uCOS-III\Source/os_flag.c ****                      p_grp->Flags &= ~flags_rdy;            /* Clear ONLY the flags that we got    
 435:uCOS-III\Source/os_flag.c ****                  }
 436:uCOS-III\Source/os_flag.c ****                  OSTCBCurPtr->FlagsRdy = flags_rdy;         /* Save flags that were ready          
 437:uCOS-III\Source/os_flag.c ****                  if (p_ts != (CPU_TS *)0) {
 438:uCOS-III\Source/os_flag.c ****                     *p_ts  = p_grp->TS;
 439:uCOS-III\Source/os_flag.c ****                  }
 440:uCOS-III\Source/os_flag.c ****                  CPU_CRITICAL_EXIT();                       /* Yes, condition met, return to caller
 441:uCOS-III\Source/os_flag.c ****                 *p_err = OS_ERR_NONE;
 442:uCOS-III\Source/os_flag.c ****                  return (flags_rdy);
 443:uCOS-III\Source/os_flag.c ****              } else {                                       /* Block task until events occur or tim
 444:uCOS-III\Source/os_flag.c ****                  if ((opt & OS_OPT_PEND_NON_BLOCKING) != (OS_OPT)0) {
 445:uCOS-III\Source/os_flag.c ****                      CPU_CRITICAL_EXIT();
 446:uCOS-III\Source/os_flag.c ****                     *p_err = OS_ERR_PEND_WOULD_BLOCK;       /* Specified non-blocking so task would
 447:uCOS-III\Source/os_flag.c ****                      return ((OS_FLAGS)0);
 448:uCOS-III\Source/os_flag.c ****                  } else {                                   /* Specified blocking so check is sched
 449:uCOS-III\Source/os_flag.c ****                      if (OSSchedLockNestingCtr > (OS_NESTING_CTR)0) { /* See if called with schedul
 450:uCOS-III\Source/os_flag.c ****                          CPU_CRITICAL_EXIT();
 451:uCOS-III\Source/os_flag.c ****                         *p_err = OS_ERR_SCHED_LOCKED;                 /* ... can't PEND when locked
 452:uCOS-III\Source/os_flag.c ****                          return ((OS_FLAGS)0);
 453:uCOS-III\Source/os_flag.c ****                      }
 454:uCOS-III\Source/os_flag.c ****                  }
 455:uCOS-III\Source/os_flag.c ****                                                             /* Lock the scheduler/re-enable interru
 456:uCOS-III\Source/os_flag.c ****                  OS_CRITICAL_ENTER_CPU_EXIT();              
 457:uCOS-III\Source/os_flag.c ****                  OS_FlagBlock(&pend_data,
 458:uCOS-III\Source/os_flag.c ****                               p_grp,
 459:uCOS-III\Source/os_flag.c ****                               flags,
 460:uCOS-III\Source/os_flag.c ****                               opt,
 461:uCOS-III\Source/os_flag.c ****                               timeout);
 462:uCOS-III\Source/os_flag.c ****                  OS_CRITICAL_EXIT_NO_SCHED();
 463:uCOS-III\Source/os_flag.c ****              }
 464:uCOS-III\Source/os_flag.c ****              break;
 465:uCOS-III\Source/os_flag.c **** 
 466:uCOS-III\Source/os_flag.c **** #if OS_CFG_FLAG_MODE_CLR_EN > 0u
 467:uCOS-III\Source/os_flag.c ****         case OS_OPT_PEND_FLAG_CLR_ALL:                      /* See if all required flags are cleare
 468:uCOS-III\Source/os_flag.c ****              flags_rdy = (OS_FLAGS)(~p_grp->Flags & flags); /* Extract only the bits we want       
 469:uCOS-III\Source/os_flag.c ****              if (flags_rdy == flags) {                      /* Must match ALL the bits that we want
 470:uCOS-III\Source/os_flag.c ****                  if (consume == DEF_TRUE) {                 /* See if we need to consume the flags 
 471:uCOS-III\Source/os_flag.c ****                      p_grp->Flags |= flags_rdy;             /* Set ONLY the flags that we wanted   
 472:uCOS-III\Source/os_flag.c ****                  }
 473:uCOS-III\Source/os_flag.c ****                  OSTCBCurPtr->FlagsRdy = flags_rdy;         /* Save flags that were ready          
 474:uCOS-III\Source/os_flag.c ****                  if (p_ts != (CPU_TS *)0) {
 475:uCOS-III\Source/os_flag.c ****                     *p_ts  = p_grp->TS;
 476:uCOS-III\Source/os_flag.c ****                  }
 477:uCOS-III\Source/os_flag.c ****                  CPU_CRITICAL_EXIT();                       /* Yes, condition met, return to caller
 478:uCOS-III\Source/os_flag.c ****                 *p_err = OS_ERR_NONE;
 479:uCOS-III\Source/os_flag.c ****                  return (flags_rdy);
 480:uCOS-III\Source/os_flag.c ****              } else {                                       /* Block task until events occur or tim
 481:uCOS-III\Source/os_flag.c ****                  if ((opt & OS_OPT_PEND_NON_BLOCKING) != (OS_OPT)0) {
 482:uCOS-III\Source/os_flag.c ****                      CPU_CRITICAL_EXIT();
 483:uCOS-III\Source/os_flag.c ****                     *p_err = OS_ERR_PEND_WOULD_BLOCK;       /* Specified non-blocking so task would
 484:uCOS-III\Source/os_flag.c ****                      return ((OS_FLAGS)0);
 485:uCOS-III\Source/os_flag.c ****                  } else {                                   /* Specified blocking so check is sched
 486:uCOS-III\Source/os_flag.c ****                      if (OSSchedLockNestingCtr > (OS_NESTING_CTR)0) { /* See if called with schedul
ARM GAS  C:\Users\jorti\AppData\Local\Temp\ccCX4ftZ.s 			page 10


 487:uCOS-III\Source/os_flag.c ****                          CPU_CRITICAL_EXIT();
 488:uCOS-III\Source/os_flag.c ****                         *p_err = OS_ERR_SCHED_LOCKED;                 /* ... can't PEND when locked
 489:uCOS-III\Source/os_flag.c ****                          return ((OS_FLAGS)0);
 490:uCOS-III\Source/os_flag.c ****                      }
 491:uCOS-III\Source/os_flag.c ****                  }
 492:uCOS-III\Source/os_flag.c ****                                                             
 493:uCOS-III\Source/os_flag.c ****                  OS_CRITICAL_ENTER_CPU_EXIT();              /* Lock the scheduler/re-enable interru
 494:uCOS-III\Source/os_flag.c ****                  OS_FlagBlock(&pend_data,
 495:uCOS-III\Source/os_flag.c ****                               p_grp,
 496:uCOS-III\Source/os_flag.c ****                               flags,
 497:uCOS-III\Source/os_flag.c ****                               opt,
 498:uCOS-III\Source/os_flag.c ****                               timeout);
 499:uCOS-III\Source/os_flag.c ****                  OS_CRITICAL_EXIT_NO_SCHED();
 500:uCOS-III\Source/os_flag.c ****              }
 501:uCOS-III\Source/os_flag.c ****              break;
 502:uCOS-III\Source/os_flag.c **** 
 503:uCOS-III\Source/os_flag.c ****         case OS_OPT_PEND_FLAG_CLR_ANY:
 504:uCOS-III\Source/os_flag.c ****              flags_rdy = (OS_FLAGS)(~p_grp->Flags & flags); /* Extract only the bits we want       
 505:uCOS-III\Source/os_flag.c ****              if (flags_rdy != (OS_FLAGS)0) {                /* See if any flag cleared             
 506:uCOS-III\Source/os_flag.c ****                  if (consume == DEF_TRUE) {                 /* See if we need to consume the flags 
 507:uCOS-III\Source/os_flag.c ****                      p_grp->Flags |= flags_rdy;             /* Set ONLY the flags that we got      
 508:uCOS-III\Source/os_flag.c ****                  }
 509:uCOS-III\Source/os_flag.c ****                  OSTCBCurPtr->FlagsRdy = flags_rdy;         /* Save flags that were ready          
 510:uCOS-III\Source/os_flag.c ****                  if (p_ts != (CPU_TS *)0) {
 511:uCOS-III\Source/os_flag.c ****                     *p_ts  = p_grp->TS;
 512:uCOS-III\Source/os_flag.c ****                  }
 513:uCOS-III\Source/os_flag.c ****                  CPU_CRITICAL_EXIT();                       /* Yes, condition met, return to caller
 514:uCOS-III\Source/os_flag.c ****                 *p_err = OS_ERR_NONE;
 515:uCOS-III\Source/os_flag.c ****                  return (flags_rdy);
 516:uCOS-III\Source/os_flag.c ****              } else {                                       /* Block task until events occur or tim
 517:uCOS-III\Source/os_flag.c ****                  if ((opt & OS_OPT_PEND_NON_BLOCKING) != (OS_OPT)0) {
 518:uCOS-III\Source/os_flag.c ****                      CPU_CRITICAL_EXIT();
 519:uCOS-III\Source/os_flag.c ****                     *p_err = OS_ERR_PEND_WOULD_BLOCK;       /* Specified non-blocking so task would
 520:uCOS-III\Source/os_flag.c ****                      return ((OS_FLAGS)0);
 521:uCOS-III\Source/os_flag.c ****                  } else {                                   /* Specified blocking so check is sched
 522:uCOS-III\Source/os_flag.c ****                      if (OSSchedLockNestingCtr > (OS_NESTING_CTR)0) { /* See if called with schedul
 523:uCOS-III\Source/os_flag.c ****                          CPU_CRITICAL_EXIT();
 524:uCOS-III\Source/os_flag.c ****                         *p_err = OS_ERR_SCHED_LOCKED;                 /* ... can't PEND when locked
 525:uCOS-III\Source/os_flag.c ****                          return ((OS_FLAGS)0);
 526:uCOS-III\Source/os_flag.c ****                      }
 527:uCOS-III\Source/os_flag.c ****                  }
 528:uCOS-III\Source/os_flag.c ****                                                             
 529:uCOS-III\Source/os_flag.c ****                  OS_CRITICAL_ENTER_CPU_EXIT();              /* Lock the scheduler/re-enable interru
 530:uCOS-III\Source/os_flag.c ****                  OS_FlagBlock(&pend_data,              
 531:uCOS-III\Source/os_flag.c ****                               p_grp,
 532:uCOS-III\Source/os_flag.c ****                               flags,
 533:uCOS-III\Source/os_flag.c ****                               opt,
 534:uCOS-III\Source/os_flag.c ****                               timeout);
 535:uCOS-III\Source/os_flag.c ****                  OS_CRITICAL_EXIT_NO_SCHED();
 536:uCOS-III\Source/os_flag.c ****              }
 537:uCOS-III\Source/os_flag.c ****              break;
 538:uCOS-III\Source/os_flag.c **** #endif
 539:uCOS-III\Source/os_flag.c **** 
 540:uCOS-III\Source/os_flag.c ****         default:
 541:uCOS-III\Source/os_flag.c ****              CPU_CRITICAL_EXIT();
 542:uCOS-III\Source/os_flag.c ****             *p_err = OS_ERR_OPT_INVALID;
 543:uCOS-III\Source/os_flag.c ****              return ((OS_FLAGS)0);
ARM GAS  C:\Users\jorti\AppData\Local\Temp\ccCX4ftZ.s 			page 11


 544:uCOS-III\Source/os_flag.c ****     }
 545:uCOS-III\Source/os_flag.c **** 
 546:uCOS-III\Source/os_flag.c ****     OSSched();                                              /* Find next HPT ready to run          
 547:uCOS-III\Source/os_flag.c **** 
 548:uCOS-III\Source/os_flag.c ****     CPU_CRITICAL_ENTER();
 549:uCOS-III\Source/os_flag.c ****     switch (OSTCBCurPtr->PendStatus) {
 550:uCOS-III\Source/os_flag.c ****         case OS_STATUS_PEND_OK:                             /* We got the vent flags               
 551:uCOS-III\Source/os_flag.c ****              if (p_ts != (CPU_TS *)0) {
 552:uCOS-III\Source/os_flag.c ****                 *p_ts  = OSTCBCurPtr->TS;
 553:uCOS-III\Source/os_flag.c ****              }
 554:uCOS-III\Source/os_flag.c ****             *p_err = OS_ERR_NONE;
 555:uCOS-III\Source/os_flag.c ****              break;
 556:uCOS-III\Source/os_flag.c **** 
 557:uCOS-III\Source/os_flag.c ****         case OS_STATUS_PEND_ABORT:                          /* Indicate that we aborted            
 558:uCOS-III\Source/os_flag.c ****              if (p_ts != (CPU_TS *)0) {
 559:uCOS-III\Source/os_flag.c ****                 *p_ts  = OSTCBCurPtr->TS;
 560:uCOS-III\Source/os_flag.c ****              }
 561:uCOS-III\Source/os_flag.c ****              CPU_CRITICAL_EXIT();
 562:uCOS-III\Source/os_flag.c ****             *p_err = OS_ERR_PEND_ABORT;
 563:uCOS-III\Source/os_flag.c ****              break;
 564:uCOS-III\Source/os_flag.c **** 
 565:uCOS-III\Source/os_flag.c ****         case OS_STATUS_PEND_TIMEOUT:                        /* Indicate that we didn't get semaphor
 566:uCOS-III\Source/os_flag.c ****              if (p_ts != (CPU_TS *)0) {
 567:uCOS-III\Source/os_flag.c ****                 *p_ts  = (CPU_TS  )0;
 568:uCOS-III\Source/os_flag.c ****              }
 569:uCOS-III\Source/os_flag.c ****              CPU_CRITICAL_EXIT();
 570:uCOS-III\Source/os_flag.c ****             *p_err = OS_ERR_TIMEOUT;
 571:uCOS-III\Source/os_flag.c ****              break;
 572:uCOS-III\Source/os_flag.c **** 
 573:uCOS-III\Source/os_flag.c ****         case OS_STATUS_PEND_DEL:                            /* Indicate that object pended on has b
 574:uCOS-III\Source/os_flag.c ****              if (p_ts != (CPU_TS *)0) {
 575:uCOS-III\Source/os_flag.c ****                 *p_ts  = OSTCBCurPtr->TS;
 576:uCOS-III\Source/os_flag.c ****              }
 577:uCOS-III\Source/os_flag.c ****              CPU_CRITICAL_EXIT();
 578:uCOS-III\Source/os_flag.c ****             *p_err = OS_ERR_OBJ_DEL;
 579:uCOS-III\Source/os_flag.c ****              break;
 580:uCOS-III\Source/os_flag.c **** 
 581:uCOS-III\Source/os_flag.c ****         default:
 582:uCOS-III\Source/os_flag.c ****              CPU_CRITICAL_EXIT();
 583:uCOS-III\Source/os_flag.c ****             *p_err = OS_ERR_STATUS_INVALID;
 584:uCOS-III\Source/os_flag.c ****              break;
 585:uCOS-III\Source/os_flag.c ****     }
 586:uCOS-III\Source/os_flag.c ****     if (*p_err != OS_ERR_NONE) {
 587:uCOS-III\Source/os_flag.c ****         return ((OS_FLAGS)0);
 588:uCOS-III\Source/os_flag.c ****     }
 589:uCOS-III\Source/os_flag.c **** 
 590:uCOS-III\Source/os_flag.c ****     flags_rdy = OSTCBCurPtr->FlagsRdy;
 591:uCOS-III\Source/os_flag.c ****     if (consume == DEF_TRUE) {                              /* See if we need to consume the flags 
 592:uCOS-III\Source/os_flag.c ****         switch (mode) {
 593:uCOS-III\Source/os_flag.c ****             case OS_OPT_PEND_FLAG_SET_ALL:
 594:uCOS-III\Source/os_flag.c ****             case OS_OPT_PEND_FLAG_SET_ANY:                  /* Clear ONLY the flags we got         
 595:uCOS-III\Source/os_flag.c ****                  p_grp->Flags &= ~flags_rdy;
 596:uCOS-III\Source/os_flag.c ****                  break;
 597:uCOS-III\Source/os_flag.c **** 
 598:uCOS-III\Source/os_flag.c **** #if OS_CFG_FLAG_MODE_CLR_EN > 0u
 599:uCOS-III\Source/os_flag.c ****             case OS_OPT_PEND_FLAG_CLR_ALL:
 600:uCOS-III\Source/os_flag.c ****             case OS_OPT_PEND_FLAG_CLR_ANY:                  /* Set   ONLY the flags we got         
ARM GAS  C:\Users\jorti\AppData\Local\Temp\ccCX4ftZ.s 			page 12


 601:uCOS-III\Source/os_flag.c ****                  p_grp->Flags |=  flags_rdy;
 602:uCOS-III\Source/os_flag.c ****                  break;
 603:uCOS-III\Source/os_flag.c **** #endif
 604:uCOS-III\Source/os_flag.c ****             default:
 605:uCOS-III\Source/os_flag.c ****                  CPU_CRITICAL_EXIT();
 606:uCOS-III\Source/os_flag.c ****                 *p_err = OS_ERR_OPT_INVALID;
 607:uCOS-III\Source/os_flag.c ****                  return ((OS_FLAGS)0);
 608:uCOS-III\Source/os_flag.c ****         }
 609:uCOS-III\Source/os_flag.c ****     }
 610:uCOS-III\Source/os_flag.c ****     CPU_CRITICAL_EXIT();
 611:uCOS-III\Source/os_flag.c ****    *p_err = OS_ERR_NONE;                                    /* Event(s) must have occurred         
 612:uCOS-III\Source/os_flag.c ****     return (flags_rdy);
 613:uCOS-III\Source/os_flag.c **** }
 614:uCOS-III\Source/os_flag.c **** 
 615:uCOS-III\Source/os_flag.c **** /*$PAGE*/
 616:uCOS-III\Source/os_flag.c **** /*
 617:uCOS-III\Source/os_flag.c **** ***************************************************************************************************
 618:uCOS-III\Source/os_flag.c **** *                                          ABORT WAITING ON AN EVENT FLAG GROUP
 619:uCOS-III\Source/os_flag.c **** *
 620:uCOS-III\Source/os_flag.c **** * Description: This function aborts & readies any tasks currently waiting on an event flag group.  
 621:uCOS-III\Source/os_flag.c **** *              be used to fault-abort the wait on the event flag group, rather than to normally pos
 622:uCOS-III\Source/os_flag.c **** *              group OSFlagPost().
 623:uCOS-III\Source/os_flag.c **** *
 624:uCOS-III\Source/os_flag.c **** * Arguments  : p_grp     is a pointer to the event flag group
 625:uCOS-III\Source/os_flag.c **** *
 626:uCOS-III\Source/os_flag.c **** *              opt       determines the type of ABORT performed:
 627:uCOS-III\Source/os_flag.c **** *
 628:uCOS-III\Source/os_flag.c **** *                            OS_OPT_PEND_ABORT_1          ABORT wait for a single task (HPT) waitin
 629:uCOS-III\Source/os_flag.c **** *                            OS_OPT_PEND_ABORT_ALL        ABORT wait for ALL tasks that are  waitin
 630:uCOS-III\Source/os_flag.c **** *                            OS_OPT_POST_NO_SCHED         Do not call the scheduler
 631:uCOS-III\Source/os_flag.c **** *
 632:uCOS-III\Source/os_flag.c **** *              p_err     is a pointer to a variable that will contain an error code returned by thi
 633:uCOS-III\Source/os_flag.c **** *
 634:uCOS-III\Source/os_flag.c **** *                            OS_ERR_NONE                  At least one task waiting on the event fl
 635:uCOS-III\Source/os_flag.c **** *                                                         readied and informed of the aborted wait;
 636:uCOS-III\Source/os_flag.c **** *                                                         for the number of tasks whose wait on the
 637:uCOS-III\Source/os_flag.c **** *                                                         was aborted.
 638:uCOS-III\Source/os_flag.c **** *                            OS_ERR_OBJ_PTR_NULL          If 'p_grp' is a NULL pointer.
 639:uCOS-III\Source/os_flag.c **** *                            OS_ERR_OBJ_TYPE              If 'p_grp' is not pointing at an event fl
 640:uCOS-III\Source/os_flag.c **** *                            OS_ERR_OPT_INVALID           If you specified an invalid option
 641:uCOS-III\Source/os_flag.c **** *                            OS_ERR_PEND_ABORT_ISR        If you called this function from an ISR
 642:uCOS-III\Source/os_flag.c **** *                            OS_ERR_PEND_ABORT_NONE       No task were pending
 643:uCOS-III\Source/os_flag.c **** *
 644:uCOS-III\Source/os_flag.c **** * Returns    : == 0          if no tasks were waiting on the event flag group, or upon error.
 645:uCOS-III\Source/os_flag.c **** *              >  0          if one or more tasks waiting on the event flag group are now readied a
 646:uCOS-III\Source/os_flag.c **** ***************************************************************************************************
 647:uCOS-III\Source/os_flag.c **** */
 648:uCOS-III\Source/os_flag.c **** 
 649:uCOS-III\Source/os_flag.c **** #if OS_CFG_FLAG_PEND_ABORT_EN > 0u
 650:uCOS-III\Source/os_flag.c **** OS_OBJ_QTY  OSFlagPendAbort (OS_FLAG_GRP  *p_grp,
 651:uCOS-III\Source/os_flag.c ****                              OS_OPT        opt,
 652:uCOS-III\Source/os_flag.c ****                              OS_ERR       *p_err)
 653:uCOS-III\Source/os_flag.c **** {
  28              		.loc 1 653 0
  29              		.cfi_startproc
  30              		@ args = 0, pretend = 0, frame = 0
  31              		@ frame_needed = 0, uses_anonymous_args = 0
ARM GAS  C:\Users\jorti\AppData\Local\Temp\ccCX4ftZ.s 			page 13


  32              	.LVL0:
  33 0000 2DE9F843 		push	{r3, r4, r5, r6, r7, r8, r9, lr}
  34              		.cfi_def_cfa_offset 32
  35              		.cfi_offset 3, -32
  36              		.cfi_offset 4, -28
  37              		.cfi_offset 5, -24
  38              		.cfi_offset 6, -20
  39              		.cfi_offset 7, -16
  40              		.cfi_offset 8, -12
  41              		.cfi_offset 9, -8
  42              		.cfi_offset 14, -4
  43              	.LVL1:
 654:uCOS-III\Source/os_flag.c ****     OS_PEND_LIST  *p_pend_list;
 655:uCOS-III\Source/os_flag.c ****     OS_TCB        *p_tcb;
 656:uCOS-III\Source/os_flag.c ****     CPU_TS         ts;
 657:uCOS-III\Source/os_flag.c ****     OS_OBJ_QTY     nbr_tasks;
 658:uCOS-III\Source/os_flag.c ****     CPU_SR_ALLOC();
 659:uCOS-III\Source/os_flag.c **** 
 660:uCOS-III\Source/os_flag.c **** 
 661:uCOS-III\Source/os_flag.c **** 
 662:uCOS-III\Source/os_flag.c **** #ifdef OS_SAFETY_CRITICAL
 663:uCOS-III\Source/os_flag.c ****     if (p_err == (OS_ERR *)0) {
 664:uCOS-III\Source/os_flag.c ****         OS_SAFETY_CRITICAL_EXCEPTION();
 665:uCOS-III\Source/os_flag.c ****         return ((OS_OBJ_QTY)0u);
 666:uCOS-III\Source/os_flag.c ****     }
 667:uCOS-III\Source/os_flag.c **** #endif
 668:uCOS-III\Source/os_flag.c **** 
 669:uCOS-III\Source/os_flag.c **** #if OS_CFG_CALLED_FROM_ISR_CHK_EN > 0u
 670:uCOS-III\Source/os_flag.c ****     if (OSIntNestingCtr > (OS_NESTING_CTR)0u) {             /* Not allowed to Pend Abort from an IS
  44              		.loc 1 670 0
  45 0004 264B     		ldr	r3, .L14
  46 0006 1B78     		ldrb	r3, [r3]	@ zero_extendqisi2
  47 0008 23B1     		cbz	r3, .L2
 671:uCOS-III\Source/os_flag.c ****        *p_err = OS_ERR_PEND_ABORT_ISR;
  48              		.loc 1 671 0
  49 000a 46F2AA13 		movw	r3, #25002
  50 000e 1380     		strh	r3, [r2]	@ movhi
 672:uCOS-III\Source/os_flag.c ****         return ((OS_OBJ_QTY)0u);
  51              		.loc 1 672 0
  52 0010 0024     		movs	r4, #0
  53 0012 41E0     		b	.L3
  54              	.L2:
 673:uCOS-III\Source/os_flag.c ****     }
 674:uCOS-III\Source/os_flag.c **** #endif
 675:uCOS-III\Source/os_flag.c **** 
 676:uCOS-III\Source/os_flag.c **** #if OS_CFG_ARG_CHK_EN > 0u
 677:uCOS-III\Source/os_flag.c ****     if (p_grp == (OS_FLAG_GRP *)0) {                        /* Validate 'p_grp'                    
  55              		.loc 1 677 0
  56 0014 20B9     		cbnz	r0, .L4
 678:uCOS-III\Source/os_flag.c ****        *p_err  =  OS_ERR_OBJ_PTR_NULL;
  57              		.loc 1 678 0
  58 0016 45F6C353 		movw	r3, #24003
  59 001a 1380     		strh	r3, [r2]	@ movhi
 679:uCOS-III\Source/os_flag.c ****         return ((OS_OBJ_QTY)0u);
  60              		.loc 1 679 0
  61 001c 0024     		movs	r4, #0
  62 001e 3BE0     		b	.L3
ARM GAS  C:\Users\jorti\AppData\Local\Temp\ccCX4ftZ.s 			page 14


  63              	.L4:
 680:uCOS-III\Source/os_flag.c ****     }
 681:uCOS-III\Source/os_flag.c ****     switch (opt) {                                          /* Validate 'opt'                      
  64              		.loc 1 681 0
  65 0020 B1F5807F 		cmp	r1, #256
  66 0024 0DD0     		beq	.L6
  67 0026 01D8     		bhi	.L7
  68 0028 31B9     		cbnz	r1, .L5
  69 002a 0AE0     		b	.L6
  70              	.L7:
  71 002c B1F5004F 		cmp	r1, #32768
  72 0030 07D0     		beq	.L6
  73 0032 B1F5014F 		cmp	r1, #33024
  74 0036 04D0     		beq	.L6
  75              	.L5:
 682:uCOS-III\Source/os_flag.c ****         case OS_OPT_PEND_ABORT_1:
 683:uCOS-III\Source/os_flag.c ****         case OS_OPT_PEND_ABORT_ALL:
 684:uCOS-III\Source/os_flag.c ****         case OS_OPT_PEND_ABORT_1   | OS_OPT_POST_NO_SCHED:
 685:uCOS-III\Source/os_flag.c ****         case OS_OPT_PEND_ABORT_ALL | OS_OPT_POST_NO_SCHED:
 686:uCOS-III\Source/os_flag.c ****              break;
 687:uCOS-III\Source/os_flag.c **** 
 688:uCOS-III\Source/os_flag.c ****         default:
 689:uCOS-III\Source/os_flag.c ****             *p_err = OS_ERR_OPT_INVALID;
  76              		.loc 1 689 0
  77 0038 45F62563 		movw	r3, #24101
  78 003c 1380     		strh	r3, [r2]	@ movhi
 690:uCOS-III\Source/os_flag.c ****              return ((OS_OBJ_QTY)0u);
  79              		.loc 1 690 0
  80 003e 0024     		movs	r4, #0
  81 0040 2AE0     		b	.L3
  82              	.L6:
  83 0042 1746     		mov	r7, r2
  84 0044 0E46     		mov	r6, r1
  85 0046 0546     		mov	r5, r0
 691:uCOS-III\Source/os_flag.c ****     }
 692:uCOS-III\Source/os_flag.c **** #endif
 693:uCOS-III\Source/os_flag.c **** 
 694:uCOS-III\Source/os_flag.c **** #if OS_CFG_OBJ_TYPE_CHK_EN > 0u
 695:uCOS-III\Source/os_flag.c ****     if (p_grp->Type != OS_OBJ_TYPE_FLAG) {                  /* Make sure event flag group was creat
 696:uCOS-III\Source/os_flag.c ****        *p_err = OS_ERR_OBJ_TYPE;
 697:uCOS-III\Source/os_flag.c ****         return ((OS_OBJ_QTY)0u);
 698:uCOS-III\Source/os_flag.c ****     }
 699:uCOS-III\Source/os_flag.c **** #endif
 700:uCOS-III\Source/os_flag.c **** 
 701:uCOS-III\Source/os_flag.c ****     CPU_CRITICAL_ENTER();
  86              		.loc 1 701 0
  87 0048 FFF7FEFF 		bl	CPU_SR_Save
  88              	.LVL2:
  89 004c 8046     		mov	r8, r0
  90              	.LVL3:
 702:uCOS-III\Source/os_flag.c ****     p_pend_list = &p_grp->PendList;
 703:uCOS-III\Source/os_flag.c ****     if (p_pend_list->NbrEntries == (OS_OBJ_QTY)0u) {        /* Any task waiting on flag group?     
  91              		.loc 1 703 0
  92 004e 2C8A     		ldrh	r4, [r5, #16]
  93 0050 2CB9     		cbnz	r4, .L8
 704:uCOS-III\Source/os_flag.c ****         CPU_CRITICAL_EXIT();                                /* No                                  
  94              		.loc 1 704 0
ARM GAS  C:\Users\jorti\AppData\Local\Temp\ccCX4ftZ.s 			page 15


  95 0052 FFF7FEFF 		bl	CPU_SR_Restore
  96              	.LVL4:
 705:uCOS-III\Source/os_flag.c ****        *p_err = OS_ERR_PEND_ABORT_NONE;
  97              		.loc 1 705 0
  98 0056 46F2AB13 		movw	r3, #25003
  99 005a 3B80     		strh	r3, [r7]	@ movhi
 706:uCOS-III\Source/os_flag.c ****         return ((OS_OBJ_QTY)0u);
 100              		.loc 1 706 0
 101 005c 1CE0     		b	.L3
 102              	.LVL5:
 103              	.L8:
 707:uCOS-III\Source/os_flag.c ****     }
 708:uCOS-III\Source/os_flag.c **** 
 709:uCOS-III\Source/os_flag.c ****     OS_CRITICAL_ENTER_CPU_EXIT();
 710:uCOS-III\Source/os_flag.c ****     nbr_tasks = 0u;
 711:uCOS-III\Source/os_flag.c ****     ts        = OS_TS_GET();                                /* Get local time stamp so all tasks ge
 104              		.loc 1 711 0
 105 005e FFF7FEFF 		bl	CPU_TS_TmrRd
 106              	.LVL6:
 107 0062 8146     		mov	r9, r0
 108              	.LVL7:
 710:uCOS-III\Source/os_flag.c ****     ts        = OS_TS_GET();                                /* Get local time stamp so all tasks ge
 109              		.loc 1 710 0
 110 0064 0024     		movs	r4, #0
 712:uCOS-III\Source/os_flag.c ****     while (p_pend_list->NbrEntries > (OS_OBJ_QTY)0u) {
 111              		.loc 1 712 0
 112 0066 0AE0     		b	.L9
 113              	.LVL8:
 114              	.L11:
 713:uCOS-III\Source/os_flag.c ****         p_tcb = p_pend_list->HeadPtr->TCBPtr;
 115              		.loc 1 713 0
 116 0068 AB68     		ldr	r3, [r5, #8]
 117              	.LVL9:
 714:uCOS-III\Source/os_flag.c ****         OS_PendAbort((OS_PEND_OBJ *)((void *)p_grp),
 118              		.loc 1 714 0
 119 006a 4A46     		mov	r2, r9
 120 006c 9968     		ldr	r1, [r3, #8]
 121 006e 2846     		mov	r0, r5
 122 0070 FFF7FEFF 		bl	OS_PendAbort
 123              	.LVL10:
 715:uCOS-III\Source/os_flag.c ****                      p_tcb,
 716:uCOS-III\Source/os_flag.c ****                      ts);
 717:uCOS-III\Source/os_flag.c ****         nbr_tasks++;
 124              		.loc 1 717 0
 125 0074 0134     		adds	r4, r4, #1
 126              	.LVL11:
 127 0076 A4B2     		uxth	r4, r4
 128              	.LVL12:
 718:uCOS-III\Source/os_flag.c ****         if (opt != OS_OPT_PEND_ABORT_ALL) {                 /* Pend abort all tasks waiting?       
 129              		.loc 1 718 0
 130 0078 B6F5807F 		cmp	r6, #256
 131 007c 02D1     		bne	.L10
 132              	.LVL13:
 133              	.L9:
 712:uCOS-III\Source/os_flag.c ****         p_tcb = p_pend_list->HeadPtr->TCBPtr;
 134              		.loc 1 712 0
 135 007e 2B8A     		ldrh	r3, [r5, #16]
ARM GAS  C:\Users\jorti\AppData\Local\Temp\ccCX4ftZ.s 			page 16


 136 0080 002B     		cmp	r3, #0
 137 0082 F1D1     		bne	.L11
 138              	.L10:
 719:uCOS-III\Source/os_flag.c ****             break;                                          /* No                                  
 720:uCOS-III\Source/os_flag.c ****         }
 721:uCOS-III\Source/os_flag.c ****     }
 722:uCOS-III\Source/os_flag.c ****     OS_CRITICAL_EXIT_NO_SCHED();
 139              		.loc 1 722 0
 140 0084 4046     		mov	r0, r8
 141 0086 FFF7FEFF 		bl	CPU_SR_Restore
 142              	.LVL14:
 723:uCOS-III\Source/os_flag.c **** 
 724:uCOS-III\Source/os_flag.c ****     if ((opt & OS_OPT_POST_NO_SCHED) == (OS_OPT)0u) {
 143              		.loc 1 724 0
 144 008a 16F4004F 		tst	r6, #32768
 145 008e 01D1     		bne	.L12
 725:uCOS-III\Source/os_flag.c ****         OSSched();                                          /* Run the scheduler                   
 146              		.loc 1 725 0
 147 0090 FFF7FEFF 		bl	OSSched
 148              	.LVL15:
 149              	.L12:
 726:uCOS-III\Source/os_flag.c ****     }
 727:uCOS-III\Source/os_flag.c **** 
 728:uCOS-III\Source/os_flag.c ****    *p_err = OS_ERR_NONE;
 150              		.loc 1 728 0
 151 0094 0023     		movs	r3, #0
 152 0096 3B80     		strh	r3, [r7]	@ movhi
 153              	.LVL16:
 154              	.L3:
 729:uCOS-III\Source/os_flag.c ****     return (nbr_tasks);
 730:uCOS-III\Source/os_flag.c **** }
 155              		.loc 1 730 0
 156 0098 2046     		mov	r0, r4
 157 009a BDE8F883 		pop	{r3, r4, r5, r6, r7, r8, r9, pc}
 158              	.L15:
 159 009e 00BF     		.align	2
 160              	.L14:
 161 00a0 00000000 		.word	OSIntNestingCtr
 162              		.cfi_endproc
 163              	.LFE4:
 164              		.size	OSFlagPendAbort, .-OSFlagPendAbort
 165              		.section	.text.OSFlagPendGetFlagsRdy,"ax",%progbits
 166              		.align	2
 167              		.global	OSFlagPendGetFlagsRdy
 168              		.thumb
 169              		.thumb_func
 170              		.type	OSFlagPendGetFlagsRdy, %function
 171              	OSFlagPendGetFlagsRdy:
 172              	.LFB5:
 731:uCOS-III\Source/os_flag.c **** #endif
 732:uCOS-III\Source/os_flag.c **** 
 733:uCOS-III\Source/os_flag.c **** /*$PAGE*/
 734:uCOS-III\Source/os_flag.c **** /*
 735:uCOS-III\Source/os_flag.c **** ***************************************************************************************************
 736:uCOS-III\Source/os_flag.c **** *                                       GET FLAGS WHO CAUSED TASK TO BECOME READY
 737:uCOS-III\Source/os_flag.c **** *
 738:uCOS-III\Source/os_flag.c **** * Description: This function is called to obtain the flags that caused the task to become ready to 
ARM GAS  C:\Users\jorti\AppData\Local\Temp\ccCX4ftZ.s 			page 17


 739:uCOS-III\Source/os_flag.c **** *              In other words, this function allows you to tell "Who done it!".
 740:uCOS-III\Source/os_flag.c **** *
 741:uCOS-III\Source/os_flag.c **** * Arguments  : p_err     is a pointer to an error code
 742:uCOS-III\Source/os_flag.c **** *
 743:uCOS-III\Source/os_flag.c **** *                            OS_ERR_NONE       if the call was successful
 744:uCOS-III\Source/os_flag.c **** *                            OS_ERR_PEND_ISR   if called from an ISR
 745:uCOS-III\Source/os_flag.c **** *
 746:uCOS-III\Source/os_flag.c **** * Returns    : The flags that caused the task to be ready.
 747:uCOS-III\Source/os_flag.c **** ***************************************************************************************************
 748:uCOS-III\Source/os_flag.c **** */
 749:uCOS-III\Source/os_flag.c **** 
 750:uCOS-III\Source/os_flag.c **** OS_FLAGS  OSFlagPendGetFlagsRdy (OS_ERR  *p_err)
 751:uCOS-III\Source/os_flag.c **** {
 173              		.loc 1 751 0
 174              		.cfi_startproc
 175              		@ args = 0, pretend = 0, frame = 0
 176              		@ frame_needed = 0, uses_anonymous_args = 0
 177              	.LVL17:
 178 0000 38B5     		push	{r3, r4, r5, lr}
 179              		.cfi_def_cfa_offset 16
 180              		.cfi_offset 3, -16
 181              		.cfi_offset 4, -12
 182              		.cfi_offset 5, -8
 183              		.cfi_offset 14, -4
 184              	.LVL18:
 752:uCOS-III\Source/os_flag.c ****     OS_FLAGS   flags;
 753:uCOS-III\Source/os_flag.c ****     CPU_SR_ALLOC();
 754:uCOS-III\Source/os_flag.c **** 
 755:uCOS-III\Source/os_flag.c **** 
 756:uCOS-III\Source/os_flag.c **** 
 757:uCOS-III\Source/os_flag.c **** #ifdef OS_SAFETY_CRITICAL
 758:uCOS-III\Source/os_flag.c ****     if (p_err == (OS_ERR *)0) {
 759:uCOS-III\Source/os_flag.c ****         OS_SAFETY_CRITICAL_EXCEPTION();
 760:uCOS-III\Source/os_flag.c ****         return ((OS_FLAGS)0);
 761:uCOS-III\Source/os_flag.c ****     }
 762:uCOS-III\Source/os_flag.c **** #endif
 763:uCOS-III\Source/os_flag.c **** 
 764:uCOS-III\Source/os_flag.c **** #if OS_CFG_CALLED_FROM_ISR_CHK_EN > 0u
 765:uCOS-III\Source/os_flag.c ****     if (OSIntNestingCtr > (OS_NESTING_CTR)0) {              /* See if called from ISR ...          
 185              		.loc 1 765 0
 186 0002 0A4B     		ldr	r3, .L20
 187 0004 1B78     		ldrb	r3, [r3]	@ zero_extendqisi2
 188 0006 23B1     		cbz	r3, .L17
 766:uCOS-III\Source/os_flag.c ****        *p_err = OS_ERR_PEND_ISR;                            /* ... can't get from an ISR           
 189              		.loc 1 766 0
 190 0008 46F2AE13 		movw	r3, #25006
 191 000c 0380     		strh	r3, [r0]	@ movhi
 767:uCOS-III\Source/os_flag.c ****         return ((OS_FLAGS)0);
 192              		.loc 1 767 0
 193 000e 0020     		movs	r0, #0
 194              	.LVL19:
 195 0010 38BD     		pop	{r3, r4, r5, pc}
 196              	.LVL20:
 197              	.L17:
 198 0012 0546     		mov	r5, r0
 768:uCOS-III\Source/os_flag.c ****     }
 769:uCOS-III\Source/os_flag.c **** #endif
ARM GAS  C:\Users\jorti\AppData\Local\Temp\ccCX4ftZ.s 			page 18


 770:uCOS-III\Source/os_flag.c **** 
 771:uCOS-III\Source/os_flag.c ****     CPU_CRITICAL_ENTER();
 199              		.loc 1 771 0
 200 0014 FFF7FEFF 		bl	CPU_SR_Save
 201              	.LVL21:
 772:uCOS-III\Source/os_flag.c ****     flags = OSTCBCurPtr->FlagsRdy;
 202              		.loc 1 772 0
 203 0018 054B     		ldr	r3, .L20+4
 204 001a 1B68     		ldr	r3, [r3]
 205 001c D3F88440 		ldr	r4, [r3, #132]
 206              	.LVL22:
 773:uCOS-III\Source/os_flag.c ****     CPU_CRITICAL_EXIT();
 207              		.loc 1 773 0
 208 0020 FFF7FEFF 		bl	CPU_SR_Restore
 209              	.LVL23:
 774:uCOS-III\Source/os_flag.c ****    *p_err = OS_ERR_NONE;
 210              		.loc 1 774 0
 211 0024 0023     		movs	r3, #0
 212 0026 2B80     		strh	r3, [r5]	@ movhi
 775:uCOS-III\Source/os_flag.c ****     return (flags);
 213              		.loc 1 775 0
 214 0028 2046     		mov	r0, r4
 776:uCOS-III\Source/os_flag.c **** }
 215              		.loc 1 776 0
 216 002a 38BD     		pop	{r3, r4, r5, pc}
 217              	.LVL24:
 218              	.L21:
 219              		.align	2
 220              	.L20:
 221 002c 00000000 		.word	OSIntNestingCtr
 222 0030 00000000 		.word	OSTCBCurPtr
 223              		.cfi_endproc
 224              	.LFE5:
 225              		.size	OSFlagPendGetFlagsRdy, .-OSFlagPendGetFlagsRdy
 226              		.section	.text.OS_FlagBlock,"ax",%progbits
 227              		.align	2
 228              		.global	OS_FlagBlock
 229              		.thumb
 230              		.thumb_func
 231              		.type	OS_FlagBlock, %function
 232              	OS_FlagBlock:
 233              	.LFB7:
 777:uCOS-III\Source/os_flag.c **** 
 778:uCOS-III\Source/os_flag.c **** /*$PAGE*/
 779:uCOS-III\Source/os_flag.c **** /*
 780:uCOS-III\Source/os_flag.c **** ***************************************************************************************************
 781:uCOS-III\Source/os_flag.c **** *                                                POST EVENT FLAG BIT(S)
 782:uCOS-III\Source/os_flag.c **** *
 783:uCOS-III\Source/os_flag.c **** * Description: This function is called to set or clear some bits in an event flag group.  The bits 
 784:uCOS-III\Source/os_flag.c **** *              specified by a 'bit mask'.
 785:uCOS-III\Source/os_flag.c **** *
 786:uCOS-III\Source/os_flag.c **** * Arguments  : p_grp         is a pointer to the desired event flag group.
 787:uCOS-III\Source/os_flag.c **** *
 788:uCOS-III\Source/os_flag.c **** *              flags         If 'opt' (see below) is OS_OPT_POST_FLAG_SET, each bit that is set in 
 789:uCOS-III\Source/os_flag.c **** *                            set the corresponding bit in the event flag group.  e.g. to set bits 0
 790:uCOS-III\Source/os_flag.c **** *                            and 5 you would set 'flags' to:
 791:uCOS-III\Source/os_flag.c **** *
ARM GAS  C:\Users\jorti\AppData\Local\Temp\ccCX4ftZ.s 			page 19


 792:uCOS-III\Source/os_flag.c **** *                                0x31     (note, bit 0 is least significant bit)
 793:uCOS-III\Source/os_flag.c **** *
 794:uCOS-III\Source/os_flag.c **** *                            If 'opt' (see below) is OS_OPT_POST_FLAG_CLR, each bit that is set in 
 795:uCOS-III\Source/os_flag.c **** *                            CLEAR the corresponding bit in the event flag group.  e.g. to clear bi
 796:uCOS-III\Source/os_flag.c **** *                            4 and 5 you would specify 'flags' as:
 797:uCOS-III\Source/os_flag.c **** *
 798:uCOS-III\Source/os_flag.c **** *                                0x31     (note, bit 0 is least significant bit)
 799:uCOS-III\Source/os_flag.c **** *
 800:uCOS-III\Source/os_flag.c **** *              opt           indicates whether the flags will be:
 801:uCOS-III\Source/os_flag.c **** *
 802:uCOS-III\Source/os_flag.c **** *                                OS_OPT_POST_FLAG_SET       set
 803:uCOS-III\Source/os_flag.c **** *                                OS_OPT_POST_FLAG_CLR       cleared
 804:uCOS-III\Source/os_flag.c **** *
 805:uCOS-III\Source/os_flag.c **** *                            you can also 'add' OS_OPT_POST_NO_SCHED to prevent the scheduler from 
 806:uCOS-III\Source/os_flag.c **** *
 807:uCOS-III\Source/os_flag.c **** *              p_err         is a pointer to an error code and can be:
 808:uCOS-III\Source/os_flag.c **** *
 809:uCOS-III\Source/os_flag.c **** *                                OS_ERR_NONE                The call was successful
 810:uCOS-III\Source/os_flag.c **** *                                OS_ERR_OBJ_PTR_NULL        You passed a NULL pointer
 811:uCOS-III\Source/os_flag.c **** *                                OS_ERR_OBJ_TYPE            You are not pointing to an event flag g
 812:uCOS-III\Source/os_flag.c **** *                                OS_ERR_OPT_INVALID         You specified an invalid option
 813:uCOS-III\Source/os_flag.c **** *
 814:uCOS-III\Source/os_flag.c **** * Returns    : the new value of the event flags bits that are still set.
 815:uCOS-III\Source/os_flag.c **** *
 816:uCOS-III\Source/os_flag.c **** * Note(s)    : 1) The execution time of this function depends on the number of tasks waiting on the
 817:uCOS-III\Source/os_flag.c **** ***************************************************************************************************
 818:uCOS-III\Source/os_flag.c **** */
 819:uCOS-III\Source/os_flag.c **** 
 820:uCOS-III\Source/os_flag.c **** OS_FLAGS  OSFlagPost (OS_FLAG_GRP  *p_grp,
 821:uCOS-III\Source/os_flag.c ****                       OS_FLAGS      flags,
 822:uCOS-III\Source/os_flag.c ****                       OS_OPT        opt,
 823:uCOS-III\Source/os_flag.c ****                       OS_ERR       *p_err)
 824:uCOS-III\Source/os_flag.c **** {
 825:uCOS-III\Source/os_flag.c ****     OS_FLAGS  flags_cur;
 826:uCOS-III\Source/os_flag.c ****     CPU_TS    ts;
 827:uCOS-III\Source/os_flag.c **** 
 828:uCOS-III\Source/os_flag.c **** 
 829:uCOS-III\Source/os_flag.c **** 
 830:uCOS-III\Source/os_flag.c **** #ifdef OS_SAFETY_CRITICAL
 831:uCOS-III\Source/os_flag.c ****     if (p_err == (OS_ERR *)0) {
 832:uCOS-III\Source/os_flag.c ****         OS_SAFETY_CRITICAL_EXCEPTION();
 833:uCOS-III\Source/os_flag.c ****         return ((OS_FLAGS)0);
 834:uCOS-III\Source/os_flag.c ****     }
 835:uCOS-III\Source/os_flag.c **** #endif
 836:uCOS-III\Source/os_flag.c **** 
 837:uCOS-III\Source/os_flag.c **** #if OS_CFG_ARG_CHK_EN > 0u
 838:uCOS-III\Source/os_flag.c ****     if (p_grp == (OS_FLAG_GRP *)0) {                        /* Validate 'p_grp'                    
 839:uCOS-III\Source/os_flag.c ****        *p_err  = OS_ERR_OBJ_PTR_NULL;
 840:uCOS-III\Source/os_flag.c ****         return ((OS_FLAGS)0);
 841:uCOS-III\Source/os_flag.c ****     }
 842:uCOS-III\Source/os_flag.c ****     switch (opt) {                                          /* Validate 'opt'                      
 843:uCOS-III\Source/os_flag.c ****         case OS_OPT_POST_FLAG_SET:
 844:uCOS-III\Source/os_flag.c ****         case OS_OPT_POST_FLAG_CLR:
 845:uCOS-III\Source/os_flag.c ****         case OS_OPT_POST_FLAG_SET | OS_OPT_POST_NO_SCHED:
 846:uCOS-III\Source/os_flag.c ****         case OS_OPT_POST_FLAG_CLR | OS_OPT_POST_NO_SCHED:
 847:uCOS-III\Source/os_flag.c ****              break;
 848:uCOS-III\Source/os_flag.c **** 
ARM GAS  C:\Users\jorti\AppData\Local\Temp\ccCX4ftZ.s 			page 20


 849:uCOS-III\Source/os_flag.c ****         default:
 850:uCOS-III\Source/os_flag.c ****             *p_err = OS_ERR_OPT_INVALID;
 851:uCOS-III\Source/os_flag.c ****              return ((OS_FLAGS)0);
 852:uCOS-III\Source/os_flag.c ****     }
 853:uCOS-III\Source/os_flag.c **** #endif
 854:uCOS-III\Source/os_flag.c **** 
 855:uCOS-III\Source/os_flag.c **** #if OS_CFG_OBJ_TYPE_CHK_EN > 0u
 856:uCOS-III\Source/os_flag.c ****     if (p_grp->Type != OS_OBJ_TYPE_FLAG) {                  /* Make sure we are pointing to an even
 857:uCOS-III\Source/os_flag.c ****        *p_err = OS_ERR_OBJ_TYPE;
 858:uCOS-III\Source/os_flag.c ****         return ((OS_FLAGS)0);
 859:uCOS-III\Source/os_flag.c ****     }
 860:uCOS-III\Source/os_flag.c **** #endif
 861:uCOS-III\Source/os_flag.c **** 
 862:uCOS-III\Source/os_flag.c ****     ts = OS_TS_GET();                                       /* Get timestamp                       
 863:uCOS-III\Source/os_flag.c **** #if OS_CFG_ISR_POST_DEFERRED_EN > 0u
 864:uCOS-III\Source/os_flag.c ****     if (OSIntNestingCtr > (OS_NESTING_CTR)0) {              /* See if called from an ISR           
 865:uCOS-III\Source/os_flag.c ****         OS_IntQPost((OS_OBJ_TYPE)OS_OBJ_TYPE_FLAG,          /* Post to ISR queue                   
 866:uCOS-III\Source/os_flag.c ****                     (void      *)p_grp,
 867:uCOS-III\Source/os_flag.c ****                     (void      *)0,
 868:uCOS-III\Source/os_flag.c ****                     (OS_MSG_SIZE)0,
 869:uCOS-III\Source/os_flag.c ****                     (OS_FLAGS   )flags,
 870:uCOS-III\Source/os_flag.c ****                     (OS_OPT     )opt,
 871:uCOS-III\Source/os_flag.c ****                     (CPU_TS     )ts,
 872:uCOS-III\Source/os_flag.c ****                     (OS_ERR    *)p_err);
 873:uCOS-III\Source/os_flag.c ****         return ((OS_FLAGS)0);
 874:uCOS-III\Source/os_flag.c ****     }
 875:uCOS-III\Source/os_flag.c **** #endif
 876:uCOS-III\Source/os_flag.c **** 
 877:uCOS-III\Source/os_flag.c ****     flags_cur = OS_FlagPost(p_grp,
 878:uCOS-III\Source/os_flag.c ****                             flags,
 879:uCOS-III\Source/os_flag.c ****                             opt,
 880:uCOS-III\Source/os_flag.c ****                             ts,
 881:uCOS-III\Source/os_flag.c ****                             p_err);
 882:uCOS-III\Source/os_flag.c **** 
 883:uCOS-III\Source/os_flag.c ****     return (flags_cur);
 884:uCOS-III\Source/os_flag.c **** }
 885:uCOS-III\Source/os_flag.c **** 
 886:uCOS-III\Source/os_flag.c **** /*$PAGE*/
 887:uCOS-III\Source/os_flag.c **** /*
 888:uCOS-III\Source/os_flag.c **** ***************************************************************************************************
 889:uCOS-III\Source/os_flag.c **** *                         SUSPEND TASK UNTIL EVENT FLAG(s) RECEIVED OR TIMEOUT OCCURS
 890:uCOS-III\Source/os_flag.c **** *
 891:uCOS-III\Source/os_flag.c **** * Description: This function is internal to uC/OS-III and is used to put a task to sleep until the 
 892:uCOS-III\Source/os_flag.c **** *              event flag bit(s) are set.
 893:uCOS-III\Source/os_flag.c **** *
 894:uCOS-III\Source/os_flag.c **** * Arguments  : p_pend_data    is a pointer to an object used to link the task being blocked to the 
 895:uCOS-III\Source/os_flag.c **** *              -----------    pending on the desired event flag group.
 896:uCOS-III\Source/os_flag.c **** *
 897:uCOS-III\Source/os_flag.c **** *              p_grp         is a pointer to the desired event flag group.
 898:uCOS-III\Source/os_flag.c **** *              -----
 899:uCOS-III\Source/os_flag.c **** *
 900:uCOS-III\Source/os_flag.c **** *              flags         Is a bit pattern indicating which bit(s) (i.e. flags) you wish to chec
 901:uCOS-III\Source/os_flag.c **** *                            The bits you want are specified by setting the corresponding bits in
 902:uCOS-III\Source/os_flag.c **** *                            'flags'.  e.g. if your application wants to wait for bits 0 and 1 then
 903:uCOS-III\Source/os_flag.c **** *                            'flags' would contain 0x03.
 904:uCOS-III\Source/os_flag.c **** *
 905:uCOS-III\Source/os_flag.c **** *              opt           specifies whether you want ALL bits to be set/cleared or ANY of the bi
ARM GAS  C:\Users\jorti\AppData\Local\Temp\ccCX4ftZ.s 			page 21


 906:uCOS-III\Source/os_flag.c **** *                            to be set/cleared.
 907:uCOS-III\Source/os_flag.c **** *                            You can specify the following argument:
 908:uCOS-III\Source/os_flag.c **** *
 909:uCOS-III\Source/os_flag.c **** *                                OS_OPT_PEND_FLAG_CLR_ALL   You will check ALL bits in 'mask' to be
 910:uCOS-III\Source/os_flag.c **** *                                OS_OPT_PEND_FLAG_CLR_ANY   You will check ANY bit  in 'mask' to be
 911:uCOS-III\Source/os_flag.c **** *                                OS_OPT_PEND_FLAG_SET_ALL   You will check ALL bits in 'mask' to be
 912:uCOS-III\Source/os_flag.c **** *                                OS_OPT_PEND_FLAG_SET_ANY   You will check ANY bit  in 'mask' to be
 913:uCOS-III\Source/os_flag.c **** *
 914:uCOS-III\Source/os_flag.c **** *              timeout       is the desired amount of time that the task will wait for the event fl
 915:uCOS-III\Source/os_flag.c **** *                            bit(s) to be set.
 916:uCOS-III\Source/os_flag.c **** *
 917:uCOS-III\Source/os_flag.c **** * Returns    : none
 918:uCOS-III\Source/os_flag.c **** *
 919:uCOS-III\Source/os_flag.c **** * Note(s)    : This function is INTERNAL to uC/OS-III and your application should not call it.
 920:uCOS-III\Source/os_flag.c **** ***************************************************************************************************
 921:uCOS-III\Source/os_flag.c **** */
 922:uCOS-III\Source/os_flag.c **** 
 923:uCOS-III\Source/os_flag.c **** void  OS_FlagBlock (OS_PEND_DATA  *p_pend_data,
 924:uCOS-III\Source/os_flag.c ****                     OS_FLAG_GRP   *p_grp,
 925:uCOS-III\Source/os_flag.c ****                     OS_FLAGS       flags,
 926:uCOS-III\Source/os_flag.c ****                     OS_OPT         opt,
 927:uCOS-III\Source/os_flag.c ****                     OS_TICK        timeout)
 928:uCOS-III\Source/os_flag.c **** {
 234              		.loc 1 928 0
 235              		.cfi_startproc
 236              		@ args = 4, pretend = 0, frame = 0
 237              		@ frame_needed = 0, uses_anonymous_args = 0
 238              	.LVL25:
 239 0000 10B5     		push	{r4, lr}
 240              		.cfi_def_cfa_offset 8
 241              		.cfi_offset 4, -8
 242              		.cfi_offset 14, -4
 929:uCOS-III\Source/os_flag.c ****     OSTCBCurPtr->FlagsPend = flags;                         /* Save the flags that we need to wait 
 243              		.loc 1 929 0
 244 0002 074C     		ldr	r4, .L24
 245 0004 2468     		ldr	r4, [r4]
 246 0006 C4F88020 		str	r2, [r4, #128]
 930:uCOS-III\Source/os_flag.c ****     OSTCBCurPtr->FlagsOpt  = opt;                           /* Save the type of wait we are doing  
 247              		.loc 1 930 0
 248 000a A4F88830 		strh	r3, [r4, #136]	@ movhi
 931:uCOS-III\Source/os_flag.c ****     OSTCBCurPtr->FlagsRdy  = (OS_FLAGS)0;
 249              		.loc 1 931 0
 250 000e 0023     		movs	r3, #0
 251              	.LVL26:
 252 0010 C4F88430 		str	r3, [r4, #132]
 932:uCOS-III\Source/os_flag.c **** 
 933:uCOS-III\Source/os_flag.c ****     OS_Pend(p_pend_data,
 253              		.loc 1 933 0
 254 0014 029B     		ldr	r3, [sp, #8]
 255 0016 0122     		movs	r2, #1
 256              	.LVL27:
 257 0018 FFF7FEFF 		bl	OS_Pend
 258              	.LVL28:
 259 001c 10BD     		pop	{r4, pc}
 260              	.LVL29:
 261              	.L25:
 262 001e 00BF     		.align	2
ARM GAS  C:\Users\jorti\AppData\Local\Temp\ccCX4ftZ.s 			page 22


 263              	.L24:
 264 0020 00000000 		.word	OSTCBCurPtr
 265              		.cfi_endproc
 266              	.LFE7:
 267              		.size	OS_FlagBlock, .-OS_FlagBlock
 268              		.section	.text.OSFlagPend,"ax",%progbits
 269              		.align	2
 270              		.global	OSFlagPend
 271              		.thumb
 272              		.thumb_func
 273              		.type	OSFlagPend, %function
 274              	OSFlagPend:
 275              	.LFB3:
 321:uCOS-III\Source/os_flag.c ****     CPU_BOOLEAN   consume;
 276              		.loc 1 321 0
 277              		.cfi_startproc
 278              		@ args = 8, pretend = 0, frame = 40
 279              		@ frame_needed = 0, uses_anonymous_args = 0
 280              	.LVL30:
 281 0000 2DE9F04F 		push	{r4, r5, r6, r7, r8, r9, r10, fp, lr}
 282              		.cfi_def_cfa_offset 36
 283              		.cfi_offset 4, -36
 284              		.cfi_offset 5, -32
 285              		.cfi_offset 6, -28
 286              		.cfi_offset 7, -24
 287              		.cfi_offset 8, -20
 288              		.cfi_offset 9, -16
 289              		.cfi_offset 10, -12
 290              		.cfi_offset 11, -8
 291              		.cfi_offset 14, -4
 292 0004 8DB0     		sub	sp, sp, #52
 293              		.cfi_def_cfa_offset 88
 294 0006 179F     		ldr	r7, [sp, #92]
 295              	.LVL31:
 338:uCOS-III\Source/os_flag.c ****        *p_err = OS_ERR_PEND_ISR;                            /* ... can't PEND from an ISR          
 296              		.loc 1 338 0
 297 0008 A34C     		ldr	r4, .L84
 298 000a 2478     		ldrb	r4, [r4]	@ zero_extendqisi2
 299 000c 24B1     		cbz	r4, .L27
 339:uCOS-III\Source/os_flag.c ****         return ((OS_FLAGS)0);
 300              		.loc 1 339 0
 301 000e 46F2AE13 		movw	r3, #25006
 302              	.LVL32:
 303 0012 3B80     		strh	r3, [r7]	@ movhi
 340:uCOS-III\Source/os_flag.c ****     }
 304              		.loc 1 340 0
 305 0014 0020     		movs	r0, #0
 306              	.LVL33:
 307 0016 D1E1     		b	.L28
 308              	.LVL34:
 309              	.L27:
 345:uCOS-III\Source/os_flag.c ****        *p_err = OS_ERR_OBJ_PTR_NULL;
 310              		.loc 1 345 0
 311 0018 18B9     		cbnz	r0, .L29
 346:uCOS-III\Source/os_flag.c ****         return ((OS_FLAGS)0);
 312              		.loc 1 346 0
 313 001a 45F6C353 		movw	r3, #24003
ARM GAS  C:\Users\jorti\AppData\Local\Temp\ccCX4ftZ.s 			page 23


 314              	.LVL35:
 315 001e 3B80     		strh	r3, [r7]	@ movhi
 347:uCOS-III\Source/os_flag.c ****     }
 316              		.loc 1 347 0
 317 0020 CCE1     		b	.L28
 318              	.LVL36:
 319              	.L29:
 349:uCOS-III\Source/os_flag.c ****         case OS_OPT_PEND_FLAG_CLR_ALL:
 320              		.loc 1 349 0
 321 0022 B3F5847F 		cmp	r3, #264
 322 0026 38D0     		beq	.L31
 323 0028 12D8     		bhi	.L32
 324 002a 082B     		cmp	r3, #8
 325 002c 35D0     		beq	.L31
 326 002e 05D8     		bhi	.L33
 327 0030 73B3     		cbz	r3, .L30
 328 0032 022B     		cmp	r3, #2
 329 0034 31D9     		bls	.L31
 330 0036 042B     		cmp	r3, #4
 331 0038 2FD0     		beq	.L31
 332 003a 29E0     		b	.L30
 333              	.L33:
 334 003c B3F5807F 		cmp	r3, #256
 335 0040 26D9     		bls	.L30
 336 0042 B3F5817F 		cmp	r3, #258
 337 0046 28D9     		bls	.L31
 338 0048 B3F5827F 		cmp	r3, #260
 339 004c 25D0     		beq	.L31
 340 004e 1FE0     		b	.L30
 341              	.L32:
 342 0050 48F20804 		movw	r4, #32776
 343 0054 A342     		cmp	r3, r4
 344 0056 20D0     		beq	.L31
 345 0058 0BD8     		bhi	.L34
 346 005a B3F5004F 		cmp	r3, #32768
 347 005e 17D9     		bls	.L30
 348 0060 48F20204 		movw	r4, #32770
 349 0064 A342     		cmp	r3, r4
 350 0066 18D9     		bls	.L31
 351 0068 48F20404 		movw	r4, #32772
 352 006c A342     		cmp	r3, r4
 353 006e 14D0     		beq	.L31
 354 0070 0EE0     		b	.L30
 355              	.L34:
 356 0072 48F20414 		movw	r4, #33028
 357 0076 A342     		cmp	r3, r4
 358 0078 0FD0     		beq	.L31
 359 007a 05D8     		bhi	.L35
 360 007c A3F50144 		sub	r4, r3, #33024
 361 0080 013C     		subs	r4, r4, #1
 362 0082 012C     		cmp	r4, #1
 363 0084 09D9     		bls	.L31
 364 0086 03E0     		b	.L30
 365              	.L35:
 366 0088 48F20814 		movw	r4, #33032
 367 008c A342     		cmp	r3, r4
 368 008e 04D0     		beq	.L31
ARM GAS  C:\Users\jorti\AppData\Local\Temp\ccCX4ftZ.s 			page 24


 369              	.L30:
 369:uCOS-III\Source/os_flag.c ****              return ((OS_OBJ_QTY)0);
 370              		.loc 1 369 0
 371 0090 45F62563 		movw	r3, #24101
 372              	.LVL37:
 373 0094 3B80     		strh	r3, [r7]	@ movhi
 370:uCOS-III\Source/os_flag.c ****     }
 374              		.loc 1 370 0
 375 0096 0020     		movs	r0, #0
 376              	.LVL38:
 377 0098 90E1     		b	.L28
 378              	.LVL39:
 379              	.L31:
 381:uCOS-III\Source/os_flag.c ****         consume = DEF_TRUE;
 380              		.loc 1 381 0
 381 009a 03F48074 		and	r4, r3, #256
 382 009e A4B2     		uxth	r4, r4
 383 00a0 14B1     		cbz	r4, .L81
 382:uCOS-III\Source/os_flag.c ****     } else {
 384              		.loc 1 382 0
 385 00a2 4FF0010B 		mov	fp, #1
 386 00a6 01E0     		b	.L36
 387              	.L81:
 384:uCOS-III\Source/os_flag.c ****     }
 388              		.loc 1 384 0
 389 00a8 4FF0000B 		mov	fp, #0
 390              	.L36:
 391              	.LVL40:
 387:uCOS-III\Source/os_flag.c ****        *p_ts = (CPU_TS)0;                                   /* Initialize the returned timestamp   
 392              		.loc 1 387 0
 393 00ac 169C     		ldr	r4, [sp, #88]
 394 00ae 14B1     		cbz	r4, .L37
 388:uCOS-III\Source/os_flag.c ****     }
 395              		.loc 1 388 0
 396 00b0 0024     		movs	r4, #0
 397 00b2 169D     		ldr	r5, [sp, #88]
 398 00b4 2C60     		str	r4, [r5]
 399              	.L37:
 400 00b6 1C46     		mov	r4, r3
 401 00b8 9246     		mov	r10, r2
 402 00ba 8846     		mov	r8, r1
 403 00bc 0546     		mov	r5, r0
 391:uCOS-III\Source/os_flag.c ****     CPU_CRITICAL_ENTER();
 404              		.loc 1 391 0
 405 00be 03F00F09 		and	r9, r3, #15
 406              	.LVL41:
 392:uCOS-III\Source/os_flag.c ****     switch (mode) {
 407              		.loc 1 392 0
 408 00c2 FFF7FEFF 		bl	CPU_SR_Save
 409              	.LVL42:
 410 00c6 0390     		str	r0, [sp, #12]
 411              	.LVL43:
 393:uCOS-III\Source/os_flag.c ****         case OS_OPT_PEND_FLAG_SET_ALL:                      /* See if all required flags are set   
 412              		.loc 1 393 0
 413 00c8 09F1FF33 		add	r3, r9, #-1
 414 00cc 072B     		cmp	r3, #7
 415 00ce 00F20081 		bhi	.L38
ARM GAS  C:\Users\jorti\AppData\Local\Temp\ccCX4ftZ.s 			page 25


 416 00d2 DFE813F0 		tbh	[pc, r3, lsl #1]
 417              	.L40:
 418 00d6 8100     		.2byte	(.L39-.L40)/2
 419 00d8 BD00     		.2byte	(.L41-.L40)/2
 420 00da FE00     		.2byte	(.L38-.L40)/2
 421 00dc 0800     		.2byte	(.L42-.L40)/2
 422 00de FE00     		.2byte	(.L38-.L40)/2
 423 00e0 FE00     		.2byte	(.L38-.L40)/2
 424 00e2 FE00     		.2byte	(.L38-.L40)/2
 425 00e4 4500     		.2byte	(.L43-.L40)/2
 426              		.p2align 1
 427              	.L42:
 395:uCOS-III\Source/os_flag.c ****              if (flags_rdy == flags) {                      /* Must match ALL the bits that we want
 428              		.loc 1 395 0
 429 00e6 2B6A     		ldr	r3, [r5, #32]
 430 00e8 03EA0806 		and	r6, r3, r8
 431              	.LVL44:
 396:uCOS-III\Source/os_flag.c ****                  if (consume == DEF_TRUE) {                 /* See if we need to consume the flags 
 432              		.loc 1 396 0
 433 00ec B045     		cmp	r8, r6
 434 00ee 15D1     		bne	.L44
 397:uCOS-III\Source/os_flag.c ****                      p_grp->Flags &= ~flags_rdy;            /* Clear ONLY the flags that we wanted 
 435              		.loc 1 397 0
 436 00f0 BBF1000F 		cmp	fp, #0
 437 00f4 02D0     		beq	.L45
 398:uCOS-III\Source/os_flag.c ****                  }
 438              		.loc 1 398 0
 439 00f6 23EA0603 		bic	r3, r3, r6
 440 00fa 2B62     		str	r3, [r5, #32]
 441              	.L45:
 400:uCOS-III\Source/os_flag.c ****                  if (p_ts != (CPU_TS *)0) {
 442              		.loc 1 400 0
 443 00fc 674B     		ldr	r3, .L84+4
 444 00fe 1B68     		ldr	r3, [r3]
 445 0100 C3F88460 		str	r6, [r3, #132]
 401:uCOS-III\Source/os_flag.c ****                     *p_ts  = p_grp->TS;
 446              		.loc 1 401 0
 447 0104 169B     		ldr	r3, [sp, #88]
 448 0106 13B1     		cbz	r3, .L46
 402:uCOS-III\Source/os_flag.c ****                  }
 449              		.loc 1 402 0
 450 0108 6B6A     		ldr	r3, [r5, #36]
 451 010a 169A     		ldr	r2, [sp, #88]
 452 010c 1360     		str	r3, [r2]
 453              	.L46:
 404:uCOS-III\Source/os_flag.c ****                 *p_err = OS_ERR_NONE;
 454              		.loc 1 404 0
 455 010e 0398     		ldr	r0, [sp, #12]
 456              	.LVL45:
 457 0110 FFF7FEFF 		bl	CPU_SR_Restore
 458              	.LVL46:
 405:uCOS-III\Source/os_flag.c ****                  return (flags_rdy);
 459              		.loc 1 405 0
 460 0114 0023     		movs	r3, #0
 461 0116 3B80     		strh	r3, [r7]	@ movhi
 406:uCOS-III\Source/os_flag.c ****              } else {                                       /* Block task until events occur or tim
 462              		.loc 1 406 0
ARM GAS  C:\Users\jorti\AppData\Local\Temp\ccCX4ftZ.s 			page 26


 463 0118 3046     		mov	r0, r6
 464 011a 4FE1     		b	.L28
 465              	.LVL47:
 466              	.L44:
 408:uCOS-III\Source/os_flag.c ****                      CPU_CRITICAL_EXIT();
 467              		.loc 1 408 0
 468 011c 14F4004F 		tst	r4, #32768
 469 0120 07D0     		beq	.L47
 409:uCOS-III\Source/os_flag.c ****                     *p_err = OS_ERR_PEND_WOULD_BLOCK;       /* Specified non-blocking so task would
 470              		.loc 1 409 0
 471 0122 0398     		ldr	r0, [sp, #12]
 472              	.LVL48:
 473 0124 FFF7FEFF 		bl	CPU_SR_Restore
 474              	.LVL49:
 410:uCOS-III\Source/os_flag.c ****                      return ((OS_FLAGS)0);
 475              		.loc 1 410 0
 476 0128 46F2B013 		movw	r3, #25008
 477 012c 3B80     		strh	r3, [r7]	@ movhi
 411:uCOS-III\Source/os_flag.c ****                  } else {                                   /* Specified blocking so check is sched
 478              		.loc 1 411 0
 479 012e 0020     		movs	r0, #0
 480 0130 44E1     		b	.L28
 481              	.LVL50:
 482              	.L47:
 413:uCOS-III\Source/os_flag.c ****                          CPU_CRITICAL_EXIT();
 483              		.loc 1 413 0
 484 0132 5B4B     		ldr	r3, .L84+8
 485 0134 1B78     		ldrb	r3, [r3]	@ zero_extendqisi2
 486 0136 3BB1     		cbz	r3, .L48
 414:uCOS-III\Source/os_flag.c ****                         *p_err = OS_ERR_SCHED_LOCKED;                 /* ... can't PEND when locked
 487              		.loc 1 414 0
 488 0138 0398     		ldr	r0, [sp, #12]
 489              	.LVL51:
 490 013a FFF7FEFF 		bl	CPU_SR_Restore
 491              	.LVL52:
 415:uCOS-III\Source/os_flag.c ****                          return ((OS_FLAGS)0);
 492              		.loc 1 415 0
 493 013e 46F66353 		movw	r3, #28003
 494 0142 3B80     		strh	r3, [r7]	@ movhi
 416:uCOS-III\Source/os_flag.c ****                      }
 495              		.loc 1 416 0
 496 0144 0020     		movs	r0, #0
 497 0146 39E1     		b	.L28
 498              	.LVL53:
 499              	.L48:
 421:uCOS-III\Source/os_flag.c ****                               p_grp,
 500              		.loc 1 421 0
 501 0148 CDF800A0 		str	r10, [sp]
 502 014c 2346     		mov	r3, r4
 503 014e 4246     		mov	r2, r8
 504 0150 2946     		mov	r1, r5
 505 0152 04A8     		add	r0, sp, #16
 506              	.LVL54:
 507 0154 FFF7FEFF 		bl	OS_FlagBlock
 508              	.LVL55:
 426:uCOS-III\Source/os_flag.c ****              }
 509              		.loc 1 426 0
ARM GAS  C:\Users\jorti\AppData\Local\Temp\ccCX4ftZ.s 			page 27


 510 0158 0398     		ldr	r0, [sp, #12]
 511 015a FFF7FEFF 		bl	CPU_SR_Restore
 512              	.LVL56:
 428:uCOS-III\Source/os_flag.c **** 
 513              		.loc 1 428 0
 514 015e C0E0     		b	.L49
 515              	.LVL57:
 516              	.L43:
 431:uCOS-III\Source/os_flag.c ****              if (flags_rdy != (OS_FLAGS)0) {                /* See if any flag set                 
 517              		.loc 1 431 0
 518 0160 2B6A     		ldr	r3, [r5, #32]
 519              	.LVL58:
 432:uCOS-III\Source/os_flag.c ****                  if (consume == DEF_TRUE) {                 /* See if we need to consume the flags 
 520              		.loc 1 432 0
 521 0162 18EA0306 		ands	r6, r8, r3
 522              	.LVL59:
 523 0166 15D0     		beq	.L50
 433:uCOS-III\Source/os_flag.c ****                      p_grp->Flags &= ~flags_rdy;            /* Clear ONLY the flags that we got    
 524              		.loc 1 433 0
 525 0168 BBF1000F 		cmp	fp, #0
 526 016c 02D0     		beq	.L51
 434:uCOS-III\Source/os_flag.c ****                  }
 527              		.loc 1 434 0
 528 016e 23EA0603 		bic	r3, r3, r6
 529 0172 2B62     		str	r3, [r5, #32]
 530              	.L51:
 436:uCOS-III\Source/os_flag.c ****                  if (p_ts != (CPU_TS *)0) {
 531              		.loc 1 436 0
 532 0174 494B     		ldr	r3, .L84+4
 533 0176 1B68     		ldr	r3, [r3]
 534 0178 C3F88460 		str	r6, [r3, #132]
 437:uCOS-III\Source/os_flag.c ****                     *p_ts  = p_grp->TS;
 535              		.loc 1 437 0
 536 017c 169B     		ldr	r3, [sp, #88]
 537 017e 13B1     		cbz	r3, .L52
 438:uCOS-III\Source/os_flag.c ****                  }
 538              		.loc 1 438 0
 539 0180 6B6A     		ldr	r3, [r5, #36]
 540 0182 169A     		ldr	r2, [sp, #88]
 541 0184 1360     		str	r3, [r2]
 542              	.L52:
 440:uCOS-III\Source/os_flag.c ****                 *p_err = OS_ERR_NONE;
 543              		.loc 1 440 0
 544 0186 0398     		ldr	r0, [sp, #12]
 545              	.LVL60:
 546 0188 FFF7FEFF 		bl	CPU_SR_Restore
 547              	.LVL61:
 441:uCOS-III\Source/os_flag.c ****                  return (flags_rdy);
 548              		.loc 1 441 0
 549 018c 0023     		movs	r3, #0
 550 018e 3B80     		strh	r3, [r7]	@ movhi
 442:uCOS-III\Source/os_flag.c ****              } else {                                       /* Block task until events occur or tim
 551              		.loc 1 442 0
 552 0190 3046     		mov	r0, r6
 553 0192 13E1     		b	.L28
 554              	.LVL62:
 555              	.L50:
ARM GAS  C:\Users\jorti\AppData\Local\Temp\ccCX4ftZ.s 			page 28


 444:uCOS-III\Source/os_flag.c ****                      CPU_CRITICAL_EXIT();
 556              		.loc 1 444 0
 557 0194 14F4004F 		tst	r4, #32768
 558 0198 07D0     		beq	.L53
 445:uCOS-III\Source/os_flag.c ****                     *p_err = OS_ERR_PEND_WOULD_BLOCK;       /* Specified non-blocking so task would
 559              		.loc 1 445 0
 560 019a 0398     		ldr	r0, [sp, #12]
 561              	.LVL63:
 562 019c FFF7FEFF 		bl	CPU_SR_Restore
 563              	.LVL64:
 446:uCOS-III\Source/os_flag.c ****                      return ((OS_FLAGS)0);
 564              		.loc 1 446 0
 565 01a0 46F2B013 		movw	r3, #25008
 566 01a4 3B80     		strh	r3, [r7]	@ movhi
 447:uCOS-III\Source/os_flag.c ****                  } else {                                   /* Specified blocking so check is sched
 567              		.loc 1 447 0
 568 01a6 0020     		movs	r0, #0
 569 01a8 08E1     		b	.L28
 570              	.LVL65:
 571              	.L53:
 449:uCOS-III\Source/os_flag.c ****                          CPU_CRITICAL_EXIT();
 572              		.loc 1 449 0
 573 01aa 3D4B     		ldr	r3, .L84+8
 574 01ac 1B78     		ldrb	r3, [r3]	@ zero_extendqisi2
 575 01ae 3BB1     		cbz	r3, .L54
 450:uCOS-III\Source/os_flag.c ****                         *p_err = OS_ERR_SCHED_LOCKED;                 /* ... can't PEND when locked
 576              		.loc 1 450 0
 577 01b0 0398     		ldr	r0, [sp, #12]
 578              	.LVL66:
 579 01b2 FFF7FEFF 		bl	CPU_SR_Restore
 580              	.LVL67:
 451:uCOS-III\Source/os_flag.c ****                          return ((OS_FLAGS)0);
 581              		.loc 1 451 0
 582 01b6 46F66353 		movw	r3, #28003
 583 01ba 3B80     		strh	r3, [r7]	@ movhi
 452:uCOS-III\Source/os_flag.c ****                      }
 584              		.loc 1 452 0
 585 01bc 0020     		movs	r0, #0
 586 01be FDE0     		b	.L28
 587              	.LVL68:
 588              	.L54:
 457:uCOS-III\Source/os_flag.c ****                               p_grp,
 589              		.loc 1 457 0
 590 01c0 CDF800A0 		str	r10, [sp]
 591 01c4 2346     		mov	r3, r4
 592 01c6 4246     		mov	r2, r8
 593 01c8 2946     		mov	r1, r5
 594 01ca 04A8     		add	r0, sp, #16
 595              	.LVL69:
 596 01cc FFF7FEFF 		bl	OS_FlagBlock
 597              	.LVL70:
 462:uCOS-III\Source/os_flag.c ****              }
 598              		.loc 1 462 0
 599 01d0 0398     		ldr	r0, [sp, #12]
 600 01d2 FFF7FEFF 		bl	CPU_SR_Restore
 601              	.LVL71:
 464:uCOS-III\Source/os_flag.c **** 
ARM GAS  C:\Users\jorti\AppData\Local\Temp\ccCX4ftZ.s 			page 29


 602              		.loc 1 464 0
 603 01d6 84E0     		b	.L49
 604              	.LVL72:
 605              	.L39:
 468:uCOS-III\Source/os_flag.c ****              if (flags_rdy == flags) {                      /* Must match ALL the bits that we want
 606              		.loc 1 468 0
 607 01d8 2B6A     		ldr	r3, [r5, #32]
 608 01da 28EA0306 		bic	r6, r8, r3
 609              	.LVL73:
 469:uCOS-III\Source/os_flag.c ****                  if (consume == DEF_TRUE) {                 /* See if we need to consume the flags 
 610              		.loc 1 469 0
 611 01de B045     		cmp	r8, r6
 612 01e0 14D1     		bne	.L55
 470:uCOS-III\Source/os_flag.c ****                      p_grp->Flags |= flags_rdy;             /* Set ONLY the flags that we wanted   
 613              		.loc 1 470 0
 614 01e2 BBF1000F 		cmp	fp, #0
 615 01e6 01D0     		beq	.L56
 471:uCOS-III\Source/os_flag.c ****                  }
 616              		.loc 1 471 0
 617 01e8 3343     		orrs	r3, r3, r6
 618 01ea 2B62     		str	r3, [r5, #32]
 619              	.L56:
 473:uCOS-III\Source/os_flag.c ****                  if (p_ts != (CPU_TS *)0) {
 620              		.loc 1 473 0
 621 01ec 2B4B     		ldr	r3, .L84+4
 622 01ee 1B68     		ldr	r3, [r3]
 623 01f0 C3F88460 		str	r6, [r3, #132]
 474:uCOS-III\Source/os_flag.c ****                     *p_ts  = p_grp->TS;
 624              		.loc 1 474 0
 625 01f4 169B     		ldr	r3, [sp, #88]
 626 01f6 13B1     		cbz	r3, .L57
 475:uCOS-III\Source/os_flag.c ****                  }
 627              		.loc 1 475 0
 628 01f8 6B6A     		ldr	r3, [r5, #36]
 629 01fa 169A     		ldr	r2, [sp, #88]
 630 01fc 1360     		str	r3, [r2]
 631              	.L57:
 477:uCOS-III\Source/os_flag.c ****                 *p_err = OS_ERR_NONE;
 632              		.loc 1 477 0
 633 01fe 0398     		ldr	r0, [sp, #12]
 634              	.LVL74:
 635 0200 FFF7FEFF 		bl	CPU_SR_Restore
 636              	.LVL75:
 478:uCOS-III\Source/os_flag.c ****                  return (flags_rdy);
 637              		.loc 1 478 0
 638 0204 0023     		movs	r3, #0
 639 0206 3B80     		strh	r3, [r7]	@ movhi
 479:uCOS-III\Source/os_flag.c ****              } else {                                       /* Block task until events occur or tim
 640              		.loc 1 479 0
 641 0208 3046     		mov	r0, r6
 642 020a D7E0     		b	.L28
 643              	.LVL76:
 644              	.L55:
 481:uCOS-III\Source/os_flag.c ****                      CPU_CRITICAL_EXIT();
 645              		.loc 1 481 0
 646 020c 14F4004F 		tst	r4, #32768
 647 0210 07D0     		beq	.L58
ARM GAS  C:\Users\jorti\AppData\Local\Temp\ccCX4ftZ.s 			page 30


 482:uCOS-III\Source/os_flag.c ****                     *p_err = OS_ERR_PEND_WOULD_BLOCK;       /* Specified non-blocking so task would
 648              		.loc 1 482 0
 649 0212 0398     		ldr	r0, [sp, #12]
 650              	.LVL77:
 651 0214 FFF7FEFF 		bl	CPU_SR_Restore
 652              	.LVL78:
 483:uCOS-III\Source/os_flag.c ****                      return ((OS_FLAGS)0);
 653              		.loc 1 483 0
 654 0218 46F2B013 		movw	r3, #25008
 655 021c 3B80     		strh	r3, [r7]	@ movhi
 484:uCOS-III\Source/os_flag.c ****                  } else {                                   /* Specified blocking so check is sched
 656              		.loc 1 484 0
 657 021e 0020     		movs	r0, #0
 658 0220 CCE0     		b	.L28
 659              	.LVL79:
 660              	.L58:
 486:uCOS-III\Source/os_flag.c ****                          CPU_CRITICAL_EXIT();
 661              		.loc 1 486 0
 662 0222 1F4B     		ldr	r3, .L84+8
 663 0224 1B78     		ldrb	r3, [r3]	@ zero_extendqisi2
 664 0226 3BB1     		cbz	r3, .L59
 487:uCOS-III\Source/os_flag.c ****                         *p_err = OS_ERR_SCHED_LOCKED;                 /* ... can't PEND when locked
 665              		.loc 1 487 0
 666 0228 0398     		ldr	r0, [sp, #12]
 667              	.LVL80:
 668 022a FFF7FEFF 		bl	CPU_SR_Restore
 669              	.LVL81:
 488:uCOS-III\Source/os_flag.c ****                          return ((OS_FLAGS)0);
 670              		.loc 1 488 0
 671 022e 46F66353 		movw	r3, #28003
 672 0232 3B80     		strh	r3, [r7]	@ movhi
 489:uCOS-III\Source/os_flag.c ****                      }
 673              		.loc 1 489 0
 674 0234 0020     		movs	r0, #0
 675 0236 C1E0     		b	.L28
 676              	.LVL82:
 677              	.L59:
 494:uCOS-III\Source/os_flag.c ****                               p_grp,
 678              		.loc 1 494 0
 679 0238 CDF800A0 		str	r10, [sp]
 680 023c 2346     		mov	r3, r4
 681 023e 4246     		mov	r2, r8
 682 0240 2946     		mov	r1, r5
 683 0242 04A8     		add	r0, sp, #16
 684              	.LVL83:
 685 0244 FFF7FEFF 		bl	OS_FlagBlock
 686              	.LVL84:
 499:uCOS-III\Source/os_flag.c ****              }
 687              		.loc 1 499 0
 688 0248 0398     		ldr	r0, [sp, #12]
 689 024a FFF7FEFF 		bl	CPU_SR_Restore
 690              	.LVL85:
 501:uCOS-III\Source/os_flag.c **** 
 691              		.loc 1 501 0
 692 024e 48E0     		b	.L49
 693              	.LVL86:
 694              	.L41:
ARM GAS  C:\Users\jorti\AppData\Local\Temp\ccCX4ftZ.s 			page 31


 504:uCOS-III\Source/os_flag.c ****              if (flags_rdy != (OS_FLAGS)0) {                /* See if any flag cleared             
 695              		.loc 1 504 0
 696 0250 2B6A     		ldr	r3, [r5, #32]
 697              	.LVL87:
 505:uCOS-III\Source/os_flag.c ****                  if (consume == DEF_TRUE) {                 /* See if we need to consume the flags 
 698              		.loc 1 505 0
 699 0252 38EA0306 		bics	r6, r8, r3
 700              	.LVL88:
 701 0256 14D0     		beq	.L60
 506:uCOS-III\Source/os_flag.c ****                      p_grp->Flags |= flags_rdy;             /* Set ONLY the flags that we got      
 702              		.loc 1 506 0
 703 0258 BBF1000F 		cmp	fp, #0
 704 025c 01D0     		beq	.L61
 507:uCOS-III\Source/os_flag.c ****                  }
 705              		.loc 1 507 0
 706 025e 3343     		orrs	r3, r3, r6
 707 0260 2B62     		str	r3, [r5, #32]
 708              	.L61:
 509:uCOS-III\Source/os_flag.c ****                  if (p_ts != (CPU_TS *)0) {
 709              		.loc 1 509 0
 710 0262 0E4B     		ldr	r3, .L84+4
 711 0264 1B68     		ldr	r3, [r3]
 712 0266 C3F88460 		str	r6, [r3, #132]
 510:uCOS-III\Source/os_flag.c ****                     *p_ts  = p_grp->TS;
 713              		.loc 1 510 0
 714 026a 169B     		ldr	r3, [sp, #88]
 715 026c 13B1     		cbz	r3, .L62
 511:uCOS-III\Source/os_flag.c ****                  }
 716              		.loc 1 511 0
 717 026e 6B6A     		ldr	r3, [r5, #36]
 718 0270 169A     		ldr	r2, [sp, #88]
 719 0272 1360     		str	r3, [r2]
 720              	.L62:
 513:uCOS-III\Source/os_flag.c ****                 *p_err = OS_ERR_NONE;
 721              		.loc 1 513 0
 722 0274 0398     		ldr	r0, [sp, #12]
 723              	.LVL89:
 724 0276 FFF7FEFF 		bl	CPU_SR_Restore
 725              	.LVL90:
 514:uCOS-III\Source/os_flag.c ****                  return (flags_rdy);
 726              		.loc 1 514 0
 727 027a 0023     		movs	r3, #0
 728 027c 3B80     		strh	r3, [r7]	@ movhi
 515:uCOS-III\Source/os_flag.c ****              } else {                                       /* Block task until events occur or tim
 729              		.loc 1 515 0
 730 027e 3046     		mov	r0, r6
 731 0280 9CE0     		b	.L28
 732              	.LVL91:
 733              	.L60:
 517:uCOS-III\Source/os_flag.c ****                      CPU_CRITICAL_EXIT();
 734              		.loc 1 517 0
 735 0282 14F4004F 		tst	r4, #32768
 736 0286 0DD0     		beq	.L63
 518:uCOS-III\Source/os_flag.c ****                     *p_err = OS_ERR_PEND_WOULD_BLOCK;       /* Specified non-blocking so task would
 737              		.loc 1 518 0
 738 0288 0398     		ldr	r0, [sp, #12]
 739              	.LVL92:
ARM GAS  C:\Users\jorti\AppData\Local\Temp\ccCX4ftZ.s 			page 32


 740 028a FFF7FEFF 		bl	CPU_SR_Restore
 741              	.LVL93:
 519:uCOS-III\Source/os_flag.c ****                      return ((OS_FLAGS)0);
 742              		.loc 1 519 0
 743 028e 46F2B013 		movw	r3, #25008
 744 0292 3B80     		strh	r3, [r7]	@ movhi
 520:uCOS-III\Source/os_flag.c ****                  } else {                                   /* Specified blocking so check is sched
 745              		.loc 1 520 0
 746 0294 0020     		movs	r0, #0
 747 0296 91E0     		b	.L28
 748              	.L85:
 749              		.align	2
 750              	.L84:
 751 0298 00000000 		.word	OSIntNestingCtr
 752 029c 00000000 		.word	OSTCBCurPtr
 753 02a0 00000000 		.word	OSSchedLockNestingCtr
 754              	.LVL94:
 755              	.L63:
 522:uCOS-III\Source/os_flag.c ****                          CPU_CRITICAL_EXIT();
 756              		.loc 1 522 0
 757 02a4 474B     		ldr	r3, .L86
 758 02a6 1B78     		ldrb	r3, [r3]	@ zero_extendqisi2
 759 02a8 3BB1     		cbz	r3, .L64
 523:uCOS-III\Source/os_flag.c ****                         *p_err = OS_ERR_SCHED_LOCKED;                 /* ... can't PEND when locked
 760              		.loc 1 523 0
 761 02aa 0398     		ldr	r0, [sp, #12]
 762              	.LVL95:
 763 02ac FFF7FEFF 		bl	CPU_SR_Restore
 764              	.LVL96:
 524:uCOS-III\Source/os_flag.c ****                          return ((OS_FLAGS)0);
 765              		.loc 1 524 0
 766 02b0 46F66353 		movw	r3, #28003
 767 02b4 3B80     		strh	r3, [r7]	@ movhi
 525:uCOS-III\Source/os_flag.c ****                      }
 768              		.loc 1 525 0
 769 02b6 0020     		movs	r0, #0
 770 02b8 80E0     		b	.L28
 771              	.LVL97:
 772              	.L64:
 530:uCOS-III\Source/os_flag.c ****                               p_grp,
 773              		.loc 1 530 0
 774 02ba CDF800A0 		str	r10, [sp]
 775 02be 2346     		mov	r3, r4
 776 02c0 4246     		mov	r2, r8
 777 02c2 2946     		mov	r1, r5
 778 02c4 04A8     		add	r0, sp, #16
 779              	.LVL98:
 780 02c6 FFF7FEFF 		bl	OS_FlagBlock
 781              	.LVL99:
 535:uCOS-III\Source/os_flag.c ****              }
 782              		.loc 1 535 0
 783 02ca 0398     		ldr	r0, [sp, #12]
 784 02cc FFF7FEFF 		bl	CPU_SR_Restore
 785              	.LVL100:
 537:uCOS-III\Source/os_flag.c **** #endif
 786              		.loc 1 537 0
 787 02d0 07E0     		b	.L49
ARM GAS  C:\Users\jorti\AppData\Local\Temp\ccCX4ftZ.s 			page 33


 788              	.LVL101:
 789              	.L38:
 541:uCOS-III\Source/os_flag.c ****             *p_err = OS_ERR_OPT_INVALID;
 790              		.loc 1 541 0
 791 02d2 0398     		ldr	r0, [sp, #12]
 792              	.LVL102:
 793 02d4 FFF7FEFF 		bl	CPU_SR_Restore
 794              	.LVL103:
 542:uCOS-III\Source/os_flag.c ****              return ((OS_FLAGS)0);
 795              		.loc 1 542 0
 796 02d8 45F62563 		movw	r3, #24101
 797 02dc 3B80     		strh	r3, [r7]	@ movhi
 543:uCOS-III\Source/os_flag.c ****     }
 798              		.loc 1 543 0
 799 02de 0020     		movs	r0, #0
 800 02e0 6CE0     		b	.L28
 801              	.LVL104:
 802              	.L49:
 546:uCOS-III\Source/os_flag.c **** 
 803              		.loc 1 546 0
 804 02e2 FFF7FEFF 		bl	OSSched
 805              	.LVL105:
 548:uCOS-III\Source/os_flag.c ****     switch (OSTCBCurPtr->PendStatus) {
 806              		.loc 1 548 0
 807 02e6 FFF7FEFF 		bl	CPU_SR_Save
 808              	.LVL106:
 809 02ea 0446     		mov	r4, r0
 810              	.LVL107:
 549:uCOS-III\Source/os_flag.c ****         case OS_STATUS_PEND_OK:                             /* We got the vent flags               
 811              		.loc 1 549 0
 812 02ec 364B     		ldr	r3, .L86+4
 813 02ee 1A68     		ldr	r2, [r3]
 814 02f0 92F83530 		ldrb	r3, [r2, #53]	@ zero_extendqisi2
 815 02f4 032B     		cmp	r3, #3
 816 02f6 2FD8     		bhi	.L65
 817 02f8 DFE803F0 		tbb	[pc, r3]
 818              	.L67:
 819 02fc 02       		.byte	(.L66-.L67)/2
 820 02fd 0A       		.byte	(.L68-.L67)/2
 821 02fe 22       		.byte	(.L69-.L67)/2
 822 02ff 16       		.byte	(.L70-.L67)/2
 823              		.p2align 1
 824              	.L66:
 551:uCOS-III\Source/os_flag.c ****                 *p_ts  = OSTCBCurPtr->TS;
 825              		.loc 1 551 0
 826 0300 169B     		ldr	r3, [sp, #88]
 827 0302 13B1     		cbz	r3, .L71
 552:uCOS-III\Source/os_flag.c ****              }
 828              		.loc 1 552 0
 829 0304 136C     		ldr	r3, [r2, #64]
 830 0306 169A     		ldr	r2, [sp, #88]
 831 0308 1360     		str	r3, [r2]
 832              	.L71:
 554:uCOS-III\Source/os_flag.c ****              break;
 833              		.loc 1 554 0
 834 030a 0023     		movs	r3, #0
 835 030c 3B80     		strh	r3, [r7]	@ movhi
ARM GAS  C:\Users\jorti\AppData\Local\Temp\ccCX4ftZ.s 			page 34


 555:uCOS-III\Source/os_flag.c **** 
 836              		.loc 1 555 0
 837 030e 28E0     		b	.L72
 838              	.L68:
 558:uCOS-III\Source/os_flag.c ****                 *p_ts  = OSTCBCurPtr->TS;
 839              		.loc 1 558 0
 840 0310 169B     		ldr	r3, [sp, #88]
 841 0312 13B1     		cbz	r3, .L73
 559:uCOS-III\Source/os_flag.c ****              }
 842              		.loc 1 559 0
 843 0314 136C     		ldr	r3, [r2, #64]
 844 0316 169A     		ldr	r2, [sp, #88]
 845 0318 1360     		str	r3, [r2]
 846              	.L73:
 561:uCOS-III\Source/os_flag.c ****             *p_err = OS_ERR_PEND_ABORT;
 847              		.loc 1 561 0
 848 031a 2046     		mov	r0, r4
 849              	.LVL108:
 850 031c FFF7FEFF 		bl	CPU_SR_Restore
 851              	.LVL109:
 562:uCOS-III\Source/os_flag.c ****              break;
 852              		.loc 1 562 0
 853 0320 46F2A913 		movw	r3, #25001
 854 0324 3B80     		strh	r3, [r7]	@ movhi
 563:uCOS-III\Source/os_flag.c **** 
 855              		.loc 1 563 0
 856 0326 1CE0     		b	.L72
 857              	.LVL110:
 858              	.L70:
 566:uCOS-III\Source/os_flag.c ****                 *p_ts  = (CPU_TS  )0;
 859              		.loc 1 566 0
 860 0328 169B     		ldr	r3, [sp, #88]
 861 032a 13B1     		cbz	r3, .L74
 567:uCOS-III\Source/os_flag.c ****              }
 862              		.loc 1 567 0
 863 032c 0023     		movs	r3, #0
 864 032e 169A     		ldr	r2, [sp, #88]
 865 0330 1360     		str	r3, [r2]
 866              	.L74:
 569:uCOS-III\Source/os_flag.c ****             *p_err = OS_ERR_TIMEOUT;
 867              		.loc 1 569 0
 868 0332 2046     		mov	r0, r4
 869              	.LVL111:
 870 0334 FFF7FEFF 		bl	CPU_SR_Restore
 871              	.LVL112:
 570:uCOS-III\Source/os_flag.c ****              break;
 872              		.loc 1 570 0
 873 0338 47F2D923 		movw	r3, #29401
 874 033c 3B80     		strh	r3, [r7]	@ movhi
 571:uCOS-III\Source/os_flag.c **** 
 875              		.loc 1 571 0
 876 033e 10E0     		b	.L72
 877              	.LVL113:
 878              	.L69:
 574:uCOS-III\Source/os_flag.c ****                 *p_ts  = OSTCBCurPtr->TS;
 879              		.loc 1 574 0
 880 0340 169B     		ldr	r3, [sp, #88]
ARM GAS  C:\Users\jorti\AppData\Local\Temp\ccCX4ftZ.s 			page 35


 881 0342 13B1     		cbz	r3, .L75
 575:uCOS-III\Source/os_flag.c ****              }
 882              		.loc 1 575 0
 883 0344 136C     		ldr	r3, [r2, #64]
 884 0346 169A     		ldr	r2, [sp, #88]
 885 0348 1360     		str	r3, [r2]
 886              	.L75:
 577:uCOS-III\Source/os_flag.c ****             *p_err = OS_ERR_OBJ_DEL;
 887              		.loc 1 577 0
 888 034a 2046     		mov	r0, r4
 889              	.LVL114:
 890 034c FFF7FEFF 		bl	CPU_SR_Restore
 891              	.LVL115:
 578:uCOS-III\Source/os_flag.c ****              break;
 892              		.loc 1 578 0
 893 0350 45F6C253 		movw	r3, #24002
 894 0354 3B80     		strh	r3, [r7]	@ movhi
 579:uCOS-III\Source/os_flag.c **** 
 895              		.loc 1 579 0
 896 0356 04E0     		b	.L72
 897              	.LVL116:
 898              	.L65:
 582:uCOS-III\Source/os_flag.c ****             *p_err = OS_ERR_STATUS_INVALID;
 899              		.loc 1 582 0
 900 0358 FFF7FEFF 		bl	CPU_SR_Restore
 901              	.LVL117:
 583:uCOS-III\Source/os_flag.c ****              break;
 902              		.loc 1 583 0
 903 035c 46F62E63 		movw	r3, #28206
 904 0360 3B80     		strh	r3, [r7]	@ movhi
 905              	.L72:
 586:uCOS-III\Source/os_flag.c ****         return ((OS_FLAGS)0);
 906              		.loc 1 586 0
 907 0362 3B88     		ldrh	r3, [r7]
 908 0364 4BBB     		cbnz	r3, .L82
 590:uCOS-III\Source/os_flag.c ****     if (consume == DEF_TRUE) {                              /* See if we need to consume the flags 
 909              		.loc 1 590 0
 910 0366 184B     		ldr	r3, .L86+4
 911 0368 1B68     		ldr	r3, [r3]
 912 036a D3F88460 		ldr	r6, [r3, #132]
 913              	.LVL118:
 591:uCOS-III\Source/os_flag.c ****         switch (mode) {
 914              		.loc 1 591 0
 915 036e BBF1000F 		cmp	fp, #0
 916 0372 1BD0     		beq	.L76
 592:uCOS-III\Source/os_flag.c ****             case OS_OPT_PEND_FLAG_SET_ALL:
 917              		.loc 1 592 0
 918 0374 09F1FF39 		add	r9, r9, #-1
 919              	.LVL119:
 920 0378 B9F1070F 		cmp	r9, #7
 921 037c 0ED8     		bhi	.L77
 922 037e DFE809F0 		tbb	[pc, r9]
 923              	.L79:
 924 0382 09       		.byte	(.L78-.L79)/2
 925 0383 09       		.byte	(.L78-.L79)/2
 926 0384 0D       		.byte	(.L77-.L79)/2
 927 0385 04       		.byte	(.L80-.L79)/2
ARM GAS  C:\Users\jorti\AppData\Local\Temp\ccCX4ftZ.s 			page 36


 928 0386 0D       		.byte	(.L77-.L79)/2
 929 0387 0D       		.byte	(.L77-.L79)/2
 930 0388 0D       		.byte	(.L77-.L79)/2
 931 0389 04       		.byte	(.L80-.L79)/2
 932              		.p2align 1
 933              	.L80:
 595:uCOS-III\Source/os_flag.c ****                  break;
 934              		.loc 1 595 0
 935 038a 2B6A     		ldr	r3, [r5, #32]
 936 038c 23EA0603 		bic	r3, r3, r6
 937 0390 2B62     		str	r3, [r5, #32]
 596:uCOS-III\Source/os_flag.c **** 
 938              		.loc 1 596 0
 939 0392 0BE0     		b	.L76
 940              	.L78:
 601:uCOS-III\Source/os_flag.c ****                  break;
 941              		.loc 1 601 0
 942 0394 2B6A     		ldr	r3, [r5, #32]
 943 0396 3343     		orrs	r3, r3, r6
 944 0398 2B62     		str	r3, [r5, #32]
 602:uCOS-III\Source/os_flag.c **** #endif
 945              		.loc 1 602 0
 946 039a 07E0     		b	.L76
 947              	.L77:
 605:uCOS-III\Source/os_flag.c ****                 *p_err = OS_ERR_OPT_INVALID;
 948              		.loc 1 605 0
 949 039c 2046     		mov	r0, r4
 950 039e FFF7FEFF 		bl	CPU_SR_Restore
 951              	.LVL120:
 606:uCOS-III\Source/os_flag.c ****                  return ((OS_FLAGS)0);
 952              		.loc 1 606 0
 953 03a2 45F62563 		movw	r3, #24101
 954 03a6 3B80     		strh	r3, [r7]	@ movhi
 607:uCOS-III\Source/os_flag.c ****         }
 955              		.loc 1 607 0
 956 03a8 0020     		movs	r0, #0
 957 03aa 07E0     		b	.L28
 958              	.LVL121:
 959              	.L76:
 610:uCOS-III\Source/os_flag.c ****    *p_err = OS_ERR_NONE;                                    /* Event(s) must have occurred         
 960              		.loc 1 610 0
 961 03ac 2046     		mov	r0, r4
 962 03ae FFF7FEFF 		bl	CPU_SR_Restore
 963              	.LVL122:
 611:uCOS-III\Source/os_flag.c ****     return (flags_rdy);
 964              		.loc 1 611 0
 965 03b2 0023     		movs	r3, #0
 966 03b4 3B80     		strh	r3, [r7]	@ movhi
 612:uCOS-III\Source/os_flag.c **** }
 967              		.loc 1 612 0
 968 03b6 3046     		mov	r0, r6
 969 03b8 00E0     		b	.L28
 970              	.LVL123:
 971              	.L82:
 587:uCOS-III\Source/os_flag.c ****     }
 972              		.loc 1 587 0
 973 03ba 0020     		movs	r0, #0
ARM GAS  C:\Users\jorti\AppData\Local\Temp\ccCX4ftZ.s 			page 37


 974              	.LVL124:
 975              	.L28:
 613:uCOS-III\Source/os_flag.c **** 
 976              		.loc 1 613 0
 977 03bc 0DB0     		add	sp, sp, #52
 978              		.cfi_def_cfa_offset 36
 979              		@ sp needed
 980 03be BDE8F08F 		pop	{r4, r5, r6, r7, r8, r9, r10, fp, pc}
 981              	.LVL125:
 982              	.L87:
 983 03c2 00BF     		.align	2
 984              	.L86:
 985 03c4 00000000 		.word	OSSchedLockNestingCtr
 986 03c8 00000000 		.word	OSTCBCurPtr
 987              		.cfi_endproc
 988              	.LFE3:
 989              		.size	OSFlagPend, .-OSFlagPend
 990              		.section	.text.OS_FlagClr,"ax",%progbits
 991              		.align	2
 992              		.global	OS_FlagClr
 993              		.thumb
 994              		.thumb_func
 995              		.type	OS_FlagClr, %function
 996              	OS_FlagClr:
 997              	.LFB8:
 934:uCOS-III\Source/os_flag.c ****             (OS_PEND_OBJ *)((void *)p_grp),
 935:uCOS-III\Source/os_flag.c ****              OS_TASK_PEND_ON_FLAG,
 936:uCOS-III\Source/os_flag.c ****              timeout);
 937:uCOS-III\Source/os_flag.c **** }
 938:uCOS-III\Source/os_flag.c **** 
 939:uCOS-III\Source/os_flag.c **** /*$PAGE*/
 940:uCOS-III\Source/os_flag.c **** /*
 941:uCOS-III\Source/os_flag.c **** ***************************************************************************************************
 942:uCOS-III\Source/os_flag.c **** *                                      CLEAR THE CONTENTS OF AN EVENT FLAG GROUP
 943:uCOS-III\Source/os_flag.c **** *
 944:uCOS-III\Source/os_flag.c **** * Description: This function is called by OSFlagDel() to clear the contents of an event flag group
 945:uCOS-III\Source/os_flag.c **** *
 946:uCOS-III\Source/os_flag.c **** 
 947:uCOS-III\Source/os_flag.c **** * Argument(s): p_grp     is a pointer to the event flag group to clear
 948:uCOS-III\Source/os_flag.c **** *              -----
 949:uCOS-III\Source/os_flag.c **** *
 950:uCOS-III\Source/os_flag.c **** * Returns    : none
 951:uCOS-III\Source/os_flag.c **** *
 952:uCOS-III\Source/os_flag.c **** * Note(s)    : This function is INTERNAL to uC/OS-III and your application should not call it.
 953:uCOS-III\Source/os_flag.c **** ***************************************************************************************************
 954:uCOS-III\Source/os_flag.c **** */
 955:uCOS-III\Source/os_flag.c **** 
 956:uCOS-III\Source/os_flag.c **** void  OS_FlagClr (OS_FLAG_GRP  *p_grp)
 957:uCOS-III\Source/os_flag.c **** {
 998              		.loc 1 957 0
 999              		.cfi_startproc
 1000              		@ args = 0, pretend = 0, frame = 0
 1001              		@ frame_needed = 0, uses_anonymous_args = 0
 1002              	.LVL126:
 1003 0000 08B5     		push	{r3, lr}
 1004              		.cfi_def_cfa_offset 8
 1005              		.cfi_offset 3, -8
ARM GAS  C:\Users\jorti\AppData\Local\Temp\ccCX4ftZ.s 			page 38


 1006              		.cfi_offset 14, -4
 958:uCOS-III\Source/os_flag.c ****     OS_PEND_LIST  *p_pend_list;
 959:uCOS-III\Source/os_flag.c **** 
 960:uCOS-III\Source/os_flag.c **** 
 961:uCOS-III\Source/os_flag.c **** 
 962:uCOS-III\Source/os_flag.c ****     p_grp->Type             = OS_OBJ_TYPE_NONE;
 1007              		.loc 1 962 0
 1008 0002 054B     		ldr	r3, .L90
 1009 0004 0360     		str	r3, [r0]
 963:uCOS-III\Source/os_flag.c ****     p_grp->NamePtr          = (CPU_CHAR *)((void *)"?FLAG");    /* Unknown name                    
 1010              		.loc 1 963 0
 1011 0006 054B     		ldr	r3, .L90+4
 1012 0008 4360     		str	r3, [r0, #4]
 964:uCOS-III\Source/os_flag.c ****     p_grp->Flags            = (OS_FLAGS )0;
 1013              		.loc 1 964 0
 1014 000a 0023     		movs	r3, #0
 1015 000c 0362     		str	r3, [r0, #32]
 1016              	.LVL127:
 965:uCOS-III\Source/os_flag.c ****     p_pend_list             = &p_grp->PendList;
 966:uCOS-III\Source/os_flag.c ****     OS_PendListInit(p_pend_list);
 1017              		.loc 1 966 0
 1018 000e 0830     		adds	r0, r0, #8
 1019              	.LVL128:
 1020 0010 FFF7FEFF 		bl	OS_PendListInit
 1021              	.LVL129:
 1022 0014 08BD     		pop	{r3, pc}
 1023              	.L91:
 1024 0016 00BF     		.align	2
 1025              	.L90:
 1026 0018 4E4F4E45 		.word	1162760014
 1027 001c 00000000 		.word	.LC0
 1028              		.cfi_endproc
 1029              	.LFE8:
 1030              		.size	OS_FlagClr, .-OS_FlagClr
 1031              		.section	.text.OS_FlagInit,"ax",%progbits
 1032              		.align	2
 1033              		.global	OS_FlagInit
 1034              		.thumb
 1035              		.thumb_func
 1036              		.type	OS_FlagInit, %function
 1037              	OS_FlagInit:
 1038              	.LFB9:
 967:uCOS-III\Source/os_flag.c **** }
 968:uCOS-III\Source/os_flag.c **** 
 969:uCOS-III\Source/os_flag.c **** /*$PAGE*/
 970:uCOS-III\Source/os_flag.c **** /*
 971:uCOS-III\Source/os_flag.c **** ***************************************************************************************************
 972:uCOS-III\Source/os_flag.c **** *                                          INITIALIZE THE EVENT FLAG MODULE
 973:uCOS-III\Source/os_flag.c **** *
 974:uCOS-III\Source/os_flag.c **** * Description: This function is called by uC/OS-III to initialize the event flag module.  Your appl
 975:uCOS-III\Source/os_flag.c **** *              this function.  In other words, this function is internal to uC/OS-III.
 976:uCOS-III\Source/os_flag.c **** *
 977:uCOS-III\Source/os_flag.c **** * Arguments  : p_err     is a pointer to an error code that can contain one of the following values
 978:uCOS-III\Source/os_flag.c **** *
 979:uCOS-III\Source/os_flag.c **** *                            OS_ERR_NONE   The call was successful.
 980:uCOS-III\Source/os_flag.c **** *
 981:uCOS-III\Source/os_flag.c **** * Returns    : none
ARM GAS  C:\Users\jorti\AppData\Local\Temp\ccCX4ftZ.s 			page 39


 982:uCOS-III\Source/os_flag.c **** *
 983:uCOS-III\Source/os_flag.c **** * Note(s)    : This function is INTERNAL to uC/OS-III and your application should not call it.
 984:uCOS-III\Source/os_flag.c **** ***************************************************************************************************
 985:uCOS-III\Source/os_flag.c **** */
 986:uCOS-III\Source/os_flag.c **** 
 987:uCOS-III\Source/os_flag.c **** void  OS_FlagInit (OS_ERR  *p_err)
 988:uCOS-III\Source/os_flag.c **** {
 1039              		.loc 1 988 0
 1040              		.cfi_startproc
 1041              		@ args = 0, pretend = 0, frame = 0
 1042              		@ frame_needed = 0, uses_anonymous_args = 0
 1043              		@ link register save eliminated.
 1044              	.LVL130:
 989:uCOS-III\Source/os_flag.c **** #ifdef OS_SAFETY_CRITICAL
 990:uCOS-III\Source/os_flag.c ****     if (p_err == (OS_ERR *)0) {
 991:uCOS-III\Source/os_flag.c ****         OS_SAFETY_CRITICAL_EXCEPTION();
 992:uCOS-III\Source/os_flag.c ****         return;
 993:uCOS-III\Source/os_flag.c ****     }
 994:uCOS-III\Source/os_flag.c **** #endif
 995:uCOS-III\Source/os_flag.c **** 
 996:uCOS-III\Source/os_flag.c **** #if OS_CFG_DBG_EN > 0u
 997:uCOS-III\Source/os_flag.c ****     OSFlagDbgListPtr = (OS_FLAG_GRP *)0;
 1045              		.loc 1 997 0
 1046 0000 0023     		movs	r3, #0
 1047 0002 034A     		ldr	r2, .L93
 1048 0004 1360     		str	r3, [r2]
 998:uCOS-III\Source/os_flag.c **** #endif
 999:uCOS-III\Source/os_flag.c **** 
1000:uCOS-III\Source/os_flag.c ****     OSFlagQty        = (OS_OBJ_QTY   )0;
 1049              		.loc 1 1000 0
 1050 0006 034A     		ldr	r2, .L93+4
 1051 0008 1380     		strh	r3, [r2]	@ movhi
1001:uCOS-III\Source/os_flag.c ****    *p_err            = OS_ERR_NONE;
 1052              		.loc 1 1001 0
 1053 000a 0380     		strh	r3, [r0]	@ movhi
 1054 000c 7047     		bx	lr
 1055              	.L94:
 1056 000e 00BF     		.align	2
 1057              	.L93:
 1058 0010 00000000 		.word	OSFlagDbgListPtr
 1059 0014 00000000 		.word	OSFlagQty
 1060              		.cfi_endproc
 1061              	.LFE9:
 1062              		.size	OS_FlagInit, .-OS_FlagInit
 1063              		.section	.text.OS_FlagDbgListAdd,"ax",%progbits
 1064              		.align	2
 1065              		.global	OS_FlagDbgListAdd
 1066              		.thumb
 1067              		.thumb_func
 1068              		.type	OS_FlagDbgListAdd, %function
 1069              	OS_FlagDbgListAdd:
 1070              	.LFB10:
1002:uCOS-III\Source/os_flag.c **** }
1003:uCOS-III\Source/os_flag.c **** 
1004:uCOS-III\Source/os_flag.c **** /*$PAGE*/
1005:uCOS-III\Source/os_flag.c **** /*
1006:uCOS-III\Source/os_flag.c **** ***************************************************************************************************
ARM GAS  C:\Users\jorti\AppData\Local\Temp\ccCX4ftZ.s 			page 40


1007:uCOS-III\Source/os_flag.c **** *                                    ADD/REMOVE EVENT FLAG GROUP TO/FROM DEBUG LIST
1008:uCOS-III\Source/os_flag.c **** *
1009:uCOS-III\Source/os_flag.c **** * Description: These functions are called by uC/OS-III to add or remove an event flag group from th
1010:uCOS-III\Source/os_flag.c **** *              list.
1011:uCOS-III\Source/os_flag.c **** *
1012:uCOS-III\Source/os_flag.c **** * Arguments  : p_grp     is a pointer to the event flag group to add/remove
1013:uCOS-III\Source/os_flag.c **** *
1014:uCOS-III\Source/os_flag.c **** * Returns    : none
1015:uCOS-III\Source/os_flag.c **** *
1016:uCOS-III\Source/os_flag.c **** * Note(s)    : These functions are INTERNAL to uC/OS-III and your application should not call it.
1017:uCOS-III\Source/os_flag.c **** ***************************************************************************************************
1018:uCOS-III\Source/os_flag.c **** */
1019:uCOS-III\Source/os_flag.c **** 
1020:uCOS-III\Source/os_flag.c **** #if OS_CFG_DBG_EN > 0u
1021:uCOS-III\Source/os_flag.c **** void  OS_FlagDbgListAdd (OS_FLAG_GRP  *p_grp)
1022:uCOS-III\Source/os_flag.c **** {
 1071              		.loc 1 1022 0
 1072              		.cfi_startproc
 1073              		@ args = 0, pretend = 0, frame = 0
 1074              		@ frame_needed = 0, uses_anonymous_args = 0
 1075              		@ link register save eliminated.
 1076              	.LVL131:
1023:uCOS-III\Source/os_flag.c ****     p_grp->DbgNamePtr                = (CPU_CHAR    *)((void *)" ");
 1077              		.loc 1 1023 0
 1078 0000 064B     		ldr	r3, .L98
 1079 0002 C361     		str	r3, [r0, #28]
1024:uCOS-III\Source/os_flag.c ****     p_grp->DbgPrevPtr                = (OS_FLAG_GRP *)0;
 1080              		.loc 1 1024 0
 1081 0004 0023     		movs	r3, #0
 1082 0006 4361     		str	r3, [r0, #20]
1025:uCOS-III\Source/os_flag.c ****     if (OSFlagDbgListPtr == (OS_FLAG_GRP *)0) {
 1083              		.loc 1 1025 0
 1084 0008 054B     		ldr	r3, .L98+4
 1085 000a 1B68     		ldr	r3, [r3]
 1086 000c 0BB9     		cbnz	r3, .L96
1026:uCOS-III\Source/os_flag.c ****         p_grp->DbgNextPtr            = (OS_FLAG_GRP *)0;
 1087              		.loc 1 1026 0
 1088 000e 8361     		str	r3, [r0, #24]
 1089 0010 01E0     		b	.L97
 1090              	.L96:
1027:uCOS-III\Source/os_flag.c ****     } else {
1028:uCOS-III\Source/os_flag.c ****         p_grp->DbgNextPtr            =  OSFlagDbgListPtr;
 1091              		.loc 1 1028 0
 1092 0012 8361     		str	r3, [r0, #24]
1029:uCOS-III\Source/os_flag.c ****         OSFlagDbgListPtr->DbgPrevPtr =  p_grp;
 1093              		.loc 1 1029 0
 1094 0014 5861     		str	r0, [r3, #20]
 1095              	.L97:
1030:uCOS-III\Source/os_flag.c ****     }
1031:uCOS-III\Source/os_flag.c ****     OSFlagDbgListPtr                 =  p_grp;
 1096              		.loc 1 1031 0
 1097 0016 024B     		ldr	r3, .L98+4
 1098 0018 1860     		str	r0, [r3]
 1099 001a 7047     		bx	lr
 1100              	.L99:
 1101              		.align	2
 1102              	.L98:
ARM GAS  C:\Users\jorti\AppData\Local\Temp\ccCX4ftZ.s 			page 41


 1103 001c 08000000 		.word	.LC1
 1104 0020 00000000 		.word	OSFlagDbgListPtr
 1105              		.cfi_endproc
 1106              	.LFE10:
 1107              		.size	OS_FlagDbgListAdd, .-OS_FlagDbgListAdd
 1108              		.section	.text.OSFlagCreate,"ax",%progbits
 1109              		.align	2
 1110              		.global	OSFlagCreate
 1111              		.thumb
 1112              		.thumb_func
 1113              		.type	OSFlagCreate, %function
 1114              	OSFlagCreate:
 1115              	.LFB1:
  74:uCOS-III\Source/os_flag.c ****     CPU_SR_ALLOC();
 1116              		.loc 1 74 0
 1117              		.cfi_startproc
 1118              		@ args = 0, pretend = 0, frame = 0
 1119              		@ frame_needed = 0, uses_anonymous_args = 0
 1120              	.LVL132:
 1121 0000 2DE9F041 		push	{r4, r5, r6, r7, r8, lr}
 1122              		.cfi_def_cfa_offset 24
 1123              		.cfi_offset 4, -24
 1124              		.cfi_offset 5, -20
 1125              		.cfi_offset 6, -16
 1126              		.cfi_offset 7, -12
 1127              		.cfi_offset 8, -8
 1128              		.cfi_offset 14, -4
 1129              	.LVL133:
  94:uCOS-III\Source/os_flag.c ****        *p_err = OS_ERR_CREATE_ISR;                          /* ... can't CREATE from an ISR        
 1130              		.loc 1 94 0
 1131 0004 154C     		ldr	r4, .L105
 1132 0006 2478     		ldrb	r4, [r4]	@ zero_extendqisi2
 1133 0008 24B1     		cbz	r4, .L101
  95:uCOS-III\Source/os_flag.c ****         return;
 1134              		.loc 1 95 0
 1135 000a 42F6E162 		movw	r2, #12001
 1136              	.LVL134:
 1137 000e 1A80     		strh	r2, [r3]	@ movhi
  96:uCOS-III\Source/os_flag.c ****     }
 1138              		.loc 1 96 0
 1139 0010 BDE8F081 		pop	{r4, r5, r6, r7, r8, pc}
 1140              	.LVL135:
 1141              	.L101:
 101:uCOS-III\Source/os_flag.c ****        *p_err = OS_ERR_OBJ_PTR_NULL;
 1142              		.loc 1 101 0
 1143 0014 20B9     		cbnz	r0, .L103
 102:uCOS-III\Source/os_flag.c ****         return;
 1144              		.loc 1 102 0
 1145 0016 45F6C352 		movw	r2, #24003
 1146              	.LVL136:
 1147 001a 1A80     		strh	r2, [r3]	@ movhi
 103:uCOS-III\Source/os_flag.c ****     }
 1148              		.loc 1 103 0
 1149 001c BDE8F081 		pop	{r4, r5, r6, r7, r8, pc}
 1150              	.LVL137:
 1151              	.L103:
 1152 0020 1F46     		mov	r7, r3
ARM GAS  C:\Users\jorti\AppData\Local\Temp\ccCX4ftZ.s 			page 42


 1153 0022 1546     		mov	r5, r2
 1154 0024 0E46     		mov	r6, r1
 1155 0026 0446     		mov	r4, r0
 107:uCOS-III\Source/os_flag.c ****     p_grp->Type    = OS_OBJ_TYPE_FLAG;                      /* Set to event flag group type        
 1156              		.loc 1 107 0
 1157 0028 FFF7FEFF 		bl	CPU_SR_Save
 1158              	.LVL138:
 1159 002c 8046     		mov	r8, r0
 1160              	.LVL139:
 108:uCOS-III\Source/os_flag.c ****     p_grp->NamePtr = p_name;
 1161              		.loc 1 108 0
 1162 002e 0C4B     		ldr	r3, .L105+4
 1163 0030 2360     		str	r3, [r4]
 109:uCOS-III\Source/os_flag.c ****     p_grp->Flags   = flags;                                 /* Set to desired initial value        
 1164              		.loc 1 109 0
 1165 0032 6660     		str	r6, [r4, #4]
 110:uCOS-III\Source/os_flag.c ****     p_grp->TS      = (CPU_TS)0;
 1166              		.loc 1 110 0
 1167 0034 2562     		str	r5, [r4, #32]
 111:uCOS-III\Source/os_flag.c ****     OS_PendListInit(&p_grp->PendList);
 1168              		.loc 1 111 0
 1169 0036 0025     		movs	r5, #0
 1170              	.LVL140:
 1171 0038 6562     		str	r5, [r4, #36]
 112:uCOS-III\Source/os_flag.c **** 
 1172              		.loc 1 112 0
 1173 003a 04F10800 		add	r0, r4, #8
 1174              	.LVL141:
 1175 003e FFF7FEFF 		bl	OS_PendListInit
 1176              	.LVL142:
 115:uCOS-III\Source/os_flag.c **** #endif
 1177              		.loc 1 115 0
 1178 0042 2046     		mov	r0, r4
 1179 0044 FFF7FEFF 		bl	OS_FlagDbgListAdd
 1180              	.LVL143:
 117:uCOS-III\Source/os_flag.c **** 
 1181              		.loc 1 117 0
 1182 0048 064A     		ldr	r2, .L105+8
 1183 004a 1388     		ldrh	r3, [r2]
 1184 004c 0133     		adds	r3, r3, #1
 1185 004e 1380     		strh	r3, [r2]	@ movhi
 119:uCOS-III\Source/os_flag.c ****    *p_err = OS_ERR_NONE;
 1186              		.loc 1 119 0
 1187 0050 4046     		mov	r0, r8
 1188 0052 FFF7FEFF 		bl	CPU_SR_Restore
 1189              	.LVL144:
 120:uCOS-III\Source/os_flag.c **** }
 1190              		.loc 1 120 0
 1191 0056 3D80     		strh	r5, [r7]	@ movhi
 1192 0058 BDE8F081 		pop	{r4, r5, r6, r7, r8, pc}
 1193              	.LVL145:
 1194              	.L106:
 1195              		.align	2
 1196              	.L105:
 1197 005c 00000000 		.word	OSIntNestingCtr
 1198 0060 464C4147 		.word	1195461702
 1199 0064 00000000 		.word	OSFlagQty
ARM GAS  C:\Users\jorti\AppData\Local\Temp\ccCX4ftZ.s 			page 43


 1200              		.cfi_endproc
 1201              	.LFE1:
 1202              		.size	OSFlagCreate, .-OSFlagCreate
 1203              		.section	.text.OS_FlagDbgListRemove,"ax",%progbits
 1204              		.align	2
 1205              		.global	OS_FlagDbgListRemove
 1206              		.thumb
 1207              		.thumb_func
 1208              		.type	OS_FlagDbgListRemove, %function
 1209              	OS_FlagDbgListRemove:
 1210              	.LFB11:
1032:uCOS-III\Source/os_flag.c **** }
1033:uCOS-III\Source/os_flag.c **** 
1034:uCOS-III\Source/os_flag.c **** 
1035:uCOS-III\Source/os_flag.c **** 
1036:uCOS-III\Source/os_flag.c **** void  OS_FlagDbgListRemove (OS_FLAG_GRP  *p_grp)
1037:uCOS-III\Source/os_flag.c **** {
 1211              		.loc 1 1037 0
 1212              		.cfi_startproc
 1213              		@ args = 0, pretend = 0, frame = 0
 1214              		@ frame_needed = 0, uses_anonymous_args = 0
 1215              		@ link register save eliminated.
 1216              	.LVL146:
1038:uCOS-III\Source/os_flag.c ****     OS_FLAG_GRP  *p_grp_next;
1039:uCOS-III\Source/os_flag.c ****     OS_FLAG_GRP  *p_grp_prev;
1040:uCOS-III\Source/os_flag.c **** 
1041:uCOS-III\Source/os_flag.c **** 
1042:uCOS-III\Source/os_flag.c ****     p_grp_prev = p_grp->DbgPrevPtr;
 1217              		.loc 1 1042 0
 1218 0000 4269     		ldr	r2, [r0, #20]
 1219              	.LVL147:
1043:uCOS-III\Source/os_flag.c ****     p_grp_next = p_grp->DbgNextPtr;
 1220              		.loc 1 1043 0
 1221 0002 8369     		ldr	r3, [r0, #24]
 1222              	.LVL148:
1044:uCOS-III\Source/os_flag.c **** 
1045:uCOS-III\Source/os_flag.c ****     if (p_grp_prev == (OS_FLAG_GRP *)0) {
 1223              		.loc 1 1045 0
 1224 0004 3AB9     		cbnz	r2, .L108
1046:uCOS-III\Source/os_flag.c ****         OSFlagDbgListPtr = p_grp_next;
 1225              		.loc 1 1046 0
 1226 0006 094A     		ldr	r2, .L112
 1227              	.LVL149:
 1228 0008 1360     		str	r3, [r2]
1047:uCOS-III\Source/os_flag.c ****         if (p_grp_next != (OS_FLAG_GRP *)0) {
 1229              		.loc 1 1047 0
 1230 000a 0BB1     		cbz	r3, .L109
1048:uCOS-III\Source/os_flag.c ****             p_grp_next->DbgPrevPtr = (OS_FLAG_GRP *)0;
 1231              		.loc 1 1048 0
 1232 000c 0022     		movs	r2, #0
 1233 000e 5A61     		str	r2, [r3, #20]
 1234              	.LVL150:
 1235              	.L109:
1049:uCOS-III\Source/os_flag.c ****         }
1050:uCOS-III\Source/os_flag.c ****         p_grp->DbgNextPtr = (OS_FLAG_GRP *)0;
 1236              		.loc 1 1050 0
 1237 0010 0023     		movs	r3, #0
ARM GAS  C:\Users\jorti\AppData\Local\Temp\ccCX4ftZ.s 			page 44


 1238              	.LVL151:
 1239 0012 8361     		str	r3, [r0, #24]
 1240 0014 7047     		bx	lr
 1241              	.LVL152:
 1242              	.L108:
1051:uCOS-III\Source/os_flag.c **** 
1052:uCOS-III\Source/os_flag.c ****     } else if (p_grp_next == (OS_FLAG_GRP *)0) {
 1243              		.loc 1 1052 0
 1244 0016 13B9     		cbnz	r3, .L111
1053:uCOS-III\Source/os_flag.c ****         p_grp_prev->DbgNextPtr = (OS_FLAG_GRP *)0;
 1245              		.loc 1 1053 0
 1246 0018 9361     		str	r3, [r2, #24]
1054:uCOS-III\Source/os_flag.c ****         p_grp->DbgPrevPtr      = (OS_FLAG_GRP *)0;
 1247              		.loc 1 1054 0
 1248 001a 4361     		str	r3, [r0, #20]
 1249 001c 7047     		bx	lr
 1250              	.L111:
1055:uCOS-III\Source/os_flag.c **** 
1056:uCOS-III\Source/os_flag.c ****     } else {
1057:uCOS-III\Source/os_flag.c ****         p_grp_prev->DbgNextPtr =  p_grp_next;
 1251              		.loc 1 1057 0
 1252 001e 9361     		str	r3, [r2, #24]
1058:uCOS-III\Source/os_flag.c ****         p_grp_next->DbgPrevPtr =  p_grp_prev;
 1253              		.loc 1 1058 0
 1254 0020 5A61     		str	r2, [r3, #20]
1059:uCOS-III\Source/os_flag.c ****         p_grp->DbgNextPtr      = (OS_FLAG_GRP *)0;
 1255              		.loc 1 1059 0
 1256 0022 0023     		movs	r3, #0
 1257              	.LVL153:
 1258 0024 8361     		str	r3, [r0, #24]
1060:uCOS-III\Source/os_flag.c ****         p_grp->DbgPrevPtr      = (OS_FLAG_GRP *)0;
 1259              		.loc 1 1060 0
 1260 0026 4361     		str	r3, [r0, #20]
 1261 0028 7047     		bx	lr
 1262              	.L113:
 1263 002a 00BF     		.align	2
 1264              	.L112:
 1265 002c 00000000 		.word	OSFlagDbgListPtr
 1266              		.cfi_endproc
 1267              	.LFE11:
 1268              		.size	OS_FlagDbgListRemove, .-OS_FlagDbgListRemove
 1269              		.section	.text.OSFlagDel,"ax",%progbits
 1270              		.align	2
 1271              		.global	OSFlagDel
 1272              		.thumb
 1273              		.thumb_func
 1274              		.type	OSFlagDel, %function
 1275              	OSFlagDel:
 1276              	.LFB2:
 159:uCOS-III\Source/os_flag.c ****     OS_OBJ_QTY        cnt;
 1277              		.loc 1 159 0
 1278              		.cfi_startproc
 1279              		@ args = 0, pretend = 0, frame = 0
 1280              		@ frame_needed = 0, uses_anonymous_args = 0
 1281              	.LVL154:
 1282 0000 2DE9F843 		push	{r3, r4, r5, r6, r7, r8, r9, lr}
 1283              		.cfi_def_cfa_offset 32
ARM GAS  C:\Users\jorti\AppData\Local\Temp\ccCX4ftZ.s 			page 45


 1284              		.cfi_offset 3, -32
 1285              		.cfi_offset 4, -28
 1286              		.cfi_offset 5, -24
 1287              		.cfi_offset 6, -20
 1288              		.cfi_offset 7, -16
 1289              		.cfi_offset 8, -12
 1290              		.cfi_offset 9, -8
 1291              		.cfi_offset 14, -4
 1292              	.LVL155:
 178:uCOS-III\Source/os_flag.c ****        *p_err = OS_ERR_DEL_ISR;                             /* ... can't DELETE from an ISR        
 1293              		.loc 1 178 0
 1294 0004 334B     		ldr	r3, .L129
 1295 0006 1B78     		ldrb	r3, [r3]	@ zero_extendqisi2
 1296 0008 2BB1     		cbz	r3, .L115
 179:uCOS-III\Source/os_flag.c ****         return ((OS_OBJ_QTY)0);
 1297              		.loc 1 179 0
 1298 000a 43F2C923 		movw	r3, #13001
 1299 000e 1380     		strh	r3, [r2]	@ movhi
 180:uCOS-III\Source/os_flag.c ****     }
 1300              		.loc 1 180 0
 1301 0010 0020     		movs	r0, #0
 1302              	.LVL156:
 1303 0012 BDE8F883 		pop	{r3, r4, r5, r6, r7, r8, r9, pc}
 1304              	.LVL157:
 1305              	.L115:
 185:uCOS-III\Source/os_flag.c ****        *p_err  = OS_ERR_OBJ_PTR_NULL;
 1306              		.loc 1 185 0
 1307 0016 20B9     		cbnz	r0, .L117
 186:uCOS-III\Source/os_flag.c ****         return ((OS_OBJ_QTY)0);
 1308              		.loc 1 186 0
 1309 0018 45F6C353 		movw	r3, #24003
 1310 001c 1380     		strh	r3, [r2]	@ movhi
 187:uCOS-III\Source/os_flag.c ****     }
 1311              		.loc 1 187 0
 1312 001e BDE8F883 		pop	{r3, r4, r5, r6, r7, r8, r9, pc}
 1313              	.L117:
 189:uCOS-III\Source/os_flag.c ****         case OS_OPT_DEL_NO_PEND:
 1314              		.loc 1 189 0
 1315 0022 0129     		cmp	r1, #1
 1316 0024 05D9     		bls	.L126
 195:uCOS-III\Source/os_flag.c ****              return ((OS_OBJ_QTY)0);
 1317              		.loc 1 195 0
 1318 0026 45F62563 		movw	r3, #24101
 1319 002a 1380     		strh	r3, [r2]	@ movhi
 196:uCOS-III\Source/os_flag.c ****     }
 1320              		.loc 1 196 0
 1321 002c 0020     		movs	r0, #0
 1322              	.LVL158:
 1323 002e BDE8F883 		pop	{r3, r4, r5, r6, r7, r8, r9, pc}
 1324              	.LVL159:
 1325              	.L126:
 1326 0032 1746     		mov	r7, r2
 1327 0034 0D46     		mov	r5, r1
 1328 0036 0446     		mov	r4, r0
 206:uCOS-III\Source/os_flag.c ****     p_pend_list = &p_grp->PendList;
 1329              		.loc 1 206 0
 1330 0038 FFF7FEFF 		bl	CPU_SR_Save
ARM GAS  C:\Users\jorti\AppData\Local\Temp\ccCX4ftZ.s 			page 46


 1331              	.LVL160:
 1332 003c 8046     		mov	r8, r0
 1333              	.LVL161:
 208:uCOS-III\Source/os_flag.c ****     nbr_tasks   = cnt;
 1334              		.loc 1 208 0
 1335 003e 268A     		ldrh	r6, [r4, #16]
 1336              	.LVL162:
 210:uCOS-III\Source/os_flag.c ****         case OS_OPT_DEL_NO_PEND:                            /* Delete group if no task waiting     
 1337              		.loc 1 210 0
 1338 0040 15B1     		cbz	r5, .L121
 1339 0042 012D     		cmp	r5, #1
 1340 0044 1BD0     		beq	.L122
 1341 0046 3DE0     		b	.L127
 1342              	.L121:
 212:uCOS-III\Source/os_flag.c **** #if OS_CFG_DBG_EN > 0u
 1343              		.loc 1 212 0
 1344 0048 8EB9     		cbnz	r6, .L123
 214:uCOS-III\Source/os_flag.c **** #endif
 1345              		.loc 1 214 0
 1346 004a 2046     		mov	r0, r4
 1347              	.LVL163:
 1348 004c FFF7FEFF 		bl	OS_FlagDbgListRemove
 1349              	.LVL164:
 216:uCOS-III\Source/os_flag.c ****                  OS_FlagClr(p_grp);
 1350              		.loc 1 216 0
 1351 0050 214A     		ldr	r2, .L129+4
 1352 0052 1388     		ldrh	r3, [r2]
 1353 0054 013B     		subs	r3, r3, #1
 1354 0056 1380     		strh	r3, [r2]	@ movhi
 217:uCOS-III\Source/os_flag.c **** 
 1355              		.loc 1 217 0
 1356 0058 2046     		mov	r0, r4
 1357 005a FFF7FEFF 		bl	OS_FlagClr
 1358              	.LVL165:
 219:uCOS-III\Source/os_flag.c ****                 *p_err = OS_ERR_NONE;
 1359              		.loc 1 219 0
 1360 005e 4046     		mov	r0, r8
 1361 0060 FFF7FEFF 		bl	CPU_SR_Restore
 1362              	.LVL166:
 220:uCOS-III\Source/os_flag.c ****              } else {
 1363              		.loc 1 220 0
 1364 0064 0023     		movs	r3, #0
 1365 0066 3B80     		strh	r3, [r7]	@ movhi
 252:uCOS-III\Source/os_flag.c **** }
 1366              		.loc 1 252 0
 1367 0068 3046     		mov	r0, r6
 1368 006a BDE8F883 		pop	{r3, r4, r5, r6, r7, r8, r9, pc}
 1369              	.LVL167:
 1370              	.L123:
 222:uCOS-III\Source/os_flag.c ****                 *p_err = OS_ERR_TASK_WAITING;
 1371              		.loc 1 222 0
 1372 006e FFF7FEFF 		bl	CPU_SR_Restore
 1373              	.LVL168:
 223:uCOS-III\Source/os_flag.c ****              }
 1374              		.loc 1 223 0
 1375 0072 47F25F13 		movw	r3, #29023
 1376 0076 3B80     		strh	r3, [r7]	@ movhi
ARM GAS  C:\Users\jorti\AppData\Local\Temp\ccCX4ftZ.s 			page 47


 252:uCOS-III\Source/os_flag.c **** }
 1377              		.loc 1 252 0
 1378 0078 3046     		mov	r0, r6
 1379 007a BDE8F883 		pop	{r3, r4, r5, r6, r7, r8, r9, pc}
 1380              	.LVL169:
 1381              	.L122:
 228:uCOS-III\Source/os_flag.c ****              while (cnt > 0u) {                             /* Remove all tasks from the pend list 
 1382              		.loc 1 228 0
 1383 007e FFF7FEFF 		bl	CPU_TS_TmrRd
 1384              	.LVL170:
 1385 0082 8146     		mov	r9, r0
 1386              	.LVL171:
 208:uCOS-III\Source/os_flag.c ****     nbr_tasks   = cnt;
 1387              		.loc 1 208 0
 1388 0084 3546     		mov	r5, r6
 229:uCOS-III\Source/os_flag.c ****                  p_pend_data = p_pend_list->HeadPtr;
 1389              		.loc 1 229 0
 1390 0086 07E0     		b	.L124
 1391              	.LVL172:
 1392              	.L125:
 230:uCOS-III\Source/os_flag.c ****                  p_tcb       = p_pend_data->TCBPtr;
 1393              		.loc 1 230 0
 1394 0088 A368     		ldr	r3, [r4, #8]
 1395              	.LVL173:
 232:uCOS-III\Source/os_flag.c ****                                p_tcb,
 1396              		.loc 1 232 0
 1397 008a 4A46     		mov	r2, r9
 1398 008c 9968     		ldr	r1, [r3, #8]
 1399 008e 2046     		mov	r0, r4
 1400 0090 FFF7FEFF 		bl	OS_PendObjDel
 1401              	.LVL174:
 235:uCOS-III\Source/os_flag.c ****              }
 1402              		.loc 1 235 0
 1403 0094 013D     		subs	r5, r5, #1
 1404              	.LVL175:
 1405 0096 ADB2     		uxth	r5, r5
 1406              	.LVL176:
 1407              	.L124:
 229:uCOS-III\Source/os_flag.c ****                  p_pend_data = p_pend_list->HeadPtr;
 1408              		.loc 1 229 0
 1409 0098 002D     		cmp	r5, #0
 1410 009a F5D1     		bne	.L125
 238:uCOS-III\Source/os_flag.c **** #endif
 1411              		.loc 1 238 0
 1412 009c 2046     		mov	r0, r4
 1413 009e FFF7FEFF 		bl	OS_FlagDbgListRemove
 1414              	.LVL177:
 240:uCOS-III\Source/os_flag.c ****              OS_FlagClr(p_grp);
 1415              		.loc 1 240 0
 1416 00a2 0D4A     		ldr	r2, .L129+4
 1417 00a4 1388     		ldrh	r3, [r2]
 1418 00a6 013B     		subs	r3, r3, #1
 1419 00a8 1380     		strh	r3, [r2]	@ movhi
 241:uCOS-III\Source/os_flag.c ****              OS_CRITICAL_EXIT_NO_SCHED();
 1420              		.loc 1 241 0
 1421 00aa 2046     		mov	r0, r4
 1422 00ac FFF7FEFF 		bl	OS_FlagClr
ARM GAS  C:\Users\jorti\AppData\Local\Temp\ccCX4ftZ.s 			page 48


 1423              	.LVL178:
 242:uCOS-III\Source/os_flag.c ****              OSSched();                                     /* Find highest priority task ready to 
 1424              		.loc 1 242 0
 1425 00b0 4046     		mov	r0, r8
 1426 00b2 FFF7FEFF 		bl	CPU_SR_Restore
 1427              	.LVL179:
 243:uCOS-III\Source/os_flag.c ****             *p_err = OS_ERR_NONE;
 1428              		.loc 1 243 0
 1429 00b6 FFF7FEFF 		bl	OSSched
 1430              	.LVL180:
 244:uCOS-III\Source/os_flag.c ****              break;
 1431              		.loc 1 244 0
 1432 00ba 0023     		movs	r3, #0
 1433 00bc 3B80     		strh	r3, [r7]	@ movhi
 252:uCOS-III\Source/os_flag.c **** }
 1434              		.loc 1 252 0
 1435 00be 3046     		mov	r0, r6
 245:uCOS-III\Source/os_flag.c **** 
 1436              		.loc 1 245 0
 1437 00c0 BDE8F883 		pop	{r3, r4, r5, r6, r7, r8, r9, pc}
 1438              	.LVL181:
 1439              	.L127:
 248:uCOS-III\Source/os_flag.c ****             *p_err = OS_ERR_OPT_INVALID;
 1440              		.loc 1 248 0
 1441 00c4 FFF7FEFF 		bl	CPU_SR_Restore
 1442              	.LVL182:
 249:uCOS-III\Source/os_flag.c ****              break;
 1443              		.loc 1 249 0
 1444 00c8 45F62563 		movw	r3, #24101
 1445 00cc 3B80     		strh	r3, [r7]	@ movhi
 252:uCOS-III\Source/os_flag.c **** }
 1446              		.loc 1 252 0
 1447 00ce 3046     		mov	r0, r6
 253:uCOS-III\Source/os_flag.c **** #endif
 1448              		.loc 1 253 0
 1449 00d0 BDE8F883 		pop	{r3, r4, r5, r6, r7, r8, r9, pc}
 1450              	.LVL183:
 1451              	.L130:
 1452              		.align	2
 1453              	.L129:
 1454 00d4 00000000 		.word	OSIntNestingCtr
 1455 00d8 00000000 		.word	OSFlagQty
 1456              		.cfi_endproc
 1457              	.LFE2:
 1458              		.size	OSFlagDel, .-OSFlagDel
 1459              		.section	.text.OS_FlagTaskRdy,"ax",%progbits
 1460              		.align	2
 1461              		.global	OS_FlagTaskRdy
 1462              		.thumb
 1463              		.thumb_func
 1464              		.type	OS_FlagTaskRdy, %function
 1465              	OS_FlagTaskRdy:
 1466              	.LFB13:
1061:uCOS-III\Source/os_flag.c ****     }
1062:uCOS-III\Source/os_flag.c **** }
1063:uCOS-III\Source/os_flag.c **** #endif
1064:uCOS-III\Source/os_flag.c **** 
ARM GAS  C:\Users\jorti\AppData\Local\Temp\ccCX4ftZ.s 			page 49


1065:uCOS-III\Source/os_flag.c **** /*$PAGE*/
1066:uCOS-III\Source/os_flag.c **** /*
1067:uCOS-III\Source/os_flag.c **** ***************************************************************************************************
1068:uCOS-III\Source/os_flag.c **** *                                                POST EVENT FLAG BIT(S)
1069:uCOS-III\Source/os_flag.c **** *
1070:uCOS-III\Source/os_flag.c **** * Description: This function is called to set or clear some bits in an event flag group.  The bits 
1071:uCOS-III\Source/os_flag.c **** *              specified by a 'bit mask'.
1072:uCOS-III\Source/os_flag.c **** *
1073:uCOS-III\Source/os_flag.c **** * Arguments  : p_grp         is a pointer to the desired event flag group.
1074:uCOS-III\Source/os_flag.c **** *
1075:uCOS-III\Source/os_flag.c **** *              flags         If 'opt' (see below) is OS_OPT_POST_FLAG_SET, each bit that is set in 
1076:uCOS-III\Source/os_flag.c **** *                            set the corresponding bit in the event flag group.  e.g. to set bits 0
1077:uCOS-III\Source/os_flag.c **** *                            and 5 you would set 'flags' to:
1078:uCOS-III\Source/os_flag.c **** *
1079:uCOS-III\Source/os_flag.c **** *                                0x31     (note, bit 0 is least significant bit)
1080:uCOS-III\Source/os_flag.c **** *
1081:uCOS-III\Source/os_flag.c **** *                            If 'opt' (see below) is OS_OPT_POST_FLAG_CLR, each bit that is set in 
1082:uCOS-III\Source/os_flag.c **** *                            CLEAR the corresponding bit in the event flag group.  e.g. to clear bi
1083:uCOS-III\Source/os_flag.c **** *                            4 and 5 you would specify 'flags' as:
1084:uCOS-III\Source/os_flag.c **** *
1085:uCOS-III\Source/os_flag.c **** *                                0x31     (note, bit 0 is least significant bit)
1086:uCOS-III\Source/os_flag.c **** *
1087:uCOS-III\Source/os_flag.c **** *              opt           indicates whether the flags will be:
1088:uCOS-III\Source/os_flag.c **** *
1089:uCOS-III\Source/os_flag.c **** *                                OS_OPT_POST_FLAG_SET       set
1090:uCOS-III\Source/os_flag.c **** *                                OS_OPT_POST_FLAG_CLR       cleared
1091:uCOS-III\Source/os_flag.c **** *
1092:uCOS-III\Source/os_flag.c **** *                            you can also 'add' OS_OPT_POST_NO_SCHED to prevent the scheduler from 
1093:uCOS-III\Source/os_flag.c **** *
1094:uCOS-III\Source/os_flag.c **** *              ts            is the timestamp of the post
1095:uCOS-III\Source/os_flag.c **** *
1096:uCOS-III\Source/os_flag.c **** *              p_err         is a pointer to an error code and can be:
1097:uCOS-III\Source/os_flag.c **** *
1098:uCOS-III\Source/os_flag.c **** *                                OS_ERR_NONE                The call was successful
1099:uCOS-III\Source/os_flag.c **** *                                OS_ERR_OBJ_PTR_NULL        You passed a NULL pointer
1100:uCOS-III\Source/os_flag.c **** *                                OS_ERR_OBJ_TYPE            You are not pointing to an event flag g
1101:uCOS-III\Source/os_flag.c **** *                                OS_ERR_OPT_INVALID         You specified an invalid option
1102:uCOS-III\Source/os_flag.c **** *
1103:uCOS-III\Source/os_flag.c **** * Returns    : the new value of the event flags bits that are still set.
1104:uCOS-III\Source/os_flag.c **** *
1105:uCOS-III\Source/os_flag.c **** * Note(s)    : 1) The execution time of this function depends on the number of tasks waiting on the
1106:uCOS-III\Source/os_flag.c **** ***************************************************************************************************
1107:uCOS-III\Source/os_flag.c **** */
1108:uCOS-III\Source/os_flag.c **** 
1109:uCOS-III\Source/os_flag.c **** OS_FLAGS  OS_FlagPost (OS_FLAG_GRP  *p_grp,
1110:uCOS-III\Source/os_flag.c ****                        OS_FLAGS      flags,
1111:uCOS-III\Source/os_flag.c ****                        OS_OPT        opt,
1112:uCOS-III\Source/os_flag.c ****                        CPU_TS        ts,
1113:uCOS-III\Source/os_flag.c ****                        OS_ERR       *p_err)
1114:uCOS-III\Source/os_flag.c **** {
1115:uCOS-III\Source/os_flag.c ****     OS_FLAGS        flags_cur;
1116:uCOS-III\Source/os_flag.c ****     OS_FLAGS        flags_rdy;
1117:uCOS-III\Source/os_flag.c ****     OS_OPT          mode;
1118:uCOS-III\Source/os_flag.c ****     OS_PEND_DATA   *p_pend_data;
1119:uCOS-III\Source/os_flag.c ****     OS_PEND_DATA   *p_pend_data_next;
1120:uCOS-III\Source/os_flag.c ****     OS_PEND_LIST   *p_pend_list;
1121:uCOS-III\Source/os_flag.c ****     OS_TCB         *p_tcb;
ARM GAS  C:\Users\jorti\AppData\Local\Temp\ccCX4ftZ.s 			page 50


1122:uCOS-III\Source/os_flag.c ****     CPU_SR_ALLOC();
1123:uCOS-III\Source/os_flag.c **** 
1124:uCOS-III\Source/os_flag.c **** 
1125:uCOS-III\Source/os_flag.c **** 
1126:uCOS-III\Source/os_flag.c ****     CPU_CRITICAL_ENTER();
1127:uCOS-III\Source/os_flag.c ****     switch (opt) {
1128:uCOS-III\Source/os_flag.c ****         case OS_OPT_POST_FLAG_SET:
1129:uCOS-III\Source/os_flag.c ****         case OS_OPT_POST_FLAG_SET | OS_OPT_POST_NO_SCHED:
1130:uCOS-III\Source/os_flag.c ****              p_grp->Flags |=  flags;                            /* Set   the flags specified in the
1131:uCOS-III\Source/os_flag.c ****              break;
1132:uCOS-III\Source/os_flag.c **** 
1133:uCOS-III\Source/os_flag.c ****         case OS_OPT_POST_FLAG_CLR:
1134:uCOS-III\Source/os_flag.c ****         case OS_OPT_POST_FLAG_CLR | OS_OPT_POST_NO_SCHED:
1135:uCOS-III\Source/os_flag.c ****              p_grp->Flags &= ~flags;                            /* Clear the flags specified in the
1136:uCOS-III\Source/os_flag.c ****              break;
1137:uCOS-III\Source/os_flag.c **** 
1138:uCOS-III\Source/os_flag.c ****         default:
1139:uCOS-III\Source/os_flag.c ****              CPU_CRITICAL_EXIT();                               /* INVALID option                  
1140:uCOS-III\Source/os_flag.c ****             *p_err = OS_ERR_OPT_INVALID;
1141:uCOS-III\Source/os_flag.c ****              return ((OS_FLAGS)0);
1142:uCOS-III\Source/os_flag.c ****     }
1143:uCOS-III\Source/os_flag.c ****     p_grp->TS   = ts;
1144:uCOS-III\Source/os_flag.c ****     p_pend_list = &p_grp->PendList;
1145:uCOS-III\Source/os_flag.c ****     if (p_pend_list->NbrEntries == 0u) {                        /* Any task waiting on event flag g
1146:uCOS-III\Source/os_flag.c ****         CPU_CRITICAL_EXIT();                                    /* No                              
1147:uCOS-III\Source/os_flag.c ****        *p_err = OS_ERR_NONE;
1148:uCOS-III\Source/os_flag.c ****         return (p_grp->Flags);
1149:uCOS-III\Source/os_flag.c ****     }
1150:uCOS-III\Source/os_flag.c **** 
1151:uCOS-III\Source/os_flag.c ****     OS_CRITICAL_ENTER_CPU_EXIT();
1152:uCOS-III\Source/os_flag.c ****     p_pend_data = p_pend_list->HeadPtr;
1153:uCOS-III\Source/os_flag.c ****     p_tcb       = p_pend_data->TCBPtr;
1154:uCOS-III\Source/os_flag.c ****     while (p_tcb != (OS_TCB *)0) {                              /* Go through all tasks waiting on 
1155:uCOS-III\Source/os_flag.c ****         p_pend_data_next = p_pend_data->NextPtr;
1156:uCOS-III\Source/os_flag.c ****         mode             = p_tcb->FlagsOpt & OS_OPT_PEND_FLAG_MASK;
1157:uCOS-III\Source/os_flag.c ****         switch (mode) {
1158:uCOS-III\Source/os_flag.c ****             case OS_OPT_PEND_FLAG_SET_ALL:                      /* See if all req. flags are set fo
1159:uCOS-III\Source/os_flag.c ****                  flags_rdy = (OS_FLAGS)(p_grp->Flags & p_tcb->FlagsPend);
1160:uCOS-III\Source/os_flag.c ****                  if (flags_rdy == p_tcb->FlagsPend) {
1161:uCOS-III\Source/os_flag.c ****                      OS_FlagTaskRdy(p_tcb,                      /* Make task RTR, event(s) Rx'd    
1162:uCOS-III\Source/os_flag.c ****                                     flags_rdy,
1163:uCOS-III\Source/os_flag.c ****                                     ts);
1164:uCOS-III\Source/os_flag.c ****                  }
1165:uCOS-III\Source/os_flag.c ****                  break;
1166:uCOS-III\Source/os_flag.c **** 
1167:uCOS-III\Source/os_flag.c ****             case OS_OPT_PEND_FLAG_SET_ANY:                      /* See if any flag set             
1168:uCOS-III\Source/os_flag.c ****                  flags_rdy = (OS_FLAGS)(p_grp->Flags & p_tcb->FlagsPend);
1169:uCOS-III\Source/os_flag.c ****                  if (flags_rdy != (OS_FLAGS)0) {
1170:uCOS-III\Source/os_flag.c ****                      OS_FlagTaskRdy(p_tcb,                      /* Make task RTR, event(s) Rx'd    
1171:uCOS-III\Source/os_flag.c ****                                     flags_rdy,
1172:uCOS-III\Source/os_flag.c ****                                     ts);
1173:uCOS-III\Source/os_flag.c ****                  }
1174:uCOS-III\Source/os_flag.c ****                  break;
1175:uCOS-III\Source/os_flag.c **** 
1176:uCOS-III\Source/os_flag.c **** #if OS_CFG_FLAG_MODE_CLR_EN > 0u
1177:uCOS-III\Source/os_flag.c ****             case OS_OPT_PEND_FLAG_CLR_ALL:                      /* See if all req. flags are set fo
1178:uCOS-III\Source/os_flag.c ****                  flags_rdy = (OS_FLAGS)(~p_grp->Flags & p_tcb->FlagsPend);
ARM GAS  C:\Users\jorti\AppData\Local\Temp\ccCX4ftZ.s 			page 51


1179:uCOS-III\Source/os_flag.c ****                  if (flags_rdy == p_tcb->FlagsPend) {
1180:uCOS-III\Source/os_flag.c ****                      OS_FlagTaskRdy(p_tcb,                      /* Make task RTR, event(s) Rx'd    
1181:uCOS-III\Source/os_flag.c ****                                     flags_rdy,
1182:uCOS-III\Source/os_flag.c ****                                     ts);
1183:uCOS-III\Source/os_flag.c ****                  }
1184:uCOS-III\Source/os_flag.c ****                  break;
1185:uCOS-III\Source/os_flag.c **** 
1186:uCOS-III\Source/os_flag.c ****             case OS_OPT_PEND_FLAG_CLR_ANY:                      /* See if any flag set             
1187:uCOS-III\Source/os_flag.c ****                  flags_rdy = (OS_FLAGS)(~p_grp->Flags & p_tcb->FlagsPend);
1188:uCOS-III\Source/os_flag.c ****                  if (flags_rdy != (OS_FLAGS)0) {
1189:uCOS-III\Source/os_flag.c ****                      OS_FlagTaskRdy(p_tcb,                      /* Make task RTR, event(s) Rx'd    
1190:uCOS-III\Source/os_flag.c ****                                     flags_rdy,
1191:uCOS-III\Source/os_flag.c ****                                     ts);
1192:uCOS-III\Source/os_flag.c ****                  }
1193:uCOS-III\Source/os_flag.c ****                  break;
1194:uCOS-III\Source/os_flag.c **** #endif
1195:uCOS-III\Source/os_flag.c ****             default:
1196:uCOS-III\Source/os_flag.c ****                  OS_CRITICAL_EXIT();
1197:uCOS-III\Source/os_flag.c ****                 *p_err = OS_ERR_FLAG_PEND_OPT;
1198:uCOS-III\Source/os_flag.c ****                  return ((OS_FLAGS)0);
1199:uCOS-III\Source/os_flag.c ****         }
1200:uCOS-III\Source/os_flag.c ****         p_pend_data = p_pend_data_next;                         /* Point to next task waiting for e
1201:uCOS-III\Source/os_flag.c ****         if (p_pend_data != (OS_PEND_DATA *)0) {
1202:uCOS-III\Source/os_flag.c ****             p_tcb = p_pend_data->TCBPtr;
1203:uCOS-III\Source/os_flag.c ****         } else {
1204:uCOS-III\Source/os_flag.c ****             p_tcb = (OS_TCB *)0;
1205:uCOS-III\Source/os_flag.c ****         }
1206:uCOS-III\Source/os_flag.c ****     }
1207:uCOS-III\Source/os_flag.c ****     OS_CRITICAL_EXIT_NO_SCHED();
1208:uCOS-III\Source/os_flag.c **** 
1209:uCOS-III\Source/os_flag.c ****     if ((opt & OS_OPT_POST_NO_SCHED) == (OS_OPT)0) {
1210:uCOS-III\Source/os_flag.c ****         OSSched();
1211:uCOS-III\Source/os_flag.c ****     }
1212:uCOS-III\Source/os_flag.c **** 
1213:uCOS-III\Source/os_flag.c ****     CPU_CRITICAL_ENTER();
1214:uCOS-III\Source/os_flag.c ****     flags_cur = p_grp->Flags;
1215:uCOS-III\Source/os_flag.c ****     CPU_CRITICAL_EXIT();
1216:uCOS-III\Source/os_flag.c ****    *p_err     = OS_ERR_NONE;
1217:uCOS-III\Source/os_flag.c ****     return (flags_cur);
1218:uCOS-III\Source/os_flag.c **** }
1219:uCOS-III\Source/os_flag.c **** 
1220:uCOS-III\Source/os_flag.c **** /*$PAGE*/
1221:uCOS-III\Source/os_flag.c **** /*
1222:uCOS-III\Source/os_flag.c **** ***************************************************************************************************
1223:uCOS-III\Source/os_flag.c **** *                                        MAKE TASK READY-TO-RUN, EVENT(s) OCCURRED
1224:uCOS-III\Source/os_flag.c **** *
1225:uCOS-III\Source/os_flag.c **** * Description: This function is internal to uC/OS-III and is used to make a task ready-to-run becau
1226:uCOS-III\Source/os_flag.c **** *              flag bits have been set.
1227:uCOS-III\Source/os_flag.c **** *
1228:uCOS-III\Source/os_flag.c **** * Arguments  : p_tcb         is a pointer to the OS_TCB of the task to remove
1229:uCOS-III\Source/os_flag.c **** *              -----
1230:uCOS-III\Source/os_flag.c **** *
1231:uCOS-III\Source/os_flag.c **** *              flags_rdy     contains the bit pattern of the event flags that cause the task to bec
1232:uCOS-III\Source/os_flag.c **** *
1233:uCOS-III\Source/os_flag.c **** *              ts            is a timestamp associated with the post
1234:uCOS-III\Source/os_flag.c **** *
1235:uCOS-III\Source/os_flag.c **** * Returns    : none
ARM GAS  C:\Users\jorti\AppData\Local\Temp\ccCX4ftZ.s 			page 52


1236:uCOS-III\Source/os_flag.c **** *
1237:uCOS-III\Source/os_flag.c **** * Note(s)    : This function is INTERNAL to uC/OS-III and your application should not call it.
1238:uCOS-III\Source/os_flag.c **** ***************************************************************************************************
1239:uCOS-III\Source/os_flag.c **** */
1240:uCOS-III\Source/os_flag.c **** 
1241:uCOS-III\Source/os_flag.c **** void   OS_FlagTaskRdy (OS_TCB    *p_tcb,
1242:uCOS-III\Source/os_flag.c ****                        OS_FLAGS   flags_rdy,
1243:uCOS-III\Source/os_flag.c ****                        CPU_TS     ts)
1244:uCOS-III\Source/os_flag.c **** {
 1467              		.loc 1 1244 0
 1468              		.cfi_startproc
 1469              		@ args = 0, pretend = 0, frame = 0
 1470              		@ frame_needed = 0, uses_anonymous_args = 0
 1471              	.LVL184:
 1472 0000 10B5     		push	{r4, lr}
 1473              		.cfi_def_cfa_offset 8
 1474              		.cfi_offset 4, -8
 1475              		.cfi_offset 14, -4
 1476 0002 0446     		mov	r4, r0
1245:uCOS-III\Source/os_flag.c ****     p_tcb->FlagsRdy   = flags_rdy;
 1477              		.loc 1 1245 0
 1478 0004 C0F88410 		str	r1, [r0, #132]
1246:uCOS-III\Source/os_flag.c ****     p_tcb->PendStatus = OS_STATUS_PEND_OK;                  /* Clear pend status                   
 1479              		.loc 1 1246 0
 1480 0008 0023     		movs	r3, #0
 1481 000a 80F83530 		strb	r3, [r0, #53]
1247:uCOS-III\Source/os_flag.c ****     p_tcb->PendOn     = OS_TASK_PEND_ON_NOTHING;            /* Indicate no longer pending          
 1482              		.loc 1 1247 0
 1483 000e 80F83430 		strb	r3, [r0, #52]
1248:uCOS-III\Source/os_flag.c ****     p_tcb->TS         = ts;
 1484              		.loc 1 1248 0
 1485 0012 0264     		str	r2, [r0, #64]
1249:uCOS-III\Source/os_flag.c ****     switch (p_tcb->TaskState) {
 1486              		.loc 1 1249 0
 1487 0014 90F83630 		ldrb	r3, [r0, #54]	@ zero_extendqisi2
 1488 0018 023B     		subs	r3, r3, #2
 1489 001a 052B     		cmp	r3, #5
 1490 001c 0DD8     		bhi	.L132
 1491 001e DFE803F0 		tbb	[pc, r3]
 1492              	.LVL185:
 1493              	.L134:
 1494 0022 03       		.byte	(.L133-.L134)/2
 1495 0023 03       		.byte	(.L133-.L134)/2
 1496 0024 0C       		.byte	(.L132-.L134)/2
 1497 0025 0C       		.byte	(.L132-.L134)/2
 1498 0026 09       		.byte	(.L135-.L134)/2
 1499 0027 09       		.byte	(.L135-.L134)/2
 1500              		.p2align 1
 1501              	.L133:
1250:uCOS-III\Source/os_flag.c ****         case OS_TASK_STATE_RDY:
1251:uCOS-III\Source/os_flag.c ****         case OS_TASK_STATE_DLY:
1252:uCOS-III\Source/os_flag.c ****         case OS_TASK_STATE_DLY_SUSPENDED:
1253:uCOS-III\Source/os_flag.c ****         case OS_TASK_STATE_SUSPENDED:
1254:uCOS-III\Source/os_flag.c ****              break;
1255:uCOS-III\Source/os_flag.c **** 
1256:uCOS-III\Source/os_flag.c ****         case OS_TASK_STATE_PEND:
1257:uCOS-III\Source/os_flag.c ****         case OS_TASK_STATE_PEND_TIMEOUT:
ARM GAS  C:\Users\jorti\AppData\Local\Temp\ccCX4ftZ.s 			page 53


1258:uCOS-III\Source/os_flag.c ****              OS_TaskRdy(p_tcb);
 1502              		.loc 1 1258 0
 1503 0028 FFF7FEFF 		bl	OS_TaskRdy
 1504              	.LVL186:
1259:uCOS-III\Source/os_flag.c ****              p_tcb->TaskState = OS_TASK_STATE_RDY;
 1505              		.loc 1 1259 0
 1506 002c 0023     		movs	r3, #0
 1507 002e 84F83630 		strb	r3, [r4, #54]
1260:uCOS-III\Source/os_flag.c ****              break;
 1508              		.loc 1 1260 0
 1509 0032 02E0     		b	.L132
 1510              	.LVL187:
 1511              	.L135:
1261:uCOS-III\Source/os_flag.c **** 
1262:uCOS-III\Source/os_flag.c ****         case OS_TASK_STATE_PEND_SUSPENDED:
1263:uCOS-III\Source/os_flag.c ****         case OS_TASK_STATE_PEND_TIMEOUT_SUSPENDED:
1264:uCOS-III\Source/os_flag.c ****              p_tcb->TaskState = OS_TASK_STATE_SUSPENDED;
 1512              		.loc 1 1264 0
 1513 0034 0423     		movs	r3, #4
 1514 0036 80F83630 		strb	r3, [r0, #54]
 1515              	.LVL188:
 1516              	.L132:
1265:uCOS-III\Source/os_flag.c ****              break;
1266:uCOS-III\Source/os_flag.c **** 
1267:uCOS-III\Source/os_flag.c ****         default:
1268:uCOS-III\Source/os_flag.c ****              break;
1269:uCOS-III\Source/os_flag.c ****     }
1270:uCOS-III\Source/os_flag.c ****     OS_PendListRemove(p_tcb);
 1517              		.loc 1 1270 0
 1518 003a 2046     		mov	r0, r4
 1519 003c FFF7FEFF 		bl	OS_PendListRemove
 1520              	.LVL189:
 1521 0040 10BD     		pop	{r4, pc}
 1522              		.cfi_endproc
 1523              	.LFE13:
 1524              		.size	OS_FlagTaskRdy, .-OS_FlagTaskRdy
 1525 0042 00BF     		.section	.text.OS_FlagPost,"ax",%progbits
 1526              		.align	2
 1527              		.global	OS_FlagPost
 1528              		.thumb
 1529              		.thumb_func
 1530              		.type	OS_FlagPost, %function
 1531              	OS_FlagPost:
 1532              	.LFB12:
1114:uCOS-III\Source/os_flag.c ****     OS_FLAGS        flags_cur;
 1533              		.loc 1 1114 0
 1534              		.cfi_startproc
 1535              		@ args = 4, pretend = 0, frame = 0
 1536              		@ frame_needed = 0, uses_anonymous_args = 0
 1537              	.LVL190:
 1538 0000 2DE9F041 		push	{r4, r5, r6, r7, r8, lr}
 1539              		.cfi_def_cfa_offset 24
 1540              		.cfi_offset 4, -24
 1541              		.cfi_offset 5, -20
 1542              		.cfi_offset 6, -16
 1543              		.cfi_offset 7, -12
 1544              		.cfi_offset 8, -8
ARM GAS  C:\Users\jorti\AppData\Local\Temp\ccCX4ftZ.s 			page 54


 1545              		.cfi_offset 14, -4
 1546 0004 0546     		mov	r5, r0
 1547 0006 0C46     		mov	r4, r1
 1548 0008 1646     		mov	r6, r2
 1549 000a 1F46     		mov	r7, r3
 1550              	.LVL191:
1126:uCOS-III\Source/os_flag.c ****     switch (opt) {
 1551              		.loc 1 1126 0
 1552 000c FFF7FEFF 		bl	CPU_SR_Save
 1553              	.LVL192:
 1554 0010 8046     		mov	r8, r0
 1555              	.LVL193:
1127:uCOS-III\Source/os_flag.c ****         case OS_OPT_POST_FLAG_SET:
 1556              		.loc 1 1127 0
 1557 0012 012E     		cmp	r6, #1
 1558 0014 0CD0     		beq	.L139
 1559 0016 3EB1     		cbz	r6, .L140
 1560 0018 B6F5004F 		cmp	r6, #32768
 1561 001c 04D0     		beq	.L140
 1562 001e 48F20103 		movw	r3, #32769
 1563 0022 9E42     		cmp	r6, r3
 1564 0024 09D1     		bne	.L156
 1565 0026 03E0     		b	.L139
 1566              	.L140:
1130:uCOS-III\Source/os_flag.c ****              break;
 1567              		.loc 1 1130 0
 1568 0028 2B6A     		ldr	r3, [r5, #32]
 1569 002a 1C43     		orrs	r4, r4, r3
 1570              	.LVL194:
 1571 002c 2C62     		str	r4, [r5, #32]
1131:uCOS-III\Source/os_flag.c **** 
 1572              		.loc 1 1131 0
 1573 002e 0DE0     		b	.L141
 1574              	.LVL195:
 1575              	.L139:
1135:uCOS-III\Source/os_flag.c ****              break;
 1576              		.loc 1 1135 0
 1577 0030 2B6A     		ldr	r3, [r5, #32]
 1578 0032 23EA0404 		bic	r4, r3, r4
 1579              	.LVL196:
 1580 0036 2C62     		str	r4, [r5, #32]
1136:uCOS-III\Source/os_flag.c **** 
 1581              		.loc 1 1136 0
 1582 0038 08E0     		b	.L141
 1583              	.LVL197:
 1584              	.L156:
1139:uCOS-III\Source/os_flag.c ****             *p_err = OS_ERR_OPT_INVALID;
 1585              		.loc 1 1139 0
 1586 003a FFF7FEFF 		bl	CPU_SR_Restore
 1587              	.LVL198:
1140:uCOS-III\Source/os_flag.c ****              return ((OS_FLAGS)0);
 1588              		.loc 1 1140 0
 1589 003e 45F62563 		movw	r3, #24101
 1590 0042 069A     		ldr	r2, [sp, #24]
 1591 0044 1380     		strh	r3, [r2]	@ movhi
1141:uCOS-III\Source/os_flag.c ****     }
 1592              		.loc 1 1141 0
ARM GAS  C:\Users\jorti\AppData\Local\Temp\ccCX4ftZ.s 			page 55


 1593 0046 0020     		movs	r0, #0
 1594 0048 BDE8F081 		pop	{r4, r5, r6, r7, r8, pc}
 1595              	.LVL199:
 1596              	.L141:
1143:uCOS-III\Source/os_flag.c ****     p_pend_list = &p_grp->PendList;
 1597              		.loc 1 1143 0
 1598 004c 6F62     		str	r7, [r5, #36]
 1599              	.LVL200:
1145:uCOS-III\Source/os_flag.c ****         CPU_CRITICAL_EXIT();                                    /* No                              
 1600              		.loc 1 1145 0
 1601 004e 2B8A     		ldrh	r3, [r5, #16]
 1602 0050 43B9     		cbnz	r3, .L143
1146:uCOS-III\Source/os_flag.c ****        *p_err = OS_ERR_NONE;
 1603              		.loc 1 1146 0
 1604 0052 4046     		mov	r0, r8
 1605              	.LVL201:
 1606 0054 FFF7FEFF 		bl	CPU_SR_Restore
 1607              	.LVL202:
1147:uCOS-III\Source/os_flag.c ****         return (p_grp->Flags);
 1608              		.loc 1 1147 0
 1609 0058 0023     		movs	r3, #0
 1610 005a 069A     		ldr	r2, [sp, #24]
 1611 005c 1380     		strh	r3, [r2]	@ movhi
1148:uCOS-III\Source/os_flag.c ****     }
 1612              		.loc 1 1148 0
 1613 005e 286A     		ldr	r0, [r5, #32]
 1614 0060 BDE8F081 		pop	{r4, r5, r6, r7, r8, pc}
 1615              	.LVL203:
 1616              	.L143:
1152:uCOS-III\Source/os_flag.c ****     p_tcb       = p_pend_data->TCBPtr;
 1617              		.loc 1 1152 0
 1618 0064 AC68     		ldr	r4, [r5, #8]
 1619              	.LVL204:
1153:uCOS-III\Source/os_flag.c ****     while (p_tcb != (OS_TCB *)0) {                              /* Go through all tasks waiting on 
 1620              		.loc 1 1153 0
 1621 0066 A068     		ldr	r0, [r4, #8]
 1622              	.LVL205:
1154:uCOS-III\Source/os_flag.c ****         p_pend_data_next = p_pend_data->NextPtr;
 1623              		.loc 1 1154 0
 1624 0068 43E0     		b	.L144
 1625              	.L153:
1155:uCOS-III\Source/os_flag.c ****         mode             = p_tcb->FlagsOpt & OS_OPT_PEND_FLAG_MASK;
 1626              		.loc 1 1155 0
 1627 006a 6468     		ldr	r4, [r4, #4]
 1628              	.LVL206:
1156:uCOS-III\Source/os_flag.c ****         switch (mode) {
 1629              		.loc 1 1156 0
 1630 006c B0F88830 		ldrh	r3, [r0, #136]
 1631 0070 03F00F03 		and	r3, r3, #15
 1632              	.LVL207:
1157:uCOS-III\Source/os_flag.c ****             case OS_OPT_PEND_FLAG_SET_ALL:                      /* See if all req. flags are set fo
 1633              		.loc 1 1157 0
 1634 0074 013B     		subs	r3, r3, #1
 1635              	.LVL208:
 1636 0076 072B     		cmp	r3, #7
 1637 0078 2DD8     		bhi	.L145
 1638 007a DFE803F0 		tbb	[pc, r3]
ARM GAS  C:\Users\jorti\AppData\Local\Temp\ccCX4ftZ.s 			page 56


 1639              	.L147:
 1640 007e 17       		.byte	(.L146-.L147)/2
 1641 007f 22       		.byte	(.L148-.L147)/2
 1642 0080 2C       		.byte	(.L145-.L147)/2
 1643 0081 04       		.byte	(.L149-.L147)/2
 1644 0082 2C       		.byte	(.L145-.L147)/2
 1645 0083 2C       		.byte	(.L145-.L147)/2
 1646 0084 2C       		.byte	(.L145-.L147)/2
 1647 0085 0E       		.byte	(.L150-.L147)/2
 1648              		.p2align 1
 1649              	.L149:
1159:uCOS-III\Source/os_flag.c ****                  if (flags_rdy == p_tcb->FlagsPend) {
 1650              		.loc 1 1159 0
 1651 0086 296A     		ldr	r1, [r5, #32]
 1652 0088 D0F88030 		ldr	r3, [r0, #128]
 1653              	.LVL209:
 1654 008c 1940     		ands	r1, r1, r3
 1655              	.LVL210:
1160:uCOS-III\Source/os_flag.c ****                      OS_FlagTaskRdy(p_tcb,                      /* Make task RTR, event(s) Rx'd    
 1656              		.loc 1 1160 0
 1657 008e 8B42     		cmp	r3, r1
 1658 0090 2BD1     		bne	.L151
1161:uCOS-III\Source/os_flag.c ****                                     flags_rdy,
 1659              		.loc 1 1161 0
 1660 0092 3A46     		mov	r2, r7
 1661 0094 FFF7FEFF 		bl	OS_FlagTaskRdy
 1662              	.LVL211:
 1663 0098 27E0     		b	.L151
 1664              	.LVL212:
 1665              	.L150:
1168:uCOS-III\Source/os_flag.c ****                  if (flags_rdy != (OS_FLAGS)0) {
 1666              		.loc 1 1168 0
 1667 009a 2B6A     		ldr	r3, [r5, #32]
 1668              	.LVL213:
 1669 009c D0F88010 		ldr	r1, [r0, #128]
 1670              	.LVL214:
1169:uCOS-III\Source/os_flag.c ****                      OS_FlagTaskRdy(p_tcb,                      /* Make task RTR, event(s) Rx'd    
 1671              		.loc 1 1169 0
 1672 00a0 1940     		ands	r1, r3, r1
 1673              	.LVL215:
 1674 00a2 22D0     		beq	.L151
1170:uCOS-III\Source/os_flag.c ****                                     flags_rdy,
 1675              		.loc 1 1170 0
 1676 00a4 3A46     		mov	r2, r7
 1677 00a6 FFF7FEFF 		bl	OS_FlagTaskRdy
 1678              	.LVL216:
 1679 00aa 1EE0     		b	.L151
 1680              	.LVL217:
 1681              	.L146:
1178:uCOS-III\Source/os_flag.c ****                  if (flags_rdy == p_tcb->FlagsPend) {
 1682              		.loc 1 1178 0
 1683 00ac 296A     		ldr	r1, [r5, #32]
 1684 00ae D0F88030 		ldr	r3, [r0, #128]
 1685              	.LVL218:
 1686 00b2 23EA0101 		bic	r1, r3, r1
 1687              	.LVL219:
1179:uCOS-III\Source/os_flag.c ****                      OS_FlagTaskRdy(p_tcb,                      /* Make task RTR, event(s) Rx'd    
ARM GAS  C:\Users\jorti\AppData\Local\Temp\ccCX4ftZ.s 			page 57


 1688              		.loc 1 1179 0
 1689 00b6 8B42     		cmp	r3, r1
 1690 00b8 17D1     		bne	.L151
1180:uCOS-III\Source/os_flag.c ****                                     flags_rdy,
 1691              		.loc 1 1180 0
 1692 00ba 3A46     		mov	r2, r7
 1693 00bc FFF7FEFF 		bl	OS_FlagTaskRdy
 1694              	.LVL220:
 1695 00c0 13E0     		b	.L151
 1696              	.LVL221:
 1697              	.L148:
1187:uCOS-III\Source/os_flag.c ****                  if (flags_rdy != (OS_FLAGS)0) {
 1698              		.loc 1 1187 0
 1699 00c2 296A     		ldr	r1, [r5, #32]
 1700 00c4 D0F88030 		ldr	r3, [r0, #128]
 1701              	.LVL222:
1188:uCOS-III\Source/os_flag.c ****                      OS_FlagTaskRdy(p_tcb,                      /* Make task RTR, event(s) Rx'd    
 1702              		.loc 1 1188 0
 1703 00c8 33EA0101 		bics	r1, r3, r1
 1704              	.LVL223:
 1705 00cc 0DD0     		beq	.L151
1189:uCOS-III\Source/os_flag.c ****                                     flags_rdy,
 1706              		.loc 1 1189 0
 1707 00ce 3A46     		mov	r2, r7
 1708 00d0 FFF7FEFF 		bl	OS_FlagTaskRdy
 1709              	.LVL224:
 1710 00d4 09E0     		b	.L151
 1711              	.LVL225:
 1712              	.L145:
1196:uCOS-III\Source/os_flag.c ****                 *p_err = OS_ERR_FLAG_PEND_OPT;
 1713              		.loc 1 1196 0
 1714 00d6 4046     		mov	r0, r8
 1715              	.LVL226:
 1716 00d8 FFF7FEFF 		bl	CPU_SR_Restore
 1717              	.LVL227:
1197:uCOS-III\Source/os_flag.c ****                  return ((OS_FLAGS)0);
 1718              		.loc 1 1197 0
 1719 00dc 43F6FF23 		movw	r3, #15103
 1720 00e0 069A     		ldr	r2, [sp, #24]
 1721 00e2 1380     		strh	r3, [r2]	@ movhi
1198:uCOS-III\Source/os_flag.c ****         }
 1722              		.loc 1 1198 0
 1723 00e4 0020     		movs	r0, #0
 1724 00e6 BDE8F081 		pop	{r4, r5, r6, r7, r8, pc}
 1725              	.LVL228:
 1726              	.L151:
1201:uCOS-III\Source/os_flag.c ****             p_tcb = p_pend_data->TCBPtr;
 1727              		.loc 1 1201 0
 1728 00ea 0CB1     		cbz	r4, .L155
1202:uCOS-III\Source/os_flag.c ****         } else {
 1729              		.loc 1 1202 0
 1730 00ec A068     		ldr	r0, [r4, #8]
 1731              	.LVL229:
 1732 00ee 00E0     		b	.L144
 1733              	.LVL230:
 1734              	.L155:
1204:uCOS-III\Source/os_flag.c ****         }
ARM GAS  C:\Users\jorti\AppData\Local\Temp\ccCX4ftZ.s 			page 58


 1735              		.loc 1 1204 0
 1736 00f0 0020     		movs	r0, #0
 1737              	.LVL231:
 1738              	.L144:
1154:uCOS-III\Source/os_flag.c ****         p_pend_data_next = p_pend_data->NextPtr;
 1739              		.loc 1 1154 0
 1740 00f2 0028     		cmp	r0, #0
 1741 00f4 B9D1     		bne	.L153
1207:uCOS-III\Source/os_flag.c **** 
 1742              		.loc 1 1207 0
 1743 00f6 4046     		mov	r0, r8
 1744              	.LVL232:
 1745 00f8 FFF7FEFF 		bl	CPU_SR_Restore
 1746              	.LVL233:
1209:uCOS-III\Source/os_flag.c ****         OSSched();
 1747              		.loc 1 1209 0
 1748 00fc 16F4004F 		tst	r6, #32768
 1749 0100 01D1     		bne	.L154
1210:uCOS-III\Source/os_flag.c ****     }
 1750              		.loc 1 1210 0
 1751 0102 FFF7FEFF 		bl	OSSched
 1752              	.LVL234:
 1753              	.L154:
1213:uCOS-III\Source/os_flag.c ****     flags_cur = p_grp->Flags;
 1754              		.loc 1 1213 0
 1755 0106 FFF7FEFF 		bl	CPU_SR_Save
 1756              	.LVL235:
1214:uCOS-III\Source/os_flag.c ****     CPU_CRITICAL_EXIT();
 1757              		.loc 1 1214 0
 1758 010a 2C6A     		ldr	r4, [r5, #32]
 1759              	.LVL236:
1215:uCOS-III\Source/os_flag.c ****    *p_err     = OS_ERR_NONE;
 1760              		.loc 1 1215 0
 1761 010c FFF7FEFF 		bl	CPU_SR_Restore
 1762              	.LVL237:
1216:uCOS-III\Source/os_flag.c ****     return (flags_cur);
 1763              		.loc 1 1216 0
 1764 0110 0023     		movs	r3, #0
 1765 0112 069A     		ldr	r2, [sp, #24]
 1766 0114 1380     		strh	r3, [r2]	@ movhi
1217:uCOS-III\Source/os_flag.c **** }
 1767              		.loc 1 1217 0
 1768 0116 2046     		mov	r0, r4
1218:uCOS-III\Source/os_flag.c **** 
 1769              		.loc 1 1218 0
 1770 0118 BDE8F081 		pop	{r4, r5, r6, r7, r8, pc}
 1771              		.cfi_endproc
 1772              	.LFE12:
 1773              		.size	OS_FlagPost, .-OS_FlagPost
 1774              		.section	.text.OSFlagPost,"ax",%progbits
 1775              		.align	2
 1776              		.global	OSFlagPost
 1777              		.thumb
 1778              		.thumb_func
 1779              		.type	OSFlagPost, %function
 1780              	OSFlagPost:
 1781              	.LFB6:
ARM GAS  C:\Users\jorti\AppData\Local\Temp\ccCX4ftZ.s 			page 59


 824:uCOS-III\Source/os_flag.c ****     OS_FLAGS  flags_cur;
 1782              		.loc 1 824 0
 1783              		.cfi_startproc
 1784              		@ args = 0, pretend = 0, frame = 0
 1785              		@ frame_needed = 0, uses_anonymous_args = 0
 1786              	.LVL238:
 838:uCOS-III\Source/os_flag.c ****        *p_err  = OS_ERR_OBJ_PTR_NULL;
 1787              		.loc 1 838 0
 1788 0000 18B9     		cbnz	r0, .L159
 839:uCOS-III\Source/os_flag.c ****         return ((OS_FLAGS)0);
 1789              		.loc 1 839 0
 1790 0002 45F6C352 		movw	r2, #24003
 1791              	.LVL239:
 1792 0006 1A80     		strh	r2, [r3]	@ movhi
 884:uCOS-III\Source/os_flag.c **** 
 1793              		.loc 1 884 0
 1794 0008 7047     		bx	lr
 1795              	.LVL240:
 1796              	.L159:
 824:uCOS-III\Source/os_flag.c ****     OS_FLAGS  flags_cur;
 1797              		.loc 1 824 0
 1798 000a F0B5     		push	{r4, r5, r6, r7, lr}
 1799              		.cfi_def_cfa_offset 20
 1800              		.cfi_offset 4, -20
 1801              		.cfi_offset 5, -16
 1802              		.cfi_offset 6, -12
 1803              		.cfi_offset 7, -8
 1804              		.cfi_offset 14, -4
 1805 000c 83B0     		sub	sp, sp, #12
 1806              		.cfi_def_cfa_offset 32
 1807 000e 0446     		mov	r4, r0
 842:uCOS-III\Source/os_flag.c ****         case OS_OPT_POST_FLAG_SET:
 1808              		.loc 1 842 0
 1809 0010 012A     		cmp	r2, #1
 1810 0012 08D9     		bls	.L162
 1811 0014 A2F50040 		sub	r0, r2, #32768
 1812              	.LVL241:
 1813 0018 0128     		cmp	r0, #1
 1814 001a 04D9     		bls	.L162
 850:uCOS-III\Source/os_flag.c ****              return ((OS_FLAGS)0);
 1815              		.loc 1 850 0
 1816 001c 45F62562 		movw	r2, #24101
 1817              	.LVL242:
 1818 0020 1A80     		strh	r2, [r3]	@ movhi
 851:uCOS-III\Source/os_flag.c ****     }
 1819              		.loc 1 851 0
 1820 0022 0020     		movs	r0, #0
 1821 0024 0CE0     		b	.L160
 1822              	.LVL243:
 1823              	.L162:
 1824 0026 2646     		mov	r6, r4
 1825 0028 1D46     		mov	r5, r3
 1826 002a 1446     		mov	r4, r2
 1827              	.LVL244:
 1828 002c 0F46     		mov	r7, r1
 862:uCOS-III\Source/os_flag.c **** #if OS_CFG_ISR_POST_DEFERRED_EN > 0u
 1829              		.loc 1 862 0
ARM GAS  C:\Users\jorti\AppData\Local\Temp\ccCX4ftZ.s 			page 60


 1830 002e FFF7FEFF 		bl	CPU_TS_TmrRd
 1831              	.LVL245:
 877:uCOS-III\Source/os_flag.c ****                             flags,
 1832              		.loc 1 877 0
 1833 0032 0095     		str	r5, [sp]
 1834 0034 0346     		mov	r3, r0
 1835 0036 2246     		mov	r2, r4
 1836 0038 3946     		mov	r1, r7
 1837 003a 3046     		mov	r0, r6
 1838              	.LVL246:
 1839 003c FFF7FEFF 		bl	OS_FlagPost
 1840              	.LVL247:
 1841              	.L160:
 884:uCOS-III\Source/os_flag.c **** 
 1842              		.loc 1 884 0
 1843 0040 03B0     		add	sp, sp, #12
 1844              		.cfi_def_cfa_offset 20
 1845              		@ sp needed
 1846 0042 F0BD     		pop	{r4, r5, r6, r7, pc}
 1847              		.cfi_endproc
 1848              	.LFE6:
 1849              		.size	OSFlagPost, .-OSFlagPost
 1850              		.section	.rodata.str1.4,"aMS",%progbits,1
 1851              		.align	2
 1852              	.LC0:
 1853 0000 3F464C41 		.ascii	"?FLAG\000"
 1853      4700
 1854 0006 0000     		.space	2
 1855              	.LC1:
 1856 0008 2000     		.ascii	" \000"
 1857              		.text
 1858              	.Letext0:
 1859              		.file 2 ".\\uC-CPU\\ARM-Cortex-M3\\GNU/cpu.h"
 1860              		.file 3 ".\\uC-CPU/cpu_core.h"
 1861              		.file 4 ".\\uCOS-III\\Source/os_type.h"
 1862              		.file 5 ".\\uCOS-III\\Source/os.h"
 1863              		.section	.debug_info,"",%progbits
 1864              	.Ldebug_info0:
 1865 0000 8B170000 		.4byte	0x178b
 1866 0004 0400     		.2byte	0x4
 1867 0006 00000000 		.4byte	.Ldebug_abbrev0
 1868 000a 04       		.byte	0x4
 1869 000b 01       		.uleb128 0x1
 1870 000c 60060000 		.4byte	.LASF334
 1871 0010 0C       		.byte	0xc
 1872 0011 E7110000 		.4byte	.LASF335
 1873 0015 50110000 		.4byte	.LASF336
 1874 0019 00000000 		.4byte	.Ldebug_ranges0+0
 1875 001d 00000000 		.4byte	0
 1876 0021 00000000 		.4byte	.Ldebug_line0
 1877 0025 02       		.uleb128 0x2
 1878 0026 AE070000 		.4byte	.LASF0
 1879 002a 02       		.byte	0x2
 1880 002b 76       		.byte	0x76
 1881 002c 30000000 		.4byte	0x30
 1882 0030 03       		.uleb128 0x3
 1883 0031 01       		.byte	0x1
ARM GAS  C:\Users\jorti\AppData\Local\Temp\ccCX4ftZ.s 			page 61


 1884 0032 08       		.byte	0x8
 1885 0033 47090000 		.4byte	.LASF2
 1886 0037 02       		.uleb128 0x2
 1887 0038 3E100000 		.4byte	.LASF1
 1888 003c 02       		.byte	0x2
 1889 003d 77       		.byte	0x77
 1890 003e 42000000 		.4byte	0x42
 1891 0042 03       		.uleb128 0x3
 1892 0043 01       		.byte	0x1
 1893 0044 08       		.byte	0x8
 1894 0045 8E100000 		.4byte	.LASF3
 1895 0049 02       		.uleb128 0x2
 1896 004a F1050000 		.4byte	.LASF4
 1897 004e 02       		.byte	0x2
 1898 004f 78       		.byte	0x78
 1899 0050 42000000 		.4byte	0x42
 1900 0054 03       		.uleb128 0x3
 1901 0055 01       		.byte	0x1
 1902 0056 06       		.byte	0x6
 1903 0057 87120000 		.4byte	.LASF5
 1904 005b 02       		.uleb128 0x2
 1905 005c E50A0000 		.4byte	.LASF6
 1906 0060 02       		.byte	0x2
 1907 0061 7A       		.byte	0x7a
 1908 0062 66000000 		.4byte	0x66
 1909 0066 03       		.uleb128 0x3
 1910 0067 02       		.byte	0x2
 1911 0068 07       		.byte	0x7
 1912 0069 AD120000 		.4byte	.LASF7
 1913 006d 03       		.uleb128 0x3
 1914 006e 02       		.byte	0x2
 1915 006f 05       		.byte	0x5
 1916 0070 E70D0000 		.4byte	.LASF8
 1917 0074 02       		.uleb128 0x2
 1918 0075 BF010000 		.4byte	.LASF9
 1919 0079 02       		.byte	0x2
 1920 007a 7C       		.byte	0x7c
 1921 007b 7F000000 		.4byte	0x7f
 1922 007f 03       		.uleb128 0x3
 1923 0080 04       		.byte	0x4
 1924 0081 07       		.byte	0x7
 1925 0082 530F0000 		.4byte	.LASF10
 1926 0086 04       		.uleb128 0x4
 1927 0087 04       		.byte	0x4
 1928 0088 05       		.byte	0x5
 1929 0089 696E7400 		.ascii	"int\000"
 1930 008d 03       		.uleb128 0x3
 1931 008e 08       		.byte	0x8
 1932 008f 07       		.byte	0x7
 1933 0090 3F050000 		.4byte	.LASF11
 1934 0094 03       		.uleb128 0x3
 1935 0095 08       		.byte	0x8
 1936 0096 05       		.byte	0x5
 1937 0097 5B0A0000 		.4byte	.LASF12
 1938 009b 03       		.uleb128 0x3
 1939 009c 04       		.byte	0x4
 1940 009d 04       		.byte	0x4
ARM GAS  C:\Users\jorti\AppData\Local\Temp\ccCX4ftZ.s 			page 62


 1941 009e 91040000 		.4byte	.LASF13
 1942 00a2 03       		.uleb128 0x3
 1943 00a3 08       		.byte	0x8
 1944 00a4 04       		.byte	0x4
 1945 00a5 36130000 		.4byte	.LASF14
 1946 00a9 05       		.uleb128 0x5
 1947 00aa 04       		.byte	0x4
 1948 00ab AF000000 		.4byte	0xaf
 1949 00af 06       		.uleb128 0x6
 1950 00b0 BA000000 		.4byte	0xba
 1951 00b4 07       		.uleb128 0x7
 1952 00b5 BA000000 		.4byte	0xba
 1953 00b9 00       		.byte	0
 1954 00ba 08       		.uleb128 0x8
 1955 00bb 04       		.byte	0x4
 1956 00bc 02       		.uleb128 0x2
 1957 00bd F80F0000 		.4byte	.LASF15
 1958 00c1 02       		.byte	0x2
 1959 00c2 B5       		.byte	0xb5
 1960 00c3 74000000 		.4byte	0x74
 1961 00c7 02       		.uleb128 0x2
 1962 00c8 B7140000 		.4byte	.LASF16
 1963 00cc 02       		.byte	0x2
 1964 00cd D9       		.byte	0xd9
 1965 00ce 74000000 		.4byte	0x74
 1966 00d2 02       		.uleb128 0x2
 1967 00d3 CE070000 		.4byte	.LASF17
 1968 00d7 02       		.byte	0x2
 1969 00d8 DA       		.byte	0xda
 1970 00d9 BC000000 		.4byte	0xbc
 1971 00dd 09       		.uleb128 0x9
 1972 00de 7D090000 		.4byte	.LASF18
 1973 00e2 02       		.byte	0x2
 1974 00e3 2901     		.2byte	0x129
 1975 00e5 74000000 		.4byte	0x74
 1976 00e9 03       		.uleb128 0x3
 1977 00ea 04       		.byte	0x4
 1978 00eb 05       		.byte	0x5
 1979 00ec 120E0000 		.4byte	.LASF19
 1980 00f0 03       		.uleb128 0x3
 1981 00f1 04       		.byte	0x4
 1982 00f2 07       		.byte	0x7
 1983 00f3 D00F0000 		.4byte	.LASF20
 1984 00f7 03       		.uleb128 0x3
 1985 00f8 08       		.byte	0x8
 1986 00f9 04       		.byte	0x4
 1987 00fa 170D0000 		.4byte	.LASF21
 1988 00fe 03       		.uleb128 0x3
 1989 00ff 04       		.byte	0x4
 1990 0100 07       		.byte	0x7
 1991 0101 C70F0000 		.4byte	.LASF22
 1992 0105 02       		.uleb128 0x2
 1993 0106 A90B0000 		.4byte	.LASF23
 1994 010a 03       		.byte	0x3
 1995 010b C4       		.byte	0xc4
 1996 010c 74000000 		.4byte	0x74
 1997 0110 02       		.uleb128 0x2
ARM GAS  C:\Users\jorti\AppData\Local\Temp\ccCX4ftZ.s 			page 63


 1998 0111 540A0000 		.4byte	.LASF24
 1999 0115 03       		.byte	0x3
 2000 0116 C7       		.byte	0xc7
 2001 0117 05010000 		.4byte	0x105
 2002 011b 02       		.uleb128 0x2
 2003 011c 95010000 		.4byte	.LASF25
 2004 0120 04       		.byte	0x4
 2005 0121 30       		.byte	0x30
 2006 0122 5B000000 		.4byte	0x5b
 2007 0126 02       		.uleb128 0x2
 2008 0127 22000000 		.4byte	.LASF26
 2009 012b 04       		.byte	0x4
 2010 012c 34       		.byte	0x34
 2011 012d 74000000 		.4byte	0x74
 2012 0131 02       		.uleb128 0x2
 2013 0132 4A100000 		.4byte	.LASF27
 2014 0136 04       		.byte	0x4
 2015 0137 36       		.byte	0x36
 2016 0138 74000000 		.4byte	0x74
 2017 013c 02       		.uleb128 0x2
 2018 013d CA120000 		.4byte	.LASF28
 2019 0141 04       		.byte	0x4
 2020 0142 38       		.byte	0x38
 2021 0143 74000000 		.4byte	0x74
 2022 0147 02       		.uleb128 0x2
 2023 0148 E7070000 		.4byte	.LASF29
 2024 014c 04       		.byte	0x4
 2025 014d 3F       		.byte	0x3f
 2026 014e 5B000000 		.4byte	0x5b
 2027 0152 02       		.uleb128 0x2
 2028 0153 73070000 		.4byte	.LASF30
 2029 0157 04       		.byte	0x4
 2030 0158 40       		.byte	0x40
 2031 0159 5B000000 		.4byte	0x5b
 2032 015d 02       		.uleb128 0x2
 2033 015e 830E0000 		.4byte	.LASF31
 2034 0162 04       		.byte	0x4
 2035 0163 42       		.byte	0x42
 2036 0164 49000000 		.4byte	0x49
 2037 0168 02       		.uleb128 0x2
 2038 0169 92020000 		.4byte	.LASF32
 2039 016d 04       		.byte	0x4
 2040 016e 44       		.byte	0x44
 2041 016f 5B000000 		.4byte	0x5b
 2042 0173 02       		.uleb128 0x2
 2043 0174 4C090000 		.4byte	.LASF33
 2044 0178 04       		.byte	0x4
 2045 0179 45       		.byte	0x45
 2046 017a 74000000 		.4byte	0x74
 2047 017e 02       		.uleb128 0x2
 2048 017f E2100000 		.4byte	.LASF34
 2049 0183 04       		.byte	0x4
 2050 0184 47       		.byte	0x47
 2051 0185 5B000000 		.4byte	0x5b
 2052 0189 02       		.uleb128 0x2
 2053 018a 89040000 		.4byte	.LASF35
 2054 018e 04       		.byte	0x4
ARM GAS  C:\Users\jorti\AppData\Local\Temp\ccCX4ftZ.s 			page 64


 2055 018f 49       		.byte	0x49
 2056 0190 49000000 		.4byte	0x49
 2057 0194 02       		.uleb128 0x2
 2058 0195 59060000 		.4byte	.LASF36
 2059 0199 04       		.byte	0x4
 2060 019a 4F       		.byte	0x4f
 2061 019b 74000000 		.4byte	0x74
 2062 019f 02       		.uleb128 0x2
 2063 01a0 D50B0000 		.4byte	.LASF37
 2064 01a4 04       		.byte	0x4
 2065 01a5 52       		.byte	0x52
 2066 01a6 74000000 		.4byte	0x74
 2067 01aa 02       		.uleb128 0x2
 2068 01ab D1100000 		.4byte	.LASF38
 2069 01af 04       		.byte	0x4
 2070 01b0 54       		.byte	0x54
 2071 01b1 49000000 		.4byte	0x49
 2072 01b5 02       		.uleb128 0x2
 2073 01b6 2B070000 		.4byte	.LASF39
 2074 01ba 04       		.byte	0x4
 2075 01bb 56       		.byte	0x56
 2076 01bc 49000000 		.4byte	0x49
 2077 01c0 02       		.uleb128 0x2
 2078 01c1 600B0000 		.4byte	.LASF40
 2079 01c5 04       		.byte	0x4
 2080 01c6 58       		.byte	0x58
 2081 01c7 74000000 		.4byte	0x74
 2082 01cb 0A       		.uleb128 0xa
 2083 01cc 4D010000 		.4byte	.LASF337
 2084 01d0 02       		.byte	0x2
 2085 01d1 66000000 		.4byte	0x66
 2086 01d5 05       		.byte	0x5
 2087 01d6 A501     		.2byte	0x1a5
 2088 01d8 43060000 		.4byte	0x643
 2089 01dc 0B       		.uleb128 0xb
 2090 01dd F3120000 		.4byte	.LASF41
 2091 01e1 00       		.byte	0
 2092 01e2 0C       		.uleb128 0xc
 2093 01e3 5B000000 		.4byte	.LASF42
 2094 01e7 1027     		.2byte	0x2710
 2095 01e9 0C       		.uleb128 0xc
 2096 01ea 28030000 		.4byte	.LASF43
 2097 01ee 1127     		.2byte	0x2711
 2098 01f0 0C       		.uleb128 0xc
 2099 01f1 64000000 		.4byte	.LASF44
 2100 01f5 F82A     		.2byte	0x2af8
 2101 01f7 0C       		.uleb128 0xc
 2102 01f8 6D000000 		.4byte	.LASF45
 2103 01fc E02E     		.2byte	0x2ee0
 2104 01fe 0C       		.uleb128 0xc
 2105 01ff 83010000 		.4byte	.LASF46
 2106 0203 E12E     		.2byte	0x2ee1
 2107 0205 0C       		.uleb128 0xc
 2108 0206 76000000 		.4byte	.LASF47
 2109 020a C832     		.2byte	0x32c8
 2110 020c 0C       		.uleb128 0xc
 2111 020d 17090000 		.4byte	.LASF48
ARM GAS  C:\Users\jorti\AppData\Local\Temp\ccCX4ftZ.s 			page 65


 2112 0211 C932     		.2byte	0x32c9
 2113 0213 0C       		.uleb128 0xc
 2114 0214 7F000000 		.4byte	.LASF49
 2115 0218 B036     		.2byte	0x36b0
 2116 021a 0C       		.uleb128 0xc
 2117 021b 88000000 		.4byte	.LASF50
 2118 021f 983A     		.2byte	0x3a98
 2119 0221 0C       		.uleb128 0xc
 2120 0222 99120000 		.4byte	.LASF51
 2121 0226 993A     		.2byte	0x3a99
 2122 0228 0C       		.uleb128 0xc
 2123 0229 78080000 		.4byte	.LASF52
 2124 022d FD3A     		.2byte	0x3afd
 2125 022f 0C       		.uleb128 0xc
 2126 0230 A10F0000 		.4byte	.LASF53
 2127 0234 FE3A     		.2byte	0x3afe
 2128 0236 0C       		.uleb128 0xc
 2129 0237 730A0000 		.4byte	.LASF54
 2130 023b FF3A     		.2byte	0x3aff
 2131 023d 0C       		.uleb128 0xc
 2132 023e 20130000 		.4byte	.LASF55
 2133 0242 003B     		.2byte	0x3b00
 2134 0244 0C       		.uleb128 0xc
 2135 0245 91000000 		.4byte	.LASF56
 2136 0249 803E     		.2byte	0x3e80
 2137 024b 0C       		.uleb128 0xc
 2138 024c 9A000000 		.4byte	.LASF57
 2139 0250 6842     		.2byte	0x4268
 2140 0252 0C       		.uleb128 0xc
 2141 0253 A3000000 		.4byte	.LASF58
 2142 0257 5046     		.2byte	0x4650
 2143 0259 0C       		.uleb128 0xc
 2144 025a 1A040000 		.4byte	.LASF59
 2145 025e 5146     		.2byte	0x4651
 2146 0260 0C       		.uleb128 0xc
 2147 0261 E1020000 		.4byte	.LASF60
 2148 0265 5246     		.2byte	0x4652
 2149 0267 0C       		.uleb128 0xc
 2150 0268 E5030000 		.4byte	.LASF61
 2151 026c 5346     		.2byte	0x4653
 2152 026e 0C       		.uleb128 0xc
 2153 026f 71010000 		.4byte	.LASF62
 2154 0273 5446     		.2byte	0x4654
 2155 0275 0C       		.uleb128 0xc
 2156 0276 01120000 		.4byte	.LASF63
 2157 027a 5546     		.2byte	0x4655
 2158 027c 0C       		.uleb128 0xc
 2159 027d 9A0C0000 		.4byte	.LASF64
 2160 0281 5646     		.2byte	0x4656
 2161 0283 0C       		.uleb128 0xc
 2162 0284 AC000000 		.4byte	.LASF65
 2163 0288 384A     		.2byte	0x4a38
 2164 028a 0C       		.uleb128 0xc
 2165 028b B5000000 		.4byte	.LASF66
 2166 028f 204E     		.2byte	0x4e20
 2167 0291 0C       		.uleb128 0xc
 2168 0292 BE000000 		.4byte	.LASF67
ARM GAS  C:\Users\jorti\AppData\Local\Temp\ccCX4ftZ.s 			page 66


 2169 0296 0852     		.2byte	0x5208
 2170 0298 0C       		.uleb128 0xc
 2171 0299 AB0D0000 		.4byte	.LASF68
 2172 029d 0952     		.2byte	0x5209
 2173 029f 0C       		.uleb128 0xc
 2174 02a0 C7000000 		.4byte	.LASF69
 2175 02a4 F055     		.2byte	0x55f0
 2176 02a6 0C       		.uleb128 0xc
 2177 02a7 F5100000 		.4byte	.LASF70
 2178 02ab B956     		.2byte	0x56b9
 2179 02ad 0C       		.uleb128 0xc
 2180 02ae 680B0000 		.4byte	.LASF71
 2181 02b2 BA56     		.2byte	0x56ba
 2182 02b4 0C       		.uleb128 0xc
 2183 02b5 8B0D0000 		.4byte	.LASF72
 2184 02b9 BB56     		.2byte	0x56bb
 2185 02bb 0C       		.uleb128 0xc
 2186 02bc A0080000 		.4byte	.LASF73
 2187 02c0 BC56     		.2byte	0x56bc
 2188 02c2 0C       		.uleb128 0xc
 2189 02c3 140B0000 		.4byte	.LASF74
 2190 02c7 BD56     		.2byte	0x56bd
 2191 02c9 0C       		.uleb128 0xc
 2192 02ca 720D0000 		.4byte	.LASF75
 2193 02ce BE56     		.2byte	0x56be
 2194 02d0 0C       		.uleb128 0xc
 2195 02d1 900B0000 		.4byte	.LASF76
 2196 02d5 BF56     		.2byte	0x56bf
 2197 02d7 0C       		.uleb128 0xc
 2198 02d8 D2040000 		.4byte	.LASF77
 2199 02dc C056     		.2byte	0x56c0
 2200 02de 0C       		.uleb128 0xc
 2201 02df B2130000 		.4byte	.LASF78
 2202 02e3 C156     		.2byte	0x56c1
 2203 02e5 0C       		.uleb128 0xc
 2204 02e6 9F140000 		.4byte	.LASF79
 2205 02ea C256     		.2byte	0x56c2
 2206 02ec 0C       		.uleb128 0xc
 2207 02ed FC0D0000 		.4byte	.LASF80
 2208 02f1 1D57     		.2byte	0x571d
 2209 02f3 0C       		.uleb128 0xc
 2210 02f4 6A0E0000 		.4byte	.LASF81
 2211 02f8 1E57     		.2byte	0x571e
 2212 02fa 0C       		.uleb128 0xc
 2213 02fb 5C070000 		.4byte	.LASF82
 2214 02ff 8157     		.2byte	0x5781
 2215 0301 0C       		.uleb128 0xc
 2216 0302 680F0000 		.4byte	.LASF83
 2217 0306 8257     		.2byte	0x5782
 2218 0308 0C       		.uleb128 0xc
 2219 0309 57030000 		.4byte	.LASF84
 2220 030d 8357     		.2byte	0x5783
 2221 030f 0C       		.uleb128 0xc
 2222 0310 D0000000 		.4byte	.LASF85
 2223 0314 D859     		.2byte	0x59d8
 2224 0316 0C       		.uleb128 0xc
 2225 0317 03070000 		.4byte	.LASF86
ARM GAS  C:\Users\jorti\AppData\Local\Temp\ccCX4ftZ.s 			page 67


 2226 031b D959     		.2byte	0x59d9
 2227 031d 0C       		.uleb128 0xc
 2228 031e AC040000 		.4byte	.LASF87
 2229 0322 DA59     		.2byte	0x59da
 2230 0324 0C       		.uleb128 0xc
 2231 0325 D9000000 		.4byte	.LASF88
 2232 0329 C05D     		.2byte	0x5dc0
 2233 032b 0C       		.uleb128 0xc
 2234 032c B1030000 		.4byte	.LASF89
 2235 0330 C15D     		.2byte	0x5dc1
 2236 0332 0C       		.uleb128 0xc
 2237 0333 3A0A0000 		.4byte	.LASF90
 2238 0337 C25D     		.2byte	0x5dc2
 2239 0339 0C       		.uleb128 0xc
 2240 033a 2C0B0000 		.4byte	.LASF91
 2241 033e C35D     		.2byte	0x5dc3
 2242 0340 0C       		.uleb128 0xc
 2243 0341 E10E0000 		.4byte	.LASF92
 2244 0345 C45D     		.2byte	0x5dc4
 2245 0347 0C       		.uleb128 0xc
 2246 0348 6A090000 		.4byte	.LASF93
 2247 034c 255E     		.2byte	0x5e25
 2248 034e 0C       		.uleb128 0xc
 2249 034f 230D0000 		.4byte	.LASF94
 2250 0353 895E     		.2byte	0x5e89
 2251 0355 0C       		.uleb128 0xc
 2252 0356 F2070000 		.4byte	.LASF95
 2253 035a 8A5E     		.2byte	0x5e8a
 2254 035c 0C       		.uleb128 0xc
 2255 035d E2000000 		.4byte	.LASF96
 2256 0361 A861     		.2byte	0x61a8
 2257 0363 0C       		.uleb128 0xc
 2258 0364 3D130000 		.4byte	.LASF97
 2259 0368 A961     		.2byte	0x61a9
 2260 036a 0C       		.uleb128 0xc
 2261 036b E20F0000 		.4byte	.LASF98
 2262 036f AA61     		.2byte	0x61aa
 2263 0371 0C       		.uleb128 0xc
 2264 0372 3C0F0000 		.4byte	.LASF99
 2265 0376 AB61     		.2byte	0x61ab
 2266 0378 0C       		.uleb128 0xc
 2267 0379 CE0A0000 		.4byte	.LASF100
 2268 037d AC61     		.2byte	0x61ac
 2269 037f 0C       		.uleb128 0xc
 2270 0380 7C130000 		.4byte	.LASF101
 2271 0384 AD61     		.2byte	0x61ad
 2272 0386 0C       		.uleb128 0xc
 2273 0387 2A110000 		.4byte	.LASF102
 2274 038b AE61     		.2byte	0x61ae
 2275 038d 0C       		.uleb128 0xc
 2276 038e 7F020000 		.4byte	.LASF103
 2277 0392 AF61     		.2byte	0x61af
 2278 0394 0C       		.uleb128 0xc
 2279 0395 23020000 		.4byte	.LASF104
 2280 0399 B061     		.2byte	0x61b0
 2281 039b 0C       		.uleb128 0xc
 2282 039c 97040000 		.4byte	.LASF105
ARM GAS  C:\Users\jorti\AppData\Local\Temp\ccCX4ftZ.s 			page 68


 2283 03a0 0D62     		.2byte	0x620d
 2284 03a2 0C       		.uleb128 0xc
 2285 03a3 01100000 		.4byte	.LASF106
 2286 03a7 0E62     		.2byte	0x620e
 2287 03a9 0C       		.uleb128 0xc
 2288 03aa 84140000 		.4byte	.LASF107
 2289 03ae 7162     		.2byte	0x6271
 2290 03b0 0C       		.uleb128 0xc
 2291 03b1 70130000 		.4byte	.LASF108
 2292 03b5 7262     		.2byte	0x6272
 2293 03b7 0C       		.uleb128 0xc
 2294 03b8 07000000 		.4byte	.LASF109
 2295 03bc 7362     		.2byte	0x6273
 2296 03be 0C       		.uleb128 0xc
 2297 03bf E70C0000 		.4byte	.LASF110
 2298 03c3 D562     		.2byte	0x62d5
 2299 03c5 0C       		.uleb128 0xc
 2300 03c6 EB000000 		.4byte	.LASF111
 2301 03ca 9065     		.2byte	0x6590
 2302 03cc 0C       		.uleb128 0xc
 2303 03cd D9110000 		.4byte	.LASF112
 2304 03d1 9165     		.2byte	0x6591
 2305 03d3 0C       		.uleb128 0xc
 2306 03d4 29060000 		.4byte	.LASF113
 2307 03d8 9265     		.2byte	0x6592
 2308 03da 0C       		.uleb128 0xc
 2309 03db 26090000 		.4byte	.LASF114
 2310 03df 9365     		.2byte	0x6593
 2311 03e1 0C       		.uleb128 0xc
 2312 03e2 A30A0000 		.4byte	.LASF115
 2313 03e6 9465     		.2byte	0x6594
 2314 03e8 0C       		.uleb128 0xc
 2315 03e9 F4000000 		.4byte	.LASF116
 2316 03ed 7869     		.2byte	0x6978
 2317 03ef 0C       		.uleb128 0xc
 2318 03f0 400B0000 		.4byte	.LASF117
 2319 03f4 7969     		.2byte	0x6979
 2320 03f6 0C       		.uleb128 0xc
 2321 03f7 5D0D0000 		.4byte	.LASF118
 2322 03fb 7A69     		.2byte	0x697a
 2323 03fd 0C       		.uleb128 0xc
 2324 03fe F00A0000 		.4byte	.LASF119
 2325 0402 7B69     		.2byte	0x697b
 2326 0404 0C       		.uleb128 0xc
 2327 0405 FD000000 		.4byte	.LASF120
 2328 0409 606D     		.2byte	0x6d60
 2329 040b 0C       		.uleb128 0xc
 2330 040c 91090000 		.4byte	.LASF121
 2331 0410 616D     		.2byte	0x6d61
 2332 0412 0C       		.uleb128 0xc
 2333 0413 01090000 		.4byte	.LASF122
 2334 0417 626D     		.2byte	0x6d62
 2335 0419 0C       		.uleb128 0xc
 2336 041a 0C130000 		.4byte	.LASF123
 2337 041e 636D     		.2byte	0x6d63
 2338 0420 0C       		.uleb128 0xc
 2339 0421 58130000 		.4byte	.LASF124
ARM GAS  C:\Users\jorti\AppData\Local\Temp\ccCX4ftZ.s 			page 69


 2340 0425 646D     		.2byte	0x6d64
 2341 0427 0C       		.uleb128 0xc
 2342 0428 1B0E0000 		.4byte	.LASF125
 2343 042c 656D     		.2byte	0x6d65
 2344 042e 0C       		.uleb128 0xc
 2345 042f 0D140000 		.4byte	.LASF126
 2346 0433 C56D     		.2byte	0x6dc5
 2347 0435 0C       		.uleb128 0xc
 2348 0436 EC130000 		.4byte	.LASF127
 2349 043a C66D     		.2byte	0x6dc6
 2350 043c 0C       		.uleb128 0xc
 2351 043d 69020000 		.4byte	.LASF128
 2352 0441 296E     		.2byte	0x6e29
 2353 0443 0C       		.uleb128 0xc
 2354 0444 D0090000 		.4byte	.LASF129
 2355 0448 2A6E     		.2byte	0x6e2a
 2356 044a 0C       		.uleb128 0xc
 2357 044b 51080000 		.4byte	.LASF130
 2358 044f 2B6E     		.2byte	0x6e2b
 2359 0451 0C       		.uleb128 0xc
 2360 0452 840F0000 		.4byte	.LASF131
 2361 0456 2C6E     		.2byte	0x6e2c
 2362 0458 0C       		.uleb128 0xc
 2363 0459 FA0C0000 		.4byte	.LASF132
 2364 045d 2D6E     		.2byte	0x6e2d
 2365 045f 0C       		.uleb128 0xc
 2366 0460 0B110000 		.4byte	.LASF133
 2367 0464 2E6E     		.2byte	0x6e2e
 2368 0466 0C       		.uleb128 0xc
 2369 0467 E3010000 		.4byte	.LASF134
 2370 046b 2F6E     		.2byte	0x6e2f
 2371 046d 0C       		.uleb128 0xc
 2372 046e 5B100000 		.4byte	.LASF135
 2373 0472 306E     		.2byte	0x6e30
 2374 0474 0C       		.uleb128 0xc
 2375 0475 25100000 		.4byte	.LASF136
 2376 0479 316E     		.2byte	0x6e31
 2377 047b 0C       		.uleb128 0xc
 2378 047c 06010000 		.4byte	.LASF137
 2379 0480 4871     		.2byte	0x7148
 2380 0482 0C       		.uleb128 0xc
 2381 0483 3B020000 		.4byte	.LASF138
 2382 0487 4971     		.2byte	0x7149
 2383 0489 0C       		.uleb128 0xc
 2384 048a B7070000 		.4byte	.LASF139
 2385 048e 4A71     		.2byte	0x714a
 2386 0490 0C       		.uleb128 0xc
 2387 0491 4C120000 		.4byte	.LASF140
 2388 0495 4B71     		.2byte	0x714b
 2389 0497 0C       		.uleb128 0xc
 2390 0498 1C140000 		.4byte	.LASF141
 2391 049c 4C71     		.2byte	0x714c
 2392 049e 0C       		.uleb128 0xc
 2393 049f B2050000 		.4byte	.LASF142
 2394 04a3 4D71     		.2byte	0x714d
 2395 04a5 0C       		.uleb128 0xc
 2396 04a6 C70C0000 		.4byte	.LASF143
ARM GAS  C:\Users\jorti\AppData\Local\Temp\ccCX4ftZ.s 			page 70


 2397 04aa 4E71     		.2byte	0x714e
 2398 04ac 0C       		.uleb128 0xc
 2399 04ad 460C0000 		.4byte	.LASF144
 2400 04b1 4F71     		.2byte	0x714f
 2401 04b3 0C       		.uleb128 0xc
 2402 04b4 780B0000 		.4byte	.LASF145
 2403 04b8 5071     		.2byte	0x7150
 2404 04ba 0C       		.uleb128 0xc
 2405 04bb C2020000 		.4byte	.LASF146
 2406 04bf 5171     		.2byte	0x7151
 2407 04c1 0C       		.uleb128 0xc
 2408 04c2 1F0C0000 		.4byte	.LASF147
 2409 04c6 5271     		.2byte	0x7152
 2410 04c8 0C       		.uleb128 0xc
 2411 04c9 9D020000 		.4byte	.LASF148
 2412 04cd 5371     		.2byte	0x7153
 2413 04cf 0C       		.uleb128 0xc
 2414 04d0 9C100000 		.4byte	.LASF149
 2415 04d4 5471     		.2byte	0x7154
 2416 04d6 0C       		.uleb128 0xc
 2417 04d7 0C020000 		.4byte	.LASF150
 2418 04db 5571     		.2byte	0x7155
 2419 04dd 0C       		.uleb128 0xc
 2420 04de 6B040000 		.4byte	.LASF151
 2421 04e2 5671     		.2byte	0x7156
 2422 04e4 0C       		.uleb128 0xc
 2423 04e5 B40E0000 		.4byte	.LASF152
 2424 04e9 5771     		.2byte	0x7157
 2425 04eb 0C       		.uleb128 0xc
 2426 04ec 56050000 		.4byte	.LASF153
 2427 04f0 5871     		.2byte	0x7158
 2428 04f2 0C       		.uleb128 0xc
 2429 04f3 C30D0000 		.4byte	.LASF154
 2430 04f7 5971     		.2byte	0x7159
 2431 04f9 0C       		.uleb128 0xc
 2432 04fa CA130000 		.4byte	.LASF155
 2433 04fe 5A71     		.2byte	0x715a
 2434 0500 0C       		.uleb128 0xc
 2435 0501 CC030000 		.4byte	.LASF156
 2436 0505 5B71     		.2byte	0x715b
 2437 0507 0C       		.uleb128 0xc
 2438 0508 92050000 		.4byte	.LASF157
 2439 050c 5C71     		.2byte	0x715c
 2440 050e 0C       		.uleb128 0xc
 2441 050f 3A030000 		.4byte	.LASF158
 2442 0513 5D71     		.2byte	0x715d
 2443 0515 0C       		.uleb128 0xc
 2444 0516 770C0000 		.4byte	.LASF159
 2445 051a 5E71     		.2byte	0x715e
 2446 051c 0C       		.uleb128 0xc
 2447 051d 04030000 		.4byte	.LASF160
 2448 0521 5F71     		.2byte	0x715f
 2449 0523 0C       		.uleb128 0xc
 2450 0524 03060000 		.4byte	.LASF161
 2451 0528 AD71     		.2byte	0x71ad
 2452 052a 0C       		.uleb128 0xc
 2453 052b 29050000 		.4byte	.LASF162
ARM GAS  C:\Users\jorti\AppData\Local\Temp\ccCX4ftZ.s 			page 71


 2454 052f C071     		.2byte	0x71c0
 2455 0531 0C       		.uleb128 0xc
 2456 0532 B80C0000 		.4byte	.LASF163
 2457 0536 C171     		.2byte	0x71c1
 2458 0538 0C       		.uleb128 0xc
 2459 0539 DA120000 		.4byte	.LASF164
 2460 053d C271     		.2byte	0x71c2
 2461 053f 0C       		.uleb128 0xc
 2462 0540 58090000 		.4byte	.LASF165
 2463 0544 C371     		.2byte	0x71c3
 2464 0546 0C       		.uleb128 0xc
 2465 0547 3F070000 		.4byte	.LASF166
 2466 054b C471     		.2byte	0x71c4
 2467 054d 0C       		.uleb128 0xc
 2468 054e 6B140000 		.4byte	.LASF167
 2469 0552 1172     		.2byte	0x7211
 2470 0554 0C       		.uleb128 0xc
 2471 0555 520E0000 		.4byte	.LASF168
 2472 0559 1272     		.2byte	0x7212
 2473 055b 0C       		.uleb128 0xc
 2474 055c A2010000 		.4byte	.LASF169
 2475 0560 1372     		.2byte	0x7213
 2476 0562 0C       		.uleb128 0xc
 2477 0563 FC0B0000 		.4byte	.LASF170
 2478 0567 1472     		.2byte	0x7214
 2479 0569 0C       		.uleb128 0xc
 2480 056a 11100000 		.4byte	.LASF171
 2481 056e 7572     		.2byte	0x7275
 2482 0570 0C       		.uleb128 0xc
 2483 0571 50140000 		.4byte	.LASF172
 2484 0575 7672     		.2byte	0x7276
 2485 0577 0C       		.uleb128 0xc
 2486 0578 31140000 		.4byte	.LASF173
 2487 057c 7772     		.2byte	0x7277
 2488 057e 0C       		.uleb128 0xc
 2489 057f 7F070000 		.4byte	.LASF174
 2490 0583 7872     		.2byte	0x7278
 2491 0585 0C       		.uleb128 0xc
 2492 0586 3F000000 		.4byte	.LASF175
 2493 058a 7972     		.2byte	0x7279
 2494 058c 0C       		.uleb128 0xc
 2495 058d 1A120000 		.4byte	.LASF176
 2496 0591 7A72     		.2byte	0x727a
 2497 0593 0C       		.uleb128 0xc
 2498 0594 38060000 		.4byte	.LASF177
 2499 0598 7B72     		.2byte	0x727b
 2500 059a 0C       		.uleb128 0xc
 2501 059b F4090000 		.4byte	.LASF178
 2502 059f 7C72     		.2byte	0x727c
 2503 05a1 0C       		.uleb128 0xc
 2504 05a2 490D0000 		.4byte	.LASF179
 2505 05a6 7D72     		.2byte	0x727d
 2506 05a8 0C       		.uleb128 0xc
 2507 05a9 27080000 		.4byte	.LASF180
 2508 05ad 7E72     		.2byte	0x727e
 2509 05af 0C       		.uleb128 0xc
 2510 05b0 C2100000 		.4byte	.LASF181
ARM GAS  C:\Users\jorti\AppData\Local\Temp\ccCX4ftZ.s 			page 72


 2511 05b4 D972     		.2byte	0x72d9
 2512 05b6 0C       		.uleb128 0xc
 2513 05b7 0A050000 		.4byte	.LASF182
 2514 05bb 3D73     		.2byte	0x733d
 2515 05bd 0C       		.uleb128 0xc
 2516 05be E9080000 		.4byte	.LASF183
 2517 05c2 3E73     		.2byte	0x733e
 2518 05c4 0C       		.uleb128 0xc
 2519 05c5 43040000 		.4byte	.LASF184
 2520 05c9 3F73     		.2byte	0x733f
 2521 05cb 0C       		.uleb128 0xc
 2522 05cc 33010000 		.4byte	.LASF185
 2523 05d0 4073     		.2byte	0x7340
 2524 05d2 0C       		.uleb128 0xc
 2525 05d3 78030000 		.4byte	.LASF186
 2526 05d7 4173     		.2byte	0x7341
 2527 05d9 0C       		.uleb128 0xc
 2528 05da 72050000 		.4byte	.LASF187
 2529 05de 4273     		.2byte	0x7342
 2530 05e0 0C       		.uleb128 0xc
 2531 05e1 30000000 		.4byte	.LASF188
 2532 05e5 4373     		.2byte	0x7343
 2533 05e7 0C       		.uleb128 0xc
 2534 05e8 F3040000 		.4byte	.LASF189
 2535 05ec 4473     		.2byte	0x7344
 2536 05ee 0C       		.uleb128 0xc
 2537 05ef 99070000 		.4byte	.LASF190
 2538 05f3 4573     		.2byte	0x7345
 2539 05f5 0C       		.uleb128 0xc
 2540 05f6 5A0C0000 		.4byte	.LASF191
 2541 05fa 4673     		.2byte	0x7346
 2542 05fc 0C       		.uleb128 0xc
 2543 05fd CA050000 		.4byte	.LASF192
 2544 0601 4773     		.2byte	0x7347
 2545 0603 0C       		.uleb128 0xc
 2546 0604 E00B0000 		.4byte	.LASF193
 2547 0608 4873     		.2byte	0x7348
 2548 060a 0C       		.uleb128 0xc
 2549 060b 73100000 		.4byte	.LASF194
 2550 060f 4973     		.2byte	0x7349
 2551 0611 0C       		.uleb128 0xc
 2552 0612 0F010000 		.4byte	.LASF195
 2553 0616 3075     		.2byte	0x7530
 2554 0618 0C       		.uleb128 0xc
 2555 0619 18010000 		.4byte	.LASF196
 2556 061d 1879     		.2byte	0x7918
 2557 061f 0C       		.uleb128 0xc
 2558 0620 21010000 		.4byte	.LASF197
 2559 0624 007D     		.2byte	0x7d00
 2560 0626 0C       		.uleb128 0xc
 2561 0627 2A010000 		.4byte	.LASF198
 2562 062b E880     		.2byte	0x80e8
 2563 062d 0C       		.uleb128 0xc
 2564 062e 21110000 		.4byte	.LASF199
 2565 0632 D084     		.2byte	0x84d0
 2566 0634 0C       		.uleb128 0xc
 2567 0635 290A0000 		.4byte	.LASF200
ARM GAS  C:\Users\jorti\AppData\Local\Temp\ccCX4ftZ.s 			page 73


 2568 0639 D184     		.2byte	0x84d1
 2569 063b 0C       		.uleb128 0xc
 2570 063c 3A110000 		.4byte	.LASF201
 2571 0640 B888     		.2byte	0x88b8
 2572 0642 00       		.byte	0
 2573 0643 09       		.uleb128 0x9
 2574 0644 1B000000 		.4byte	.LASF202
 2575 0648 05       		.byte	0x5
 2576 0649 7202     		.2byte	0x272
 2577 064b CB010000 		.4byte	0x1cb
 2578 064f 09       		.uleb128 0x9
 2579 0650 E0130000 		.4byte	.LASF203
 2580 0654 05       		.byte	0x5
 2581 0655 7E02     		.2byte	0x27e
 2582 0657 5B060000 		.4byte	0x65b
 2583 065b 0D       		.uleb128 0xd
 2584 065c 65010000 		.4byte	.LASF212
 2585 0660 28       		.byte	0x28
 2586 0661 05       		.byte	0x5
 2587 0662 1403     		.2byte	0x314
 2588 0664 D0060000 		.4byte	0x6d0
 2589 0668 0E       		.uleb128 0xe
 2590 0669 240A0000 		.4byte	.LASF204
 2591 066d 05       		.byte	0x5
 2592 066e 1603     		.2byte	0x316
 2593 0670 73010000 		.4byte	0x173
 2594 0674 00       		.byte	0
 2595 0675 0E       		.uleb128 0xe
 2596 0676 080A0000 		.4byte	.LASF205
 2597 067a 05       		.byte	0x5
 2598 067b 1703     		.2byte	0x317
 2599 067d B30B0000 		.4byte	0xbb3
 2600 0681 04       		.byte	0x4
 2601 0682 0E       		.uleb128 0xe
 2602 0683 D80E0000 		.4byte	.LASF206
 2603 0687 05       		.byte	0x5
 2604 0688 1803     		.2byte	0x318
 2605 068a F80A0000 		.4byte	0xaf8
 2606 068e 08       		.byte	0x8
 2607 068f 0E       		.uleb128 0xe
 2608 0690 D6020000 		.4byte	.LASF207
 2609 0694 05       		.byte	0x5
 2610 0695 1A03     		.2byte	0x31a
 2611 0697 B90B0000 		.4byte	0xbb9
 2612 069b 14       		.byte	0x14
 2613 069c 0E       		.uleb128 0xe
 2614 069d EE020000 		.4byte	.LASF208
 2615 06a1 05       		.byte	0x5
 2616 06a2 1B03     		.2byte	0x31b
 2617 06a4 B90B0000 		.4byte	0xbb9
 2618 06a8 18       		.byte	0x18
 2619 06a9 0E       		.uleb128 0xe
 2620 06aa FB130000 		.4byte	.LASF209
 2621 06ae 05       		.byte	0x5
 2622 06af 1C03     		.2byte	0x31c
 2623 06b1 B30B0000 		.4byte	0xbb3
 2624 06b5 1C       		.byte	0x1c
ARM GAS  C:\Users\jorti\AppData\Local\Temp\ccCX4ftZ.s 			page 74


 2625 06b6 0E       		.uleb128 0xe
 2626 06b7 83040000 		.4byte	.LASF210
 2627 06bb 05       		.byte	0x5
 2628 06bc 1F03     		.2byte	0x31f
 2629 06be 3C010000 		.4byte	0x13c
 2630 06c2 20       		.byte	0x20
 2631 06c3 0F       		.uleb128 0xf
 2632 06c4 545300   		.ascii	"TS\000"
 2633 06c7 05       		.byte	0x5
 2634 06c8 2003     		.2byte	0x320
 2635 06ca 10010000 		.4byte	0x110
 2636 06ce 24       		.byte	0x24
 2637 06cf 00       		.byte	0
 2638 06d0 09       		.uleb128 0x9
 2639 06d1 DB080000 		.4byte	.LASF211
 2640 06d5 05       		.byte	0x5
 2641 06d6 8202     		.2byte	0x282
 2642 06d8 DC060000 		.4byte	0x6dc
 2643 06dc 0D       		.uleb128 0xd
 2644 06dd FC050000 		.4byte	.LASF213
 2645 06e1 10       		.byte	0x10
 2646 06e2 05       		.byte	0x5
 2647 06e3 4003     		.2byte	0x340
 2648 06e5 1E070000 		.4byte	0x71e
 2649 06e9 0E       		.uleb128 0xe
 2650 06ea 0F0D0000 		.4byte	.LASF214
 2651 06ee 05       		.byte	0x5
 2652 06ef 4103     		.2byte	0x341
 2653 06f1 BF0B0000 		.4byte	0xbbf
 2654 06f5 00       		.byte	0
 2655 06f6 0E       		.uleb128 0xe
 2656 06f7 D3120000 		.4byte	.LASF215
 2657 06fb 05       		.byte	0x5
 2658 06fc 4203     		.2byte	0x342
 2659 06fe BA000000 		.4byte	0xba
 2660 0702 04       		.byte	0x4
 2661 0703 0E       		.uleb128 0xe
 2662 0704 600F0000 		.4byte	.LASF216
 2663 0708 05       		.byte	0x5
 2664 0709 4303     		.2byte	0x343
 2665 070b 52010000 		.4byte	0x152
 2666 070f 08       		.byte	0x8
 2667 0710 0E       		.uleb128 0xe
 2668 0711 93120000 		.4byte	.LASF217
 2669 0715 05       		.byte	0x5
 2670 0716 4403     		.2byte	0x344
 2671 0718 10010000 		.4byte	0x110
 2672 071c 0C       		.byte	0xc
 2673 071d 00       		.byte	0
 2674 071e 09       		.uleb128 0x9
 2675 071f 1B0A0000 		.4byte	.LASF218
 2676 0723 05       		.byte	0x5
 2677 0724 8402     		.2byte	0x284
 2678 0726 2A070000 		.4byte	0x72a
 2679 072a 0D       		.uleb128 0xd
 2680 072b 96140000 		.4byte	.LASF219
 2681 072f 10       		.byte	0x10
ARM GAS  C:\Users\jorti\AppData\Local\Temp\ccCX4ftZ.s 			page 75


 2682 0730 05       		.byte	0x5
 2683 0731 5303     		.2byte	0x353
 2684 0733 79070000 		.4byte	0x779
 2685 0737 0E       		.uleb128 0xe
 2686 0738 190F0000 		.4byte	.LASF220
 2687 073c 05       		.byte	0x5
 2688 073d 5403     		.2byte	0x354
 2689 073f BF0B0000 		.4byte	0xbbf
 2690 0743 00       		.byte	0
 2691 0744 0E       		.uleb128 0xe
 2692 0745 C5110000 		.4byte	.LASF221
 2693 0749 05       		.byte	0x5
 2694 074a 5503     		.2byte	0x355
 2695 074c BF0B0000 		.4byte	0xbbf
 2696 0750 04       		.byte	0x4
 2697 0751 0E       		.uleb128 0xe
 2698 0752 18080000 		.4byte	.LASF222
 2699 0756 05       		.byte	0x5
 2700 0757 5603     		.2byte	0x356
 2701 0759 47010000 		.4byte	0x147
 2702 075d 08       		.byte	0x8
 2703 075e 0E       		.uleb128 0xe
 2704 075f 5A010000 		.4byte	.LASF223
 2705 0763 05       		.byte	0x5
 2706 0764 5703     		.2byte	0x357
 2707 0766 47010000 		.4byte	0x147
 2708 076a 0A       		.byte	0xa
 2709 076b 0E       		.uleb128 0xe
 2710 076c 97130000 		.4byte	.LASF224
 2711 0770 05       		.byte	0x5
 2712 0771 5803     		.2byte	0x358
 2713 0773 47010000 		.4byte	0x147
 2714 0777 0C       		.byte	0xc
 2715 0778 00       		.byte	0
 2716 0779 09       		.uleb128 0x9
 2717 077a E9100000 		.4byte	.LASF225
 2718 077e 05       		.byte	0x5
 2719 077f 8E02     		.2byte	0x28e
 2720 0781 A9000000 		.4byte	0xa9
 2721 0785 09       		.uleb128 0x9
 2722 0786 54100000 		.4byte	.LASF226
 2723 078a 05       		.byte	0x5
 2724 078b 9002     		.2byte	0x290
 2725 078d 91070000 		.4byte	0x791
 2726 0791 0D       		.uleb128 0xd
 2727 0792 00000000 		.4byte	.LASF227
 2728 0796 C0       		.byte	0xc0
 2729 0797 05       		.byte	0x5
 2730 0798 AB03     		.2byte	0x3ab
 2731 079a 350A0000 		.4byte	0xa35
 2732 079e 0E       		.uleb128 0xe
 2733 079f 880A0000 		.4byte	.LASF228
 2734 07a3 05       		.byte	0x5
 2735 07a4 AC03     		.2byte	0x3ac
 2736 07a6 C50B0000 		.4byte	0xbc5
 2737 07aa 00       		.byte	0
 2738 07ab 0E       		.uleb128 0xe
ARM GAS  C:\Users\jorti\AppData\Local\Temp\ccCX4ftZ.s 			page 76


 2739 07ac C00F0000 		.4byte	.LASF229
 2740 07b0 05       		.byte	0x5
 2741 07b1 AE03     		.2byte	0x3ae
 2742 07b3 BA000000 		.4byte	0xba
 2743 07b7 04       		.byte	0x4
 2744 07b8 0E       		.uleb128 0xe
 2745 07b9 BD0B0000 		.4byte	.LASF230
 2746 07bd 05       		.byte	0x5
 2747 07be B003     		.2byte	0x3b0
 2748 07c0 C50B0000 		.4byte	0xbc5
 2749 07c4 08       		.byte	0x8
 2750 07c5 0E       		.uleb128 0xe
 2751 07c6 0F0D0000 		.4byte	.LASF214
 2752 07ca 05       		.byte	0x5
 2753 07cb B203     		.2byte	0x3b2
 2754 07cd A10B0000 		.4byte	0xba1
 2755 07d1 0C       		.byte	0xc
 2756 07d2 0E       		.uleb128 0xe
 2757 07d3 3F090000 		.4byte	.LASF231
 2758 07d7 05       		.byte	0x5
 2759 07d8 B303     		.2byte	0x3b3
 2760 07da A10B0000 		.4byte	0xba1
 2761 07de 10       		.byte	0x10
 2762 07df 0E       		.uleb128 0xe
 2763 07e0 130C0000 		.4byte	.LASF232
 2764 07e4 05       		.byte	0x5
 2765 07e5 B503     		.2byte	0x3b5
 2766 07e7 A10B0000 		.4byte	0xba1
 2767 07eb 14       		.byte	0x14
 2768 07ec 0E       		.uleb128 0xe
 2769 07ed 3C080000 		.4byte	.LASF233
 2770 07f1 05       		.byte	0x5
 2771 07f2 B603     		.2byte	0x3b6
 2772 07f4 A10B0000 		.4byte	0xba1
 2773 07f8 18       		.byte	0x18
 2774 07f9 0E       		.uleb128 0xe
 2775 07fa 43110000 		.4byte	.LASF234
 2776 07fe 05       		.byte	0x5
 2777 07ff B803     		.2byte	0x3b8
 2778 0801 CB0B0000 		.4byte	0xbcb
 2779 0805 1C       		.byte	0x1c
 2780 0806 0E       		.uleb128 0xe
 2781 0807 080A0000 		.4byte	.LASF205
 2782 080b 05       		.byte	0x5
 2783 080c BA03     		.2byte	0x3ba
 2784 080e B30B0000 		.4byte	0xbb3
 2785 0812 20       		.byte	0x20
 2786 0813 0E       		.uleb128 0xe
 2787 0814 1E060000 		.4byte	.LASF235
 2788 0818 05       		.byte	0x5
 2789 0819 BC03     		.2byte	0x3bc
 2790 081b C50B0000 		.4byte	0xbc5
 2791 081f 24       		.byte	0x24
 2792 0820 0E       		.uleb128 0xe
 2793 0821 C2090000 		.4byte	.LASF236
 2794 0825 05       		.byte	0x5
 2795 0826 C203     		.2byte	0x3c2
ARM GAS  C:\Users\jorti\AppData\Local\Temp\ccCX4ftZ.s 			page 77


 2796 0828 79070000 		.4byte	0x779
 2797 082c 28       		.byte	0x28
 2798 082d 0E       		.uleb128 0xe
 2799 082e CC110000 		.4byte	.LASF237
 2800 0832 05       		.byte	0x5
 2801 0833 C303     		.2byte	0x3c3
 2802 0835 BA000000 		.4byte	0xba
 2803 0839 2C       		.byte	0x2c
 2804 083a 0E       		.uleb128 0xe
 2805 083b F10E0000 		.4byte	.LASF238
 2806 083f 05       		.byte	0x5
 2807 0840 C503     		.2byte	0x3c5
 2808 0842 A70B0000 		.4byte	0xba7
 2809 0846 30       		.byte	0x30
 2810 0847 0E       		.uleb128 0xe
 2811 0848 91030000 		.4byte	.LASF239
 2812 084c 05       		.byte	0x5
 2813 084d C603     		.2byte	0x3c6
 2814 084f AA010000 		.4byte	0x1aa
 2815 0853 34       		.byte	0x34
 2816 0854 0E       		.uleb128 0xe
 2817 0855 100A0000 		.4byte	.LASF240
 2818 0859 05       		.byte	0x5
 2819 085a C703     		.2byte	0x3c7
 2820 085c B5010000 		.4byte	0x1b5
 2821 0860 35       		.byte	0x35
 2822 0861 0E       		.uleb128 0xe
 2823 0862 35070000 		.4byte	.LASF241
 2824 0866 05       		.byte	0x5
 2825 0867 C903     		.2byte	0x3c9
 2826 0869 AA010000 		.4byte	0x1aa
 2827 086d 36       		.byte	0x36
 2828 086e 0E       		.uleb128 0xe
 2829 086f 31130000 		.4byte	.LASF242
 2830 0873 05       		.byte	0x5
 2831 0874 CA03     		.2byte	0x3ca
 2832 0876 89010000 		.4byte	0x189
 2833 087a 37       		.byte	0x37
 2834 087b 0E       		.uleb128 0xe
 2835 087c 16060000 		.4byte	.LASF243
 2836 0880 05       		.byte	0x5
 2837 0881 CB03     		.2byte	0x3cb
 2838 0883 D2000000 		.4byte	0xd2
 2839 0887 38       		.byte	0x38
 2840 0888 0F       		.uleb128 0xf
 2841 0889 4F707400 		.ascii	"Opt\000"
 2842 088d 05       		.byte	0x5
 2843 088e CC03     		.2byte	0x3cc
 2844 0890 7E010000 		.4byte	0x17e
 2845 0894 3C       		.byte	0x3c
 2846 0895 0E       		.uleb128 0xe
 2847 0896 98030000 		.4byte	.LASF244
 2848 089a 05       		.byte	0x5
 2849 089b CE03     		.2byte	0x3ce
 2850 089d 68010000 		.4byte	0x168
 2851 08a1 3E       		.byte	0x3e
 2852 08a2 0F       		.uleb128 0xf
ARM GAS  C:\Users\jorti\AppData\Local\Temp\ccCX4ftZ.s 			page 78


 2853 08a3 545300   		.ascii	"TS\000"
 2854 08a6 05       		.byte	0x5
 2855 08a7 D003     		.2byte	0x3d0
 2856 08a9 10010000 		.4byte	0x110
 2857 08ad 40       		.byte	0x40
 2858 08ae 0E       		.uleb128 0xe
 2859 08af 120F0000 		.4byte	.LASF245
 2860 08b3 05       		.byte	0x5
 2861 08b4 D203     		.2byte	0x3d2
 2862 08b6 9F010000 		.4byte	0x19f
 2863 08ba 44       		.byte	0x44
 2864 08bb 0E       		.uleb128 0xe
 2865 08bc 0C080000 		.4byte	.LASF246
 2866 08c0 05       		.byte	0x5
 2867 08c1 D503     		.2byte	0x3d5
 2868 08c3 C0010000 		.4byte	0x1c0
 2869 08c7 48       		.byte	0x48
 2870 08c8 0E       		.uleb128 0xe
 2871 08c9 F7030000 		.4byte	.LASF247
 2872 08cd 05       		.byte	0x5
 2873 08ce D603     		.2byte	0x3d6
 2874 08d0 C0010000 		.4byte	0x1c0
 2875 08d4 4C       		.byte	0x4c
 2876 08d5 0E       		.uleb128 0xe
 2877 08d6 1F0F0000 		.4byte	.LASF248
 2878 08da 05       		.byte	0x5
 2879 08db D703     		.2byte	0x3d7
 2880 08dd C0010000 		.4byte	0x1c0
 2881 08e1 50       		.byte	0x50
 2882 08e2 0E       		.uleb128 0xe
 2883 08e3 45140000 		.4byte	.LASF249
 2884 08e7 05       		.byte	0x5
 2885 08e8 D903     		.2byte	0x3d9
 2886 08ea C0010000 		.4byte	0x1c0
 2887 08ee 54       		.byte	0x54
 2888 08ef 0E       		.uleb128 0xe
 2889 08f0 1D070000 		.4byte	.LASF250
 2890 08f4 05       		.byte	0x5
 2891 08f5 DA03     		.2byte	0x3da
 2892 08f7 C0010000 		.4byte	0x1c0
 2893 08fb 58       		.byte	0x58
 2894 08fc 0E       		.uleb128 0xe
 2895 08fd D3120000 		.4byte	.LASF215
 2896 0901 05       		.byte	0x5
 2897 0902 DD03     		.2byte	0x3dd
 2898 0904 BA000000 		.4byte	0xba
 2899 0908 5C       		.byte	0x5c
 2900 0909 0E       		.uleb128 0xe
 2901 090a 600F0000 		.4byte	.LASF216
 2902 090e 05       		.byte	0x5
 2903 090f DE03     		.2byte	0x3de
 2904 0911 52010000 		.4byte	0x152
 2905 0915 60       		.byte	0x60
 2906 0916 0E       		.uleb128 0xe
 2907 0917 B1090000 		.4byte	.LASF251
 2908 091b 05       		.byte	0x5
 2909 091c E203     		.2byte	0x3e2
ARM GAS  C:\Users\jorti\AppData\Local\Temp\ccCX4ftZ.s 			page 79


 2910 091e 1E070000 		.4byte	0x71e
 2911 0922 64       		.byte	0x64
 2912 0923 0E       		.uleb128 0xe
 2913 0924 CE080000 		.4byte	.LASF252
 2914 0928 05       		.byte	0x5
 2915 0929 E403     		.2byte	0x3e4
 2916 092b 10010000 		.4byte	0x110
 2917 092f 74       		.byte	0x74
 2918 0930 0E       		.uleb128 0xe
 2919 0931 BE080000 		.4byte	.LASF253
 2920 0935 05       		.byte	0x5
 2921 0936 E503     		.2byte	0x3e5
 2922 0938 10010000 		.4byte	0x110
 2923 093c 78       		.byte	0x78
 2924 093d 0E       		.uleb128 0xe
 2925 093e 06140000 		.4byte	.LASF254
 2926 0942 05       		.byte	0x5
 2927 0943 EA03     		.2byte	0x3ea
 2928 0945 D10B0000 		.4byte	0xbd1
 2929 0949 7C       		.byte	0x7c
 2930 094a 0E       		.uleb128 0xe
 2931 094b 39040000 		.4byte	.LASF255
 2932 094f 05       		.byte	0x5
 2933 0950 EE03     		.2byte	0x3ee
 2934 0952 3C010000 		.4byte	0x13c
 2935 0956 80       		.byte	0x80
 2936 0957 0E       		.uleb128 0xe
 2937 0958 48080000 		.4byte	.LASF256
 2938 095c 05       		.byte	0x5
 2939 095d EF03     		.2byte	0x3ef
 2940 095f 3C010000 		.4byte	0x13c
 2941 0963 84       		.byte	0x84
 2942 0964 0E       		.uleb128 0xe
 2943 0965 03020000 		.4byte	.LASF257
 2944 0969 05       		.byte	0x5
 2945 096a F003     		.2byte	0x3f0
 2946 096c 7E010000 		.4byte	0x17e
 2947 0970 88       		.byte	0x88
 2948 0971 0E       		.uleb128 0xe
 2949 0972 B20B0000 		.4byte	.LASF258
 2950 0976 05       		.byte	0x5
 2951 0977 F403     		.2byte	0x3f4
 2952 0979 5D010000 		.4byte	0x15d
 2953 097d 8A       		.byte	0x8a
 2954 097e 0E       		.uleb128 0xe
 2955 097f 4F130000 		.4byte	.LASF259
 2956 0983 05       		.byte	0x5
 2957 0984 F803     		.2byte	0x3f8
 2958 0986 1B010000 		.4byte	0x11b
 2959 098a 8C       		.byte	0x8c
 2960 098b 0E       		.uleb128 0xe
 2961 098c CC0E0000 		.4byte	.LASF260
 2962 0990 05       		.byte	0x5
 2963 0991 F903     		.2byte	0x3f9
 2964 0993 1B010000 		.4byte	0x11b
 2965 0997 8E       		.byte	0x8e
 2966 0998 0E       		.uleb128 0xe
ARM GAS  C:\Users\jorti\AppData\Local\Temp\ccCX4ftZ.s 			page 80


 2967 0999 62040000 		.4byte	.LASF261
 2968 099d 05       		.byte	0x5
 2969 099e FA03     		.2byte	0x3fa
 2970 09a0 26010000 		.4byte	0x126
 2971 09a4 90       		.byte	0x90
 2972 09a5 0E       		.uleb128 0xe
 2973 09a6 C90B0000 		.4byte	.LASF262
 2974 09aa 05       		.byte	0x5
 2975 09ab FB03     		.2byte	0x3fb
 2976 09ad 10010000 		.4byte	0x110
 2977 09b1 94       		.byte	0x94
 2978 09b2 0E       		.uleb128 0xe
 2979 09b3 B10A0000 		.4byte	.LASF263
 2980 09b7 05       		.byte	0x5
 2981 09b8 FC03     		.2byte	0x3fc
 2982 09ba 10010000 		.4byte	0x110
 2983 09be 98       		.byte	0x98
 2984 09bf 0E       		.uleb128 0xe
 2985 09c0 920E0000 		.4byte	.LASF264
 2986 09c4 05       		.byte	0x5
 2987 09c5 FD03     		.2byte	0x3fd
 2988 09c7 31010000 		.4byte	0x131
 2989 09cb 9C       		.byte	0x9c
 2990 09cc 0E       		.uleb128 0xe
 2991 09cd 420E0000 		.4byte	.LASF265
 2992 09d1 05       		.byte	0x5
 2993 09d2 FE03     		.2byte	0x3fe
 2994 09d4 31010000 		.4byte	0x131
 2995 09d8 A0       		.byte	0xa0
 2996 09d9 0E       		.uleb128 0xe
 2997 09da DB0C0000 		.4byte	.LASF266
 2998 09de 05       		.byte	0x5
 2999 09df 0004     		.2byte	0x400
 3000 09e1 10010000 		.4byte	0x110
 3001 09e5 A4       		.byte	0xa4
 3002 09e6 0E       		.uleb128 0xe
 3003 09e7 330E0000 		.4byte	.LASF267
 3004 09eb 05       		.byte	0x5
 3005 09ec 0104     		.2byte	0x401
 3006 09ee 10010000 		.4byte	0x110
 3007 09f2 A8       		.byte	0xa8
 3008 09f3 0E       		.uleb128 0xe
 3009 09f4 6A050000 		.4byte	.LASF268
 3010 09f8 05       		.byte	0x5
 3011 09f9 0504     		.2byte	0x405
 3012 09fb D2000000 		.4byte	0xd2
 3013 09ff AC       		.byte	0xac
 3014 0a00 0E       		.uleb128 0xe
 3015 0a01 04080000 		.4byte	.LASF269
 3016 0a05 05       		.byte	0x5
 3017 0a06 0604     		.2byte	0x406
 3018 0a08 D2000000 		.4byte	0xd2
 3019 0a0c B0       		.byte	0xb0
 3020 0a0d 0E       		.uleb128 0xe
 3021 0a0e D6020000 		.4byte	.LASF207
 3022 0a12 05       		.byte	0x5
 3023 0a13 1104     		.2byte	0x411
ARM GAS  C:\Users\jorti\AppData\Local\Temp\ccCX4ftZ.s 			page 81


 3024 0a15 A10B0000 		.4byte	0xba1
 3025 0a19 B4       		.byte	0xb4
 3026 0a1a 0E       		.uleb128 0xe
 3027 0a1b EE020000 		.4byte	.LASF208
 3028 0a1f 05       		.byte	0x5
 3029 0a20 1204     		.2byte	0x412
 3030 0a22 A10B0000 		.4byte	0xba1
 3031 0a26 B8       		.byte	0xb8
 3032 0a27 0E       		.uleb128 0xe
 3033 0a28 FB130000 		.4byte	.LASF209
 3034 0a2c 05       		.byte	0x5
 3035 0a2d 1304     		.2byte	0x413
 3036 0a2f B30B0000 		.4byte	0xbb3
 3037 0a33 BC       		.byte	0xbc
 3038 0a34 00       		.byte	0
 3039 0a35 09       		.uleb128 0x9
 3040 0a36 C4040000 		.4byte	.LASF270
 3041 0a3a 05       		.byte	0x5
 3042 0a3b 9E02     		.2byte	0x29e
 3043 0a3d 410A0000 		.4byte	0xa41
 3044 0a41 0D       		.uleb128 0xd
 3045 0a42 8F0A0000 		.4byte	.LASF271
 3046 0a46 08       		.byte	0x8
 3047 0a47 05       		.byte	0x5
 3048 0a48 1E04     		.2byte	0x41e
 3049 0a4a 760A0000 		.4byte	0xa76
 3050 0a4e 0E       		.uleb128 0xe
 3051 0a4f 7B0F0000 		.4byte	.LASF272
 3052 0a53 05       		.byte	0x5
 3053 0a54 1F04     		.2byte	0x41f
 3054 0a56 A10B0000 		.4byte	0xba1
 3055 0a5a 00       		.byte	0
 3056 0a5b 0E       		.uleb128 0xe
 3057 0a5c 5A010000 		.4byte	.LASF223
 3058 0a60 05       		.byte	0x5
 3059 0a61 2004     		.2byte	0x420
 3060 0a63 68010000 		.4byte	0x168
 3061 0a67 04       		.byte	0x4
 3062 0a68 0E       		.uleb128 0xe
 3063 0a69 97130000 		.4byte	.LASF224
 3064 0a6d 05       		.byte	0x5
 3065 0a6e 2104     		.2byte	0x421
 3066 0a70 68010000 		.4byte	0x168
 3067 0a74 06       		.byte	0x6
 3068 0a75 00       		.byte	0
 3069 0a76 09       		.uleb128 0x9
 3070 0a77 85050000 		.4byte	.LASF273
 3071 0a7b 05       		.byte	0x5
 3072 0a7c A502     		.2byte	0x2a5
 3073 0a7e 820A0000 		.4byte	0xa82
 3074 0a82 0D       		.uleb128 0xd
 3075 0a83 FF120000 		.4byte	.LASF274
 3076 0a87 20       		.byte	0x20
 3077 0a88 05       		.byte	0x5
 3078 0a89 DD02     		.2byte	0x2dd
 3079 0a8b F80A0000 		.4byte	0xaf8
 3080 0a8f 0E       		.uleb128 0xe
ARM GAS  C:\Users\jorti\AppData\Local\Temp\ccCX4ftZ.s 			page 82


 3081 0a90 3F090000 		.4byte	.LASF231
 3082 0a94 05       		.byte	0x5
 3083 0a95 DE02     		.2byte	0x2de
 3084 0a97 A70B0000 		.4byte	0xba7
 3085 0a9b 00       		.byte	0
 3086 0a9c 0E       		.uleb128 0xe
 3087 0a9d 0F0D0000 		.4byte	.LASF214
 3088 0aa1 05       		.byte	0x5
 3089 0aa2 DF02     		.2byte	0x2df
 3090 0aa4 A70B0000 		.4byte	0xba7
 3091 0aa8 04       		.byte	0x4
 3092 0aa9 0E       		.uleb128 0xe
 3093 0aaa C70A0000 		.4byte	.LASF275
 3094 0aae 05       		.byte	0x5
 3095 0aaf E002     		.2byte	0x2e0
 3096 0ab1 A10B0000 		.4byte	0xba1
 3097 0ab5 08       		.byte	0x8
 3098 0ab6 0E       		.uleb128 0xe
 3099 0ab7 8C130000 		.4byte	.LASF276
 3100 0abb 05       		.byte	0x5
 3101 0abc E102     		.2byte	0x2e1
 3102 0abe AD0B0000 		.4byte	0xbad
 3103 0ac2 0C       		.byte	0xc
 3104 0ac3 0E       		.uleb128 0xe
 3105 0ac4 900C0000 		.4byte	.LASF277
 3106 0ac8 05       		.byte	0x5
 3107 0ac9 E202     		.2byte	0x2e2
 3108 0acb AD0B0000 		.4byte	0xbad
 3109 0acf 10       		.byte	0x10
 3110 0ad0 0E       		.uleb128 0xe
 3111 0ad1 04040000 		.4byte	.LASF278
 3112 0ad5 05       		.byte	0x5
 3113 0ad6 E302     		.2byte	0x2e3
 3114 0ad8 BA000000 		.4byte	0xba
 3115 0adc 14       		.byte	0x14
 3116 0add 0E       		.uleb128 0xe
 3117 0ade F10D0000 		.4byte	.LASF279
 3118 0ae2 05       		.byte	0x5
 3119 0ae3 E402     		.2byte	0x2e4
 3120 0ae5 52010000 		.4byte	0x152
 3121 0ae9 18       		.byte	0x18
 3122 0aea 0E       		.uleb128 0xe
 3123 0aeb A50D0000 		.4byte	.LASF280
 3124 0aef 05       		.byte	0x5
 3125 0af0 E502     		.2byte	0x2e5
 3126 0af2 10010000 		.4byte	0x110
 3127 0af6 1C       		.byte	0x1c
 3128 0af7 00       		.byte	0
 3129 0af8 09       		.uleb128 0x9
 3130 0af9 5C120000 		.4byte	.LASF281
 3131 0afd 05       		.byte	0x5
 3132 0afe A602     		.2byte	0x2a6
 3133 0b00 040B0000 		.4byte	0xb04
 3134 0b04 0D       		.uleb128 0xd
 3135 0b05 A5130000 		.4byte	.LASF282
 3136 0b09 0C       		.byte	0xc
 3137 0b0a 05       		.byte	0x5
ARM GAS  C:\Users\jorti\AppData\Local\Temp\ccCX4ftZ.s 			page 83


 3138 0b0b E902     		.2byte	0x2e9
 3139 0b0d 390B0000 		.4byte	0xb39
 3140 0b11 0E       		.uleb128 0xe
 3141 0b12 2A0F0000 		.4byte	.LASF283
 3142 0b16 05       		.byte	0x5
 3143 0b17 EA02     		.2byte	0x2ea
 3144 0b19 A70B0000 		.4byte	0xba7
 3145 0b1d 00       		.byte	0
 3146 0b1e 0E       		.uleb128 0xe
 3147 0b1f C4030000 		.4byte	.LASF284
 3148 0b23 05       		.byte	0x5
 3149 0b24 EB02     		.2byte	0x2eb
 3150 0b26 A70B0000 		.4byte	0xba7
 3151 0b2a 04       		.byte	0x4
 3152 0b2b 0E       		.uleb128 0xe
 3153 0b2c 5A010000 		.4byte	.LASF223
 3154 0b30 05       		.byte	0x5
 3155 0b31 EC02     		.2byte	0x2ec
 3156 0b33 68010000 		.4byte	0x168
 3157 0b37 08       		.byte	0x8
 3158 0b38 00       		.byte	0
 3159 0b39 09       		.uleb128 0x9
 3160 0b3a 9E0E0000 		.4byte	.LASF285
 3161 0b3e 05       		.byte	0x5
 3162 0b3f A702     		.2byte	0x2a7
 3163 0b41 450B0000 		.4byte	0xb45
 3164 0b45 0D       		.uleb128 0xd
 3165 0b46 0E040000 		.4byte	.LASF286
 3166 0b4a 20       		.byte	0x20
 3167 0b4b 05       		.byte	0x5
 3168 0b4c FF02     		.2byte	0x2ff
 3169 0b4e A10B0000 		.4byte	0xba1
 3170 0b52 0E       		.uleb128 0xe
 3171 0b53 240A0000 		.4byte	.LASF204
 3172 0b57 05       		.byte	0x5
 3173 0b58 0003     		.2byte	0x300
 3174 0b5a 73010000 		.4byte	0x173
 3175 0b5e 00       		.byte	0
 3176 0b5f 0E       		.uleb128 0xe
 3177 0b60 080A0000 		.4byte	.LASF205
 3178 0b64 05       		.byte	0x5
 3179 0b65 0103     		.2byte	0x301
 3180 0b67 B30B0000 		.4byte	0xbb3
 3181 0b6b 04       		.byte	0x4
 3182 0b6c 0E       		.uleb128 0xe
 3183 0b6d D80E0000 		.4byte	.LASF206
 3184 0b71 05       		.byte	0x5
 3185 0b72 0203     		.2byte	0x302
 3186 0b74 F80A0000 		.4byte	0xaf8
 3187 0b78 08       		.byte	0x8
 3188 0b79 0E       		.uleb128 0xe
 3189 0b7a D6020000 		.4byte	.LASF207
 3190 0b7e 05       		.byte	0x5
 3191 0b7f 0403     		.2byte	0x304
 3192 0b81 BA000000 		.4byte	0xba
 3193 0b85 14       		.byte	0x14
 3194 0b86 0E       		.uleb128 0xe
ARM GAS  C:\Users\jorti\AppData\Local\Temp\ccCX4ftZ.s 			page 84


 3195 0b87 EE020000 		.4byte	.LASF208
 3196 0b8b 05       		.byte	0x5
 3197 0b8c 0503     		.2byte	0x305
 3198 0b8e BA000000 		.4byte	0xba
 3199 0b92 18       		.byte	0x18
 3200 0b93 0E       		.uleb128 0xe
 3201 0b94 FB130000 		.4byte	.LASF209
 3202 0b98 05       		.byte	0x5
 3203 0b99 0603     		.2byte	0x306
 3204 0b9b B30B0000 		.4byte	0xbb3
 3205 0b9f 1C       		.byte	0x1c
 3206 0ba0 00       		.byte	0
 3207 0ba1 05       		.uleb128 0x5
 3208 0ba2 04       		.byte	0x4
 3209 0ba3 85070000 		.4byte	0x785
 3210 0ba7 05       		.uleb128 0x5
 3211 0ba8 04       		.byte	0x4
 3212 0ba9 760A0000 		.4byte	0xa76
 3213 0bad 05       		.uleb128 0x5
 3214 0bae 04       		.byte	0x4
 3215 0baf 390B0000 		.4byte	0xb39
 3216 0bb3 05       		.uleb128 0x5
 3217 0bb4 04       		.byte	0x4
 3218 0bb5 25000000 		.4byte	0x25
 3219 0bb9 05       		.uleb128 0x5
 3220 0bba 04       		.byte	0x4
 3221 0bbb 4F060000 		.4byte	0x64f
 3222 0bbf 05       		.uleb128 0x5
 3223 0bc0 04       		.byte	0x4
 3224 0bc1 D0060000 		.4byte	0x6d0
 3225 0bc5 05       		.uleb128 0x5
 3226 0bc6 04       		.byte	0x4
 3227 0bc7 C7000000 		.4byte	0xc7
 3228 0bcb 05       		.uleb128 0x5
 3229 0bcc 04       		.byte	0x4
 3230 0bcd 350A0000 		.4byte	0xa35
 3231 0bd1 10       		.uleb128 0x10
 3232 0bd2 94010000 		.4byte	0x194
 3233 0bd6 E10B0000 		.4byte	0xbe1
 3234 0bda 11       		.uleb128 0x11
 3235 0bdb FE000000 		.4byte	0xfe
 3236 0bdf 00       		.byte	0
 3237 0be0 00       		.byte	0
 3238 0be1 12       		.uleb128 0x12
 3239 0be2 E1050000 		.4byte	.LASF293
 3240 0be6 01       		.byte	0x1
 3241 0be7 8A02     		.2byte	0x28a
 3242 0be9 68010000 		.4byte	0x168
 3243 0bed 00000000 		.4byte	.LFB4
 3244 0bf1 A4000000 		.4byte	.LFE4-.LFB4
 3245 0bf5 01       		.uleb128 0x1
 3246 0bf6 9C       		.byte	0x9c
 3247 0bf7 D80C0000 		.4byte	0xcd8
 3248 0bfb 13       		.uleb128 0x13
 3249 0bfc AB030000 		.4byte	.LASF287
 3250 0c00 01       		.byte	0x1
 3251 0c01 8A02     		.2byte	0x28a
ARM GAS  C:\Users\jorti\AppData\Local\Temp\ccCX4ftZ.s 			page 85


 3252 0c03 B90B0000 		.4byte	0xbb9
 3253 0c07 00000000 		.4byte	.LLST0
 3254 0c0b 14       		.uleb128 0x14
 3255 0c0c 6F707400 		.ascii	"opt\000"
 3256 0c10 01       		.byte	0x1
 3257 0c11 8B02     		.2byte	0x28b
 3258 0c13 7E010000 		.4byte	0x17e
 3259 0c17 2C000000 		.4byte	.LLST1
 3260 0c1b 13       		.uleb128 0x13
 3261 0c1c B8080000 		.4byte	.LASF288
 3262 0c20 01       		.byte	0x1
 3263 0c21 8C02     		.2byte	0x28c
 3264 0c23 D80C0000 		.4byte	0xcd8
 3265 0c27 4D000000 		.4byte	.LLST2
 3266 0c2b 15       		.uleb128 0x15
 3267 0c2c 6C030000 		.4byte	.LASF289
 3268 0c30 01       		.byte	0x1
 3269 0c31 8E02     		.2byte	0x28e
 3270 0c33 DE0C0000 		.4byte	0xcde
 3271 0c37 79000000 		.4byte	.LLST3
 3272 0c3b 15       		.uleb128 0x15
 3273 0c3c 9D0A0000 		.4byte	.LASF290
 3274 0c40 01       		.byte	0x1
 3275 0c41 8F02     		.2byte	0x28f
 3276 0c43 A10B0000 		.4byte	0xba1
 3277 0c47 8E000000 		.4byte	.LLST4
 3278 0c4b 16       		.uleb128 0x16
 3279 0c4c 747300   		.ascii	"ts\000"
 3280 0c4f 01       		.byte	0x1
 3281 0c50 9002     		.2byte	0x290
 3282 0c52 10010000 		.4byte	0x110
 3283 0c56 A2000000 		.4byte	.LLST5
 3284 0c5a 15       		.uleb128 0x15
 3285 0c5b 560B0000 		.4byte	.LASF291
 3286 0c5f 01       		.byte	0x1
 3287 0c60 9102     		.2byte	0x291
 3288 0c62 68010000 		.4byte	0x168
 3289 0c66 C0000000 		.4byte	.LLST6
 3290 0c6a 15       		.uleb128 0x15
 3291 0c6b EC040000 		.4byte	.LASF292
 3292 0c6f 01       		.byte	0x1
 3293 0c70 9202     		.2byte	0x292
 3294 0c72 DD000000 		.4byte	0xdd
 3295 0c76 EA000000 		.4byte	.LLST7
 3296 0c7a 17       		.uleb128 0x17
 3297 0c7b 4C000000 		.4byte	.LVL2
 3298 0c7f 16170000 		.4byte	0x1716
 3299 0c83 18       		.uleb128 0x18
 3300 0c84 56000000 		.4byte	.LVL4
 3301 0c88 22170000 		.4byte	0x1722
 3302 0c8c 970C0000 		.4byte	0xc97
 3303 0c90 19       		.uleb128 0x19
 3304 0c91 01       		.uleb128 0x1
 3305 0c92 50       		.byte	0x50
 3306 0c93 02       		.uleb128 0x2
 3307 0c94 78       		.byte	0x78
 3308 0c95 00       		.sleb128 0
ARM GAS  C:\Users\jorti\AppData\Local\Temp\ccCX4ftZ.s 			page 86


 3309 0c96 00       		.byte	0
 3310 0c97 17       		.uleb128 0x17
 3311 0c98 62000000 		.4byte	.LVL6
 3312 0c9c 2E170000 		.4byte	0x172e
 3313 0ca0 18       		.uleb128 0x18
 3314 0ca1 74000000 		.4byte	.LVL10
 3315 0ca5 3A170000 		.4byte	0x173a
 3316 0ca9 BA0C0000 		.4byte	0xcba
 3317 0cad 19       		.uleb128 0x19
 3318 0cae 01       		.uleb128 0x1
 3319 0caf 50       		.byte	0x50
 3320 0cb0 02       		.uleb128 0x2
 3321 0cb1 75       		.byte	0x75
 3322 0cb2 00       		.sleb128 0
 3323 0cb3 19       		.uleb128 0x19
 3324 0cb4 01       		.uleb128 0x1
 3325 0cb5 52       		.byte	0x52
 3326 0cb6 02       		.uleb128 0x2
 3327 0cb7 79       		.byte	0x79
 3328 0cb8 00       		.sleb128 0
 3329 0cb9 00       		.byte	0
 3330 0cba 18       		.uleb128 0x18
 3331 0cbb 8A000000 		.4byte	.LVL14
 3332 0cbf 22170000 		.4byte	0x1722
 3333 0cc3 CE0C0000 		.4byte	0xcce
 3334 0cc7 19       		.uleb128 0x19
 3335 0cc8 01       		.uleb128 0x1
 3336 0cc9 50       		.byte	0x50
 3337 0cca 02       		.uleb128 0x2
 3338 0ccb 78       		.byte	0x78
 3339 0ccc 00       		.sleb128 0
 3340 0ccd 00       		.byte	0
 3341 0cce 17       		.uleb128 0x17
 3342 0ccf 94000000 		.4byte	.LVL15
 3343 0cd3 46170000 		.4byte	0x1746
 3344 0cd7 00       		.byte	0
 3345 0cd8 05       		.uleb128 0x5
 3346 0cd9 04       		.byte	0x4
 3347 0cda 43060000 		.4byte	0x643
 3348 0cde 05       		.uleb128 0x5
 3349 0cdf 04       		.byte	0x4
 3350 0ce0 F80A0000 		.4byte	0xaf8
 3351 0ce4 12       		.uleb128 0x12
 3352 0ce5 36120000 		.4byte	.LASF294
 3353 0ce9 01       		.byte	0x1
 3354 0cea EE02     		.2byte	0x2ee
 3355 0cec 3C010000 		.4byte	0x13c
 3356 0cf0 00000000 		.4byte	.LFB5
 3357 0cf4 34000000 		.4byte	.LFE5-.LFB5
 3358 0cf8 01       		.uleb128 0x1
 3359 0cf9 9C       		.byte	0x9c
 3360 0cfa 410D0000 		.4byte	0xd41
 3361 0cfe 13       		.uleb128 0x13
 3362 0cff B8080000 		.4byte	.LASF288
 3363 0d03 01       		.byte	0x1
 3364 0d04 EE02     		.2byte	0x2ee
 3365 0d06 D80C0000 		.4byte	0xcd8
ARM GAS  C:\Users\jorti\AppData\Local\Temp\ccCX4ftZ.s 			page 87


 3366 0d0a 2A010000 		.4byte	.LLST8
 3367 0d0e 15       		.uleb128 0x15
 3368 0d0f 54010000 		.4byte	.LASF295
 3369 0d13 01       		.byte	0x1
 3370 0d14 F002     		.2byte	0x2f0
 3371 0d16 3C010000 		.4byte	0x13c
 3372 0d1a 6F010000 		.4byte	.LLST9
 3373 0d1e 15       		.uleb128 0x15
 3374 0d1f EC040000 		.4byte	.LASF292
 3375 0d23 01       		.byte	0x1
 3376 0d24 F102     		.2byte	0x2f1
 3377 0d26 DD000000 		.4byte	0xdd
 3378 0d2a 8D010000 		.4byte	.LLST10
 3379 0d2e 17       		.uleb128 0x17
 3380 0d2f 18000000 		.4byte	.LVL21
 3381 0d33 16170000 		.4byte	0x1716
 3382 0d37 17       		.uleb128 0x17
 3383 0d38 24000000 		.4byte	.LVL23
 3384 0d3c 22170000 		.4byte	0x1722
 3385 0d40 00       		.byte	0
 3386 0d41 1A       		.uleb128 0x1a
 3387 0d42 84090000 		.4byte	.LASF304
 3388 0d46 01       		.byte	0x1
 3389 0d47 9B03     		.2byte	0x39b
 3390 0d49 00000000 		.4byte	.LFB7
 3391 0d4d 24000000 		.4byte	.LFE7-.LFB7
 3392 0d51 01       		.uleb128 0x1
 3393 0d52 9C       		.byte	0x9c
 3394 0d53 CC0D0000 		.4byte	0xdcc
 3395 0d57 13       		.uleb128 0x13
 3396 0d58 33090000 		.4byte	.LASF296
 3397 0d5c 01       		.byte	0x1
 3398 0d5d 9B03     		.2byte	0x39b
 3399 0d5f A70B0000 		.4byte	0xba7
 3400 0d63 AC010000 		.4byte	.LLST11
 3401 0d67 13       		.uleb128 0x13
 3402 0d68 AB030000 		.4byte	.LASF287
 3403 0d6c 01       		.byte	0x1
 3404 0d6d 9C03     		.2byte	0x39c
 3405 0d6f B90B0000 		.4byte	0xbb9
 3406 0d73 CD010000 		.4byte	.LLST12
 3407 0d77 13       		.uleb128 0x13
 3408 0d78 54010000 		.4byte	.LASF295
 3409 0d7c 01       		.byte	0x1
 3410 0d7d 9D03     		.2byte	0x39d
 3411 0d7f 3C010000 		.4byte	0x13c
 3412 0d83 EE010000 		.4byte	.LLST13
 3413 0d87 14       		.uleb128 0x14
 3414 0d88 6F707400 		.ascii	"opt\000"
 3415 0d8c 01       		.byte	0x1
 3416 0d8d 9E03     		.2byte	0x39e
 3417 0d8f 7E010000 		.4byte	0x17e
 3418 0d93 1C020000 		.4byte	.LLST14
 3419 0d97 13       		.uleb128 0x13
 3420 0d98 DA100000 		.4byte	.LASF297
 3421 0d9c 01       		.byte	0x1
 3422 0d9d 9F03     		.2byte	0x39f
ARM GAS  C:\Users\jorti\AppData\Local\Temp\ccCX4ftZ.s 			page 88


 3423 0d9f C0010000 		.4byte	0x1c0
 3424 0da3 4A020000 		.4byte	.LLST15
 3425 0da7 1B       		.uleb128 0x1b
 3426 0da8 1C000000 		.4byte	.LVL28
 3427 0dac 52170000 		.4byte	0x1752
 3428 0db0 19       		.uleb128 0x19
 3429 0db1 01       		.uleb128 0x1
 3430 0db2 50       		.byte	0x50
 3431 0db3 03       		.uleb128 0x3
 3432 0db4 F3       		.byte	0xf3
 3433 0db5 01       		.uleb128 0x1
 3434 0db6 50       		.byte	0x50
 3435 0db7 19       		.uleb128 0x19
 3436 0db8 01       		.uleb128 0x1
 3437 0db9 51       		.byte	0x51
 3438 0dba 03       		.uleb128 0x3
 3439 0dbb F3       		.byte	0xf3
 3440 0dbc 01       		.uleb128 0x1
 3441 0dbd 51       		.byte	0x51
 3442 0dbe 19       		.uleb128 0x19
 3443 0dbf 01       		.uleb128 0x1
 3444 0dc0 52       		.byte	0x52
 3445 0dc1 01       		.uleb128 0x1
 3446 0dc2 31       		.byte	0x31
 3447 0dc3 19       		.uleb128 0x19
 3448 0dc4 01       		.uleb128 0x1
 3449 0dc5 53       		.byte	0x53
 3450 0dc6 03       		.uleb128 0x3
 3451 0dc7 91       		.byte	0x91
 3452 0dc8 00       		.sleb128 0
 3453 0dc9 06       		.byte	0x6
 3454 0dca 00       		.byte	0
 3455 0dcb 00       		.byte	0
 3456 0dcc 12       		.uleb128 0x12
 3457 0dcd 490A0000 		.4byte	.LASF298
 3458 0dd1 01       		.byte	0x1
 3459 0dd2 3B01     		.2byte	0x13b
 3460 0dd4 3C010000 		.4byte	0x13c
 3461 0dd8 00000000 		.4byte	.LFB3
 3462 0ddc CC030000 		.4byte	.LFE3-.LFB3
 3463 0de0 01       		.uleb128 0x1
 3464 0de1 9C       		.byte	0x9c
 3465 0de2 49110000 		.4byte	0x1149
 3466 0de6 13       		.uleb128 0x13
 3467 0de7 AB030000 		.4byte	.LASF287
 3468 0deb 01       		.byte	0x1
 3469 0dec 3B01     		.2byte	0x13b
 3470 0dee B90B0000 		.4byte	0xbb9
 3471 0df2 6A020000 		.4byte	.LLST16
 3472 0df6 13       		.uleb128 0x13
 3473 0df7 54010000 		.4byte	.LASF295
 3474 0dfb 01       		.byte	0x1
 3475 0dfc 3C01     		.2byte	0x13c
 3476 0dfe 3C010000 		.4byte	0x13c
 3477 0e02 C8020000 		.4byte	.LLST17
 3478 0e06 13       		.uleb128 0x13
 3479 0e07 DA100000 		.4byte	.LASF297
ARM GAS  C:\Users\jorti\AppData\Local\Temp\ccCX4ftZ.s 			page 89


 3480 0e0b 01       		.byte	0x1
 3481 0e0c 3D01     		.2byte	0x13d
 3482 0e0e C0010000 		.4byte	0x1c0
 3483 0e12 F4020000 		.4byte	.LLST18
 3484 0e16 14       		.uleb128 0x14
 3485 0e17 6F707400 		.ascii	"opt\000"
 3486 0e1b 01       		.byte	0x1
 3487 0e1c 3E01     		.2byte	0x13e
 3488 0e1e 7E010000 		.4byte	0x17e
 3489 0e22 20030000 		.4byte	.LLST19
 3490 0e26 13       		.uleb128 0x13
 3491 0e27 720C0000 		.4byte	.LASF299
 3492 0e2b 01       		.byte	0x1
 3493 0e2c 3F01     		.2byte	0x13f
 3494 0e2e 49110000 		.4byte	0x1149
 3495 0e32 8C030000 		.4byte	.LLST20
 3496 0e36 13       		.uleb128 0x13
 3497 0e37 B8080000 		.4byte	.LASF288
 3498 0e3b 01       		.byte	0x1
 3499 0e3c 4001     		.2byte	0x140
 3500 0e3e D80C0000 		.4byte	0xcd8
 3501 0e42 AC030000 		.4byte	.LLST21
 3502 0e46 15       		.uleb128 0x15
 3503 0e47 0C0B0000 		.4byte	.LASF300
 3504 0e4b 01       		.byte	0x1
 3505 0e4c 4201     		.2byte	0x142
 3506 0e4e 37000000 		.4byte	0x37
 3507 0e52 CC030000 		.4byte	.LLST22
 3508 0e56 15       		.uleb128 0x15
 3509 0e57 320F0000 		.4byte	.LASF301
 3510 0e5b 01       		.byte	0x1
 3511 0e5c 4301     		.2byte	0x143
 3512 0e5e 3C010000 		.4byte	0x13c
 3513 0e62 DF030000 		.4byte	.LLST23
 3514 0e66 15       		.uleb128 0x15
 3515 0e67 52030000 		.4byte	.LASF302
 3516 0e6b 01       		.byte	0x1
 3517 0e6c 4401     		.2byte	0x144
 3518 0e6e 7E010000 		.4byte	0x17e
 3519 0e72 3F040000 		.4byte	.LLST24
 3520 0e76 1C       		.uleb128 0x1c
 3521 0e77 BD0A0000 		.4byte	.LASF303
 3522 0e7b 01       		.byte	0x1
 3523 0e7c 4501     		.2byte	0x145
 3524 0e7e 760A0000 		.4byte	0xa76
 3525 0e82 03       		.uleb128 0x3
 3526 0e83 91       		.byte	0x91
 3527 0e84 B87F     		.sleb128 -72
 3528 0e86 15       		.uleb128 0x15
 3529 0e87 EC040000 		.4byte	.LASF292
 3530 0e8b 01       		.byte	0x1
 3531 0e8c 4601     		.2byte	0x146
 3532 0e8e DD000000 		.4byte	0xdd
 3533 0e92 6A040000 		.4byte	.LLST25
 3534 0e96 17       		.uleb128 0x17
 3535 0e97 C6000000 		.4byte	.LVL42
 3536 0e9b 16170000 		.4byte	0x1716
ARM GAS  C:\Users\jorti\AppData\Local\Temp\ccCX4ftZ.s 			page 90


 3537 0e9f 18       		.uleb128 0x18
 3538 0ea0 14010000 		.4byte	.LVL46
 3539 0ea4 22170000 		.4byte	0x1722
 3540 0ea8 B50E0000 		.4byte	0xeb5
 3541 0eac 19       		.uleb128 0x19
 3542 0ead 01       		.uleb128 0x1
 3543 0eae 50       		.byte	0x50
 3544 0eaf 04       		.uleb128 0x4
 3545 0eb0 91       		.byte	0x91
 3546 0eb1 B47F     		.sleb128 -76
 3547 0eb3 06       		.byte	0x6
 3548 0eb4 00       		.byte	0
 3549 0eb5 18       		.uleb128 0x18
 3550 0eb6 28010000 		.4byte	.LVL49
 3551 0eba 22170000 		.4byte	0x1722
 3552 0ebe CB0E0000 		.4byte	0xecb
 3553 0ec2 19       		.uleb128 0x19
 3554 0ec3 01       		.uleb128 0x1
 3555 0ec4 50       		.byte	0x50
 3556 0ec5 04       		.uleb128 0x4
 3557 0ec6 91       		.byte	0x91
 3558 0ec7 B47F     		.sleb128 -76
 3559 0ec9 06       		.byte	0x6
 3560 0eca 00       		.byte	0
 3561 0ecb 18       		.uleb128 0x18
 3562 0ecc 3E010000 		.4byte	.LVL52
 3563 0ed0 22170000 		.4byte	0x1722
 3564 0ed4 E10E0000 		.4byte	0xee1
 3565 0ed8 19       		.uleb128 0x19
 3566 0ed9 01       		.uleb128 0x1
 3567 0eda 50       		.byte	0x50
 3568 0edb 04       		.uleb128 0x4
 3569 0edc 91       		.byte	0x91
 3570 0edd B47F     		.sleb128 -76
 3571 0edf 06       		.byte	0x6
 3572 0ee0 00       		.byte	0
 3573 0ee1 18       		.uleb128 0x18
 3574 0ee2 58010000 		.4byte	.LVL55
 3575 0ee6 410D0000 		.4byte	0xd41
 3576 0eea 0F0F0000 		.4byte	0xf0f
 3577 0eee 19       		.uleb128 0x19
 3578 0eef 01       		.uleb128 0x1
 3579 0ef0 50       		.byte	0x50
 3580 0ef1 03       		.uleb128 0x3
 3581 0ef2 91       		.byte	0x91
 3582 0ef3 B87F     		.sleb128 -72
 3583 0ef5 19       		.uleb128 0x19
 3584 0ef6 01       		.uleb128 0x1
 3585 0ef7 51       		.byte	0x51
 3586 0ef8 02       		.uleb128 0x2
 3587 0ef9 75       		.byte	0x75
 3588 0efa 00       		.sleb128 0
 3589 0efb 19       		.uleb128 0x19
 3590 0efc 01       		.uleb128 0x1
 3591 0efd 52       		.byte	0x52
 3592 0efe 02       		.uleb128 0x2
 3593 0eff 78       		.byte	0x78
ARM GAS  C:\Users\jorti\AppData\Local\Temp\ccCX4ftZ.s 			page 91


 3594 0f00 00       		.sleb128 0
 3595 0f01 19       		.uleb128 0x19
 3596 0f02 01       		.uleb128 0x1
 3597 0f03 53       		.byte	0x53
 3598 0f04 02       		.uleb128 0x2
 3599 0f05 74       		.byte	0x74
 3600 0f06 00       		.sleb128 0
 3601 0f07 19       		.uleb128 0x19
 3602 0f08 02       		.uleb128 0x2
 3603 0f09 7D       		.byte	0x7d
 3604 0f0a 00       		.sleb128 0
 3605 0f0b 02       		.uleb128 0x2
 3606 0f0c 7A       		.byte	0x7a
 3607 0f0d 00       		.sleb128 0
 3608 0f0e 00       		.byte	0
 3609 0f0f 18       		.uleb128 0x18
 3610 0f10 5E010000 		.4byte	.LVL56
 3611 0f14 22170000 		.4byte	0x1722
 3612 0f18 250F0000 		.4byte	0xf25
 3613 0f1c 19       		.uleb128 0x19
 3614 0f1d 01       		.uleb128 0x1
 3615 0f1e 50       		.byte	0x50
 3616 0f1f 04       		.uleb128 0x4
 3617 0f20 91       		.byte	0x91
 3618 0f21 B47F     		.sleb128 -76
 3619 0f23 06       		.byte	0x6
 3620 0f24 00       		.byte	0
 3621 0f25 18       		.uleb128 0x18
 3622 0f26 8C010000 		.4byte	.LVL61
 3623 0f2a 22170000 		.4byte	0x1722
 3624 0f2e 3B0F0000 		.4byte	0xf3b
 3625 0f32 19       		.uleb128 0x19
 3626 0f33 01       		.uleb128 0x1
 3627 0f34 50       		.byte	0x50
 3628 0f35 04       		.uleb128 0x4
 3629 0f36 91       		.byte	0x91
 3630 0f37 B47F     		.sleb128 -76
 3631 0f39 06       		.byte	0x6
 3632 0f3a 00       		.byte	0
 3633 0f3b 18       		.uleb128 0x18
 3634 0f3c A0010000 		.4byte	.LVL64
 3635 0f40 22170000 		.4byte	0x1722
 3636 0f44 510F0000 		.4byte	0xf51
 3637 0f48 19       		.uleb128 0x19
 3638 0f49 01       		.uleb128 0x1
 3639 0f4a 50       		.byte	0x50
 3640 0f4b 04       		.uleb128 0x4
 3641 0f4c 91       		.byte	0x91
 3642 0f4d B47F     		.sleb128 -76
 3643 0f4f 06       		.byte	0x6
 3644 0f50 00       		.byte	0
 3645 0f51 18       		.uleb128 0x18
 3646 0f52 B6010000 		.4byte	.LVL67
 3647 0f56 22170000 		.4byte	0x1722
 3648 0f5a 670F0000 		.4byte	0xf67
 3649 0f5e 19       		.uleb128 0x19
 3650 0f5f 01       		.uleb128 0x1
ARM GAS  C:\Users\jorti\AppData\Local\Temp\ccCX4ftZ.s 			page 92


 3651 0f60 50       		.byte	0x50
 3652 0f61 04       		.uleb128 0x4
 3653 0f62 91       		.byte	0x91
 3654 0f63 B47F     		.sleb128 -76
 3655 0f65 06       		.byte	0x6
 3656 0f66 00       		.byte	0
 3657 0f67 18       		.uleb128 0x18
 3658 0f68 D0010000 		.4byte	.LVL70
 3659 0f6c 410D0000 		.4byte	0xd41
 3660 0f70 950F0000 		.4byte	0xf95
 3661 0f74 19       		.uleb128 0x19
 3662 0f75 01       		.uleb128 0x1
 3663 0f76 50       		.byte	0x50
 3664 0f77 03       		.uleb128 0x3
 3665 0f78 91       		.byte	0x91
 3666 0f79 B87F     		.sleb128 -72
 3667 0f7b 19       		.uleb128 0x19
 3668 0f7c 01       		.uleb128 0x1
 3669 0f7d 51       		.byte	0x51
 3670 0f7e 02       		.uleb128 0x2
 3671 0f7f 75       		.byte	0x75
 3672 0f80 00       		.sleb128 0
 3673 0f81 19       		.uleb128 0x19
 3674 0f82 01       		.uleb128 0x1
 3675 0f83 52       		.byte	0x52
 3676 0f84 02       		.uleb128 0x2
 3677 0f85 78       		.byte	0x78
 3678 0f86 00       		.sleb128 0
 3679 0f87 19       		.uleb128 0x19
 3680 0f88 01       		.uleb128 0x1
 3681 0f89 53       		.byte	0x53
 3682 0f8a 02       		.uleb128 0x2
 3683 0f8b 74       		.byte	0x74
 3684 0f8c 00       		.sleb128 0
 3685 0f8d 19       		.uleb128 0x19
 3686 0f8e 02       		.uleb128 0x2
 3687 0f8f 7D       		.byte	0x7d
 3688 0f90 00       		.sleb128 0
 3689 0f91 02       		.uleb128 0x2
 3690 0f92 7A       		.byte	0x7a
 3691 0f93 00       		.sleb128 0
 3692 0f94 00       		.byte	0
 3693 0f95 18       		.uleb128 0x18
 3694 0f96 D6010000 		.4byte	.LVL71
 3695 0f9a 22170000 		.4byte	0x1722
 3696 0f9e AB0F0000 		.4byte	0xfab
 3697 0fa2 19       		.uleb128 0x19
 3698 0fa3 01       		.uleb128 0x1
 3699 0fa4 50       		.byte	0x50
 3700 0fa5 04       		.uleb128 0x4
 3701 0fa6 91       		.byte	0x91
 3702 0fa7 B47F     		.sleb128 -76
 3703 0fa9 06       		.byte	0x6
 3704 0faa 00       		.byte	0
 3705 0fab 18       		.uleb128 0x18
 3706 0fac 04020000 		.4byte	.LVL75
 3707 0fb0 22170000 		.4byte	0x1722
ARM GAS  C:\Users\jorti\AppData\Local\Temp\ccCX4ftZ.s 			page 93


 3708 0fb4 C10F0000 		.4byte	0xfc1
 3709 0fb8 19       		.uleb128 0x19
 3710 0fb9 01       		.uleb128 0x1
 3711 0fba 50       		.byte	0x50
 3712 0fbb 04       		.uleb128 0x4
 3713 0fbc 91       		.byte	0x91
 3714 0fbd B47F     		.sleb128 -76
 3715 0fbf 06       		.byte	0x6
 3716 0fc0 00       		.byte	0
 3717 0fc1 18       		.uleb128 0x18
 3718 0fc2 18020000 		.4byte	.LVL78
 3719 0fc6 22170000 		.4byte	0x1722
 3720 0fca D70F0000 		.4byte	0xfd7
 3721 0fce 19       		.uleb128 0x19
 3722 0fcf 01       		.uleb128 0x1
 3723 0fd0 50       		.byte	0x50
 3724 0fd1 04       		.uleb128 0x4
 3725 0fd2 91       		.byte	0x91
 3726 0fd3 B47F     		.sleb128 -76
 3727 0fd5 06       		.byte	0x6
 3728 0fd6 00       		.byte	0
 3729 0fd7 18       		.uleb128 0x18
 3730 0fd8 2E020000 		.4byte	.LVL81
 3731 0fdc 22170000 		.4byte	0x1722
 3732 0fe0 ED0F0000 		.4byte	0xfed
 3733 0fe4 19       		.uleb128 0x19
 3734 0fe5 01       		.uleb128 0x1
 3735 0fe6 50       		.byte	0x50
 3736 0fe7 04       		.uleb128 0x4
 3737 0fe8 91       		.byte	0x91
 3738 0fe9 B47F     		.sleb128 -76
 3739 0feb 06       		.byte	0x6
 3740 0fec 00       		.byte	0
 3741 0fed 18       		.uleb128 0x18
 3742 0fee 48020000 		.4byte	.LVL84
 3743 0ff2 410D0000 		.4byte	0xd41
 3744 0ff6 1B100000 		.4byte	0x101b
 3745 0ffa 19       		.uleb128 0x19
 3746 0ffb 01       		.uleb128 0x1
 3747 0ffc 50       		.byte	0x50
 3748 0ffd 03       		.uleb128 0x3
 3749 0ffe 91       		.byte	0x91
 3750 0fff B87F     		.sleb128 -72
 3751 1001 19       		.uleb128 0x19
 3752 1002 01       		.uleb128 0x1
 3753 1003 51       		.byte	0x51
 3754 1004 02       		.uleb128 0x2
 3755 1005 75       		.byte	0x75
 3756 1006 00       		.sleb128 0
 3757 1007 19       		.uleb128 0x19
 3758 1008 01       		.uleb128 0x1
 3759 1009 52       		.byte	0x52
 3760 100a 02       		.uleb128 0x2
 3761 100b 78       		.byte	0x78
 3762 100c 00       		.sleb128 0
 3763 100d 19       		.uleb128 0x19
 3764 100e 01       		.uleb128 0x1
ARM GAS  C:\Users\jorti\AppData\Local\Temp\ccCX4ftZ.s 			page 94


 3765 100f 53       		.byte	0x53
 3766 1010 02       		.uleb128 0x2
 3767 1011 74       		.byte	0x74
 3768 1012 00       		.sleb128 0
 3769 1013 19       		.uleb128 0x19
 3770 1014 02       		.uleb128 0x2
 3771 1015 7D       		.byte	0x7d
 3772 1016 00       		.sleb128 0
 3773 1017 02       		.uleb128 0x2
 3774 1018 7A       		.byte	0x7a
 3775 1019 00       		.sleb128 0
 3776 101a 00       		.byte	0
 3777 101b 18       		.uleb128 0x18
 3778 101c 4E020000 		.4byte	.LVL85
 3779 1020 22170000 		.4byte	0x1722
 3780 1024 31100000 		.4byte	0x1031
 3781 1028 19       		.uleb128 0x19
 3782 1029 01       		.uleb128 0x1
 3783 102a 50       		.byte	0x50
 3784 102b 04       		.uleb128 0x4
 3785 102c 91       		.byte	0x91
 3786 102d B47F     		.sleb128 -76
 3787 102f 06       		.byte	0x6
 3788 1030 00       		.byte	0
 3789 1031 18       		.uleb128 0x18
 3790 1032 7A020000 		.4byte	.LVL90
 3791 1036 22170000 		.4byte	0x1722
 3792 103a 47100000 		.4byte	0x1047
 3793 103e 19       		.uleb128 0x19
 3794 103f 01       		.uleb128 0x1
 3795 1040 50       		.byte	0x50
 3796 1041 04       		.uleb128 0x4
 3797 1042 91       		.byte	0x91
 3798 1043 B47F     		.sleb128 -76
 3799 1045 06       		.byte	0x6
 3800 1046 00       		.byte	0
 3801 1047 18       		.uleb128 0x18
 3802 1048 8E020000 		.4byte	.LVL93
 3803 104c 22170000 		.4byte	0x1722
 3804 1050 5D100000 		.4byte	0x105d
 3805 1054 19       		.uleb128 0x19
 3806 1055 01       		.uleb128 0x1
 3807 1056 50       		.byte	0x50
 3808 1057 04       		.uleb128 0x4
 3809 1058 91       		.byte	0x91
 3810 1059 B47F     		.sleb128 -76
 3811 105b 06       		.byte	0x6
 3812 105c 00       		.byte	0
 3813 105d 18       		.uleb128 0x18
 3814 105e B0020000 		.4byte	.LVL96
 3815 1062 22170000 		.4byte	0x1722
 3816 1066 73100000 		.4byte	0x1073
 3817 106a 19       		.uleb128 0x19
 3818 106b 01       		.uleb128 0x1
 3819 106c 50       		.byte	0x50
 3820 106d 04       		.uleb128 0x4
 3821 106e 91       		.byte	0x91
ARM GAS  C:\Users\jorti\AppData\Local\Temp\ccCX4ftZ.s 			page 95


 3822 106f B47F     		.sleb128 -76
 3823 1071 06       		.byte	0x6
 3824 1072 00       		.byte	0
 3825 1073 18       		.uleb128 0x18
 3826 1074 CA020000 		.4byte	.LVL99
 3827 1078 410D0000 		.4byte	0xd41
 3828 107c A1100000 		.4byte	0x10a1
 3829 1080 19       		.uleb128 0x19
 3830 1081 01       		.uleb128 0x1
 3831 1082 50       		.byte	0x50
 3832 1083 03       		.uleb128 0x3
 3833 1084 91       		.byte	0x91
 3834 1085 B87F     		.sleb128 -72
 3835 1087 19       		.uleb128 0x19
 3836 1088 01       		.uleb128 0x1
 3837 1089 51       		.byte	0x51
 3838 108a 02       		.uleb128 0x2
 3839 108b 75       		.byte	0x75
 3840 108c 00       		.sleb128 0
 3841 108d 19       		.uleb128 0x19
 3842 108e 01       		.uleb128 0x1
 3843 108f 52       		.byte	0x52
 3844 1090 02       		.uleb128 0x2
 3845 1091 78       		.byte	0x78
 3846 1092 00       		.sleb128 0
 3847 1093 19       		.uleb128 0x19
 3848 1094 01       		.uleb128 0x1
 3849 1095 53       		.byte	0x53
 3850 1096 02       		.uleb128 0x2
 3851 1097 74       		.byte	0x74
 3852 1098 00       		.sleb128 0
 3853 1099 19       		.uleb128 0x19
 3854 109a 02       		.uleb128 0x2
 3855 109b 7D       		.byte	0x7d
 3856 109c 00       		.sleb128 0
 3857 109d 02       		.uleb128 0x2
 3858 109e 7A       		.byte	0x7a
 3859 109f 00       		.sleb128 0
 3860 10a0 00       		.byte	0
 3861 10a1 18       		.uleb128 0x18
 3862 10a2 D0020000 		.4byte	.LVL100
 3863 10a6 22170000 		.4byte	0x1722
 3864 10aa B7100000 		.4byte	0x10b7
 3865 10ae 19       		.uleb128 0x19
 3866 10af 01       		.uleb128 0x1
 3867 10b0 50       		.byte	0x50
 3868 10b1 04       		.uleb128 0x4
 3869 10b2 91       		.byte	0x91
 3870 10b3 B47F     		.sleb128 -76
 3871 10b5 06       		.byte	0x6
 3872 10b6 00       		.byte	0
 3873 10b7 18       		.uleb128 0x18
 3874 10b8 D8020000 		.4byte	.LVL103
 3875 10bc 22170000 		.4byte	0x1722
 3876 10c0 CD100000 		.4byte	0x10cd
 3877 10c4 19       		.uleb128 0x19
 3878 10c5 01       		.uleb128 0x1
ARM GAS  C:\Users\jorti\AppData\Local\Temp\ccCX4ftZ.s 			page 96


 3879 10c6 50       		.byte	0x50
 3880 10c7 04       		.uleb128 0x4
 3881 10c8 91       		.byte	0x91
 3882 10c9 B47F     		.sleb128 -76
 3883 10cb 06       		.byte	0x6
 3884 10cc 00       		.byte	0
 3885 10cd 17       		.uleb128 0x17
 3886 10ce E6020000 		.4byte	.LVL105
 3887 10d2 46170000 		.4byte	0x1746
 3888 10d6 17       		.uleb128 0x17
 3889 10d7 EA020000 		.4byte	.LVL106
 3890 10db 16170000 		.4byte	0x1716
 3891 10df 18       		.uleb128 0x18
 3892 10e0 20030000 		.4byte	.LVL109
 3893 10e4 22170000 		.4byte	0x1722
 3894 10e8 F3100000 		.4byte	0x10f3
 3895 10ec 19       		.uleb128 0x19
 3896 10ed 01       		.uleb128 0x1
 3897 10ee 50       		.byte	0x50
 3898 10ef 02       		.uleb128 0x2
 3899 10f0 74       		.byte	0x74
 3900 10f1 00       		.sleb128 0
 3901 10f2 00       		.byte	0
 3902 10f3 18       		.uleb128 0x18
 3903 10f4 38030000 		.4byte	.LVL112
 3904 10f8 22170000 		.4byte	0x1722
 3905 10fc 07110000 		.4byte	0x1107
 3906 1100 19       		.uleb128 0x19
 3907 1101 01       		.uleb128 0x1
 3908 1102 50       		.byte	0x50
 3909 1103 02       		.uleb128 0x2
 3910 1104 74       		.byte	0x74
 3911 1105 00       		.sleb128 0
 3912 1106 00       		.byte	0
 3913 1107 18       		.uleb128 0x18
 3914 1108 50030000 		.4byte	.LVL115
 3915 110c 22170000 		.4byte	0x1722
 3916 1110 1B110000 		.4byte	0x111b
 3917 1114 19       		.uleb128 0x19
 3918 1115 01       		.uleb128 0x1
 3919 1116 50       		.byte	0x50
 3920 1117 02       		.uleb128 0x2
 3921 1118 74       		.byte	0x74
 3922 1119 00       		.sleb128 0
 3923 111a 00       		.byte	0
 3924 111b 17       		.uleb128 0x17
 3925 111c 5C030000 		.4byte	.LVL117
 3926 1120 22170000 		.4byte	0x1722
 3927 1124 18       		.uleb128 0x18
 3928 1125 A2030000 		.4byte	.LVL120
 3929 1129 22170000 		.4byte	0x1722
 3930 112d 38110000 		.4byte	0x1138
 3931 1131 19       		.uleb128 0x19
 3932 1132 01       		.uleb128 0x1
 3933 1133 50       		.byte	0x50
 3934 1134 02       		.uleb128 0x2
 3935 1135 74       		.byte	0x74
ARM GAS  C:\Users\jorti\AppData\Local\Temp\ccCX4ftZ.s 			page 97


 3936 1136 00       		.sleb128 0
 3937 1137 00       		.byte	0
 3938 1138 1B       		.uleb128 0x1b
 3939 1139 B2030000 		.4byte	.LVL122
 3940 113d 22170000 		.4byte	0x1722
 3941 1141 19       		.uleb128 0x19
 3942 1142 01       		.uleb128 0x1
 3943 1143 50       		.byte	0x50
 3944 1144 02       		.uleb128 0x2
 3945 1145 74       		.byte	0x74
 3946 1146 00       		.sleb128 0
 3947 1147 00       		.byte	0
 3948 1148 00       		.byte	0
 3949 1149 05       		.uleb128 0x5
 3950 114a 04       		.byte	0x4
 3951 114b 10010000 		.4byte	0x110
 3952 114f 1A       		.uleb128 0x1a
 3953 1150 B7020000 		.4byte	.LASF305
 3954 1154 01       		.byte	0x1
 3955 1155 BC03     		.2byte	0x3bc
 3956 1157 00000000 		.4byte	.LFB8
 3957 115b 20000000 		.4byte	.LFE8-.LFB8
 3958 115f 01       		.uleb128 0x1
 3959 1160 9C       		.byte	0x9c
 3960 1161 99110000 		.4byte	0x1199
 3961 1165 13       		.uleb128 0x13
 3962 1166 AB030000 		.4byte	.LASF287
 3963 116a 01       		.byte	0x1
 3964 116b BC03     		.2byte	0x3bc
 3965 116d B90B0000 		.4byte	0xbb9
 3966 1171 6E060000 		.4byte	.LLST26
 3967 1175 15       		.uleb128 0x15
 3968 1176 6C030000 		.4byte	.LASF289
 3969 117a 01       		.byte	0x1
 3970 117b BE03     		.2byte	0x3be
 3971 117d DE0C0000 		.4byte	0xcde
 3972 1181 9C060000 		.4byte	.LLST27
 3973 1185 1B       		.uleb128 0x1b
 3974 1186 14000000 		.4byte	.LVL129
 3975 118a 5E170000 		.4byte	0x175e
 3976 118e 19       		.uleb128 0x19
 3977 118f 01       		.uleb128 0x1
 3978 1190 50       		.byte	0x50
 3979 1191 05       		.uleb128 0x5
 3980 1192 F3       		.byte	0xf3
 3981 1193 01       		.uleb128 0x1
 3982 1194 50       		.byte	0x50
 3983 1195 23       		.byte	0x23
 3984 1196 08       		.uleb128 0x8
 3985 1197 00       		.byte	0
 3986 1198 00       		.byte	0
 3987 1199 1A       		.uleb128 0x1a
 3988 119a DB070000 		.4byte	.LASF306
 3989 119e 01       		.byte	0x1
 3990 119f DB03     		.2byte	0x3db
 3991 11a1 00000000 		.4byte	.LFB9
 3992 11a5 18000000 		.4byte	.LFE9-.LFB9
ARM GAS  C:\Users\jorti\AppData\Local\Temp\ccCX4ftZ.s 			page 98


 3993 11a9 01       		.uleb128 0x1
 3994 11aa 9C       		.byte	0x9c
 3995 11ab BE110000 		.4byte	0x11be
 3996 11af 1D       		.uleb128 0x1d
 3997 11b0 B8080000 		.4byte	.LASF288
 3998 11b4 01       		.byte	0x1
 3999 11b5 DB03     		.2byte	0x3db
 4000 11b7 D80C0000 		.4byte	0xcd8
 4001 11bb 01       		.uleb128 0x1
 4002 11bc 50       		.byte	0x50
 4003 11bd 00       		.byte	0
 4004 11be 1A       		.uleb128 0x1a
 4005 11bf 000F0000 		.4byte	.LASF307
 4006 11c3 01       		.byte	0x1
 4007 11c4 FD03     		.2byte	0x3fd
 4008 11c6 00000000 		.4byte	.LFB10
 4009 11ca 24000000 		.4byte	.LFE10-.LFB10
 4010 11ce 01       		.uleb128 0x1
 4011 11cf 9C       		.byte	0x9c
 4012 11d0 E3110000 		.4byte	0x11e3
 4013 11d4 1D       		.uleb128 0x1d
 4014 11d5 AB030000 		.4byte	.LASF287
 4015 11d9 01       		.byte	0x1
 4016 11da FD03     		.2byte	0x3fd
 4017 11dc B90B0000 		.4byte	0xbb9
 4018 11e0 01       		.uleb128 0x1
 4019 11e1 50       		.byte	0x50
 4020 11e2 00       		.byte	0
 4021 11e3 1E       		.uleb128 0x1e
 4022 11e4 CA010000 		.4byte	.LASF308
 4023 11e8 01       		.byte	0x1
 4024 11e9 46       		.byte	0x46
 4025 11ea 00000000 		.4byte	.LFB1
 4026 11ee 68000000 		.4byte	.LFE1-.LFB1
 4027 11f2 01       		.uleb128 0x1
 4028 11f3 9C       		.byte	0x9c
 4029 11f4 85120000 		.4byte	0x1285
 4030 11f8 1F       		.uleb128 0x1f
 4031 11f9 AB030000 		.4byte	.LASF287
 4032 11fd 01       		.byte	0x1
 4033 11fe 46       		.byte	0x46
 4034 11ff B90B0000 		.4byte	0xbb9
 4035 1203 CC060000 		.4byte	.LLST28
 4036 1207 1F       		.uleb128 0x1f
 4037 1208 E2080000 		.4byte	.LASF309
 4038 120c 01       		.byte	0x1
 4039 120d 47       		.byte	0x47
 4040 120e B30B0000 		.4byte	0xbb3
 4041 1212 F8060000 		.4byte	.LLST29
 4042 1216 1F       		.uleb128 0x1f
 4043 1217 54010000 		.4byte	.LASF295
 4044 121b 01       		.byte	0x1
 4045 121c 48       		.byte	0x48
 4046 121d 3C010000 		.4byte	0x13c
 4047 1221 24070000 		.4byte	.LLST30
 4048 1225 1F       		.uleb128 0x1f
 4049 1226 B8080000 		.4byte	.LASF288
ARM GAS  C:\Users\jorti\AppData\Local\Temp\ccCX4ftZ.s 			page 99


 4050 122a 01       		.byte	0x1
 4051 122b 49       		.byte	0x49
 4052 122c D80C0000 		.4byte	0xcd8
 4053 1230 8E070000 		.4byte	.LLST31
 4054 1234 20       		.uleb128 0x20
 4055 1235 EC040000 		.4byte	.LASF292
 4056 1239 01       		.byte	0x1
 4057 123a 4B       		.byte	0x4b
 4058 123b DD000000 		.4byte	0xdd
 4059 123f BA070000 		.4byte	.LLST32
 4060 1243 17       		.uleb128 0x17
 4061 1244 2C000000 		.4byte	.LVL138
 4062 1248 16170000 		.4byte	0x1716
 4063 124c 18       		.uleb128 0x18
 4064 124d 42000000 		.4byte	.LVL142
 4065 1251 5E170000 		.4byte	0x175e
 4066 1255 60120000 		.4byte	0x1260
 4067 1259 19       		.uleb128 0x19
 4068 125a 01       		.uleb128 0x1
 4069 125b 50       		.byte	0x50
 4070 125c 02       		.uleb128 0x2
 4071 125d 74       		.byte	0x74
 4072 125e 08       		.sleb128 8
 4073 125f 00       		.byte	0
 4074 1260 18       		.uleb128 0x18
 4075 1261 48000000 		.4byte	.LVL143
 4076 1265 BE110000 		.4byte	0x11be
 4077 1269 74120000 		.4byte	0x1274
 4078 126d 19       		.uleb128 0x19
 4079 126e 01       		.uleb128 0x1
 4080 126f 50       		.byte	0x50
 4081 1270 02       		.uleb128 0x2
 4082 1271 74       		.byte	0x74
 4083 1272 00       		.sleb128 0
 4084 1273 00       		.byte	0
 4085 1274 1B       		.uleb128 0x1b
 4086 1275 56000000 		.4byte	.LVL144
 4087 1279 22170000 		.4byte	0x1722
 4088 127d 19       		.uleb128 0x19
 4089 127e 01       		.uleb128 0x1
 4090 127f 50       		.byte	0x50
 4091 1280 02       		.uleb128 0x2
 4092 1281 78       		.byte	0x78
 4093 1282 00       		.sleb128 0
 4094 1283 00       		.byte	0
 4095 1284 00       		.byte	0
 4096 1285 1A       		.uleb128 0x1a
 4097 1286 EE060000 		.4byte	.LASF310
 4098 128a 01       		.byte	0x1
 4099 128b 0C04     		.2byte	0x40c
 4100 128d 00000000 		.4byte	.LFB11
 4101 1291 30000000 		.4byte	.LFE11-.LFB11
 4102 1295 01       		.uleb128 0x1
 4103 1296 9C       		.byte	0x9c
 4104 1297 CA120000 		.4byte	0x12ca
 4105 129b 1D       		.uleb128 0x1d
 4106 129c AB030000 		.4byte	.LASF287
ARM GAS  C:\Users\jorti\AppData\Local\Temp\ccCX4ftZ.s 			page 100


 4107 12a0 01       		.byte	0x1
 4108 12a1 0C04     		.2byte	0x40c
 4109 12a3 B90B0000 		.4byte	0xbb9
 4110 12a7 01       		.uleb128 0x1
 4111 12a8 50       		.byte	0x50
 4112 12a9 15       		.uleb128 0x15
 4113 12aa 1E050000 		.4byte	.LASF311
 4114 12ae 01       		.byte	0x1
 4115 12af 0E04     		.2byte	0x40e
 4116 12b1 B90B0000 		.4byte	0xbb9
 4117 12b5 E4070000 		.4byte	.LLST33
 4118 12b9 15       		.uleb128 0x15
 4119 12ba E9090000 		.4byte	.LASF312
 4120 12be 01       		.byte	0x1
 4121 12bf 0F04     		.2byte	0x40f
 4122 12c1 B90B0000 		.4byte	0xbb9
 4123 12c5 02080000 		.4byte	.LLST34
 4124 12c9 00       		.byte	0
 4125 12ca 21       		.uleb128 0x21
 4126 12cb 690A0000 		.4byte	.LASF313
 4127 12cf 01       		.byte	0x1
 4128 12d0 9C       		.byte	0x9c
 4129 12d1 68010000 		.4byte	0x168
 4130 12d5 00000000 		.4byte	.LFB2
 4131 12d9 DC000000 		.4byte	.LFE2-.LFB2
 4132 12dd 01       		.uleb128 0x1
 4133 12de 9C       		.byte	0x9c
 4134 12df 38140000 		.4byte	0x1438
 4135 12e3 1F       		.uleb128 0x1f
 4136 12e4 AB030000 		.4byte	.LASF287
 4137 12e8 01       		.byte	0x1
 4138 12e9 9C       		.byte	0x9c
 4139 12ea B90B0000 		.4byte	0xbb9
 4140 12ee 2C080000 		.4byte	.LLST35
 4141 12f2 22       		.uleb128 0x22
 4142 12f3 6F707400 		.ascii	"opt\000"
 4143 12f7 01       		.byte	0x1
 4144 12f8 9D       		.byte	0x9d
 4145 12f9 7E010000 		.4byte	0x17e
 4146 12fd 8A080000 		.4byte	.LLST36
 4147 1301 1F       		.uleb128 0x1f
 4148 1302 B8080000 		.4byte	.LASF288
 4149 1306 01       		.byte	0x1
 4150 1307 9E       		.byte	0x9e
 4151 1308 D80C0000 		.4byte	0xcd8
 4152 130c AB080000 		.4byte	.LLST37
 4153 1310 23       		.uleb128 0x23
 4154 1311 636E7400 		.ascii	"cnt\000"
 4155 1315 01       		.byte	0x1
 4156 1316 A0       		.byte	0xa0
 4157 1317 68010000 		.4byte	0x168
 4158 131b D7080000 		.4byte	.LLST38
 4159 131f 20       		.uleb128 0x20
 4160 1320 560B0000 		.4byte	.LASF291
 4161 1324 01       		.byte	0x1
 4162 1325 A1       		.byte	0xa1
 4163 1326 68010000 		.4byte	0x168
ARM GAS  C:\Users\jorti\AppData\Local\Temp\ccCX4ftZ.s 			page 101


 4164 132a 16090000 		.4byte	.LLST39
 4165 132e 20       		.uleb128 0x20
 4166 132f 33090000 		.4byte	.LASF296
 4167 1333 01       		.byte	0x1
 4168 1334 A2       		.byte	0xa2
 4169 1335 A70B0000 		.4byte	0xba7
 4170 1339 34090000 		.4byte	.LLST40
 4171 133d 20       		.uleb128 0x20
 4172 133e 6C030000 		.4byte	.LASF289
 4173 1342 01       		.byte	0x1
 4174 1343 A3       		.byte	0xa3
 4175 1344 DE0C0000 		.4byte	0xcde
 4176 1348 47090000 		.4byte	.LLST41
 4177 134c 20       		.uleb128 0x20
 4178 134d 9D0A0000 		.4byte	.LASF290
 4179 1351 01       		.byte	0x1
 4180 1352 A4       		.byte	0xa4
 4181 1353 A10B0000 		.4byte	0xba1
 4182 1357 6C090000 		.4byte	.LLST42
 4183 135b 23       		.uleb128 0x23
 4184 135c 747300   		.ascii	"ts\000"
 4185 135f 01       		.byte	0x1
 4186 1360 A5       		.byte	0xa5
 4187 1361 10010000 		.4byte	0x110
 4188 1365 80090000 		.4byte	.LLST43
 4189 1369 20       		.uleb128 0x20
 4190 136a EC040000 		.4byte	.LASF292
 4191 136e 01       		.byte	0x1
 4192 136f A6       		.byte	0xa6
 4193 1370 DD000000 		.4byte	0xdd
 4194 1374 9E090000 		.4byte	.LLST44
 4195 1378 17       		.uleb128 0x17
 4196 1379 3C000000 		.4byte	.LVL160
 4197 137d 16170000 		.4byte	0x1716
 4198 1381 18       		.uleb128 0x18
 4199 1382 50000000 		.4byte	.LVL164
 4200 1386 85120000 		.4byte	0x1285
 4201 138a 95130000 		.4byte	0x1395
 4202 138e 19       		.uleb128 0x19
 4203 138f 01       		.uleb128 0x1
 4204 1390 50       		.byte	0x50
 4205 1391 02       		.uleb128 0x2
 4206 1392 74       		.byte	0x74
 4207 1393 00       		.sleb128 0
 4208 1394 00       		.byte	0
 4209 1395 18       		.uleb128 0x18
 4210 1396 5E000000 		.4byte	.LVL165
 4211 139a 4F110000 		.4byte	0x114f
 4212 139e A9130000 		.4byte	0x13a9
 4213 13a2 19       		.uleb128 0x19
 4214 13a3 01       		.uleb128 0x1
 4215 13a4 50       		.byte	0x50
 4216 13a5 02       		.uleb128 0x2
 4217 13a6 74       		.byte	0x74
 4218 13a7 00       		.sleb128 0
 4219 13a8 00       		.byte	0
 4220 13a9 18       		.uleb128 0x18
ARM GAS  C:\Users\jorti\AppData\Local\Temp\ccCX4ftZ.s 			page 102


 4221 13aa 64000000 		.4byte	.LVL166
 4222 13ae 22170000 		.4byte	0x1722
 4223 13b2 BD130000 		.4byte	0x13bd
 4224 13b6 19       		.uleb128 0x19
 4225 13b7 01       		.uleb128 0x1
 4226 13b8 50       		.byte	0x50
 4227 13b9 02       		.uleb128 0x2
 4228 13ba 78       		.byte	0x78
 4229 13bb 00       		.sleb128 0
 4230 13bc 00       		.byte	0
 4231 13bd 17       		.uleb128 0x17
 4232 13be 72000000 		.4byte	.LVL168
 4233 13c2 22170000 		.4byte	0x1722
 4234 13c6 17       		.uleb128 0x17
 4235 13c7 82000000 		.4byte	.LVL170
 4236 13cb 2E170000 		.4byte	0x172e
 4237 13cf 18       		.uleb128 0x18
 4238 13d0 94000000 		.4byte	.LVL174
 4239 13d4 6A170000 		.4byte	0x176a
 4240 13d8 E9130000 		.4byte	0x13e9
 4241 13dc 19       		.uleb128 0x19
 4242 13dd 01       		.uleb128 0x1
 4243 13de 50       		.byte	0x50
 4244 13df 02       		.uleb128 0x2
 4245 13e0 74       		.byte	0x74
 4246 13e1 00       		.sleb128 0
 4247 13e2 19       		.uleb128 0x19
 4248 13e3 01       		.uleb128 0x1
 4249 13e4 52       		.byte	0x52
 4250 13e5 02       		.uleb128 0x2
 4251 13e6 79       		.byte	0x79
 4252 13e7 00       		.sleb128 0
 4253 13e8 00       		.byte	0
 4254 13e9 18       		.uleb128 0x18
 4255 13ea A2000000 		.4byte	.LVL177
 4256 13ee 85120000 		.4byte	0x1285
 4257 13f2 FD130000 		.4byte	0x13fd
 4258 13f6 19       		.uleb128 0x19
 4259 13f7 01       		.uleb128 0x1
 4260 13f8 50       		.byte	0x50
 4261 13f9 02       		.uleb128 0x2
 4262 13fa 74       		.byte	0x74
 4263 13fb 00       		.sleb128 0
 4264 13fc 00       		.byte	0
 4265 13fd 18       		.uleb128 0x18
 4266 13fe B0000000 		.4byte	.LVL178
 4267 1402 4F110000 		.4byte	0x114f
 4268 1406 11140000 		.4byte	0x1411
 4269 140a 19       		.uleb128 0x19
 4270 140b 01       		.uleb128 0x1
 4271 140c 50       		.byte	0x50
 4272 140d 02       		.uleb128 0x2
 4273 140e 74       		.byte	0x74
 4274 140f 00       		.sleb128 0
 4275 1410 00       		.byte	0
 4276 1411 18       		.uleb128 0x18
 4277 1412 B6000000 		.4byte	.LVL179
ARM GAS  C:\Users\jorti\AppData\Local\Temp\ccCX4ftZ.s 			page 103


 4278 1416 22170000 		.4byte	0x1722
 4279 141a 25140000 		.4byte	0x1425
 4280 141e 19       		.uleb128 0x19
 4281 141f 01       		.uleb128 0x1
 4282 1420 50       		.byte	0x50
 4283 1421 02       		.uleb128 0x2
 4284 1422 78       		.byte	0x78
 4285 1423 00       		.sleb128 0
 4286 1424 00       		.byte	0
 4287 1425 17       		.uleb128 0x17
 4288 1426 BA000000 		.4byte	.LVL180
 4289 142a 46170000 		.4byte	0x1746
 4290 142e 17       		.uleb128 0x17
 4291 142f C8000000 		.4byte	.LVL182
 4292 1433 22170000 		.4byte	0x1722
 4293 1437 00       		.byte	0
 4294 1438 1A       		.uleb128 0x1a
 4295 1439 91080000 		.4byte	.LASF314
 4296 143d 01       		.byte	0x1
 4297 143e D904     		.2byte	0x4d9
 4298 1440 00000000 		.4byte	.LFB13
 4299 1444 42000000 		.4byte	.LFE13-.LFB13
 4300 1448 01       		.uleb128 0x1
 4301 1449 9C       		.byte	0x9c
 4302 144a 97140000 		.4byte	0x1497
 4303 144e 13       		.uleb128 0x13
 4304 144f 9D0A0000 		.4byte	.LASF290
 4305 1453 01       		.byte	0x1
 4306 1454 D904     		.2byte	0x4d9
 4307 1456 A10B0000 		.4byte	0xba1
 4308 145a 0A0A0000 		.4byte	.LLST45
 4309 145e 13       		.uleb128 0x13
 4310 145f 320F0000 		.4byte	.LASF301
 4311 1463 01       		.byte	0x1
 4312 1464 DA04     		.2byte	0x4da
 4313 1466 3C010000 		.4byte	0x13c
 4314 146a 3E0A0000 		.4byte	.LLST46
 4315 146e 14       		.uleb128 0x14
 4316 146f 747300   		.ascii	"ts\000"
 4317 1472 01       		.byte	0x1
 4318 1473 DB04     		.2byte	0x4db
 4319 1475 10010000 		.4byte	0x110
 4320 1479 780A0000 		.4byte	.LLST47
 4321 147d 17       		.uleb128 0x17
 4322 147e 2C000000 		.4byte	.LVL186
 4323 1482 76170000 		.4byte	0x1776
 4324 1486 1B       		.uleb128 0x1b
 4325 1487 40000000 		.4byte	.LVL189
 4326 148b 82170000 		.4byte	0x1782
 4327 148f 19       		.uleb128 0x19
 4328 1490 01       		.uleb128 0x1
 4329 1491 50       		.byte	0x50
 4330 1492 02       		.uleb128 0x2
 4331 1493 74       		.byte	0x74
 4332 1494 00       		.sleb128 0
 4333 1495 00       		.byte	0
 4334 1496 00       		.byte	0
ARM GAS  C:\Users\jorti\AppData\Local\Temp\ccCX4ftZ.s 			page 104


 4335 1497 12       		.uleb128 0x12
 4336 1498 B6090000 		.4byte	.LASF315
 4337 149c 01       		.byte	0x1
 4338 149d 5504     		.2byte	0x455
 4339 149f 3C010000 		.4byte	0x13c
 4340 14a3 00000000 		.4byte	.LFB12
 4341 14a7 1C010000 		.4byte	.LFE12-.LFB12
 4342 14ab 01       		.uleb128 0x1
 4343 14ac 9C       		.byte	0x9c
 4344 14ad 38160000 		.4byte	0x1638
 4345 14b1 13       		.uleb128 0x13
 4346 14b2 AB030000 		.4byte	.LASF287
 4347 14b6 01       		.byte	0x1
 4348 14b7 5504     		.2byte	0x455
 4349 14b9 B90B0000 		.4byte	0xbb9
 4350 14bd C10A0000 		.4byte	.LLST48
 4351 14c1 13       		.uleb128 0x13
 4352 14c2 54010000 		.4byte	.LASF295
 4353 14c6 01       		.byte	0x1
 4354 14c7 5604     		.2byte	0x456
 4355 14c9 3C010000 		.4byte	0x13c
 4356 14cd DF0A0000 		.4byte	.LLST49
 4357 14d1 14       		.uleb128 0x14
 4358 14d2 6F707400 		.ascii	"opt\000"
 4359 14d6 01       		.byte	0x1
 4360 14d7 5704     		.2byte	0x457
 4361 14d9 7E010000 		.4byte	0x17e
 4362 14dd 3D0B0000 		.4byte	.LLST50
 4363 14e1 14       		.uleb128 0x14
 4364 14e2 747300   		.ascii	"ts\000"
 4365 14e5 01       		.byte	0x1
 4366 14e6 5804     		.2byte	0x458
 4367 14e8 10010000 		.4byte	0x110
 4368 14ec 5E0B0000 		.4byte	.LLST51
 4369 14f0 13       		.uleb128 0x13
 4370 14f1 B8080000 		.4byte	.LASF288
 4371 14f5 01       		.byte	0x1
 4372 14f6 5904     		.2byte	0x459
 4373 14f8 D80C0000 		.4byte	0xcd8
 4374 14fc 7C0B0000 		.4byte	.LLST52
 4375 1500 1C       		.uleb128 0x1c
 4376 1501 AA0E0000 		.4byte	.LASF316
 4377 1505 01       		.byte	0x1
 4378 1506 5B04     		.2byte	0x45b
 4379 1508 3C010000 		.4byte	0x13c
 4380 150c 01       		.uleb128 0x1
 4381 150d 54       		.byte	0x54
 4382 150e 15       		.uleb128 0x15
 4383 150f 320F0000 		.4byte	.LASF301
 4384 1513 01       		.byte	0x1
 4385 1514 5C04     		.2byte	0x45c
 4386 1516 3C010000 		.4byte	0x13c
 4387 151a 9C0B0000 		.4byte	.LLST53
 4388 151e 15       		.uleb128 0x15
 4389 151f 52030000 		.4byte	.LASF302
 4390 1523 01       		.byte	0x1
 4391 1524 5D04     		.2byte	0x45d
ARM GAS  C:\Users\jorti\AppData\Local\Temp\ccCX4ftZ.s 			page 105


 4392 1526 7E010000 		.4byte	0x17e
 4393 152a F10B0000 		.4byte	.LLST54
 4394 152e 15       		.uleb128 0x15
 4395 152f 33090000 		.4byte	.LASF296
 4396 1533 01       		.byte	0x1
 4397 1534 5E04     		.2byte	0x45e
 4398 1536 A70B0000 		.4byte	0xba7
 4399 153a 8D0C0000 		.4byte	.LLST55
 4400 153e 15       		.uleb128 0x15
 4401 153f 350C0000 		.4byte	.LASF317
 4402 1543 01       		.byte	0x1
 4403 1544 5F04     		.2byte	0x45f
 4404 1546 A70B0000 		.4byte	0xba7
 4405 154a AB0C0000 		.4byte	.LLST56
 4406 154e 1C       		.uleb128 0x1c
 4407 154f 6C030000 		.4byte	.LASF289
 4408 1553 01       		.byte	0x1
 4409 1554 6004     		.2byte	0x460
 4410 1556 DE0C0000 		.4byte	0xcde
 4411 155a 03       		.uleb128 0x3
 4412 155b 75       		.byte	0x75
 4413 155c 08       		.sleb128 8
 4414 155d 9F       		.byte	0x9f
 4415 155e 15       		.uleb128 0x15
 4416 155f 9D0A0000 		.4byte	.LASF290
 4417 1563 01       		.byte	0x1
 4418 1564 6104     		.2byte	0x461
 4419 1566 A10B0000 		.4byte	0xba1
 4420 156a BE0C0000 		.4byte	.LLST57
 4421 156e 15       		.uleb128 0x15
 4422 156f EC040000 		.4byte	.LASF292
 4423 1573 01       		.byte	0x1
 4424 1574 6204     		.2byte	0x462
 4425 1576 DD000000 		.4byte	0xdd
 4426 157a 130D0000 		.4byte	.LLST58
 4427 157e 17       		.uleb128 0x17
 4428 157f 10000000 		.4byte	.LVL192
 4429 1583 16170000 		.4byte	0x1716
 4430 1587 17       		.uleb128 0x17
 4431 1588 3E000000 		.4byte	.LVL198
 4432 158c 22170000 		.4byte	0x1722
 4433 1590 18       		.uleb128 0x18
 4434 1591 58000000 		.4byte	.LVL202
 4435 1595 22170000 		.4byte	0x1722
 4436 1599 A4150000 		.4byte	0x15a4
 4437 159d 19       		.uleb128 0x19
 4438 159e 01       		.uleb128 0x1
 4439 159f 50       		.byte	0x50
 4440 15a0 02       		.uleb128 0x2
 4441 15a1 78       		.byte	0x78
 4442 15a2 00       		.sleb128 0
 4443 15a3 00       		.byte	0
 4444 15a4 18       		.uleb128 0x18
 4445 15a5 98000000 		.4byte	.LVL211
 4446 15a9 38140000 		.4byte	0x1438
 4447 15ad B8150000 		.4byte	0x15b8
 4448 15b1 19       		.uleb128 0x19
ARM GAS  C:\Users\jorti\AppData\Local\Temp\ccCX4ftZ.s 			page 106


 4449 15b2 01       		.uleb128 0x1
 4450 15b3 52       		.byte	0x52
 4451 15b4 02       		.uleb128 0x2
 4452 15b5 77       		.byte	0x77
 4453 15b6 00       		.sleb128 0
 4454 15b7 00       		.byte	0
 4455 15b8 18       		.uleb128 0x18
 4456 15b9 AA000000 		.4byte	.LVL216
 4457 15bd 38140000 		.4byte	0x1438
 4458 15c1 CC150000 		.4byte	0x15cc
 4459 15c5 19       		.uleb128 0x19
 4460 15c6 01       		.uleb128 0x1
 4461 15c7 52       		.byte	0x52
 4462 15c8 02       		.uleb128 0x2
 4463 15c9 77       		.byte	0x77
 4464 15ca 00       		.sleb128 0
 4465 15cb 00       		.byte	0
 4466 15cc 18       		.uleb128 0x18
 4467 15cd C0000000 		.4byte	.LVL220
 4468 15d1 38140000 		.4byte	0x1438
 4469 15d5 E0150000 		.4byte	0x15e0
 4470 15d9 19       		.uleb128 0x19
 4471 15da 01       		.uleb128 0x1
 4472 15db 52       		.byte	0x52
 4473 15dc 02       		.uleb128 0x2
 4474 15dd 77       		.byte	0x77
 4475 15de 00       		.sleb128 0
 4476 15df 00       		.byte	0
 4477 15e0 18       		.uleb128 0x18
 4478 15e1 D4000000 		.4byte	.LVL224
 4479 15e5 38140000 		.4byte	0x1438
 4480 15e9 F4150000 		.4byte	0x15f4
 4481 15ed 19       		.uleb128 0x19
 4482 15ee 01       		.uleb128 0x1
 4483 15ef 52       		.byte	0x52
 4484 15f0 02       		.uleb128 0x2
 4485 15f1 77       		.byte	0x77
 4486 15f2 00       		.sleb128 0
 4487 15f3 00       		.byte	0
 4488 15f4 18       		.uleb128 0x18
 4489 15f5 DC000000 		.4byte	.LVL227
 4490 15f9 22170000 		.4byte	0x1722
 4491 15fd 08160000 		.4byte	0x1608
 4492 1601 19       		.uleb128 0x19
 4493 1602 01       		.uleb128 0x1
 4494 1603 50       		.byte	0x50
 4495 1604 02       		.uleb128 0x2
 4496 1605 78       		.byte	0x78
 4497 1606 00       		.sleb128 0
 4498 1607 00       		.byte	0
 4499 1608 18       		.uleb128 0x18
 4500 1609 FC000000 		.4byte	.LVL233
 4501 160d 22170000 		.4byte	0x1722
 4502 1611 1C160000 		.4byte	0x161c
 4503 1615 19       		.uleb128 0x19
 4504 1616 01       		.uleb128 0x1
 4505 1617 50       		.byte	0x50
ARM GAS  C:\Users\jorti\AppData\Local\Temp\ccCX4ftZ.s 			page 107


 4506 1618 02       		.uleb128 0x2
 4507 1619 78       		.byte	0x78
 4508 161a 00       		.sleb128 0
 4509 161b 00       		.byte	0
 4510 161c 17       		.uleb128 0x17
 4511 161d 06010000 		.4byte	.LVL234
 4512 1621 46170000 		.4byte	0x1746
 4513 1625 17       		.uleb128 0x17
 4514 1626 0A010000 		.4byte	.LVL235
 4515 162a 16170000 		.4byte	0x1716
 4516 162e 17       		.uleb128 0x17
 4517 162f 10010000 		.4byte	.LVL237
 4518 1633 22170000 		.4byte	0x1722
 4519 1637 00       		.byte	0
 4520 1638 12       		.uleb128 0x12
 4521 1639 F9020000 		.4byte	.LASF318
 4522 163d 01       		.byte	0x1
 4523 163e 3403     		.2byte	0x334
 4524 1640 3C010000 		.4byte	0x13c
 4525 1644 00000000 		.4byte	.LFB6
 4526 1648 44000000 		.4byte	.LFE6-.LFB6
 4527 164c 01       		.uleb128 0x1
 4528 164d 9C       		.byte	0x9c
 4529 164e DA160000 		.4byte	0x16da
 4530 1652 13       		.uleb128 0x13
 4531 1653 AB030000 		.4byte	.LASF287
 4532 1657 01       		.byte	0x1
 4533 1658 3403     		.2byte	0x334
 4534 165a B90B0000 		.4byte	0xbb9
 4535 165e 740D0000 		.4byte	.LLST59
 4536 1662 13       		.uleb128 0x13
 4537 1663 54010000 		.4byte	.LASF295
 4538 1667 01       		.byte	0x1
 4539 1668 3503     		.2byte	0x335
 4540 166a 3C010000 		.4byte	0x13c
 4541 166e AB0D0000 		.4byte	.LLST60
 4542 1672 14       		.uleb128 0x14
 4543 1673 6F707400 		.ascii	"opt\000"
 4544 1677 01       		.byte	0x1
 4545 1678 3603     		.2byte	0x336
 4546 167a 7E010000 		.4byte	0x17e
 4547 167e D70D0000 		.4byte	.LLST61
 4548 1682 13       		.uleb128 0x13
 4549 1683 B8080000 		.4byte	.LASF288
 4550 1687 01       		.byte	0x1
 4551 1688 3703     		.2byte	0x337
 4552 168a D80C0000 		.4byte	0xcd8
 4553 168e 2A0E0000 		.4byte	.LLST62
 4554 1692 24       		.uleb128 0x24
 4555 1693 AA0E0000 		.4byte	.LASF316
 4556 1697 01       		.byte	0x1
 4557 1698 3903     		.2byte	0x339
 4558 169a 3C010000 		.4byte	0x13c
 4559 169e 16       		.uleb128 0x16
 4560 169f 747300   		.ascii	"ts\000"
 4561 16a2 01       		.byte	0x1
 4562 16a3 3A03     		.2byte	0x33a
ARM GAS  C:\Users\jorti\AppData\Local\Temp\ccCX4ftZ.s 			page 108


 4563 16a5 10010000 		.4byte	0x110
 4564 16a9 560E0000 		.4byte	.LLST63
 4565 16ad 17       		.uleb128 0x17
 4566 16ae 32000000 		.4byte	.LVL245
 4567 16b2 2E170000 		.4byte	0x172e
 4568 16b6 1B       		.uleb128 0x1b
 4569 16b7 40000000 		.4byte	.LVL247
 4570 16bb 97140000 		.4byte	0x1497
 4571 16bf 19       		.uleb128 0x19
 4572 16c0 01       		.uleb128 0x1
 4573 16c1 50       		.byte	0x50
 4574 16c2 02       		.uleb128 0x2
 4575 16c3 76       		.byte	0x76
 4576 16c4 00       		.sleb128 0
 4577 16c5 19       		.uleb128 0x19
 4578 16c6 01       		.uleb128 0x1
 4579 16c7 51       		.byte	0x51
 4580 16c8 02       		.uleb128 0x2
 4581 16c9 77       		.byte	0x77
 4582 16ca 00       		.sleb128 0
 4583 16cb 19       		.uleb128 0x19
 4584 16cc 01       		.uleb128 0x1
 4585 16cd 52       		.byte	0x52
 4586 16ce 02       		.uleb128 0x2
 4587 16cf 74       		.byte	0x74
 4588 16d0 00       		.sleb128 0
 4589 16d1 19       		.uleb128 0x19
 4590 16d2 02       		.uleb128 0x2
 4591 16d3 7D       		.byte	0x7d
 4592 16d4 00       		.sleb128 0
 4593 16d5 02       		.uleb128 0x2
 4594 16d6 75       		.byte	0x75
 4595 16d7 00       		.sleb128 0
 4596 16d8 00       		.byte	0
 4597 16d9 00       		.byte	0
 4598 16da 25       		.uleb128 0x25
 4599 16db 390D0000 		.4byte	.LASF319
 4600 16df 05       		.byte	0x5
 4601 16e0 5F04     		.2byte	0x45f
 4602 16e2 5D010000 		.4byte	0x15d
 4603 16e6 25       		.uleb128 0x25
 4604 16e7 69120000 		.4byte	.LASF320
 4605 16eb 05       		.byte	0x5
 4606 16ec 7504     		.2byte	0x475
 4607 16ee B90B0000 		.4byte	0xbb9
 4608 16f2 25       		.uleb128 0x25
 4609 16f3 C0120000 		.4byte	.LASF321
 4610 16f7 05       		.byte	0x5
 4611 16f8 7704     		.2byte	0x477
 4612 16fa 68010000 		.4byte	0x168
 4613 16fe 25       		.uleb128 0x25
 4614 16ff AC100000 		.4byte	.LASF322
 4615 1703 05       		.byte	0x5
 4616 1704 AD04     		.2byte	0x4ad
 4617 1706 5D010000 		.4byte	0x15d
 4618 170a 25       		.uleb128 0x25
 4619 170b D7010000 		.4byte	.LASF323
ARM GAS  C:\Users\jorti\AppData\Local\Temp\ccCX4ftZ.s 			page 109


 4620 170f 05       		.byte	0x5
 4621 1710 E504     		.2byte	0x4e5
 4622 1712 A10B0000 		.4byte	0xba1
 4623 1716 26       		.uleb128 0x26
 4624 1717 DB0D0000 		.4byte	.LASF324
 4625 171b DB0D0000 		.4byte	.LASF324
 4626 171f 02       		.byte	0x2
 4627 1720 7C01     		.2byte	0x17c
 4628 1722 26       		.uleb128 0x26
 4629 1723 69080000 		.4byte	.LASF325
 4630 1727 69080000 		.4byte	.LASF325
 4631 172b 02       		.byte	0x2
 4632 172c 7D01     		.2byte	0x17d
 4633 172e 26       		.uleb128 0x26
 4634 172f 7A120000 		.4byte	.LASF326
 4635 1733 7A120000 		.4byte	.LASF326
 4636 1737 03       		.byte	0x3
 4637 1738 EC02     		.2byte	0x2ec
 4638 173a 26       		.uleb128 0x26
 4639 173b F6010000 		.4byte	.LASF327
 4640 173f F6010000 		.4byte	.LASF327
 4641 1743 05       		.byte	0x5
 4642 1744 F807     		.2byte	0x7f8
 4643 1746 26       		.uleb128 0x26
 4644 1747 86100000 		.4byte	.LASF328
 4645 174b 86100000 		.4byte	.LASF328
 4646 174f 05       		.byte	0x5
 4647 1750 7E07     		.2byte	0x77e
 4648 1752 26       		.uleb128 0x26
 4649 1753 5A040000 		.4byte	.LASF329
 4650 1757 5A040000 		.4byte	.LASF329
 4651 175b 05       		.byte	0x5
 4652 175c F307     		.2byte	0x7f3
 4653 175e 26       		.uleb128 0x26
 4654 175f 18030000 		.4byte	.LASF330
 4655 1763 18030000 		.4byte	.LASF330
 4656 1767 05       		.byte	0x5
 4657 1768 4B08     		.2byte	0x84b
 4658 176a 26       		.uleb128 0x26
 4659 176b 0F070000 		.4byte	.LASF331
 4660 176f 0F070000 		.4byte	.LASF331
 4661 1773 05       		.byte	0x5
 4662 1774 0008     		.2byte	0x800
 4663 1776 26       		.uleb128 0x26
 4664 1777 B50F0000 		.4byte	.LASF332
 4665 177b B50F0000 		.4byte	.LASF332
 4666 177f 05       		.byte	0x5
 4667 1780 E106     		.2byte	0x6e1
 4668 1782 26       		.uleb128 0x26
 4669 1783 57020000 		.4byte	.LASF333
 4670 1787 57020000 		.4byte	.LASF333
 4671 178b 05       		.byte	0x5
 4672 178c 5608     		.2byte	0x856
 4673 178e 00       		.byte	0
 4674              		.section	.debug_abbrev,"",%progbits
 4675              	.Ldebug_abbrev0:
 4676 0000 01       		.uleb128 0x1
ARM GAS  C:\Users\jorti\AppData\Local\Temp\ccCX4ftZ.s 			page 110


 4677 0001 11       		.uleb128 0x11
 4678 0002 01       		.byte	0x1
 4679 0003 25       		.uleb128 0x25
 4680 0004 0E       		.uleb128 0xe
 4681 0005 13       		.uleb128 0x13
 4682 0006 0B       		.uleb128 0xb
 4683 0007 03       		.uleb128 0x3
 4684 0008 0E       		.uleb128 0xe
 4685 0009 1B       		.uleb128 0x1b
 4686 000a 0E       		.uleb128 0xe
 4687 000b 55       		.uleb128 0x55
 4688 000c 17       		.uleb128 0x17
 4689 000d 11       		.uleb128 0x11
 4690 000e 01       		.uleb128 0x1
 4691 000f 10       		.uleb128 0x10
 4692 0010 17       		.uleb128 0x17
 4693 0011 00       		.byte	0
 4694 0012 00       		.byte	0
 4695 0013 02       		.uleb128 0x2
 4696 0014 16       		.uleb128 0x16
 4697 0015 00       		.byte	0
 4698 0016 03       		.uleb128 0x3
 4699 0017 0E       		.uleb128 0xe
 4700 0018 3A       		.uleb128 0x3a
 4701 0019 0B       		.uleb128 0xb
 4702 001a 3B       		.uleb128 0x3b
 4703 001b 0B       		.uleb128 0xb
 4704 001c 49       		.uleb128 0x49
 4705 001d 13       		.uleb128 0x13
 4706 001e 00       		.byte	0
 4707 001f 00       		.byte	0
 4708 0020 03       		.uleb128 0x3
 4709 0021 24       		.uleb128 0x24
 4710 0022 00       		.byte	0
 4711 0023 0B       		.uleb128 0xb
 4712 0024 0B       		.uleb128 0xb
 4713 0025 3E       		.uleb128 0x3e
 4714 0026 0B       		.uleb128 0xb
 4715 0027 03       		.uleb128 0x3
 4716 0028 0E       		.uleb128 0xe
 4717 0029 00       		.byte	0
 4718 002a 00       		.byte	0
 4719 002b 04       		.uleb128 0x4
 4720 002c 24       		.uleb128 0x24
 4721 002d 00       		.byte	0
 4722 002e 0B       		.uleb128 0xb
 4723 002f 0B       		.uleb128 0xb
 4724 0030 3E       		.uleb128 0x3e
 4725 0031 0B       		.uleb128 0xb
 4726 0032 03       		.uleb128 0x3
 4727 0033 08       		.uleb128 0x8
 4728 0034 00       		.byte	0
 4729 0035 00       		.byte	0
 4730 0036 05       		.uleb128 0x5
 4731 0037 0F       		.uleb128 0xf
 4732 0038 00       		.byte	0
 4733 0039 0B       		.uleb128 0xb
ARM GAS  C:\Users\jorti\AppData\Local\Temp\ccCX4ftZ.s 			page 111


 4734 003a 0B       		.uleb128 0xb
 4735 003b 49       		.uleb128 0x49
 4736 003c 13       		.uleb128 0x13
 4737 003d 00       		.byte	0
 4738 003e 00       		.byte	0
 4739 003f 06       		.uleb128 0x6
 4740 0040 15       		.uleb128 0x15
 4741 0041 01       		.byte	0x1
 4742 0042 27       		.uleb128 0x27
 4743 0043 19       		.uleb128 0x19
 4744 0044 01       		.uleb128 0x1
 4745 0045 13       		.uleb128 0x13
 4746 0046 00       		.byte	0
 4747 0047 00       		.byte	0
 4748 0048 07       		.uleb128 0x7
 4749 0049 05       		.uleb128 0x5
 4750 004a 00       		.byte	0
 4751 004b 49       		.uleb128 0x49
 4752 004c 13       		.uleb128 0x13
 4753 004d 00       		.byte	0
 4754 004e 00       		.byte	0
 4755 004f 08       		.uleb128 0x8
 4756 0050 0F       		.uleb128 0xf
 4757 0051 00       		.byte	0
 4758 0052 0B       		.uleb128 0xb
 4759 0053 0B       		.uleb128 0xb
 4760 0054 00       		.byte	0
 4761 0055 00       		.byte	0
 4762 0056 09       		.uleb128 0x9
 4763 0057 16       		.uleb128 0x16
 4764 0058 00       		.byte	0
 4765 0059 03       		.uleb128 0x3
 4766 005a 0E       		.uleb128 0xe
 4767 005b 3A       		.uleb128 0x3a
 4768 005c 0B       		.uleb128 0xb
 4769 005d 3B       		.uleb128 0x3b
 4770 005e 05       		.uleb128 0x5
 4771 005f 49       		.uleb128 0x49
 4772 0060 13       		.uleb128 0x13
 4773 0061 00       		.byte	0
 4774 0062 00       		.byte	0
 4775 0063 0A       		.uleb128 0xa
 4776 0064 04       		.uleb128 0x4
 4777 0065 01       		.byte	0x1
 4778 0066 03       		.uleb128 0x3
 4779 0067 0E       		.uleb128 0xe
 4780 0068 0B       		.uleb128 0xb
 4781 0069 0B       		.uleb128 0xb
 4782 006a 49       		.uleb128 0x49
 4783 006b 13       		.uleb128 0x13
 4784 006c 3A       		.uleb128 0x3a
 4785 006d 0B       		.uleb128 0xb
 4786 006e 3B       		.uleb128 0x3b
 4787 006f 05       		.uleb128 0x5
 4788 0070 01       		.uleb128 0x1
 4789 0071 13       		.uleb128 0x13
 4790 0072 00       		.byte	0
ARM GAS  C:\Users\jorti\AppData\Local\Temp\ccCX4ftZ.s 			page 112


 4791 0073 00       		.byte	0
 4792 0074 0B       		.uleb128 0xb
 4793 0075 28       		.uleb128 0x28
 4794 0076 00       		.byte	0
 4795 0077 03       		.uleb128 0x3
 4796 0078 0E       		.uleb128 0xe
 4797 0079 1C       		.uleb128 0x1c
 4798 007a 0B       		.uleb128 0xb
 4799 007b 00       		.byte	0
 4800 007c 00       		.byte	0
 4801 007d 0C       		.uleb128 0xc
 4802 007e 28       		.uleb128 0x28
 4803 007f 00       		.byte	0
 4804 0080 03       		.uleb128 0x3
 4805 0081 0E       		.uleb128 0xe
 4806 0082 1C       		.uleb128 0x1c
 4807 0083 05       		.uleb128 0x5
 4808 0084 00       		.byte	0
 4809 0085 00       		.byte	0
 4810 0086 0D       		.uleb128 0xd
 4811 0087 13       		.uleb128 0x13
 4812 0088 01       		.byte	0x1
 4813 0089 03       		.uleb128 0x3
 4814 008a 0E       		.uleb128 0xe
 4815 008b 0B       		.uleb128 0xb
 4816 008c 0B       		.uleb128 0xb
 4817 008d 3A       		.uleb128 0x3a
 4818 008e 0B       		.uleb128 0xb
 4819 008f 3B       		.uleb128 0x3b
 4820 0090 05       		.uleb128 0x5
 4821 0091 01       		.uleb128 0x1
 4822 0092 13       		.uleb128 0x13
 4823 0093 00       		.byte	0
 4824 0094 00       		.byte	0
 4825 0095 0E       		.uleb128 0xe
 4826 0096 0D       		.uleb128 0xd
 4827 0097 00       		.byte	0
 4828 0098 03       		.uleb128 0x3
 4829 0099 0E       		.uleb128 0xe
 4830 009a 3A       		.uleb128 0x3a
 4831 009b 0B       		.uleb128 0xb
 4832 009c 3B       		.uleb128 0x3b
 4833 009d 05       		.uleb128 0x5
 4834 009e 49       		.uleb128 0x49
 4835 009f 13       		.uleb128 0x13
 4836 00a0 38       		.uleb128 0x38
 4837 00a1 0B       		.uleb128 0xb
 4838 00a2 00       		.byte	0
 4839 00a3 00       		.byte	0
 4840 00a4 0F       		.uleb128 0xf
 4841 00a5 0D       		.uleb128 0xd
 4842 00a6 00       		.byte	0
 4843 00a7 03       		.uleb128 0x3
 4844 00a8 08       		.uleb128 0x8
 4845 00a9 3A       		.uleb128 0x3a
 4846 00aa 0B       		.uleb128 0xb
 4847 00ab 3B       		.uleb128 0x3b
ARM GAS  C:\Users\jorti\AppData\Local\Temp\ccCX4ftZ.s 			page 113


 4848 00ac 05       		.uleb128 0x5
 4849 00ad 49       		.uleb128 0x49
 4850 00ae 13       		.uleb128 0x13
 4851 00af 38       		.uleb128 0x38
 4852 00b0 0B       		.uleb128 0xb
 4853 00b1 00       		.byte	0
 4854 00b2 00       		.byte	0
 4855 00b3 10       		.uleb128 0x10
 4856 00b4 01       		.uleb128 0x1
 4857 00b5 01       		.byte	0x1
 4858 00b6 49       		.uleb128 0x49
 4859 00b7 13       		.uleb128 0x13
 4860 00b8 01       		.uleb128 0x1
 4861 00b9 13       		.uleb128 0x13
 4862 00ba 00       		.byte	0
 4863 00bb 00       		.byte	0
 4864 00bc 11       		.uleb128 0x11
 4865 00bd 21       		.uleb128 0x21
 4866 00be 00       		.byte	0
 4867 00bf 49       		.uleb128 0x49
 4868 00c0 13       		.uleb128 0x13
 4869 00c1 2F       		.uleb128 0x2f
 4870 00c2 0B       		.uleb128 0xb
 4871 00c3 00       		.byte	0
 4872 00c4 00       		.byte	0
 4873 00c5 12       		.uleb128 0x12
 4874 00c6 2E       		.uleb128 0x2e
 4875 00c7 01       		.byte	0x1
 4876 00c8 3F       		.uleb128 0x3f
 4877 00c9 19       		.uleb128 0x19
 4878 00ca 03       		.uleb128 0x3
 4879 00cb 0E       		.uleb128 0xe
 4880 00cc 3A       		.uleb128 0x3a
 4881 00cd 0B       		.uleb128 0xb
 4882 00ce 3B       		.uleb128 0x3b
 4883 00cf 05       		.uleb128 0x5
 4884 00d0 27       		.uleb128 0x27
 4885 00d1 19       		.uleb128 0x19
 4886 00d2 49       		.uleb128 0x49
 4887 00d3 13       		.uleb128 0x13
 4888 00d4 11       		.uleb128 0x11
 4889 00d5 01       		.uleb128 0x1
 4890 00d6 12       		.uleb128 0x12
 4891 00d7 06       		.uleb128 0x6
 4892 00d8 40       		.uleb128 0x40
 4893 00d9 18       		.uleb128 0x18
 4894 00da 9742     		.uleb128 0x2117
 4895 00dc 19       		.uleb128 0x19
 4896 00dd 01       		.uleb128 0x1
 4897 00de 13       		.uleb128 0x13
 4898 00df 00       		.byte	0
 4899 00e0 00       		.byte	0
 4900 00e1 13       		.uleb128 0x13
 4901 00e2 05       		.uleb128 0x5
 4902 00e3 00       		.byte	0
 4903 00e4 03       		.uleb128 0x3
 4904 00e5 0E       		.uleb128 0xe
ARM GAS  C:\Users\jorti\AppData\Local\Temp\ccCX4ftZ.s 			page 114


 4905 00e6 3A       		.uleb128 0x3a
 4906 00e7 0B       		.uleb128 0xb
 4907 00e8 3B       		.uleb128 0x3b
 4908 00e9 05       		.uleb128 0x5
 4909 00ea 49       		.uleb128 0x49
 4910 00eb 13       		.uleb128 0x13
 4911 00ec 02       		.uleb128 0x2
 4912 00ed 17       		.uleb128 0x17
 4913 00ee 00       		.byte	0
 4914 00ef 00       		.byte	0
 4915 00f0 14       		.uleb128 0x14
 4916 00f1 05       		.uleb128 0x5
 4917 00f2 00       		.byte	0
 4918 00f3 03       		.uleb128 0x3
 4919 00f4 08       		.uleb128 0x8
 4920 00f5 3A       		.uleb128 0x3a
 4921 00f6 0B       		.uleb128 0xb
 4922 00f7 3B       		.uleb128 0x3b
 4923 00f8 05       		.uleb128 0x5
 4924 00f9 49       		.uleb128 0x49
 4925 00fa 13       		.uleb128 0x13
 4926 00fb 02       		.uleb128 0x2
 4927 00fc 17       		.uleb128 0x17
 4928 00fd 00       		.byte	0
 4929 00fe 00       		.byte	0
 4930 00ff 15       		.uleb128 0x15
 4931 0100 34       		.uleb128 0x34
 4932 0101 00       		.byte	0
 4933 0102 03       		.uleb128 0x3
 4934 0103 0E       		.uleb128 0xe
 4935 0104 3A       		.uleb128 0x3a
 4936 0105 0B       		.uleb128 0xb
 4937 0106 3B       		.uleb128 0x3b
 4938 0107 05       		.uleb128 0x5
 4939 0108 49       		.uleb128 0x49
 4940 0109 13       		.uleb128 0x13
 4941 010a 02       		.uleb128 0x2
 4942 010b 17       		.uleb128 0x17
 4943 010c 00       		.byte	0
 4944 010d 00       		.byte	0
 4945 010e 16       		.uleb128 0x16
 4946 010f 34       		.uleb128 0x34
 4947 0110 00       		.byte	0
 4948 0111 03       		.uleb128 0x3
 4949 0112 08       		.uleb128 0x8
 4950 0113 3A       		.uleb128 0x3a
 4951 0114 0B       		.uleb128 0xb
 4952 0115 3B       		.uleb128 0x3b
 4953 0116 05       		.uleb128 0x5
 4954 0117 49       		.uleb128 0x49
 4955 0118 13       		.uleb128 0x13
 4956 0119 02       		.uleb128 0x2
 4957 011a 17       		.uleb128 0x17
 4958 011b 00       		.byte	0
 4959 011c 00       		.byte	0
 4960 011d 17       		.uleb128 0x17
 4961 011e 898201   		.uleb128 0x4109
ARM GAS  C:\Users\jorti\AppData\Local\Temp\ccCX4ftZ.s 			page 115


 4962 0121 00       		.byte	0
 4963 0122 11       		.uleb128 0x11
 4964 0123 01       		.uleb128 0x1
 4965 0124 31       		.uleb128 0x31
 4966 0125 13       		.uleb128 0x13
 4967 0126 00       		.byte	0
 4968 0127 00       		.byte	0
 4969 0128 18       		.uleb128 0x18
 4970 0129 898201   		.uleb128 0x4109
 4971 012c 01       		.byte	0x1
 4972 012d 11       		.uleb128 0x11
 4973 012e 01       		.uleb128 0x1
 4974 012f 31       		.uleb128 0x31
 4975 0130 13       		.uleb128 0x13
 4976 0131 01       		.uleb128 0x1
 4977 0132 13       		.uleb128 0x13
 4978 0133 00       		.byte	0
 4979 0134 00       		.byte	0
 4980 0135 19       		.uleb128 0x19
 4981 0136 8A8201   		.uleb128 0x410a
 4982 0139 00       		.byte	0
 4983 013a 02       		.uleb128 0x2
 4984 013b 18       		.uleb128 0x18
 4985 013c 9142     		.uleb128 0x2111
 4986 013e 18       		.uleb128 0x18
 4987 013f 00       		.byte	0
 4988 0140 00       		.byte	0
 4989 0141 1A       		.uleb128 0x1a
 4990 0142 2E       		.uleb128 0x2e
 4991 0143 01       		.byte	0x1
 4992 0144 3F       		.uleb128 0x3f
 4993 0145 19       		.uleb128 0x19
 4994 0146 03       		.uleb128 0x3
 4995 0147 0E       		.uleb128 0xe
 4996 0148 3A       		.uleb128 0x3a
 4997 0149 0B       		.uleb128 0xb
 4998 014a 3B       		.uleb128 0x3b
 4999 014b 05       		.uleb128 0x5
 5000 014c 27       		.uleb128 0x27
 5001 014d 19       		.uleb128 0x19
 5002 014e 11       		.uleb128 0x11
 5003 014f 01       		.uleb128 0x1
 5004 0150 12       		.uleb128 0x12
 5005 0151 06       		.uleb128 0x6
 5006 0152 40       		.uleb128 0x40
 5007 0153 18       		.uleb128 0x18
 5008 0154 9742     		.uleb128 0x2117
 5009 0156 19       		.uleb128 0x19
 5010 0157 01       		.uleb128 0x1
 5011 0158 13       		.uleb128 0x13
 5012 0159 00       		.byte	0
 5013 015a 00       		.byte	0
 5014 015b 1B       		.uleb128 0x1b
 5015 015c 898201   		.uleb128 0x4109
 5016 015f 01       		.byte	0x1
 5017 0160 11       		.uleb128 0x11
 5018 0161 01       		.uleb128 0x1
ARM GAS  C:\Users\jorti\AppData\Local\Temp\ccCX4ftZ.s 			page 116


 5019 0162 31       		.uleb128 0x31
 5020 0163 13       		.uleb128 0x13
 5021 0164 00       		.byte	0
 5022 0165 00       		.byte	0
 5023 0166 1C       		.uleb128 0x1c
 5024 0167 34       		.uleb128 0x34
 5025 0168 00       		.byte	0
 5026 0169 03       		.uleb128 0x3
 5027 016a 0E       		.uleb128 0xe
 5028 016b 3A       		.uleb128 0x3a
 5029 016c 0B       		.uleb128 0xb
 5030 016d 3B       		.uleb128 0x3b
 5031 016e 05       		.uleb128 0x5
 5032 016f 49       		.uleb128 0x49
 5033 0170 13       		.uleb128 0x13
 5034 0171 02       		.uleb128 0x2
 5035 0172 18       		.uleb128 0x18
 5036 0173 00       		.byte	0
 5037 0174 00       		.byte	0
 5038 0175 1D       		.uleb128 0x1d
 5039 0176 05       		.uleb128 0x5
 5040 0177 00       		.byte	0
 5041 0178 03       		.uleb128 0x3
 5042 0179 0E       		.uleb128 0xe
 5043 017a 3A       		.uleb128 0x3a
 5044 017b 0B       		.uleb128 0xb
 5045 017c 3B       		.uleb128 0x3b
 5046 017d 05       		.uleb128 0x5
 5047 017e 49       		.uleb128 0x49
 5048 017f 13       		.uleb128 0x13
 5049 0180 02       		.uleb128 0x2
 5050 0181 18       		.uleb128 0x18
 5051 0182 00       		.byte	0
 5052 0183 00       		.byte	0
 5053 0184 1E       		.uleb128 0x1e
 5054 0185 2E       		.uleb128 0x2e
 5055 0186 01       		.byte	0x1
 5056 0187 3F       		.uleb128 0x3f
 5057 0188 19       		.uleb128 0x19
 5058 0189 03       		.uleb128 0x3
 5059 018a 0E       		.uleb128 0xe
 5060 018b 3A       		.uleb128 0x3a
 5061 018c 0B       		.uleb128 0xb
 5062 018d 3B       		.uleb128 0x3b
 5063 018e 0B       		.uleb128 0xb
 5064 018f 27       		.uleb128 0x27
 5065 0190 19       		.uleb128 0x19
 5066 0191 11       		.uleb128 0x11
 5067 0192 01       		.uleb128 0x1
 5068 0193 12       		.uleb128 0x12
 5069 0194 06       		.uleb128 0x6
 5070 0195 40       		.uleb128 0x40
 5071 0196 18       		.uleb128 0x18
 5072 0197 9742     		.uleb128 0x2117
 5073 0199 19       		.uleb128 0x19
 5074 019a 01       		.uleb128 0x1
 5075 019b 13       		.uleb128 0x13
ARM GAS  C:\Users\jorti\AppData\Local\Temp\ccCX4ftZ.s 			page 117


 5076 019c 00       		.byte	0
 5077 019d 00       		.byte	0
 5078 019e 1F       		.uleb128 0x1f
 5079 019f 05       		.uleb128 0x5
 5080 01a0 00       		.byte	0
 5081 01a1 03       		.uleb128 0x3
 5082 01a2 0E       		.uleb128 0xe
 5083 01a3 3A       		.uleb128 0x3a
 5084 01a4 0B       		.uleb128 0xb
 5085 01a5 3B       		.uleb128 0x3b
 5086 01a6 0B       		.uleb128 0xb
 5087 01a7 49       		.uleb128 0x49
 5088 01a8 13       		.uleb128 0x13
 5089 01a9 02       		.uleb128 0x2
 5090 01aa 17       		.uleb128 0x17
 5091 01ab 00       		.byte	0
 5092 01ac 00       		.byte	0
 5093 01ad 20       		.uleb128 0x20
 5094 01ae 34       		.uleb128 0x34
 5095 01af 00       		.byte	0
 5096 01b0 03       		.uleb128 0x3
 5097 01b1 0E       		.uleb128 0xe
 5098 01b2 3A       		.uleb128 0x3a
 5099 01b3 0B       		.uleb128 0xb
 5100 01b4 3B       		.uleb128 0x3b
 5101 01b5 0B       		.uleb128 0xb
 5102 01b6 49       		.uleb128 0x49
 5103 01b7 13       		.uleb128 0x13
 5104 01b8 02       		.uleb128 0x2
 5105 01b9 17       		.uleb128 0x17
 5106 01ba 00       		.byte	0
 5107 01bb 00       		.byte	0
 5108 01bc 21       		.uleb128 0x21
 5109 01bd 2E       		.uleb128 0x2e
 5110 01be 01       		.byte	0x1
 5111 01bf 3F       		.uleb128 0x3f
 5112 01c0 19       		.uleb128 0x19
 5113 01c1 03       		.uleb128 0x3
 5114 01c2 0E       		.uleb128 0xe
 5115 01c3 3A       		.uleb128 0x3a
 5116 01c4 0B       		.uleb128 0xb
 5117 01c5 3B       		.uleb128 0x3b
 5118 01c6 0B       		.uleb128 0xb
 5119 01c7 27       		.uleb128 0x27
 5120 01c8 19       		.uleb128 0x19
 5121 01c9 49       		.uleb128 0x49
 5122 01ca 13       		.uleb128 0x13
 5123 01cb 11       		.uleb128 0x11
 5124 01cc 01       		.uleb128 0x1
 5125 01cd 12       		.uleb128 0x12
 5126 01ce 06       		.uleb128 0x6
 5127 01cf 40       		.uleb128 0x40
 5128 01d0 18       		.uleb128 0x18
 5129 01d1 9742     		.uleb128 0x2117
 5130 01d3 19       		.uleb128 0x19
 5131 01d4 01       		.uleb128 0x1
 5132 01d5 13       		.uleb128 0x13
ARM GAS  C:\Users\jorti\AppData\Local\Temp\ccCX4ftZ.s 			page 118


 5133 01d6 00       		.byte	0
 5134 01d7 00       		.byte	0
 5135 01d8 22       		.uleb128 0x22
 5136 01d9 05       		.uleb128 0x5
 5137 01da 00       		.byte	0
 5138 01db 03       		.uleb128 0x3
 5139 01dc 08       		.uleb128 0x8
 5140 01dd 3A       		.uleb128 0x3a
 5141 01de 0B       		.uleb128 0xb
 5142 01df 3B       		.uleb128 0x3b
 5143 01e0 0B       		.uleb128 0xb
 5144 01e1 49       		.uleb128 0x49
 5145 01e2 13       		.uleb128 0x13
 5146 01e3 02       		.uleb128 0x2
 5147 01e4 17       		.uleb128 0x17
 5148 01e5 00       		.byte	0
 5149 01e6 00       		.byte	0
 5150 01e7 23       		.uleb128 0x23
 5151 01e8 34       		.uleb128 0x34
 5152 01e9 00       		.byte	0
 5153 01ea 03       		.uleb128 0x3
 5154 01eb 08       		.uleb128 0x8
 5155 01ec 3A       		.uleb128 0x3a
 5156 01ed 0B       		.uleb128 0xb
 5157 01ee 3B       		.uleb128 0x3b
 5158 01ef 0B       		.uleb128 0xb
 5159 01f0 49       		.uleb128 0x49
 5160 01f1 13       		.uleb128 0x13
 5161 01f2 02       		.uleb128 0x2
 5162 01f3 17       		.uleb128 0x17
 5163 01f4 00       		.byte	0
 5164 01f5 00       		.byte	0
 5165 01f6 24       		.uleb128 0x24
 5166 01f7 34       		.uleb128 0x34
 5167 01f8 00       		.byte	0
 5168 01f9 03       		.uleb128 0x3
 5169 01fa 0E       		.uleb128 0xe
 5170 01fb 3A       		.uleb128 0x3a
 5171 01fc 0B       		.uleb128 0xb
 5172 01fd 3B       		.uleb128 0x3b
 5173 01fe 05       		.uleb128 0x5
 5174 01ff 49       		.uleb128 0x49
 5175 0200 13       		.uleb128 0x13
 5176 0201 00       		.byte	0
 5177 0202 00       		.byte	0
 5178 0203 25       		.uleb128 0x25
 5179 0204 34       		.uleb128 0x34
 5180 0205 00       		.byte	0
 5181 0206 03       		.uleb128 0x3
 5182 0207 0E       		.uleb128 0xe
 5183 0208 3A       		.uleb128 0x3a
 5184 0209 0B       		.uleb128 0xb
 5185 020a 3B       		.uleb128 0x3b
 5186 020b 05       		.uleb128 0x5
 5187 020c 49       		.uleb128 0x49
 5188 020d 13       		.uleb128 0x13
 5189 020e 3F       		.uleb128 0x3f
ARM GAS  C:\Users\jorti\AppData\Local\Temp\ccCX4ftZ.s 			page 119


 5190 020f 19       		.uleb128 0x19
 5191 0210 3C       		.uleb128 0x3c
 5192 0211 19       		.uleb128 0x19
 5193 0212 00       		.byte	0
 5194 0213 00       		.byte	0
 5195 0214 26       		.uleb128 0x26
 5196 0215 2E       		.uleb128 0x2e
 5197 0216 00       		.byte	0
 5198 0217 3F       		.uleb128 0x3f
 5199 0218 19       		.uleb128 0x19
 5200 0219 3C       		.uleb128 0x3c
 5201 021a 19       		.uleb128 0x19
 5202 021b 6E       		.uleb128 0x6e
 5203 021c 0E       		.uleb128 0xe
 5204 021d 03       		.uleb128 0x3
 5205 021e 0E       		.uleb128 0xe
 5206 021f 3A       		.uleb128 0x3a
 5207 0220 0B       		.uleb128 0xb
 5208 0221 3B       		.uleb128 0x3b
 5209 0222 05       		.uleb128 0x5
 5210 0223 00       		.byte	0
 5211 0224 00       		.byte	0
 5212 0225 00       		.byte	0
 5213              		.section	.debug_loc,"",%progbits
 5214              	.Ldebug_loc0:
 5215              	.LLST0:
 5216 0000 00000000 		.4byte	.LVL0
 5217 0004 4B000000 		.4byte	.LVL2-1
 5218 0008 0100     		.2byte	0x1
 5219 000a 50       		.byte	0x50
 5220 000b 4B000000 		.4byte	.LVL2-1
 5221 000f 98000000 		.4byte	.LVL16
 5222 0013 0100     		.2byte	0x1
 5223 0015 55       		.byte	0x55
 5224 0016 98000000 		.4byte	.LVL16
 5225 001a A4000000 		.4byte	.LFE4
 5226 001e 0400     		.2byte	0x4
 5227 0020 F3       		.byte	0xf3
 5228 0021 01       		.uleb128 0x1
 5229 0022 50       		.byte	0x50
 5230 0023 9F       		.byte	0x9f
 5231 0024 00000000 		.4byte	0
 5232 0028 00000000 		.4byte	0
 5233              	.LLST1:
 5234 002c 00000000 		.4byte	.LVL0
 5235 0030 4B000000 		.4byte	.LVL2-1
 5236 0034 0100     		.2byte	0x1
 5237 0036 51       		.byte	0x51
 5238 0037 4B000000 		.4byte	.LVL2-1
 5239 003b A4000000 		.4byte	.LFE4
 5240 003f 0400     		.2byte	0x4
 5241 0041 F3       		.byte	0xf3
 5242 0042 01       		.uleb128 0x1
 5243 0043 51       		.byte	0x51
 5244 0044 9F       		.byte	0x9f
 5245 0045 00000000 		.4byte	0
 5246 0049 00000000 		.4byte	0
ARM GAS  C:\Users\jorti\AppData\Local\Temp\ccCX4ftZ.s 			page 120


 5247              	.LLST2:
 5248 004d 00000000 		.4byte	.LVL0
 5249 0051 4B000000 		.4byte	.LVL2-1
 5250 0055 0100     		.2byte	0x1
 5251 0057 52       		.byte	0x52
 5252 0058 4B000000 		.4byte	.LVL2-1
 5253 005c 98000000 		.4byte	.LVL16
 5254 0060 0100     		.2byte	0x1
 5255 0062 57       		.byte	0x57
 5256 0063 98000000 		.4byte	.LVL16
 5257 0067 A4000000 		.4byte	.LFE4
 5258 006b 0400     		.2byte	0x4
 5259 006d F3       		.byte	0xf3
 5260 006e 01       		.uleb128 0x1
 5261 006f 52       		.byte	0x52
 5262 0070 9F       		.byte	0x9f
 5263 0071 00000000 		.4byte	0
 5264 0075 00000000 		.4byte	0
 5265              	.LLST3:
 5266 0079 4E000000 		.4byte	.LVL3
 5267 007d 98000000 		.4byte	.LVL16
 5268 0081 0300     		.2byte	0x3
 5269 0083 75       		.byte	0x75
 5270 0084 08       		.sleb128 8
 5271 0085 9F       		.byte	0x9f
 5272 0086 00000000 		.4byte	0
 5273 008a 00000000 		.4byte	0
 5274              	.LLST4:
 5275 008e 6A000000 		.4byte	.LVL9
 5276 0092 73000000 		.4byte	.LVL10-1
 5277 0096 0200     		.2byte	0x2
 5278 0098 73       		.byte	0x73
 5279 0099 08       		.sleb128 8
 5280 009a 00000000 		.4byte	0
 5281 009e 00000000 		.4byte	0
 5282              	.LLST5:
 5283 00a2 64000000 		.4byte	.LVL7
 5284 00a6 68000000 		.4byte	.LVL8
 5285 00aa 0100     		.2byte	0x1
 5286 00ac 50       		.byte	0x50
 5287 00ad 68000000 		.4byte	.LVL8
 5288 00b1 98000000 		.4byte	.LVL16
 5289 00b5 0100     		.2byte	0x1
 5290 00b7 59       		.byte	0x59
 5291 00b8 00000000 		.4byte	0
 5292 00bc 00000000 		.4byte	0
 5293              	.LLST6:
 5294 00c0 5E000000 		.4byte	.LVL5
 5295 00c4 68000000 		.4byte	.LVL8
 5296 00c8 0200     		.2byte	0x2
 5297 00ca 30       		.byte	0x30
 5298 00cb 9F       		.byte	0x9f
 5299 00cc 68000000 		.4byte	.LVL8
 5300 00d0 76000000 		.4byte	.LVL11
 5301 00d4 0100     		.2byte	0x1
 5302 00d6 54       		.byte	0x54
 5303 00d7 78000000 		.4byte	.LVL12
ARM GAS  C:\Users\jorti\AppData\Local\Temp\ccCX4ftZ.s 			page 121


 5304 00db 98000000 		.4byte	.LVL16
 5305 00df 0100     		.2byte	0x1
 5306 00e1 54       		.byte	0x54
 5307 00e2 00000000 		.4byte	0
 5308 00e6 00000000 		.4byte	0
 5309              	.LLST7:
 5310 00ea 04000000 		.4byte	.LVL1
 5311 00ee 4E000000 		.4byte	.LVL3
 5312 00f2 0200     		.2byte	0x2
 5313 00f4 30       		.byte	0x30
 5314 00f5 9F       		.byte	0x9f
 5315 00f6 4E000000 		.4byte	.LVL3
 5316 00fa 55000000 		.4byte	.LVL4-1
 5317 00fe 0100     		.2byte	0x1
 5318 0100 50       		.byte	0x50
 5319 0101 55000000 		.4byte	.LVL4-1
 5320 0105 5E000000 		.4byte	.LVL5
 5321 0109 0100     		.2byte	0x1
 5322 010b 58       		.byte	0x58
 5323 010c 5E000000 		.4byte	.LVL5
 5324 0110 61000000 		.4byte	.LVL6-1
 5325 0114 0100     		.2byte	0x1
 5326 0116 50       		.byte	0x50
 5327 0117 61000000 		.4byte	.LVL6-1
 5328 011b 98000000 		.4byte	.LVL16
 5329 011f 0100     		.2byte	0x1
 5330 0121 58       		.byte	0x58
 5331 0122 00000000 		.4byte	0
 5332 0126 00000000 		.4byte	0
 5333              	.LLST8:
 5334 012a 00000000 		.4byte	.LVL17
 5335 012e 10000000 		.4byte	.LVL19
 5336 0132 0100     		.2byte	0x1
 5337 0134 50       		.byte	0x50
 5338 0135 10000000 		.4byte	.LVL19
 5339 0139 12000000 		.4byte	.LVL20
 5340 013d 0400     		.2byte	0x4
 5341 013f F3       		.byte	0xf3
 5342 0140 01       		.uleb128 0x1
 5343 0141 50       		.byte	0x50
 5344 0142 9F       		.byte	0x9f
 5345 0143 12000000 		.4byte	.LVL20
 5346 0147 17000000 		.4byte	.LVL21-1
 5347 014b 0100     		.2byte	0x1
 5348 014d 50       		.byte	0x50
 5349 014e 17000000 		.4byte	.LVL21-1
 5350 0152 2C000000 		.4byte	.LVL24
 5351 0156 0100     		.2byte	0x1
 5352 0158 55       		.byte	0x55
 5353 0159 2C000000 		.4byte	.LVL24
 5354 015d 34000000 		.4byte	.LFE5
 5355 0161 0400     		.2byte	0x4
 5356 0163 F3       		.byte	0xf3
 5357 0164 01       		.uleb128 0x1
 5358 0165 50       		.byte	0x50
 5359 0166 9F       		.byte	0x9f
 5360 0167 00000000 		.4byte	0
ARM GAS  C:\Users\jorti\AppData\Local\Temp\ccCX4ftZ.s 			page 122


 5361 016b 00000000 		.4byte	0
 5362              	.LLST9:
 5363 016f 20000000 		.4byte	.LVL22
 5364 0173 2C000000 		.4byte	.LVL24
 5365 0177 0100     		.2byte	0x1
 5366 0179 54       		.byte	0x54
 5367 017a 2C000000 		.4byte	.LVL24
 5368 017e 34000000 		.4byte	.LFE5
 5369 0182 0100     		.2byte	0x1
 5370 0184 50       		.byte	0x50
 5371 0185 00000000 		.4byte	0
 5372 0189 00000000 		.4byte	0
 5373              	.LLST10:
 5374 018d 02000000 		.4byte	.LVL18
 5375 0191 18000000 		.4byte	.LVL21
 5376 0195 0200     		.2byte	0x2
 5377 0197 30       		.byte	0x30
 5378 0198 9F       		.byte	0x9f
 5379 0199 18000000 		.4byte	.LVL21
 5380 019d 23000000 		.4byte	.LVL23-1
 5381 01a1 0100     		.2byte	0x1
 5382 01a3 50       		.byte	0x50
 5383 01a4 00000000 		.4byte	0
 5384 01a8 00000000 		.4byte	0
 5385              	.LLST11:
 5386 01ac 00000000 		.4byte	.LVL25
 5387 01b0 1B000000 		.4byte	.LVL28-1
 5388 01b4 0100     		.2byte	0x1
 5389 01b6 50       		.byte	0x50
 5390 01b7 1B000000 		.4byte	.LVL28-1
 5391 01bb 24000000 		.4byte	.LFE7
 5392 01bf 0400     		.2byte	0x4
 5393 01c1 F3       		.byte	0xf3
 5394 01c2 01       		.uleb128 0x1
 5395 01c3 50       		.byte	0x50
 5396 01c4 9F       		.byte	0x9f
 5397 01c5 00000000 		.4byte	0
 5398 01c9 00000000 		.4byte	0
 5399              	.LLST12:
 5400 01cd 00000000 		.4byte	.LVL25
 5401 01d1 1B000000 		.4byte	.LVL28-1
 5402 01d5 0100     		.2byte	0x1
 5403 01d7 51       		.byte	0x51
 5404 01d8 1B000000 		.4byte	.LVL28-1
 5405 01dc 24000000 		.4byte	.LFE7
 5406 01e0 0400     		.2byte	0x4
 5407 01e2 F3       		.byte	0xf3
 5408 01e3 01       		.uleb128 0x1
 5409 01e4 51       		.byte	0x51
 5410 01e5 9F       		.byte	0x9f
 5411 01e6 00000000 		.4byte	0
 5412 01ea 00000000 		.4byte	0
 5413              	.LLST13:
 5414 01ee 00000000 		.4byte	.LVL25
 5415 01f2 18000000 		.4byte	.LVL27
 5416 01f6 0100     		.2byte	0x1
 5417 01f8 52       		.byte	0x52
ARM GAS  C:\Users\jorti\AppData\Local\Temp\ccCX4ftZ.s 			page 123


 5418 01f9 18000000 		.4byte	.LVL27
 5419 01fd 1B000000 		.4byte	.LVL28-1
 5420 0201 0300     		.2byte	0x3
 5421 0203 74       		.byte	0x74
 5422 0204 8001     		.sleb128 128
 5423 0206 1B000000 		.4byte	.LVL28-1
 5424 020a 24000000 		.4byte	.LFE7
 5425 020e 0400     		.2byte	0x4
 5426 0210 F3       		.byte	0xf3
 5427 0211 01       		.uleb128 0x1
 5428 0212 52       		.byte	0x52
 5429 0213 9F       		.byte	0x9f
 5430 0214 00000000 		.4byte	0
 5431 0218 00000000 		.4byte	0
 5432              	.LLST14:
 5433 021c 00000000 		.4byte	.LVL25
 5434 0220 10000000 		.4byte	.LVL26
 5435 0224 0100     		.2byte	0x1
 5436 0226 53       		.byte	0x53
 5437 0227 10000000 		.4byte	.LVL26
 5438 022b 1B000000 		.4byte	.LVL28-1
 5439 022f 0300     		.2byte	0x3
 5440 0231 74       		.byte	0x74
 5441 0232 8801     		.sleb128 136
 5442 0234 1B000000 		.4byte	.LVL28-1
 5443 0238 24000000 		.4byte	.LFE7
 5444 023c 0400     		.2byte	0x4
 5445 023e F3       		.byte	0xf3
 5446 023f 01       		.uleb128 0x1
 5447 0240 53       		.byte	0x53
 5448 0241 9F       		.byte	0x9f
 5449 0242 00000000 		.4byte	0
 5450 0246 00000000 		.4byte	0
 5451              	.LLST15:
 5452 024a 00000000 		.4byte	.LVL25
 5453 024e 1E000000 		.4byte	.LVL29
 5454 0252 0200     		.2byte	0x2
 5455 0254 91       		.byte	0x91
 5456 0255 00       		.sleb128 0
 5457 0256 1E000000 		.4byte	.LVL29
 5458 025a 24000000 		.4byte	.LFE7
 5459 025e 0200     		.2byte	0x2
 5460 0260 7D       		.byte	0x7d
 5461 0261 00       		.sleb128 0
 5462 0262 00000000 		.4byte	0
 5463 0266 00000000 		.4byte	0
 5464              	.LLST16:
 5465 026a 00000000 		.4byte	.LVL30
 5466 026e 16000000 		.4byte	.LVL33
 5467 0272 0100     		.2byte	0x1
 5468 0274 50       		.byte	0x50
 5469 0275 16000000 		.4byte	.LVL33
 5470 0279 18000000 		.4byte	.LVL34
 5471 027d 0400     		.2byte	0x4
 5472 027f F3       		.byte	0xf3
 5473 0280 01       		.uleb128 0x1
 5474 0281 50       		.byte	0x50
ARM GAS  C:\Users\jorti\AppData\Local\Temp\ccCX4ftZ.s 			page 124


 5475 0282 9F       		.byte	0x9f
 5476 0283 18000000 		.4byte	.LVL34
 5477 0287 98000000 		.4byte	.LVL38
 5478 028b 0100     		.2byte	0x1
 5479 028d 50       		.byte	0x50
 5480 028e 98000000 		.4byte	.LVL38
 5481 0292 9A000000 		.4byte	.LVL39
 5482 0296 0400     		.2byte	0x4
 5483 0298 F3       		.byte	0xf3
 5484 0299 01       		.uleb128 0x1
 5485 029a 50       		.byte	0x50
 5486 029b 9F       		.byte	0x9f
 5487 029c 9A000000 		.4byte	.LVL39
 5488 02a0 C5000000 		.4byte	.LVL42-1
 5489 02a4 0100     		.2byte	0x1
 5490 02a6 50       		.byte	0x50
 5491 02a7 C5000000 		.4byte	.LVL42-1
 5492 02ab BC030000 		.4byte	.LVL124
 5493 02af 0100     		.2byte	0x1
 5494 02b1 55       		.byte	0x55
 5495 02b2 BC030000 		.4byte	.LVL124
 5496 02b6 CC030000 		.4byte	.LFE3
 5497 02ba 0400     		.2byte	0x4
 5498 02bc F3       		.byte	0xf3
 5499 02bd 01       		.uleb128 0x1
 5500 02be 50       		.byte	0x50
 5501 02bf 9F       		.byte	0x9f
 5502 02c0 00000000 		.4byte	0
 5503 02c4 00000000 		.4byte	0
 5504              	.LLST17:
 5505 02c8 00000000 		.4byte	.LVL30
 5506 02cc C5000000 		.4byte	.LVL42-1
 5507 02d0 0100     		.2byte	0x1
 5508 02d2 51       		.byte	0x51
 5509 02d3 C5000000 		.4byte	.LVL42-1
 5510 02d7 BC030000 		.4byte	.LVL124
 5511 02db 0100     		.2byte	0x1
 5512 02dd 58       		.byte	0x58
 5513 02de BC030000 		.4byte	.LVL124
 5514 02e2 CC030000 		.4byte	.LFE3
 5515 02e6 0400     		.2byte	0x4
 5516 02e8 F3       		.byte	0xf3
 5517 02e9 01       		.uleb128 0x1
 5518 02ea 51       		.byte	0x51
 5519 02eb 9F       		.byte	0x9f
 5520 02ec 00000000 		.4byte	0
 5521 02f0 00000000 		.4byte	0
 5522              	.LLST18:
 5523 02f4 00000000 		.4byte	.LVL30
 5524 02f8 C5000000 		.4byte	.LVL42-1
 5525 02fc 0100     		.2byte	0x1
 5526 02fe 52       		.byte	0x52
 5527 02ff C5000000 		.4byte	.LVL42-1
 5528 0303 BC030000 		.4byte	.LVL124
 5529 0307 0100     		.2byte	0x1
 5530 0309 5A       		.byte	0x5a
 5531 030a BC030000 		.4byte	.LVL124
ARM GAS  C:\Users\jorti\AppData\Local\Temp\ccCX4ftZ.s 			page 125


 5532 030e CC030000 		.4byte	.LFE3
 5533 0312 0400     		.2byte	0x4
 5534 0314 F3       		.byte	0xf3
 5535 0315 01       		.uleb128 0x1
 5536 0316 52       		.byte	0x52
 5537 0317 9F       		.byte	0x9f
 5538 0318 00000000 		.4byte	0
 5539 031c 00000000 		.4byte	0
 5540              	.LLST19:
 5541 0320 00000000 		.4byte	.LVL30
 5542 0324 12000000 		.4byte	.LVL32
 5543 0328 0100     		.2byte	0x1
 5544 032a 53       		.byte	0x53
 5545 032b 12000000 		.4byte	.LVL32
 5546 032f 18000000 		.4byte	.LVL34
 5547 0333 0400     		.2byte	0x4
 5548 0335 F3       		.byte	0xf3
 5549 0336 01       		.uleb128 0x1
 5550 0337 53       		.byte	0x53
 5551 0338 9F       		.byte	0x9f
 5552 0339 18000000 		.4byte	.LVL34
 5553 033d 1E000000 		.4byte	.LVL35
 5554 0341 0100     		.2byte	0x1
 5555 0343 53       		.byte	0x53
 5556 0344 1E000000 		.4byte	.LVL35
 5557 0348 22000000 		.4byte	.LVL36
 5558 034c 0400     		.2byte	0x4
 5559 034e F3       		.byte	0xf3
 5560 034f 01       		.uleb128 0x1
 5561 0350 53       		.byte	0x53
 5562 0351 9F       		.byte	0x9f
 5563 0352 22000000 		.4byte	.LVL36
 5564 0356 94000000 		.4byte	.LVL37
 5565 035a 0100     		.2byte	0x1
 5566 035c 53       		.byte	0x53
 5567 035d 94000000 		.4byte	.LVL37
 5568 0361 9A000000 		.4byte	.LVL39
 5569 0365 0400     		.2byte	0x4
 5570 0367 F3       		.byte	0xf3
 5571 0368 01       		.uleb128 0x1
 5572 0369 53       		.byte	0x53
 5573 036a 9F       		.byte	0x9f
 5574 036b 9A000000 		.4byte	.LVL39
 5575 036f C5000000 		.4byte	.LVL42-1
 5576 0373 0100     		.2byte	0x1
 5577 0375 53       		.byte	0x53
 5578 0376 C5000000 		.4byte	.LVL42-1
 5579 037a CC030000 		.4byte	.LFE3
 5580 037e 0400     		.2byte	0x4
 5581 0380 F3       		.byte	0xf3
 5582 0381 01       		.uleb128 0x1
 5583 0382 53       		.byte	0x53
 5584 0383 9F       		.byte	0x9f
 5585 0384 00000000 		.4byte	0
 5586 0388 00000000 		.4byte	0
 5587              	.LLST20:
 5588 038c 00000000 		.4byte	.LVL30
ARM GAS  C:\Users\jorti\AppData\Local\Temp\ccCX4ftZ.s 			page 126


 5589 0390 C2030000 		.4byte	.LVL125
 5590 0394 0200     		.2byte	0x2
 5591 0396 91       		.byte	0x91
 5592 0397 00       		.sleb128 0
 5593 0398 C2030000 		.4byte	.LVL125
 5594 039c CC030000 		.4byte	.LFE3
 5595 03a0 0200     		.2byte	0x2
 5596 03a2 7D       		.byte	0x7d
 5597 03a3 00       		.sleb128 0
 5598 03a4 00000000 		.4byte	0
 5599 03a8 00000000 		.4byte	0
 5600              	.LLST21:
 5601 03ac 00000000 		.4byte	.LVL30
 5602 03b0 C2030000 		.4byte	.LVL125
 5603 03b4 0200     		.2byte	0x2
 5604 03b6 91       		.byte	0x91
 5605 03b7 04       		.sleb128 4
 5606 03b8 C2030000 		.4byte	.LVL125
 5607 03bc CC030000 		.4byte	.LFE3
 5608 03c0 0200     		.2byte	0x2
 5609 03c2 7D       		.byte	0x7d
 5610 03c3 04       		.sleb128 4
 5611 03c4 00000000 		.4byte	0
 5612 03c8 00000000 		.4byte	0
 5613              	.LLST22:
 5614 03cc AC000000 		.4byte	.LVL40
 5615 03d0 BC030000 		.4byte	.LVL124
 5616 03d4 0100     		.2byte	0x1
 5617 03d6 5B       		.byte	0x5b
 5618 03d7 00000000 		.4byte	0
 5619 03db 00000000 		.4byte	0
 5620              	.LLST23:
 5621 03df EC000000 		.4byte	.LVL44
 5622 03e3 60010000 		.4byte	.LVL57
 5623 03e7 0100     		.2byte	0x1
 5624 03e9 56       		.byte	0x56
 5625 03ea 62010000 		.4byte	.LVL58
 5626 03ee 66010000 		.4byte	.LVL59
 5627 03f2 0600     		.2byte	0x6
 5628 03f4 78       		.byte	0x78
 5629 03f5 00       		.sleb128 0
 5630 03f6 73       		.byte	0x73
 5631 03f7 00       		.sleb128 0
 5632 03f8 1A       		.byte	0x1a
 5633 03f9 9F       		.byte	0x9f
 5634 03fa 66010000 		.4byte	.LVL59
 5635 03fe D8010000 		.4byte	.LVL72
 5636 0402 0100     		.2byte	0x1
 5637 0404 56       		.byte	0x56
 5638 0405 DE010000 		.4byte	.LVL73
 5639 0409 50020000 		.4byte	.LVL86
 5640 040d 0100     		.2byte	0x1
 5641 040f 56       		.byte	0x56
 5642 0410 52020000 		.4byte	.LVL87
 5643 0414 56020000 		.4byte	.LVL88
 5644 0418 0700     		.2byte	0x7
 5645 041a 73       		.byte	0x73
ARM GAS  C:\Users\jorti\AppData\Local\Temp\ccCX4ftZ.s 			page 127


 5646 041b 00       		.sleb128 0
 5647 041c 20       		.byte	0x20
 5648 041d 78       		.byte	0x78
 5649 041e 00       		.sleb128 0
 5650 041f 1A       		.byte	0x1a
 5651 0420 9F       		.byte	0x9f
 5652 0421 56020000 		.4byte	.LVL88
 5653 0425 D2020000 		.4byte	.LVL101
 5654 0429 0100     		.2byte	0x1
 5655 042b 56       		.byte	0x56
 5656 042c E2020000 		.4byte	.LVL104
 5657 0430 BC030000 		.4byte	.LVL124
 5658 0434 0100     		.2byte	0x1
 5659 0436 56       		.byte	0x56
 5660 0437 00000000 		.4byte	0
 5661 043b 00000000 		.4byte	0
 5662              	.LLST24:
 5663 043f C2000000 		.4byte	.LVL41
 5664 0443 78030000 		.4byte	.LVL119
 5665 0447 0100     		.2byte	0x1
 5666 0449 59       		.byte	0x59
 5667 044a 78030000 		.4byte	.LVL119
 5668 044e AC030000 		.4byte	.LVL121
 5669 0452 0300     		.2byte	0x3
 5670 0454 79       		.byte	0x79
 5671 0455 01       		.sleb128 1
 5672 0456 9F       		.byte	0x9f
 5673 0457 BA030000 		.4byte	.LVL123
 5674 045b BC030000 		.4byte	.LVL124
 5675 045f 0100     		.2byte	0x1
 5676 0461 59       		.byte	0x59
 5677 0462 00000000 		.4byte	0
 5678 0466 00000000 		.4byte	0
 5679              	.LLST25:
 5680 046a 08000000 		.4byte	.LVL31
 5681 046e C8000000 		.4byte	.LVL43
 5682 0472 0200     		.2byte	0x2
 5683 0474 30       		.byte	0x30
 5684 0475 9F       		.byte	0x9f
 5685 0476 C8000000 		.4byte	.LVL43
 5686 047a 10010000 		.4byte	.LVL45
 5687 047e 0100     		.2byte	0x1
 5688 0480 50       		.byte	0x50
 5689 0481 10010000 		.4byte	.LVL45
 5690 0485 1C010000 		.4byte	.LVL47
 5691 0489 0300     		.2byte	0x3
 5692 048b 91       		.byte	0x91
 5693 048c B47F     		.sleb128 -76
 5694 048e 1C010000 		.4byte	.LVL47
 5695 0492 24010000 		.4byte	.LVL48
 5696 0496 0100     		.2byte	0x1
 5697 0498 50       		.byte	0x50
 5698 0499 24010000 		.4byte	.LVL48
 5699 049d 32010000 		.4byte	.LVL50
 5700 04a1 0300     		.2byte	0x3
 5701 04a3 91       		.byte	0x91
 5702 04a4 B47F     		.sleb128 -76
ARM GAS  C:\Users\jorti\AppData\Local\Temp\ccCX4ftZ.s 			page 128


 5703 04a6 32010000 		.4byte	.LVL50
 5704 04aa 3A010000 		.4byte	.LVL51
 5705 04ae 0100     		.2byte	0x1
 5706 04b0 50       		.byte	0x50
 5707 04b1 3A010000 		.4byte	.LVL51
 5708 04b5 48010000 		.4byte	.LVL53
 5709 04b9 0300     		.2byte	0x3
 5710 04bb 91       		.byte	0x91
 5711 04bc B47F     		.sleb128 -76
 5712 04be 48010000 		.4byte	.LVL53
 5713 04c2 54010000 		.4byte	.LVL54
 5714 04c6 0100     		.2byte	0x1
 5715 04c8 50       		.byte	0x50
 5716 04c9 54010000 		.4byte	.LVL54
 5717 04cd 60010000 		.4byte	.LVL57
 5718 04d1 0300     		.2byte	0x3
 5719 04d3 91       		.byte	0x91
 5720 04d4 B47F     		.sleb128 -76
 5721 04d6 60010000 		.4byte	.LVL57
 5722 04da 88010000 		.4byte	.LVL60
 5723 04de 0100     		.2byte	0x1
 5724 04e0 50       		.byte	0x50
 5725 04e1 88010000 		.4byte	.LVL60
 5726 04e5 94010000 		.4byte	.LVL62
 5727 04e9 0300     		.2byte	0x3
 5728 04eb 91       		.byte	0x91
 5729 04ec B47F     		.sleb128 -76
 5730 04ee 94010000 		.4byte	.LVL62
 5731 04f2 9C010000 		.4byte	.LVL63
 5732 04f6 0100     		.2byte	0x1
 5733 04f8 50       		.byte	0x50
 5734 04f9 9C010000 		.4byte	.LVL63
 5735 04fd AA010000 		.4byte	.LVL65
 5736 0501 0300     		.2byte	0x3
 5737 0503 91       		.byte	0x91
 5738 0504 B47F     		.sleb128 -76
 5739 0506 AA010000 		.4byte	.LVL65
 5740 050a B2010000 		.4byte	.LVL66
 5741 050e 0100     		.2byte	0x1
 5742 0510 50       		.byte	0x50
 5743 0511 B2010000 		.4byte	.LVL66
 5744 0515 C0010000 		.4byte	.LVL68
 5745 0519 0300     		.2byte	0x3
 5746 051b 91       		.byte	0x91
 5747 051c B47F     		.sleb128 -76
 5748 051e C0010000 		.4byte	.LVL68
 5749 0522 CC010000 		.4byte	.LVL69
 5750 0526 0100     		.2byte	0x1
 5751 0528 50       		.byte	0x50
 5752 0529 CC010000 		.4byte	.LVL69
 5753 052d D8010000 		.4byte	.LVL72
 5754 0531 0300     		.2byte	0x3
 5755 0533 91       		.byte	0x91
 5756 0534 B47F     		.sleb128 -76
 5757 0536 D8010000 		.4byte	.LVL72
 5758 053a 00020000 		.4byte	.LVL74
 5759 053e 0100     		.2byte	0x1
ARM GAS  C:\Users\jorti\AppData\Local\Temp\ccCX4ftZ.s 			page 129


 5760 0540 50       		.byte	0x50
 5761 0541 00020000 		.4byte	.LVL74
 5762 0545 0C020000 		.4byte	.LVL76
 5763 0549 0300     		.2byte	0x3
 5764 054b 91       		.byte	0x91
 5765 054c B47F     		.sleb128 -76
 5766 054e 0C020000 		.4byte	.LVL76
 5767 0552 14020000 		.4byte	.LVL77
 5768 0556 0100     		.2byte	0x1
 5769 0558 50       		.byte	0x50
 5770 0559 14020000 		.4byte	.LVL77
 5771 055d 22020000 		.4byte	.LVL79
 5772 0561 0300     		.2byte	0x3
 5773 0563 91       		.byte	0x91
 5774 0564 B47F     		.sleb128 -76
 5775 0566 22020000 		.4byte	.LVL79
 5776 056a 2A020000 		.4byte	.LVL80
 5777 056e 0100     		.2byte	0x1
 5778 0570 50       		.byte	0x50
 5779 0571 2A020000 		.4byte	.LVL80
 5780 0575 38020000 		.4byte	.LVL82
 5781 0579 0300     		.2byte	0x3
 5782 057b 91       		.byte	0x91
 5783 057c B47F     		.sleb128 -76
 5784 057e 38020000 		.4byte	.LVL82
 5785 0582 44020000 		.4byte	.LVL83
 5786 0586 0100     		.2byte	0x1
 5787 0588 50       		.byte	0x50
 5788 0589 44020000 		.4byte	.LVL83
 5789 058d 50020000 		.4byte	.LVL86
 5790 0591 0300     		.2byte	0x3
 5791 0593 91       		.byte	0x91
 5792 0594 B47F     		.sleb128 -76
 5793 0596 50020000 		.4byte	.LVL86
 5794 059a 76020000 		.4byte	.LVL89
 5795 059e 0100     		.2byte	0x1
 5796 05a0 50       		.byte	0x50
 5797 05a1 76020000 		.4byte	.LVL89
 5798 05a5 82020000 		.4byte	.LVL91
 5799 05a9 0300     		.2byte	0x3
 5800 05ab 91       		.byte	0x91
 5801 05ac B47F     		.sleb128 -76
 5802 05ae 82020000 		.4byte	.LVL91
 5803 05b2 8A020000 		.4byte	.LVL92
 5804 05b6 0100     		.2byte	0x1
 5805 05b8 50       		.byte	0x50
 5806 05b9 8A020000 		.4byte	.LVL92
 5807 05bd A4020000 		.4byte	.LVL94
 5808 05c1 0300     		.2byte	0x3
 5809 05c3 91       		.byte	0x91
 5810 05c4 B47F     		.sleb128 -76
 5811 05c6 A4020000 		.4byte	.LVL94
 5812 05ca AC020000 		.4byte	.LVL95
 5813 05ce 0100     		.2byte	0x1
 5814 05d0 50       		.byte	0x50
 5815 05d1 AC020000 		.4byte	.LVL95
 5816 05d5 BA020000 		.4byte	.LVL97
ARM GAS  C:\Users\jorti\AppData\Local\Temp\ccCX4ftZ.s 			page 130


 5817 05d9 0300     		.2byte	0x3
 5818 05db 91       		.byte	0x91
 5819 05dc B47F     		.sleb128 -76
 5820 05de BA020000 		.4byte	.LVL97
 5821 05e2 C6020000 		.4byte	.LVL98
 5822 05e6 0100     		.2byte	0x1
 5823 05e8 50       		.byte	0x50
 5824 05e9 C6020000 		.4byte	.LVL98
 5825 05ed D2020000 		.4byte	.LVL101
 5826 05f1 0300     		.2byte	0x3
 5827 05f3 91       		.byte	0x91
 5828 05f4 B47F     		.sleb128 -76
 5829 05f6 D2020000 		.4byte	.LVL101
 5830 05fa D4020000 		.4byte	.LVL102
 5831 05fe 0100     		.2byte	0x1
 5832 0600 50       		.byte	0x50
 5833 0601 D4020000 		.4byte	.LVL102
 5834 0605 EC020000 		.4byte	.LVL107
 5835 0609 0300     		.2byte	0x3
 5836 060b 91       		.byte	0x91
 5837 060c B47F     		.sleb128 -76
 5838 060e EC020000 		.4byte	.LVL107
 5839 0612 1C030000 		.4byte	.LVL108
 5840 0616 0100     		.2byte	0x1
 5841 0618 50       		.byte	0x50
 5842 0619 1C030000 		.4byte	.LVL108
 5843 061d 28030000 		.4byte	.LVL110
 5844 0621 0100     		.2byte	0x1
 5845 0623 54       		.byte	0x54
 5846 0624 28030000 		.4byte	.LVL110
 5847 0628 34030000 		.4byte	.LVL111
 5848 062c 0100     		.2byte	0x1
 5849 062e 50       		.byte	0x50
 5850 062f 34030000 		.4byte	.LVL111
 5851 0633 40030000 		.4byte	.LVL113
 5852 0637 0100     		.2byte	0x1
 5853 0639 54       		.byte	0x54
 5854 063a 40030000 		.4byte	.LVL113
 5855 063e 4C030000 		.4byte	.LVL114
 5856 0642 0100     		.2byte	0x1
 5857 0644 50       		.byte	0x50
 5858 0645 4C030000 		.4byte	.LVL114
 5859 0649 58030000 		.4byte	.LVL116
 5860 064d 0100     		.2byte	0x1
 5861 064f 54       		.byte	0x54
 5862 0650 58030000 		.4byte	.LVL116
 5863 0654 5B030000 		.4byte	.LVL117-1
 5864 0658 0100     		.2byte	0x1
 5865 065a 50       		.byte	0x50
 5866 065b 5B030000 		.4byte	.LVL117-1
 5867 065f BC030000 		.4byte	.LVL124
 5868 0663 0100     		.2byte	0x1
 5869 0665 54       		.byte	0x54
 5870 0666 00000000 		.4byte	0
 5871 066a 00000000 		.4byte	0
 5872              	.LLST26:
 5873 066e 00000000 		.4byte	.LVL126
ARM GAS  C:\Users\jorti\AppData\Local\Temp\ccCX4ftZ.s 			page 131


 5874 0672 10000000 		.4byte	.LVL128
 5875 0676 0100     		.2byte	0x1
 5876 0678 50       		.byte	0x50
 5877 0679 10000000 		.4byte	.LVL128
 5878 067d 13000000 		.4byte	.LVL129-1
 5879 0681 0300     		.2byte	0x3
 5880 0683 70       		.byte	0x70
 5881 0684 78       		.sleb128 -8
 5882 0685 9F       		.byte	0x9f
 5883 0686 13000000 		.4byte	.LVL129-1
 5884 068a 20000000 		.4byte	.LFE8
 5885 068e 0400     		.2byte	0x4
 5886 0690 F3       		.byte	0xf3
 5887 0691 01       		.uleb128 0x1
 5888 0692 50       		.byte	0x50
 5889 0693 9F       		.byte	0x9f
 5890 0694 00000000 		.4byte	0
 5891 0698 00000000 		.4byte	0
 5892              	.LLST27:
 5893 069c 0E000000 		.4byte	.LVL127
 5894 06a0 10000000 		.4byte	.LVL128
 5895 06a4 0300     		.2byte	0x3
 5896 06a6 70       		.byte	0x70
 5897 06a7 08       		.sleb128 8
 5898 06a8 9F       		.byte	0x9f
 5899 06a9 10000000 		.4byte	.LVL128
 5900 06ad 13000000 		.4byte	.LVL129-1
 5901 06b1 0100     		.2byte	0x1
 5902 06b3 50       		.byte	0x50
 5903 06b4 13000000 		.4byte	.LVL129-1
 5904 06b8 20000000 		.4byte	.LFE8
 5905 06bc 0600     		.2byte	0x6
 5906 06be F3       		.byte	0xf3
 5907 06bf 01       		.uleb128 0x1
 5908 06c0 50       		.byte	0x50
 5909 06c1 23       		.byte	0x23
 5910 06c2 08       		.uleb128 0x8
 5911 06c3 9F       		.byte	0x9f
 5912 06c4 00000000 		.4byte	0
 5913 06c8 00000000 		.4byte	0
 5914              	.LLST28:
 5915 06cc 00000000 		.4byte	.LVL132
 5916 06d0 2B000000 		.4byte	.LVL138-1
 5917 06d4 0100     		.2byte	0x1
 5918 06d6 50       		.byte	0x50
 5919 06d7 2B000000 		.4byte	.LVL138-1
 5920 06db 5C000000 		.4byte	.LVL145
 5921 06df 0100     		.2byte	0x1
 5922 06e1 54       		.byte	0x54
 5923 06e2 5C000000 		.4byte	.LVL145
 5924 06e6 68000000 		.4byte	.LFE1
 5925 06ea 0400     		.2byte	0x4
 5926 06ec F3       		.byte	0xf3
 5927 06ed 01       		.uleb128 0x1
 5928 06ee 50       		.byte	0x50
 5929 06ef 9F       		.byte	0x9f
 5930 06f0 00000000 		.4byte	0
ARM GAS  C:\Users\jorti\AppData\Local\Temp\ccCX4ftZ.s 			page 132


 5931 06f4 00000000 		.4byte	0
 5932              	.LLST29:
 5933 06f8 00000000 		.4byte	.LVL132
 5934 06fc 2B000000 		.4byte	.LVL138-1
 5935 0700 0100     		.2byte	0x1
 5936 0702 51       		.byte	0x51
 5937 0703 2B000000 		.4byte	.LVL138-1
 5938 0707 5C000000 		.4byte	.LVL145
 5939 070b 0100     		.2byte	0x1
 5940 070d 56       		.byte	0x56
 5941 070e 5C000000 		.4byte	.LVL145
 5942 0712 68000000 		.4byte	.LFE1
 5943 0716 0400     		.2byte	0x4
 5944 0718 F3       		.byte	0xf3
 5945 0719 01       		.uleb128 0x1
 5946 071a 51       		.byte	0x51
 5947 071b 9F       		.byte	0x9f
 5948 071c 00000000 		.4byte	0
 5949 0720 00000000 		.4byte	0
 5950              	.LLST30:
 5951 0724 00000000 		.4byte	.LVL132
 5952 0728 0E000000 		.4byte	.LVL134
 5953 072c 0100     		.2byte	0x1
 5954 072e 52       		.byte	0x52
 5955 072f 0E000000 		.4byte	.LVL134
 5956 0733 14000000 		.4byte	.LVL135
 5957 0737 0400     		.2byte	0x4
 5958 0739 F3       		.byte	0xf3
 5959 073a 01       		.uleb128 0x1
 5960 073b 52       		.byte	0x52
 5961 073c 9F       		.byte	0x9f
 5962 073d 14000000 		.4byte	.LVL135
 5963 0741 1A000000 		.4byte	.LVL136
 5964 0745 0100     		.2byte	0x1
 5965 0747 52       		.byte	0x52
 5966 0748 1A000000 		.4byte	.LVL136
 5967 074c 20000000 		.4byte	.LVL137
 5968 0750 0400     		.2byte	0x4
 5969 0752 F3       		.byte	0xf3
 5970 0753 01       		.uleb128 0x1
 5971 0754 52       		.byte	0x52
 5972 0755 9F       		.byte	0x9f
 5973 0756 20000000 		.4byte	.LVL137
 5974 075a 2B000000 		.4byte	.LVL138-1
 5975 075e 0100     		.2byte	0x1
 5976 0760 52       		.byte	0x52
 5977 0761 2B000000 		.4byte	.LVL138-1
 5978 0765 38000000 		.4byte	.LVL140
 5979 0769 0100     		.2byte	0x1
 5980 076b 55       		.byte	0x55
 5981 076c 38000000 		.4byte	.LVL140
 5982 0770 41000000 		.4byte	.LVL142-1
 5983 0774 0200     		.2byte	0x2
 5984 0776 74       		.byte	0x74
 5985 0777 20       		.sleb128 32
 5986 0778 41000000 		.4byte	.LVL142-1
 5987 077c 68000000 		.4byte	.LFE1
ARM GAS  C:\Users\jorti\AppData\Local\Temp\ccCX4ftZ.s 			page 133


 5988 0780 0400     		.2byte	0x4
 5989 0782 F3       		.byte	0xf3
 5990 0783 01       		.uleb128 0x1
 5991 0784 52       		.byte	0x52
 5992 0785 9F       		.byte	0x9f
 5993 0786 00000000 		.4byte	0
 5994 078a 00000000 		.4byte	0
 5995              	.LLST31:
 5996 078e 00000000 		.4byte	.LVL132
 5997 0792 2B000000 		.4byte	.LVL138-1
 5998 0796 0100     		.2byte	0x1
 5999 0798 53       		.byte	0x53
 6000 0799 2B000000 		.4byte	.LVL138-1
 6001 079d 5C000000 		.4byte	.LVL145
 6002 07a1 0100     		.2byte	0x1
 6003 07a3 57       		.byte	0x57
 6004 07a4 5C000000 		.4byte	.LVL145
 6005 07a8 68000000 		.4byte	.LFE1
 6006 07ac 0400     		.2byte	0x4
 6007 07ae F3       		.byte	0xf3
 6008 07af 01       		.uleb128 0x1
 6009 07b0 53       		.byte	0x53
 6010 07b1 9F       		.byte	0x9f
 6011 07b2 00000000 		.4byte	0
 6012 07b6 00000000 		.4byte	0
 6013              	.LLST32:
 6014 07ba 04000000 		.4byte	.LVL133
 6015 07be 2E000000 		.4byte	.LVL139
 6016 07c2 0200     		.2byte	0x2
 6017 07c4 30       		.byte	0x30
 6018 07c5 9F       		.byte	0x9f
 6019 07c6 2E000000 		.4byte	.LVL139
 6020 07ca 3E000000 		.4byte	.LVL141
 6021 07ce 0100     		.2byte	0x1
 6022 07d0 50       		.byte	0x50
 6023 07d1 3E000000 		.4byte	.LVL141
 6024 07d5 5C000000 		.4byte	.LVL145
 6025 07d9 0100     		.2byte	0x1
 6026 07db 58       		.byte	0x58
 6027 07dc 00000000 		.4byte	0
 6028 07e0 00000000 		.4byte	0
 6029              	.LLST33:
 6030 07e4 04000000 		.4byte	.LVL148
 6031 07e8 12000000 		.4byte	.LVL151
 6032 07ec 0100     		.2byte	0x1
 6033 07ee 53       		.byte	0x53
 6034 07ef 16000000 		.4byte	.LVL152
 6035 07f3 24000000 		.4byte	.LVL153
 6036 07f7 0100     		.2byte	0x1
 6037 07f9 53       		.byte	0x53
 6038 07fa 00000000 		.4byte	0
 6039 07fe 00000000 		.4byte	0
 6040              	.LLST34:
 6041 0802 02000000 		.4byte	.LVL147
 6042 0806 08000000 		.4byte	.LVL149
 6043 080a 0100     		.2byte	0x1
 6044 080c 52       		.byte	0x52
ARM GAS  C:\Users\jorti\AppData\Local\Temp\ccCX4ftZ.s 			page 134


 6045 080d 08000000 		.4byte	.LVL149
 6046 0811 10000000 		.4byte	.LVL150
 6047 0815 0200     		.2byte	0x2
 6048 0817 70       		.byte	0x70
 6049 0818 14       		.sleb128 20
 6050 0819 16000000 		.4byte	.LVL152
 6051 081d 30000000 		.4byte	.LFE11
 6052 0821 0100     		.2byte	0x1
 6053 0823 52       		.byte	0x52
 6054 0824 00000000 		.4byte	0
 6055 0828 00000000 		.4byte	0
 6056              	.LLST35:
 6057 082c 00000000 		.4byte	.LVL154
 6058 0830 12000000 		.4byte	.LVL156
 6059 0834 0100     		.2byte	0x1
 6060 0836 50       		.byte	0x50
 6061 0837 12000000 		.4byte	.LVL156
 6062 083b 16000000 		.4byte	.LVL157
 6063 083f 0400     		.2byte	0x4
 6064 0841 F3       		.byte	0xf3
 6065 0842 01       		.uleb128 0x1
 6066 0843 50       		.byte	0x50
 6067 0844 9F       		.byte	0x9f
 6068 0845 16000000 		.4byte	.LVL157
 6069 0849 2E000000 		.4byte	.LVL158
 6070 084d 0100     		.2byte	0x1
 6071 084f 50       		.byte	0x50
 6072 0850 2E000000 		.4byte	.LVL158
 6073 0854 32000000 		.4byte	.LVL159
 6074 0858 0400     		.2byte	0x4
 6075 085a F3       		.byte	0xf3
 6076 085b 01       		.uleb128 0x1
 6077 085c 50       		.byte	0x50
 6078 085d 9F       		.byte	0x9f
 6079 085e 32000000 		.4byte	.LVL159
 6080 0862 3B000000 		.4byte	.LVL160-1
 6081 0866 0100     		.2byte	0x1
 6082 0868 50       		.byte	0x50
 6083 0869 3B000000 		.4byte	.LVL160-1
 6084 086d D4000000 		.4byte	.LVL183
 6085 0871 0100     		.2byte	0x1
 6086 0873 54       		.byte	0x54
 6087 0874 D4000000 		.4byte	.LVL183
 6088 0878 DC000000 		.4byte	.LFE2
 6089 087c 0400     		.2byte	0x4
 6090 087e F3       		.byte	0xf3
 6091 087f 01       		.uleb128 0x1
 6092 0880 50       		.byte	0x50
 6093 0881 9F       		.byte	0x9f
 6094 0882 00000000 		.4byte	0
 6095 0886 00000000 		.4byte	0
 6096              	.LLST36:
 6097 088a 00000000 		.4byte	.LVL154
 6098 088e 3B000000 		.4byte	.LVL160-1
 6099 0892 0100     		.2byte	0x1
 6100 0894 51       		.byte	0x51
 6101 0895 3B000000 		.4byte	.LVL160-1
ARM GAS  C:\Users\jorti\AppData\Local\Temp\ccCX4ftZ.s 			page 135


 6102 0899 DC000000 		.4byte	.LFE2
 6103 089d 0400     		.2byte	0x4
 6104 089f F3       		.byte	0xf3
 6105 08a0 01       		.uleb128 0x1
 6106 08a1 51       		.byte	0x51
 6107 08a2 9F       		.byte	0x9f
 6108 08a3 00000000 		.4byte	0
 6109 08a7 00000000 		.4byte	0
 6110              	.LLST37:
 6111 08ab 00000000 		.4byte	.LVL154
 6112 08af 3B000000 		.4byte	.LVL160-1
 6113 08b3 0100     		.2byte	0x1
 6114 08b5 52       		.byte	0x52
 6115 08b6 3B000000 		.4byte	.LVL160-1
 6116 08ba D4000000 		.4byte	.LVL183
 6117 08be 0100     		.2byte	0x1
 6118 08c0 57       		.byte	0x57
 6119 08c1 D4000000 		.4byte	.LVL183
 6120 08c5 DC000000 		.4byte	.LFE2
 6121 08c9 0400     		.2byte	0x4
 6122 08cb F3       		.byte	0xf3
 6123 08cc 01       		.uleb128 0x1
 6124 08cd 52       		.byte	0x52
 6125 08ce 9F       		.byte	0x9f
 6126 08cf 00000000 		.4byte	0
 6127 08d3 00000000 		.4byte	0
 6128              	.LLST38:
 6129 08d7 40000000 		.4byte	.LVL162
 6130 08db 88000000 		.4byte	.LVL172
 6131 08df 0100     		.2byte	0x1
 6132 08e1 56       		.byte	0x56
 6133 08e2 88000000 		.4byte	.LVL172
 6134 08e6 96000000 		.4byte	.LVL175
 6135 08ea 0100     		.2byte	0x1
 6136 08ec 55       		.byte	0x55
 6137 08ed 98000000 		.4byte	.LVL176
 6138 08f1 C4000000 		.4byte	.LVL181
 6139 08f5 0100     		.2byte	0x1
 6140 08f7 55       		.byte	0x55
 6141 08f8 C4000000 		.4byte	.LVL181
 6142 08fc D4000000 		.4byte	.LVL183
 6143 0900 0100     		.2byte	0x1
 6144 0902 56       		.byte	0x56
 6145 0903 D4000000 		.4byte	.LVL183
 6146 0907 DC000000 		.4byte	.LFE2
 6147 090b 0100     		.2byte	0x1
 6148 090d 50       		.byte	0x50
 6149 090e 00000000 		.4byte	0
 6150 0912 00000000 		.4byte	0
 6151              	.LLST39:
 6152 0916 40000000 		.4byte	.LVL162
 6153 091a D4000000 		.4byte	.LVL183
 6154 091e 0100     		.2byte	0x1
 6155 0920 56       		.byte	0x56
 6156 0921 D4000000 		.4byte	.LVL183
 6157 0925 DC000000 		.4byte	.LFE2
 6158 0929 0100     		.2byte	0x1
ARM GAS  C:\Users\jorti\AppData\Local\Temp\ccCX4ftZ.s 			page 136


 6159 092b 50       		.byte	0x50
 6160 092c 00000000 		.4byte	0
 6161 0930 00000000 		.4byte	0
 6162              	.LLST40:
 6163 0934 8A000000 		.4byte	.LVL173
 6164 0938 93000000 		.4byte	.LVL174-1
 6165 093c 0100     		.2byte	0x1
 6166 093e 53       		.byte	0x53
 6167 093f 00000000 		.4byte	0
 6168 0943 00000000 		.4byte	0
 6169              	.LLST41:
 6170 0947 3E000000 		.4byte	.LVL161
 6171 094b D4000000 		.4byte	.LVL183
 6172 094f 0300     		.2byte	0x3
 6173 0951 74       		.byte	0x74
 6174 0952 08       		.sleb128 8
 6175 0953 9F       		.byte	0x9f
 6176 0954 D4000000 		.4byte	.LVL183
 6177 0958 DC000000 		.4byte	.LFE2
 6178 095c 0600     		.2byte	0x6
 6179 095e F3       		.byte	0xf3
 6180 095f 01       		.uleb128 0x1
 6181 0960 50       		.byte	0x50
 6182 0961 23       		.byte	0x23
 6183 0962 08       		.uleb128 0x8
 6184 0963 9F       		.byte	0x9f
 6185 0964 00000000 		.4byte	0
 6186 0968 00000000 		.4byte	0
 6187              	.LLST42:
 6188 096c 8A000000 		.4byte	.LVL173
 6189 0970 93000000 		.4byte	.LVL174-1
 6190 0974 0200     		.2byte	0x2
 6191 0976 73       		.byte	0x73
 6192 0977 08       		.sleb128 8
 6193 0978 00000000 		.4byte	0
 6194 097c 00000000 		.4byte	0
 6195              	.LLST43:
 6196 0980 84000000 		.4byte	.LVL171
 6197 0984 88000000 		.4byte	.LVL172
 6198 0988 0100     		.2byte	0x1
 6199 098a 50       		.byte	0x50
 6200 098b 88000000 		.4byte	.LVL172
 6201 098f C4000000 		.4byte	.LVL181
 6202 0993 0100     		.2byte	0x1
 6203 0995 59       		.byte	0x59
 6204 0996 00000000 		.4byte	0
 6205 099a 00000000 		.4byte	0
 6206              	.LLST44:
 6207 099e 04000000 		.4byte	.LVL155
 6208 09a2 3E000000 		.4byte	.LVL161
 6209 09a6 0200     		.2byte	0x2
 6210 09a8 30       		.byte	0x30
 6211 09a9 9F       		.byte	0x9f
 6212 09aa 3E000000 		.4byte	.LVL161
 6213 09ae 4C000000 		.4byte	.LVL163
 6214 09b2 0100     		.2byte	0x1
 6215 09b4 50       		.byte	0x50
ARM GAS  C:\Users\jorti\AppData\Local\Temp\ccCX4ftZ.s 			page 137


 6216 09b5 4C000000 		.4byte	.LVL163
 6217 09b9 6E000000 		.4byte	.LVL167
 6218 09bd 0100     		.2byte	0x1
 6219 09bf 58       		.byte	0x58
 6220 09c0 6E000000 		.4byte	.LVL167
 6221 09c4 71000000 		.4byte	.LVL168-1
 6222 09c8 0100     		.2byte	0x1
 6223 09ca 50       		.byte	0x50
 6224 09cb 71000000 		.4byte	.LVL168-1
 6225 09cf 7E000000 		.4byte	.LVL169
 6226 09d3 0100     		.2byte	0x1
 6227 09d5 58       		.byte	0x58
 6228 09d6 7E000000 		.4byte	.LVL169
 6229 09da 81000000 		.4byte	.LVL170-1
 6230 09de 0100     		.2byte	0x1
 6231 09e0 50       		.byte	0x50
 6232 09e1 81000000 		.4byte	.LVL170-1
 6233 09e5 C4000000 		.4byte	.LVL181
 6234 09e9 0100     		.2byte	0x1
 6235 09eb 58       		.byte	0x58
 6236 09ec C4000000 		.4byte	.LVL181
 6237 09f0 C7000000 		.4byte	.LVL182-1
 6238 09f4 0100     		.2byte	0x1
 6239 09f6 50       		.byte	0x50
 6240 09f7 C7000000 		.4byte	.LVL182-1
 6241 09fb D4000000 		.4byte	.LVL183
 6242 09ff 0100     		.2byte	0x1
 6243 0a01 58       		.byte	0x58
 6244 0a02 00000000 		.4byte	0
 6245 0a06 00000000 		.4byte	0
 6246              	.LLST45:
 6247 0a0a 00000000 		.4byte	.LVL184
 6248 0a0e 2B000000 		.4byte	.LVL186-1
 6249 0a12 0100     		.2byte	0x1
 6250 0a14 50       		.byte	0x50
 6251 0a15 2B000000 		.4byte	.LVL186-1
 6252 0a19 34000000 		.4byte	.LVL187
 6253 0a1d 0100     		.2byte	0x1
 6254 0a1f 54       		.byte	0x54
 6255 0a20 34000000 		.4byte	.LVL187
 6256 0a24 3A000000 		.4byte	.LVL188
 6257 0a28 0100     		.2byte	0x1
 6258 0a2a 50       		.byte	0x50
 6259 0a2b 3A000000 		.4byte	.LVL188
 6260 0a2f 42000000 		.4byte	.LFE13
 6261 0a33 0100     		.2byte	0x1
 6262 0a35 54       		.byte	0x54
 6263 0a36 00000000 		.4byte	0
 6264 0a3a 00000000 		.4byte	0
 6265              	.LLST46:
 6266 0a3e 00000000 		.4byte	.LVL184
 6267 0a42 2B000000 		.4byte	.LVL186-1
 6268 0a46 0100     		.2byte	0x1
 6269 0a48 51       		.byte	0x51
 6270 0a49 2B000000 		.4byte	.LVL186-1
 6271 0a4d 34000000 		.4byte	.LVL187
 6272 0a51 0400     		.2byte	0x4
ARM GAS  C:\Users\jorti\AppData\Local\Temp\ccCX4ftZ.s 			page 138


 6273 0a53 F3       		.byte	0xf3
 6274 0a54 01       		.uleb128 0x1
 6275 0a55 51       		.byte	0x51
 6276 0a56 9F       		.byte	0x9f
 6277 0a57 34000000 		.4byte	.LVL187
 6278 0a5b 3A000000 		.4byte	.LVL188
 6279 0a5f 0100     		.2byte	0x1
 6280 0a61 51       		.byte	0x51
 6281 0a62 3A000000 		.4byte	.LVL188
 6282 0a66 42000000 		.4byte	.LFE13
 6283 0a6a 0400     		.2byte	0x4
 6284 0a6c F3       		.byte	0xf3
 6285 0a6d 01       		.uleb128 0x1
 6286 0a6e 51       		.byte	0x51
 6287 0a6f 9F       		.byte	0x9f
 6288 0a70 00000000 		.4byte	0
 6289 0a74 00000000 		.4byte	0
 6290              	.LLST47:
 6291 0a78 00000000 		.4byte	.LVL184
 6292 0a7c 22000000 		.4byte	.LVL185
 6293 0a80 0100     		.2byte	0x1
 6294 0a82 52       		.byte	0x52
 6295 0a83 22000000 		.4byte	.LVL185
 6296 0a87 2B000000 		.4byte	.LVL186-1
 6297 0a8b 0300     		.2byte	0x3
 6298 0a8d 70       		.byte	0x70
 6299 0a8e C000     		.sleb128 64
 6300 0a90 2B000000 		.4byte	.LVL186-1
 6301 0a94 34000000 		.4byte	.LVL187
 6302 0a98 0400     		.2byte	0x4
 6303 0a9a F3       		.byte	0xf3
 6304 0a9b 01       		.uleb128 0x1
 6305 0a9c 52       		.byte	0x52
 6306 0a9d 9F       		.byte	0x9f
 6307 0a9e 34000000 		.4byte	.LVL187
 6308 0aa2 3A000000 		.4byte	.LVL188
 6309 0aa6 0300     		.2byte	0x3
 6310 0aa8 70       		.byte	0x70
 6311 0aa9 C000     		.sleb128 64
 6312 0aab 3A000000 		.4byte	.LVL188
 6313 0aaf 42000000 		.4byte	.LFE13
 6314 0ab3 0400     		.2byte	0x4
 6315 0ab5 F3       		.byte	0xf3
 6316 0ab6 01       		.uleb128 0x1
 6317 0ab7 52       		.byte	0x52
 6318 0ab8 9F       		.byte	0x9f
 6319 0ab9 00000000 		.4byte	0
 6320 0abd 00000000 		.4byte	0
 6321              	.LLST48:
 6322 0ac1 00000000 		.4byte	.LVL190
 6323 0ac5 0F000000 		.4byte	.LVL192-1
 6324 0ac9 0100     		.2byte	0x1
 6325 0acb 50       		.byte	0x50
 6326 0acc 0F000000 		.4byte	.LVL192-1
 6327 0ad0 1C010000 		.4byte	.LFE12
 6328 0ad4 0100     		.2byte	0x1
 6329 0ad6 55       		.byte	0x55
ARM GAS  C:\Users\jorti\AppData\Local\Temp\ccCX4ftZ.s 			page 139


 6330 0ad7 00000000 		.4byte	0
 6331 0adb 00000000 		.4byte	0
 6332              	.LLST49:
 6333 0adf 00000000 		.4byte	.LVL190
 6334 0ae3 0F000000 		.4byte	.LVL192-1
 6335 0ae7 0100     		.2byte	0x1
 6336 0ae9 51       		.byte	0x51
 6337 0aea 0F000000 		.4byte	.LVL192-1
 6338 0aee 2C000000 		.4byte	.LVL194
 6339 0af2 0100     		.2byte	0x1
 6340 0af4 54       		.byte	0x54
 6341 0af5 2C000000 		.4byte	.LVL194
 6342 0af9 30000000 		.4byte	.LVL195
 6343 0afd 0400     		.2byte	0x4
 6344 0aff F3       		.byte	0xf3
 6345 0b00 01       		.uleb128 0x1
 6346 0b01 51       		.byte	0x51
 6347 0b02 9F       		.byte	0x9f
 6348 0b03 30000000 		.4byte	.LVL195
 6349 0b07 36000000 		.4byte	.LVL196
 6350 0b0b 0100     		.2byte	0x1
 6351 0b0d 54       		.byte	0x54
 6352 0b0e 36000000 		.4byte	.LVL196
 6353 0b12 3A000000 		.4byte	.LVL197
 6354 0b16 0400     		.2byte	0x4
 6355 0b18 F3       		.byte	0xf3
 6356 0b19 01       		.uleb128 0x1
 6357 0b1a 51       		.byte	0x51
 6358 0b1b 9F       		.byte	0x9f
 6359 0b1c 3A000000 		.4byte	.LVL197
 6360 0b20 4C000000 		.4byte	.LVL199
 6361 0b24 0100     		.2byte	0x1
 6362 0b26 54       		.byte	0x54
 6363 0b27 4C000000 		.4byte	.LVL199
 6364 0b2b 1C010000 		.4byte	.LFE12
 6365 0b2f 0400     		.2byte	0x4
 6366 0b31 F3       		.byte	0xf3
 6367 0b32 01       		.uleb128 0x1
 6368 0b33 51       		.byte	0x51
 6369 0b34 9F       		.byte	0x9f
 6370 0b35 00000000 		.4byte	0
 6371 0b39 00000000 		.4byte	0
 6372              	.LLST50:
 6373 0b3d 00000000 		.4byte	.LVL190
 6374 0b41 0F000000 		.4byte	.LVL192-1
 6375 0b45 0100     		.2byte	0x1
 6376 0b47 52       		.byte	0x52
 6377 0b48 0F000000 		.4byte	.LVL192-1
 6378 0b4c 1C010000 		.4byte	.LFE12
 6379 0b50 0400     		.2byte	0x4
 6380 0b52 F3       		.byte	0xf3
 6381 0b53 01       		.uleb128 0x1
 6382 0b54 52       		.byte	0x52
 6383 0b55 9F       		.byte	0x9f
 6384 0b56 00000000 		.4byte	0
 6385 0b5a 00000000 		.4byte	0
 6386              	.LLST51:
ARM GAS  C:\Users\jorti\AppData\Local\Temp\ccCX4ftZ.s 			page 140


 6387 0b5e 00000000 		.4byte	.LVL190
 6388 0b62 0F000000 		.4byte	.LVL192-1
 6389 0b66 0100     		.2byte	0x1
 6390 0b68 53       		.byte	0x53
 6391 0b69 0F000000 		.4byte	.LVL192-1
 6392 0b6d 1C010000 		.4byte	.LFE12
 6393 0b71 0100     		.2byte	0x1
 6394 0b73 57       		.byte	0x57
 6395 0b74 00000000 		.4byte	0
 6396 0b78 00000000 		.4byte	0
 6397              	.LLST52:
 6398 0b7c 00000000 		.4byte	.LVL190
 6399 0b80 4C000000 		.4byte	.LVL199
 6400 0b84 0200     		.2byte	0x2
 6401 0b86 91       		.byte	0x91
 6402 0b87 00       		.sleb128 0
 6403 0b88 4C000000 		.4byte	.LVL199
 6404 0b8c 1C010000 		.4byte	.LFE12
 6405 0b90 0200     		.2byte	0x2
 6406 0b92 91       		.byte	0x91
 6407 0b93 00       		.sleb128 0
 6408 0b94 00000000 		.4byte	0
 6409 0b98 00000000 		.4byte	0
 6410              	.LLST53:
 6411 0b9c 8E000000 		.4byte	.LVL210
 6412 0ba0 97000000 		.4byte	.LVL211-1
 6413 0ba4 0100     		.2byte	0x1
 6414 0ba6 51       		.byte	0x51
 6415 0ba7 A0000000 		.4byte	.LVL214
 6416 0bab A2000000 		.4byte	.LVL215
 6417 0baf 0600     		.2byte	0x6
 6418 0bb1 73       		.byte	0x73
 6419 0bb2 00       		.sleb128 0
 6420 0bb3 71       		.byte	0x71
 6421 0bb4 00       		.sleb128 0
 6422 0bb5 1A       		.byte	0x1a
 6423 0bb6 9F       		.byte	0x9f
 6424 0bb7 A2000000 		.4byte	.LVL215
 6425 0bbb A9000000 		.4byte	.LVL216-1
 6426 0bbf 0100     		.2byte	0x1
 6427 0bc1 51       		.byte	0x51
 6428 0bc2 B6000000 		.4byte	.LVL219
 6429 0bc6 BF000000 		.4byte	.LVL220-1
 6430 0bca 0100     		.2byte	0x1
 6431 0bcc 51       		.byte	0x51
 6432 0bcd C8000000 		.4byte	.LVL222
 6433 0bd1 CC000000 		.4byte	.LVL223
 6434 0bd5 0700     		.2byte	0x7
 6435 0bd7 71       		.byte	0x71
 6436 0bd8 00       		.sleb128 0
 6437 0bd9 20       		.byte	0x20
 6438 0bda 73       		.byte	0x73
 6439 0bdb 00       		.sleb128 0
 6440 0bdc 1A       		.byte	0x1a
 6441 0bdd 9F       		.byte	0x9f
 6442 0bde CC000000 		.4byte	.LVL223
 6443 0be2 D3000000 		.4byte	.LVL224-1
ARM GAS  C:\Users\jorti\AppData\Local\Temp\ccCX4ftZ.s 			page 141


 6444 0be6 0100     		.2byte	0x1
 6445 0be8 51       		.byte	0x51
 6446 0be9 00000000 		.4byte	0
 6447 0bed 00000000 		.4byte	0
 6448              	.LLST54:
 6449 0bf1 74000000 		.4byte	.LVL207
 6450 0bf5 76000000 		.4byte	.LVL208
 6451 0bf9 0100     		.2byte	0x1
 6452 0bfb 53       		.byte	0x53
 6453 0bfc 76000000 		.4byte	.LVL208
 6454 0c00 8C000000 		.4byte	.LVL209
 6455 0c04 0300     		.2byte	0x3
 6456 0c06 73       		.byte	0x73
 6457 0c07 01       		.sleb128 1
 6458 0c08 9F       		.byte	0x9f
 6459 0c09 8C000000 		.4byte	.LVL209
 6460 0c0d 97000000 		.4byte	.LVL211-1
 6461 0c11 0800     		.2byte	0x8
 6462 0c13 70       		.byte	0x70
 6463 0c14 8801     		.sleb128 136
 6464 0c16 94       		.byte	0x94
 6465 0c17 02       		.byte	0x2
 6466 0c18 3F       		.byte	0x3f
 6467 0c19 1A       		.byte	0x1a
 6468 0c1a 9F       		.byte	0x9f
 6469 0c1b 9A000000 		.4byte	.LVL212
 6470 0c1f 9C000000 		.4byte	.LVL213
 6471 0c23 0300     		.2byte	0x3
 6472 0c25 73       		.byte	0x73
 6473 0c26 01       		.sleb128 1
 6474 0c27 9F       		.byte	0x9f
 6475 0c28 9C000000 		.4byte	.LVL213
 6476 0c2c A9000000 		.4byte	.LVL216-1
 6477 0c30 0800     		.2byte	0x8
 6478 0c32 70       		.byte	0x70
 6479 0c33 8801     		.sleb128 136
 6480 0c35 94       		.byte	0x94
 6481 0c36 02       		.byte	0x2
 6482 0c37 3F       		.byte	0x3f
 6483 0c38 1A       		.byte	0x1a
 6484 0c39 9F       		.byte	0x9f
 6485 0c3a AC000000 		.4byte	.LVL217
 6486 0c3e B2000000 		.4byte	.LVL218
 6487 0c42 0300     		.2byte	0x3
 6488 0c44 73       		.byte	0x73
 6489 0c45 01       		.sleb128 1
 6490 0c46 9F       		.byte	0x9f
 6491 0c47 B2000000 		.4byte	.LVL218
 6492 0c4b BF000000 		.4byte	.LVL220-1
 6493 0c4f 0800     		.2byte	0x8
 6494 0c51 70       		.byte	0x70
 6495 0c52 8801     		.sleb128 136
 6496 0c54 94       		.byte	0x94
 6497 0c55 02       		.byte	0x2
 6498 0c56 3F       		.byte	0x3f
 6499 0c57 1A       		.byte	0x1a
 6500 0c58 9F       		.byte	0x9f
ARM GAS  C:\Users\jorti\AppData\Local\Temp\ccCX4ftZ.s 			page 142


 6501 0c59 C2000000 		.4byte	.LVL221
 6502 0c5d C8000000 		.4byte	.LVL222
 6503 0c61 0300     		.2byte	0x3
 6504 0c63 73       		.byte	0x73
 6505 0c64 01       		.sleb128 1
 6506 0c65 9F       		.byte	0x9f
 6507 0c66 C8000000 		.4byte	.LVL222
 6508 0c6a D3000000 		.4byte	.LVL224-1
 6509 0c6e 0800     		.2byte	0x8
 6510 0c70 70       		.byte	0x70
 6511 0c71 8801     		.sleb128 136
 6512 0c73 94       		.byte	0x94
 6513 0c74 02       		.byte	0x2
 6514 0c75 3F       		.byte	0x3f
 6515 0c76 1A       		.byte	0x1a
 6516 0c77 9F       		.byte	0x9f
 6517 0c78 D6000000 		.4byte	.LVL225
 6518 0c7c DB000000 		.4byte	.LVL227-1
 6519 0c80 0300     		.2byte	0x3
 6520 0c82 73       		.byte	0x73
 6521 0c83 01       		.sleb128 1
 6522 0c84 9F       		.byte	0x9f
 6523 0c85 00000000 		.4byte	0
 6524 0c89 00000000 		.4byte	0
 6525              	.LLST55:
 6526 0c8d 66000000 		.4byte	.LVL204
 6527 0c91 6C000000 		.4byte	.LVL206
 6528 0c95 0100     		.2byte	0x1
 6529 0c97 54       		.byte	0x54
 6530 0c98 EA000000 		.4byte	.LVL228
 6531 0c9c 0C010000 		.4byte	.LVL236
 6532 0ca0 0100     		.2byte	0x1
 6533 0ca2 54       		.byte	0x54
 6534 0ca3 00000000 		.4byte	0
 6535 0ca7 00000000 		.4byte	0
 6536              	.LLST56:
 6537 0cab 6C000000 		.4byte	.LVL206
 6538 0caf F2000000 		.4byte	.LVL231
 6539 0cb3 0100     		.2byte	0x1
 6540 0cb5 54       		.byte	0x54
 6541 0cb6 00000000 		.4byte	0
 6542 0cba 00000000 		.4byte	0
 6543              	.LLST57:
 6544 0cbe 68000000 		.4byte	.LVL205
 6545 0cc2 97000000 		.4byte	.LVL211-1
 6546 0cc6 0100     		.2byte	0x1
 6547 0cc8 50       		.byte	0x50
 6548 0cc9 9A000000 		.4byte	.LVL212
 6549 0ccd A9000000 		.4byte	.LVL216-1
 6550 0cd1 0100     		.2byte	0x1
 6551 0cd3 50       		.byte	0x50
 6552 0cd4 AC000000 		.4byte	.LVL217
 6553 0cd8 BF000000 		.4byte	.LVL220-1
 6554 0cdc 0100     		.2byte	0x1
 6555 0cde 50       		.byte	0x50
 6556 0cdf C2000000 		.4byte	.LVL221
 6557 0ce3 D3000000 		.4byte	.LVL224-1
ARM GAS  C:\Users\jorti\AppData\Local\Temp\ccCX4ftZ.s 			page 143


 6558 0ce7 0100     		.2byte	0x1
 6559 0ce9 50       		.byte	0x50
 6560 0cea D6000000 		.4byte	.LVL225
 6561 0cee D8000000 		.4byte	.LVL226
 6562 0cf2 0100     		.2byte	0x1
 6563 0cf4 50       		.byte	0x50
 6564 0cf5 EE000000 		.4byte	.LVL229
 6565 0cf9 F0000000 		.4byte	.LVL230
 6566 0cfd 0100     		.2byte	0x1
 6567 0cff 50       		.byte	0x50
 6568 0d00 F2000000 		.4byte	.LVL231
 6569 0d04 F8000000 		.4byte	.LVL232
 6570 0d08 0100     		.2byte	0x1
 6571 0d0a 50       		.byte	0x50
 6572 0d0b 00000000 		.4byte	0
 6573 0d0f 00000000 		.4byte	0
 6574              	.LLST58:
 6575 0d13 0C000000 		.4byte	.LVL191
 6576 0d17 12000000 		.4byte	.LVL193
 6577 0d1b 0200     		.2byte	0x2
 6578 0d1d 30       		.byte	0x30
 6579 0d1e 9F       		.byte	0x9f
 6580 0d1f 12000000 		.4byte	.LVL193
 6581 0d23 3D000000 		.4byte	.LVL198-1
 6582 0d27 0100     		.2byte	0x1
 6583 0d29 50       		.byte	0x50
 6584 0d2a 3D000000 		.4byte	.LVL198-1
 6585 0d2e 4C000000 		.4byte	.LVL199
 6586 0d32 0100     		.2byte	0x1
 6587 0d34 58       		.byte	0x58
 6588 0d35 4C000000 		.4byte	.LVL199
 6589 0d39 54000000 		.4byte	.LVL201
 6590 0d3d 0100     		.2byte	0x1
 6591 0d3f 50       		.byte	0x50
 6592 0d40 54000000 		.4byte	.LVL201
 6593 0d44 64000000 		.4byte	.LVL203
 6594 0d48 0100     		.2byte	0x1
 6595 0d4a 58       		.byte	0x58
 6596 0d4b 64000000 		.4byte	.LVL203
 6597 0d4f 68000000 		.4byte	.LVL205
 6598 0d53 0100     		.2byte	0x1
 6599 0d55 50       		.byte	0x50
 6600 0d56 68000000 		.4byte	.LVL205
 6601 0d5a 0A010000 		.4byte	.LVL235
 6602 0d5e 0100     		.2byte	0x1
 6603 0d60 58       		.byte	0x58
 6604 0d61 0A010000 		.4byte	.LVL235
 6605 0d65 0F010000 		.4byte	.LVL237-1
 6606 0d69 0100     		.2byte	0x1
 6607 0d6b 50       		.byte	0x50
 6608 0d6c 00000000 		.4byte	0
 6609 0d70 00000000 		.4byte	0
 6610              	.LLST59:
 6611 0d74 00000000 		.4byte	.LVL238
 6612 0d78 18000000 		.4byte	.LVL241
 6613 0d7c 0100     		.2byte	0x1
 6614 0d7e 50       		.byte	0x50
ARM GAS  C:\Users\jorti\AppData\Local\Temp\ccCX4ftZ.s 			page 144


 6615 0d7f 18000000 		.4byte	.LVL241
 6616 0d83 2C000000 		.4byte	.LVL244
 6617 0d87 0100     		.2byte	0x1
 6618 0d89 54       		.byte	0x54
 6619 0d8a 2C000000 		.4byte	.LVL244
 6620 0d8e 40000000 		.4byte	.LVL247
 6621 0d92 0100     		.2byte	0x1
 6622 0d94 56       		.byte	0x56
 6623 0d95 40000000 		.4byte	.LVL247
 6624 0d99 44000000 		.4byte	.LFE6
 6625 0d9d 0400     		.2byte	0x4
 6626 0d9f F3       		.byte	0xf3
 6627 0da0 01       		.uleb128 0x1
 6628 0da1 50       		.byte	0x50
 6629 0da2 9F       		.byte	0x9f
 6630 0da3 00000000 		.4byte	0
 6631 0da7 00000000 		.4byte	0
 6632              	.LLST60:
 6633 0dab 00000000 		.4byte	.LVL238
 6634 0daf 31000000 		.4byte	.LVL245-1
 6635 0db3 0100     		.2byte	0x1
 6636 0db5 51       		.byte	0x51
 6637 0db6 31000000 		.4byte	.LVL245-1
 6638 0dba 40000000 		.4byte	.LVL247
 6639 0dbe 0100     		.2byte	0x1
 6640 0dc0 57       		.byte	0x57
 6641 0dc1 40000000 		.4byte	.LVL247
 6642 0dc5 44000000 		.4byte	.LFE6
 6643 0dc9 0400     		.2byte	0x4
 6644 0dcb F3       		.byte	0xf3
 6645 0dcc 01       		.uleb128 0x1
 6646 0dcd 51       		.byte	0x51
 6647 0dce 9F       		.byte	0x9f
 6648 0dcf 00000000 		.4byte	0
 6649 0dd3 00000000 		.4byte	0
 6650              	.LLST61:
 6651 0dd7 00000000 		.4byte	.LVL238
 6652 0ddb 06000000 		.4byte	.LVL239
 6653 0ddf 0100     		.2byte	0x1
 6654 0de1 52       		.byte	0x52
 6655 0de2 06000000 		.4byte	.LVL239
 6656 0de6 0A000000 		.4byte	.LVL240
 6657 0dea 0400     		.2byte	0x4
 6658 0dec F3       		.byte	0xf3
 6659 0ded 01       		.uleb128 0x1
 6660 0dee 52       		.byte	0x52
 6661 0def 9F       		.byte	0x9f
 6662 0df0 0A000000 		.4byte	.LVL240
 6663 0df4 20000000 		.4byte	.LVL242
 6664 0df8 0100     		.2byte	0x1
 6665 0dfa 52       		.byte	0x52
 6666 0dfb 20000000 		.4byte	.LVL242
 6667 0dff 26000000 		.4byte	.LVL243
 6668 0e03 0400     		.2byte	0x4
 6669 0e05 F3       		.byte	0xf3
 6670 0e06 01       		.uleb128 0x1
 6671 0e07 52       		.byte	0x52
ARM GAS  C:\Users\jorti\AppData\Local\Temp\ccCX4ftZ.s 			page 145


 6672 0e08 9F       		.byte	0x9f
 6673 0e09 26000000 		.4byte	.LVL243
 6674 0e0d 31000000 		.4byte	.LVL245-1
 6675 0e11 0100     		.2byte	0x1
 6676 0e13 52       		.byte	0x52
 6677 0e14 31000000 		.4byte	.LVL245-1
 6678 0e18 44000000 		.4byte	.LFE6
 6679 0e1c 0400     		.2byte	0x4
 6680 0e1e F3       		.byte	0xf3
 6681 0e1f 01       		.uleb128 0x1
 6682 0e20 52       		.byte	0x52
 6683 0e21 9F       		.byte	0x9f
 6684 0e22 00000000 		.4byte	0
 6685 0e26 00000000 		.4byte	0
 6686              	.LLST62:
 6687 0e2a 00000000 		.4byte	.LVL238
 6688 0e2e 31000000 		.4byte	.LVL245-1
 6689 0e32 0100     		.2byte	0x1
 6690 0e34 53       		.byte	0x53
 6691 0e35 31000000 		.4byte	.LVL245-1
 6692 0e39 40000000 		.4byte	.LVL247
 6693 0e3d 0100     		.2byte	0x1
 6694 0e3f 55       		.byte	0x55
 6695 0e40 40000000 		.4byte	.LVL247
 6696 0e44 44000000 		.4byte	.LFE6
 6697 0e48 0400     		.2byte	0x4
 6698 0e4a F3       		.byte	0xf3
 6699 0e4b 01       		.uleb128 0x1
 6700 0e4c 53       		.byte	0x53
 6701 0e4d 9F       		.byte	0x9f
 6702 0e4e 00000000 		.4byte	0
 6703 0e52 00000000 		.4byte	0
 6704              	.LLST63:
 6705 0e56 32000000 		.4byte	.LVL245
 6706 0e5a 3C000000 		.4byte	.LVL246
 6707 0e5e 0100     		.2byte	0x1
 6708 0e60 50       		.byte	0x50
 6709 0e61 3C000000 		.4byte	.LVL246
 6710 0e65 3F000000 		.4byte	.LVL247-1
 6711 0e69 0100     		.2byte	0x1
 6712 0e6b 53       		.byte	0x53
 6713 0e6c 00000000 		.4byte	0
 6714 0e70 00000000 		.4byte	0
 6715              		.section	.debug_aranges,"",%progbits
 6716 0000 7C000000 		.4byte	0x7c
 6717 0004 0200     		.2byte	0x2
 6718 0006 00000000 		.4byte	.Ldebug_info0
 6719 000a 04       		.byte	0x4
 6720 000b 00       		.byte	0
 6721 000c 0000     		.2byte	0
 6722 000e 0000     		.2byte	0
 6723 0010 00000000 		.4byte	.LFB4
 6724 0014 A4000000 		.4byte	.LFE4-.LFB4
 6725 0018 00000000 		.4byte	.LFB5
 6726 001c 34000000 		.4byte	.LFE5-.LFB5
 6727 0020 00000000 		.4byte	.LFB7
 6728 0024 24000000 		.4byte	.LFE7-.LFB7
ARM GAS  C:\Users\jorti\AppData\Local\Temp\ccCX4ftZ.s 			page 146


 6729 0028 00000000 		.4byte	.LFB3
 6730 002c CC030000 		.4byte	.LFE3-.LFB3
 6731 0030 00000000 		.4byte	.LFB8
 6732 0034 20000000 		.4byte	.LFE8-.LFB8
 6733 0038 00000000 		.4byte	.LFB9
 6734 003c 18000000 		.4byte	.LFE9-.LFB9
 6735 0040 00000000 		.4byte	.LFB10
 6736 0044 24000000 		.4byte	.LFE10-.LFB10
 6737 0048 00000000 		.4byte	.LFB1
 6738 004c 68000000 		.4byte	.LFE1-.LFB1
 6739 0050 00000000 		.4byte	.LFB11
 6740 0054 30000000 		.4byte	.LFE11-.LFB11
 6741 0058 00000000 		.4byte	.LFB2
 6742 005c DC000000 		.4byte	.LFE2-.LFB2
 6743 0060 00000000 		.4byte	.LFB13
 6744 0064 42000000 		.4byte	.LFE13-.LFB13
 6745 0068 00000000 		.4byte	.LFB12
 6746 006c 1C010000 		.4byte	.LFE12-.LFB12
 6747 0070 00000000 		.4byte	.LFB6
 6748 0074 44000000 		.4byte	.LFE6-.LFB6
 6749 0078 00000000 		.4byte	0
 6750 007c 00000000 		.4byte	0
 6751              		.section	.debug_ranges,"",%progbits
 6752              	.Ldebug_ranges0:
 6753 0000 00000000 		.4byte	.LFB4
 6754 0004 A4000000 		.4byte	.LFE4
 6755 0008 00000000 		.4byte	.LFB5
 6756 000c 34000000 		.4byte	.LFE5
 6757 0010 00000000 		.4byte	.LFB7
 6758 0014 24000000 		.4byte	.LFE7
 6759 0018 00000000 		.4byte	.LFB3
 6760 001c CC030000 		.4byte	.LFE3
 6761 0020 00000000 		.4byte	.LFB8
 6762 0024 20000000 		.4byte	.LFE8
 6763 0028 00000000 		.4byte	.LFB9
 6764 002c 18000000 		.4byte	.LFE9
 6765 0030 00000000 		.4byte	.LFB10
 6766 0034 24000000 		.4byte	.LFE10
 6767 0038 00000000 		.4byte	.LFB1
 6768 003c 68000000 		.4byte	.LFE1
 6769 0040 00000000 		.4byte	.LFB11
 6770 0044 30000000 		.4byte	.LFE11
 6771 0048 00000000 		.4byte	.LFB2
 6772 004c DC000000 		.4byte	.LFE2
 6773 0050 00000000 		.4byte	.LFB13
 6774 0054 42000000 		.4byte	.LFE13
 6775 0058 00000000 		.4byte	.LFB12
 6776 005c 1C010000 		.4byte	.LFE12
 6777 0060 00000000 		.4byte	.LFB6
 6778 0064 44000000 		.4byte	.LFE6
 6779 0068 00000000 		.4byte	0
 6780 006c 00000000 		.4byte	0
 6781              		.section	.debug_line,"",%progbits
 6782              	.Ldebug_line0:
 6783 0000 FD020000 		.section	.debug_str,"MS",%progbits,1
 6783      02009200 
 6783      00000201 
ARM GAS  C:\Users\jorti\AppData\Local\Temp\ccCX4ftZ.s 			page 147


 6783      FB0E0D00 
 6783      01010101 
 6784              	.LASF227:
 6785 0000 6F735F74 		.ascii	"os_tcb\000"
 6785      636200
 6786              	.LASF109:
 6787 0007 4F535F45 		.ascii	"OS_ERR_PRIO_INVALID\000"
 6787      52525F50 
 6787      52494F5F 
 6787      494E5641 
 6787      4C494400 
 6788              	.LASF202:
 6789 001b 4F535F45 		.ascii	"OS_ERR\000"
 6789      525200
 6790              	.LASF26:
 6791 0022 4F535F43 		.ascii	"OS_CTX_SW_CTR\000"
 6791      54585F53 
 6791      575F4354 
 6791      5200
 6792              	.LASF188:
 6793 0030 4F535F45 		.ascii	"OS_ERR_TMR_ISR\000"
 6793      52525F54 
 6793      4D525F49 
 6793      535200
 6794              	.LASF175:
 6795 003f 4F535F45 		.ascii	"OS_ERR_TIME_INVALID_MINUTES\000"
 6795      52525F54 
 6795      494D455F 
 6795      494E5641 
 6795      4C49445F 
 6796              	.LASF42:
 6797 005b 4F535F45 		.ascii	"OS_ERR_A\000"
 6797      52525F41 
 6797      00
 6798              	.LASF44:
 6799 0064 4F535F45 		.ascii	"OS_ERR_B\000"
 6799      52525F42 
 6799      00
 6800              	.LASF45:
 6801 006d 4F535F45 		.ascii	"OS_ERR_C\000"
 6801      52525F43 
 6801      00
 6802              	.LASF47:
 6803 0076 4F535F45 		.ascii	"OS_ERR_D\000"
 6803      52525F44 
 6803      00
 6804              	.LASF49:
 6805 007f 4F535F45 		.ascii	"OS_ERR_E\000"
 6805      52525F45 
 6805      00
 6806              	.LASF50:
 6807 0088 4F535F45 		.ascii	"OS_ERR_F\000"
 6807      52525F46 
 6807      00
 6808              	.LASF56:
 6809 0091 4F535F45 		.ascii	"OS_ERR_G\000"
 6809      52525F47 
ARM GAS  C:\Users\jorti\AppData\Local\Temp\ccCX4ftZ.s 			page 148


 6809      00
 6810              	.LASF57:
 6811 009a 4F535F45 		.ascii	"OS_ERR_H\000"
 6811      52525F48 
 6811      00
 6812              	.LASF58:
 6813 00a3 4F535F45 		.ascii	"OS_ERR_I\000"
 6813      52525F49 
 6813      00
 6814              	.LASF65:
 6815 00ac 4F535F45 		.ascii	"OS_ERR_J\000"
 6815      52525F4A 
 6815      00
 6816              	.LASF66:
 6817 00b5 4F535F45 		.ascii	"OS_ERR_K\000"
 6817      52525F4B 
 6817      00
 6818              	.LASF67:
 6819 00be 4F535F45 		.ascii	"OS_ERR_L\000"
 6819      52525F4C 
 6819      00
 6820              	.LASF69:
 6821 00c7 4F535F45 		.ascii	"OS_ERR_M\000"
 6821      52525F4D 
 6821      00
 6822              	.LASF85:
 6823 00d0 4F535F45 		.ascii	"OS_ERR_N\000"
 6823      52525F4E 
 6823      00
 6824              	.LASF88:
 6825 00d9 4F535F45 		.ascii	"OS_ERR_O\000"
 6825      52525F4F 
 6825      00
 6826              	.LASF96:
 6827 00e2 4F535F45 		.ascii	"OS_ERR_P\000"
 6827      52525F50 
 6827      00
 6828              	.LASF111:
 6829 00eb 4F535F45 		.ascii	"OS_ERR_Q\000"
 6829      52525F51 
 6829      00
 6830              	.LASF116:
 6831 00f4 4F535F45 		.ascii	"OS_ERR_R\000"
 6831      52525F52 
 6831      00
 6832              	.LASF120:
 6833 00fd 4F535F45 		.ascii	"OS_ERR_S\000"
 6833      52525F53 
 6833      00
 6834              	.LASF137:
 6835 0106 4F535F45 		.ascii	"OS_ERR_T\000"
 6835      52525F54 
 6835      00
 6836              	.LASF195:
 6837 010f 4F535F45 		.ascii	"OS_ERR_U\000"
 6837      52525F55 
 6837      00
ARM GAS  C:\Users\jorti\AppData\Local\Temp\ccCX4ftZ.s 			page 149


 6838              	.LASF196:
 6839 0118 4F535F45 		.ascii	"OS_ERR_V\000"
 6839      52525F56 
 6839      00
 6840              	.LASF197:
 6841 0121 4F535F45 		.ascii	"OS_ERR_W\000"
 6841      52525F57 
 6841      00
 6842              	.LASF198:
 6843 012a 4F535F45 		.ascii	"OS_ERR_X\000"
 6843      52525F58 
 6843      00
 6844              	.LASF185:
 6845 0133 4F535F45 		.ascii	"OS_ERR_TMR_INVALID_PERIOD\000"
 6845      52525F54 
 6845      4D525F49 
 6845      4E56414C 
 6845      49445F50 
 6846              	.LASF337:
 6847 014d 6F735F65 		.ascii	"os_err\000"
 6847      727200
 6848              	.LASF295:
 6849 0154 666C6167 		.ascii	"flags\000"
 6849      7300
 6850              	.LASF223:
 6851 015a 4E627245 		.ascii	"NbrEntries\000"
 6851      6E747269 
 6851      657300
 6852              	.LASF212:
 6853 0165 6F735F66 		.ascii	"os_flag_grp\000"
 6853      6C61675F 
 6853      67727000 
 6854              	.LASF62:
 6855 0171 4F535F45 		.ascii	"OS_ERR_INT_Q_SIZE\000"
 6855      52525F49 
 6855      4E545F51 
 6855      5F53495A 
 6855      4500
 6856              	.LASF46:
 6857 0183 4F535F45 		.ascii	"OS_ERR_CREATE_ISR\000"
 6857      52525F43 
 6857      52454154 
 6857      455F4953 
 6857      5200
 6858              	.LASF25:
 6859 0195 4F535F43 		.ascii	"OS_CPU_USAGE\000"
 6859      50555F55 
 6859      53414745 
 6859      00
 6860              	.LASF169:
 6861 01a2 4F535F45 		.ascii	"OS_ERR_TICK_STK_SIZE_INVALID\000"
 6861      52525F54 
 6861      49434B5F 
 6861      53544B5F 
 6861      53495A45 
 6862              	.LASF9:
 6863 01bf 4350555F 		.ascii	"CPU_INT32U\000"
ARM GAS  C:\Users\jorti\AppData\Local\Temp\ccCX4ftZ.s 			page 150


 6863      494E5433 
 6863      325500
 6864              	.LASF308:
 6865 01ca 4F53466C 		.ascii	"OSFlagCreate\000"
 6865      61674372 
 6865      65617465 
 6865      00
 6866              	.LASF323:
 6867 01d7 4F535443 		.ascii	"OSTCBCurPtr\000"
 6867      42437572 
 6867      50747200 
 6868              	.LASF134:
 6869 01e3 4F535F45 		.ascii	"OS_ERR_STK_INVALID\000"
 6869      52525F53 
 6869      544B5F49 
 6869      4E56414C 
 6869      494400
 6870              	.LASF327:
 6871 01f6 4F535F50 		.ascii	"OS_PendAbort\000"
 6871      656E6441 
 6871      626F7274 
 6871      00
 6872              	.LASF257:
 6873 0203 466C6167 		.ascii	"FlagsOpt\000"
 6873      734F7074 
 6873      00
 6874              	.LASF150:
 6875 020c 4F535F45 		.ascii	"OS_ERR_TASK_RESUME_ISR\000"
 6875      52525F54 
 6875      41534B5F 
 6875      52455355 
 6875      4D455F49 
 6876              	.LASF104:
 6877 0223 4F535F45 		.ascii	"OS_ERR_PEND_WOULD_BLOCK\000"
 6877      52525F50 
 6877      454E445F 
 6877      574F554C 
 6877      445F424C 
 6878              	.LASF138:
 6879 023b 4F535F45 		.ascii	"OS_ERR_TASK_CHANGE_PRIO_ISR\000"
 6879      52525F54 
 6879      41534B5F 
 6879      4348414E 
 6879      47455F50 
 6880              	.LASF333:
 6881 0257 4F535F50 		.ascii	"OS_PendListRemove\000"
 6881      656E644C 
 6881      69737452 
 6881      656D6F76 
 6881      6500
 6882              	.LASF128:
 6883 0269 4F535F45 		.ascii	"OS_ERR_STAT_RESET_ISR\000"
 6883      52525F53 
 6883      5441545F 
 6883      52455345 
 6883      545F4953 
 6884              	.LASF103:
ARM GAS  C:\Users\jorti\AppData\Local\Temp\ccCX4ftZ.s 			page 151


 6885 027f 4F535F45 		.ascii	"OS_ERR_PEND_LOCKED\000"
 6885      52525F50 
 6885      454E445F 
 6885      4C4F434B 
 6885      454400
 6886              	.LASF32:
 6887 0292 4F535F4F 		.ascii	"OS_OBJ_QTY\000"
 6887      424A5F51 
 6887      545900
 6888              	.LASF148:
 6889 029d 4F535F45 		.ascii	"OS_ERR_TASK_NOT_SUSPENDED\000"
 6889      52525F54 
 6889      41534B5F 
 6889      4E4F545F 
 6889      53555350 
 6890              	.LASF305:
 6891 02b7 4F535F46 		.ascii	"OS_FlagClr\000"
 6891      6C616743 
 6891      6C7200
 6892              	.LASF146:
 6893 02c2 4F535F45 		.ascii	"OS_ERR_TASK_NOT_DLY\000"
 6893      52525F54 
 6893      41534B5F 
 6893      4E4F545F 
 6893      444C5900 
 6894              	.LASF207:
 6895 02d6 44626750 		.ascii	"DbgPrevPtr\000"
 6895      72657650 
 6895      747200
 6896              	.LASF60:
 6897 02e1 4F535F45 		.ascii	"OS_ERR_INT_Q\000"
 6897      52525F49 
 6897      4E545F51 
 6897      00
 6898              	.LASF208:
 6899 02ee 4462674E 		.ascii	"DbgNextPtr\000"
 6899      65787450 
 6899      747200
 6900              	.LASF318:
 6901 02f9 4F53466C 		.ascii	"OSFlagPost\000"
 6901      6167506F 
 6901      737400
 6902              	.LASF160:
 6903 0304 4F535F45 		.ascii	"OS_ERR_TASK_WAITING\000"
 6903      52525F54 
 6903      41534B5F 
 6903      57414954 
 6903      494E4700 
 6904              	.LASF330:
 6905 0318 4F535F50 		.ascii	"OS_PendListInit\000"
 6905      656E644C 
 6905      69737449 
 6905      6E697400 
 6906              	.LASF43:
 6907 0328 4F535F45 		.ascii	"OS_ERR_ACCEPT_ISR\000"
 6907      52525F41 
 6907      43434550 
ARM GAS  C:\Users\jorti\AppData\Local\Temp\ccCX4ftZ.s 			page 152


 6907      545F4953 
 6907      5200
 6908              	.LASF158:
 6909 033a 4F535F45 		.ascii	"OS_ERR_TASK_SUSPEND_ISR\000"
 6909      52525F54 
 6909      41534B5F 
 6909      53555350 
 6909      454E445F 
 6910              	.LASF302:
 6911 0352 6D6F6465 		.ascii	"mode\000"
 6911      00
 6912              	.LASF84:
 6913 0357 4F535F45 		.ascii	"OS_ERR_MUTEX_NESTING\000"
 6913      52525F4D 
 6913      55544558 
 6913      5F4E4553 
 6913      54494E47 
 6914              	.LASF289:
 6915 036c 705F7065 		.ascii	"p_pend_list\000"
 6915      6E645F6C 
 6915      69737400 
 6916              	.LASF186:
 6917 0378 4F535F45 		.ascii	"OS_ERR_TMR_INVALID_STATE\000"
 6917      52525F54 
 6917      4D525F49 
 6917      4E56414C 
 6917      49445F53 
 6918              	.LASF239:
 6919 0391 50656E64 		.ascii	"PendOn\000"
 6919      4F6E00
 6920              	.LASF244:
 6921 0398 50656E64 		.ascii	"PendDataTblEntries\000"
 6921      44617461 
 6921      54626C45 
 6921      6E747269 
 6921      657300
 6922              	.LASF287:
 6923 03ab 705F6772 		.ascii	"p_grp\000"
 6923      7000
 6924              	.LASF89:
 6925 03b1 4F535F45 		.ascii	"OS_ERR_OBJ_CREATED\000"
 6925      52525F4F 
 6925      424A5F43 
 6925      52454154 
 6925      454400
 6926              	.LASF284:
 6927 03c4 5461696C 		.ascii	"TailPtr\000"
 6927      50747200 
 6928              	.LASF156:
 6929 03cc 4F535F45 		.ascii	"OS_ERR_TASK_SUSPEND_IDLE\000"
 6929      52525F54 
 6929      41534B5F 
 6929      53555350 
 6929      454E445F 
 6930              	.LASF61:
 6931 03e5 4F535F45 		.ascii	"OS_ERR_INT_Q_FULL\000"
 6931      52525F49 
ARM GAS  C:\Users\jorti\AppData\Local\Temp\ccCX4ftZ.s 			page 153


 6931      4E545F51 
 6931      5F46554C 
 6931      4C00
 6932              	.LASF247:
 6933 03f7 5469636B 		.ascii	"TickCtrMatch\000"
 6933      4374724D 
 6933      61746368 
 6933      00
 6934              	.LASF278:
 6935 0404 5264794D 		.ascii	"RdyMsgPtr\000"
 6935      73675074 
 6935      7200
 6936              	.LASF286:
 6937 040e 6F735F70 		.ascii	"os_pend_obj\000"
 6937      656E645F 
 6937      6F626A00 
 6938              	.LASF59:
 6939 041a 4F535F45 		.ascii	"OS_ERR_ILLEGAL_CREATE_RUN_TIME\000"
 6939      52525F49 
 6939      4C4C4547 
 6939      414C5F43 
 6939      52454154 
 6940              	.LASF255:
 6941 0439 466C6167 		.ascii	"FlagsPend\000"
 6941      7350656E 
 6941      6400
 6942              	.LASF184:
 6943 0443 4F535F45 		.ascii	"OS_ERR_TMR_INVALID_DLY\000"
 6943      52525F54 
 6943      4D525F49 
 6943      4E56414C 
 6943      49445F44 
 6944              	.LASF329:
 6945 045a 4F535F50 		.ascii	"OS_Pend\000"
 6945      656E6400 
 6946              	.LASF261:
 6947 0462 43747853 		.ascii	"CtxSwCtr\000"
 6947      77437472 
 6947      00
 6948              	.LASF151:
 6949 046b 4F535F45 		.ascii	"OS_ERR_TASK_RESUME_PRIO\000"
 6949      52525F54 
 6949      41534B5F 
 6949      52455355 
 6949      4D455F50 
 6950              	.LASF210:
 6951 0483 466C6167 		.ascii	"Flags\000"
 6951      7300
 6952              	.LASF35:
 6953 0489 4F535F50 		.ascii	"OS_PRIO\000"
 6953      52494F00 
 6954              	.LASF13:
 6955 0491 666C6F61 		.ascii	"float\000"
 6955      7400
 6956              	.LASF105:
 6957 0497 4F535F45 		.ascii	"OS_ERR_POST_NULL_PTR\000"
 6957      52525F50 
ARM GAS  C:\Users\jorti\AppData\Local\Temp\ccCX4ftZ.s 			page 154


 6957      4F53545F 
 6957      4E554C4C 
 6957      5F505452 
 6958              	.LASF87:
 6959 04ac 4F535F45 		.ascii	"OS_ERR_NO_MORE_ID_AVAIL\000"
 6959      52525F4E 
 6959      4F5F4D4F 
 6959      52455F49 
 6959      445F4156 
 6960              	.LASF270:
 6961 04c4 4F535F54 		.ascii	"OS_TICK_SPOKE\000"
 6961      49434B5F 
 6961      53504F4B 
 6961      4500
 6962              	.LASF77:
 6963 04d2 4F535F45 		.ascii	"OS_ERR_MEM_INVALID_P_DATA\000"
 6963      52525F4D 
 6963      454D5F49 
 6963      4E56414C 
 6963      49445F50 
 6964              	.LASF292:
 6965 04ec 6370755F 		.ascii	"cpu_sr\000"
 6965      737200
 6966              	.LASF189:
 6967 04f3 4F535F45 		.ascii	"OS_ERR_TMR_NO_CALLBACK\000"
 6967      52525F54 
 6967      4D525F4E 
 6967      4F5F4341 
 6967      4C4C4241 
 6968              	.LASF182:
 6969 050a 4F535F45 		.ascii	"OS_ERR_TMR_INACTIVE\000"
 6969      52525F54 
 6969      4D525F49 
 6969      4E414354 
 6969      49564500 
 6970              	.LASF311:
 6971 051e 705F6772 		.ascii	"p_grp_next\000"
 6971      705F6E65 
 6971      787400
 6972              	.LASF162:
 6973 0529 4F535F45 		.ascii	"OS_ERR_TLS_ID_INVALID\000"
 6973      52525F54 
 6973      4C535F49 
 6973      445F494E 
 6973      56414C49 
 6974              	.LASF11:
 6975 053f 6C6F6E67 		.ascii	"long long unsigned int\000"
 6975      206C6F6E 
 6975      6720756E 
 6975      7369676E 
 6975      65642069 
 6976              	.LASF153:
 6977 0556 4F535F45 		.ascii	"OS_ERR_TASK_RUNNING\000"
 6977      52525F54 
 6977      41534B5F 
 6977      52554E4E 
 6977      494E4700 
ARM GAS  C:\Users\jorti\AppData\Local\Temp\ccCX4ftZ.s 			page 155


 6978              	.LASF268:
 6979 056a 53746B55 		.ascii	"StkUsed\000"
 6979      73656400 
 6980              	.LASF187:
 6981 0572 4F535F45 		.ascii	"OS_ERR_TMR_INVALID\000"
 6981      52525F54 
 6981      4D525F49 
 6981      4E56414C 
 6981      494400
 6982              	.LASF273:
 6983 0585 4F535F50 		.ascii	"OS_PEND_DATA\000"
 6983      454E445F 
 6983      44415441 
 6983      00
 6984              	.LASF157:
 6985 0592 4F535F45 		.ascii	"OS_ERR_TASK_SUSPEND_INT_HANDLER\000"
 6985      52525F54 
 6985      41534B5F 
 6985      53555350 
 6985      454E445F 
 6986              	.LASF142:
 6987 05b2 4F535F45 		.ascii	"OS_ERR_TASK_DEL_INVALID\000"
 6987      52525F54 
 6987      41534B5F 
 6987      44454C5F 
 6987      494E5641 
 6988              	.LASF192:
 6989 05ca 4F535F45 		.ascii	"OS_ERR_TMR_STK_INVALID\000"
 6989      52525F54 
 6989      4D525F53 
 6989      544B5F49 
 6989      4E56414C 
 6990              	.LASF293:
 6991 05e1 4F53466C 		.ascii	"OSFlagPendAbort\000"
 6991      61675065 
 6991      6E644162 
 6991      6F727400 
 6992              	.LASF4:
 6993 05f1 4350555F 		.ascii	"CPU_INT08U\000"
 6993      494E5430 
 6993      385500
 6994              	.LASF213:
 6995 05fc 6F735F6D 		.ascii	"os_msg\000"
 6995      736700
 6996              	.LASF161:
 6997 0603 4F535F45 		.ascii	"OS_ERR_TCB_INVALID\000"
 6997      52525F54 
 6997      43425F49 
 6997      4E56414C 
 6997      494400
 6998              	.LASF243:
 6999 0616 53746B53 		.ascii	"StkSize\000"
 6999      697A6500 
 7000              	.LASF235:
 7001 061e 53746B42 		.ascii	"StkBasePtr\000"
 7001      61736550 
 7001      747200
ARM GAS  C:\Users\jorti\AppData\Local\Temp\ccCX4ftZ.s 			page 156


 7002              	.LASF113:
 7003 0629 4F535F45 		.ascii	"OS_ERR_Q_EMPTY\000"
 7003      52525F51 
 7003      5F454D50 
 7003      545900
 7004              	.LASF177:
 7005 0638 4F535F45 		.ascii	"OS_ERR_TIME_INVALID_MILLISECONDS\000"
 7005      52525F54 
 7005      494D455F 
 7005      494E5641 
 7005      4C49445F 
 7006              	.LASF36:
 7007 0659 4F535F52 		.ascii	"OS_REG\000"
 7007      454700
 7008              	.LASF334:
 7009 0660 474E5520 		.ascii	"GNU C11 5.4.1 20160609 (release) [ARM/embedded-5-br"
 7009      43313120 
 7009      352E342E 
 7009      31203230 
 7009      31363036 
 7010 0693 616E6368 		.ascii	"anch revision 237715] -mcpu=cortex-m3 -mthumb -g -O"
 7010      20726576 
 7010      6973696F 
 7010      6E203233 
 7010      37373135 
 7011 06c6 67202D66 		.ascii	"g -ffunction-sections -ffat-lto-objects\000"
 7011      66756E63 
 7011      74696F6E 
 7011      2D736563 
 7011      74696F6E 
 7012              	.LASF310:
 7013 06ee 4F535F46 		.ascii	"OS_FlagDbgListRemove\000"
 7013      6C616744 
 7013      62674C69 
 7013      73745265 
 7013      6D6F7665 
 7014              	.LASF86:
 7015 0703 4F535F45 		.ascii	"OS_ERR_NAME\000"
 7015      52525F4E 
 7015      414D4500 
 7016              	.LASF331:
 7017 070f 4F535F50 		.ascii	"OS_PendObjDel\000"
 7017      656E644F 
 7017      626A4465 
 7017      6C00
 7018              	.LASF250:
 7019 071d 54696D65 		.ascii	"TimeQuantaCtr\000"
 7019      5175616E 
 7019      74614374 
 7019      7200
 7020              	.LASF39:
 7021 072b 4F535F53 		.ascii	"OS_STATUS\000"
 7021      54415455 
 7021      5300
 7022              	.LASF241:
 7023 0735 5461736B 		.ascii	"TaskState\000"
 7023      53746174 
ARM GAS  C:\Users\jorti\AppData\Local\Temp\ccCX4ftZ.s 			page 157


 7023      6500
 7024              	.LASF166:
 7025 073f 4F535F45 		.ascii	"OS_ERR_TLS_DESTRUCT_ASSIGNED\000"
 7025      52525F54 
 7025      4C535F44 
 7025      45535452 
 7025      5543545F 
 7026              	.LASF82:
 7027 075c 4F535F45 		.ascii	"OS_ERR_MUTEX_NOT_OWNER\000"
 7027      52525F4D 
 7027      55544558 
 7027      5F4E4F54 
 7027      5F4F574E 
 7028              	.LASF30:
 7029 0773 4F535F4D 		.ascii	"OS_MSG_SIZE\000"
 7029      53475F53 
 7029      495A4500 
 7030              	.LASF174:
 7031 077f 4F535F45 		.ascii	"OS_ERR_TIME_INVALID_HOURS\000"
 7031      52525F54 
 7031      494D455F 
 7031      494E5641 
 7031      4C49445F 
 7032              	.LASF190:
 7033 0799 4F535F45 		.ascii	"OS_ERR_TMR_NON_AVAIL\000"
 7033      52525F54 
 7033      4D525F4E 
 7033      4F4E5F41 
 7033      5641494C 
 7034              	.LASF0:
 7035 07ae 4350555F 		.ascii	"CPU_CHAR\000"
 7035      43484152 
 7035      00
 7036              	.LASF139:
 7037 07b7 4F535F45 		.ascii	"OS_ERR_TASK_CREATE_ISR\000"
 7037      52525F54 
 7037      41534B5F 
 7037      43524541 
 7037      54455F49 
 7038              	.LASF17:
 7039 07ce 4350555F 		.ascii	"CPU_STK_SIZE\000"
 7039      53544B5F 
 7039      53495A45 
 7039      00
 7040              	.LASF306:
 7041 07db 4F535F46 		.ascii	"OS_FlagInit\000"
 7041      6C616749 
 7041      6E697400 
 7042              	.LASF29:
 7043 07e7 4F535F4D 		.ascii	"OS_MSG_QTY\000"
 7043      53475F51 
 7043      545900
 7044              	.LASF95:
 7045 07f2 4F535F45 		.ascii	"OS_ERR_OS_RUNNING\000"
 7045      52525F4F 
 7045      535F5255 
 7045      4E4E494E 
ARM GAS  C:\Users\jorti\AppData\Local\Temp\ccCX4ftZ.s 			page 158


 7045      4700
 7046              	.LASF269:
 7047 0804 53746B46 		.ascii	"StkFree\000"
 7047      72656500 
 7048              	.LASF246:
 7049 080c 5469636B 		.ascii	"TickCtrPrev\000"
 7049      43747250 
 7049      72657600 
 7050              	.LASF222:
 7051 0818 4E627245 		.ascii	"NbrEntriesSize\000"
 7051      6E747269 
 7051      65735369 
 7051      7A6500
 7052              	.LASF180:
 7053 0827 4F535F45 		.ascii	"OS_ERR_TIME_ZERO_DLY\000"
 7053      52525F54 
 7053      494D455F 
 7053      5A45524F 
 7053      5F444C59 
 7054              	.LASF233:
 7055 083c 5469636B 		.ascii	"TickPrevPtr\000"
 7055      50726576 
 7055      50747200 
 7056              	.LASF256:
 7057 0848 466C6167 		.ascii	"FlagsRdy\000"
 7057      73526479 
 7057      00
 7058              	.LASF130:
 7059 0851 4F535F45 		.ascii	"OS_ERR_STAT_STK_INVALID\000"
 7059      52525F53 
 7059      5441545F 
 7059      53544B5F 
 7059      494E5641 
 7060              	.LASF325:
 7061 0869 4350555F 		.ascii	"CPU_SR_Restore\000"
 7061      53525F52 
 7061      6573746F 
 7061      726500
 7062              	.LASF52:
 7063 0878 4F535F45 		.ascii	"OS_ERR_FLAG_GRP_DEPLETED\000"
 7063      52525F46 
 7063      4C41475F 
 7063      4752505F 
 7063      4445504C 
 7064              	.LASF314:
 7065 0891 4F535F46 		.ascii	"OS_FlagTaskRdy\000"
 7065      6C616754 
 7065      61736B52 
 7065      647900
 7066              	.LASF73:
 7067 08a0 4F535F45 		.ascii	"OS_ERR_MEM_INVALID_BLKS\000"
 7067      52525F4D 
 7067      454D5F49 
 7067      4E56414C 
 7067      49445F42 
 7068              	.LASF288:
 7069 08b8 705F6572 		.ascii	"p_err\000"
ARM GAS  C:\Users\jorti\AppData\Local\Temp\ccCX4ftZ.s 			page 159


 7069      7200
 7070              	.LASF253:
 7071 08be 4D736751 		.ascii	"MsgQPendTimeMax\000"
 7071      50656E64 
 7071      54696D65 
 7071      4D617800 
 7072              	.LASF252:
 7073 08ce 4D736751 		.ascii	"MsgQPendTime\000"
 7073      50656E64 
 7073      54696D65 
 7073      00
 7074              	.LASF211:
 7075 08db 4F535F4D 		.ascii	"OS_MSG\000"
 7075      534700
 7076              	.LASF309:
 7077 08e2 705F6E61 		.ascii	"p_name\000"
 7077      6D6500
 7078              	.LASF183:
 7079 08e9 4F535F45 		.ascii	"OS_ERR_TMR_INVALID_DEST\000"
 7079      52525F54 
 7079      4D525F49 
 7079      4E56414C 
 7079      49445F44 
 7080              	.LASF122:
 7081 0901 4F535F45 		.ascii	"OS_ERR_SCHED_LOCK_ISR\000"
 7081      52525F53 
 7081      43484544 
 7081      5F4C4F43 
 7081      4B5F4953 
 7082              	.LASF48:
 7083 0917 4F535F45 		.ascii	"OS_ERR_DEL_ISR\000"
 7083      52525F44 
 7083      454C5F49 
 7083      535200
 7084              	.LASF114:
 7085 0926 4F535F45 		.ascii	"OS_ERR_Q_MAX\000"
 7085      52525F51 
 7085      5F4D4158 
 7085      00
 7086              	.LASF296:
 7087 0933 705F7065 		.ascii	"p_pend_data\000"
 7087      6E645F64 
 7087      61746100 
 7088              	.LASF231:
 7089 093f 50726576 		.ascii	"PrevPtr\000"
 7089      50747200 
 7090              	.LASF2:
 7091 0947 63686172 		.ascii	"char\000"
 7091      00
 7092              	.LASF33:
 7093 094c 4F535F4F 		.ascii	"OS_OBJ_TYPE\000"
 7093      424A5F54 
 7093      59504500 
 7094              	.LASF165:
 7095 0958 4F535F45 		.ascii	"OS_ERR_TLS_NOT_EN\000"
 7095      52525F54 
 7095      4C535F4E 
ARM GAS  C:\Users\jorti\AppData\Local\Temp\ccCX4ftZ.s 			page 160


 7095      4F545F45 
 7095      4E00
 7096              	.LASF93:
 7097 096a 4F535F45 		.ascii	"OS_ERR_OPT_INVALID\000"
 7097      52525F4F 
 7097      50545F49 
 7097      4E56414C 
 7097      494400
 7098              	.LASF18:
 7099 097d 4350555F 		.ascii	"CPU_SR\000"
 7099      535200
 7100              	.LASF304:
 7101 0984 4F535F46 		.ascii	"OS_FlagBlock\000"
 7101      6C616742 
 7101      6C6F636B 
 7101      00
 7102              	.LASF121:
 7103 0991 4F535F45 		.ascii	"OS_ERR_SCHED_INVALID_TIME_SLICE\000"
 7103      52525F53 
 7103      43484544 
 7103      5F494E56 
 7103      414C4944 
 7104              	.LASF251:
 7105 09b1 4D736751 		.ascii	"MsgQ\000"
 7105      00
 7106              	.LASF315:
 7107 09b6 4F535F46 		.ascii	"OS_FlagPost\000"
 7107      6C616750 
 7107      6F737400 
 7108              	.LASF236:
 7109 09c2 5461736B 		.ascii	"TaskEntryAddr\000"
 7109      456E7472 
 7109      79416464 
 7109      7200
 7110              	.LASF129:
 7111 09d0 4F535F45 		.ascii	"OS_ERR_STAT_PRIO_INVALID\000"
 7111      52525F53 
 7111      5441545F 
 7111      5052494F 
 7111      5F494E56 
 7112              	.LASF312:
 7113 09e9 705F6772 		.ascii	"p_grp_prev\000"
 7113      705F7072 
 7113      657600
 7114              	.LASF178:
 7115 09f4 4F535F45 		.ascii	"OS_ERR_TIME_NOT_DLY\000"
 7115      52525F54 
 7115      494D455F 
 7115      4E4F545F 
 7115      444C5900 
 7116              	.LASF205:
 7117 0a08 4E616D65 		.ascii	"NamePtr\000"
 7117      50747200 
 7118              	.LASF240:
 7119 0a10 50656E64 		.ascii	"PendStatus\000"
 7119      53746174 
 7119      757300
ARM GAS  C:\Users\jorti\AppData\Local\Temp\ccCX4ftZ.s 			page 161


 7120              	.LASF218:
 7121 0a1b 4F535F4D 		.ascii	"OS_MSG_Q\000"
 7121      53475F51 
 7121      00
 7122              	.LASF204:
 7123 0a24 54797065 		.ascii	"Type\000"
 7123      00
 7124              	.LASF200:
 7125 0a29 4F535F45 		.ascii	"OS_ERR_YIELD_ISR\000"
 7125      52525F59 
 7125      49454C44 
 7125      5F495352 
 7125      00
 7126              	.LASF90:
 7127 0a3a 4F535F45 		.ascii	"OS_ERR_OBJ_DEL\000"
 7127      52525F4F 
 7127      424A5F44 
 7127      454C00
 7128              	.LASF298:
 7129 0a49 4F53466C 		.ascii	"OSFlagPend\000"
 7129      61675065 
 7129      6E6400
 7130              	.LASF24:
 7131 0a54 4350555F 		.ascii	"CPU_TS\000"
 7131      545300
 7132              	.LASF12:
 7133 0a5b 6C6F6E67 		.ascii	"long long int\000"
 7133      206C6F6E 
 7133      6720696E 
 7133      7400
 7134              	.LASF313:
 7135 0a69 4F53466C 		.ascii	"OSFlagDel\000"
 7135      61674465 
 7135      6C00
 7136              	.LASF54:
 7137 0a73 4F535F45 		.ascii	"OS_ERR_FLAG_PEND_OPT\000"
 7137      52525F46 
 7137      4C41475F 
 7137      50454E44 
 7137      5F4F5054 
 7138              	.LASF228:
 7139 0a88 53746B50 		.ascii	"StkPtr\000"
 7139      747200
 7140              	.LASF271:
 7141 0a8f 6F735F74 		.ascii	"os_tick_spoke\000"
 7141      69636B5F 
 7141      73706F6B 
 7141      6500
 7142              	.LASF290:
 7143 0a9d 705F7463 		.ascii	"p_tcb\000"
 7143      6200
 7144              	.LASF115:
 7145 0aa3 4F535F45 		.ascii	"OS_ERR_Q_SIZE\000"
 7145      52525F51 
 7145      5F53495A 
 7145      4500
 7146              	.LASF263:
ARM GAS  C:\Users\jorti\AppData\Local\Temp\ccCX4ftZ.s 			page 162


 7147 0ab1 4379636C 		.ascii	"CyclesStart\000"
 7147      65735374 
 7147      61727400 
 7148              	.LASF303:
 7149 0abd 70656E64 		.ascii	"pend_data\000"
 7149      5F646174 
 7149      6100
 7150              	.LASF275:
 7151 0ac7 54434250 		.ascii	"TCBPtr\000"
 7151      747200
 7152              	.LASF100:
 7153 0ace 4F535F45 		.ascii	"OS_ERR_PEND_ABORT_SELF\000"
 7153      52525F50 
 7153      454E445F 
 7153      41424F52 
 7153      545F5345 
 7154              	.LASF6:
 7155 0ae5 4350555F 		.ascii	"CPU_INT16U\000"
 7155      494E5431 
 7155      365500
 7156              	.LASF119:
 7157 0af0 4F535F45 		.ascii	"OS_ERR_ROUND_ROBIN_DISABLED\000"
 7157      52525F52 
 7157      4F554E44 
 7157      5F524F42 
 7157      494E5F44 
 7158              	.LASF300:
 7159 0b0c 636F6E73 		.ascii	"consume\000"
 7159      756D6500 
 7160              	.LASF74:
 7161 0b14 4F535F45 		.ascii	"OS_ERR_MEM_INVALID_PART\000"
 7161      52525F4D 
 7161      454D5F49 
 7161      4E56414C 
 7161      49445F50 
 7162              	.LASF91:
 7163 0b2c 4F535F45 		.ascii	"OS_ERR_OBJ_PTR_NULL\000"
 7163      52525F4F 
 7163      424A5F50 
 7163      54525F4E 
 7163      554C4C00 
 7164              	.LASF117:
 7165 0b40 4F535F45 		.ascii	"OS_ERR_REG_ID_INVALID\000"
 7165      52525F52 
 7165      45475F49 
 7165      445F494E 
 7165      56414C49 
 7166              	.LASF291:
 7167 0b56 6E62725F 		.ascii	"nbr_tasks\000"
 7167      7461736B 
 7167      7300
 7168              	.LASF40:
 7169 0b60 4F535F54 		.ascii	"OS_TICK\000"
 7169      49434B00 
 7170              	.LASF71:
 7171 0b68 4F535F45 		.ascii	"OS_ERR_MEM_FULL\000"
 7171      52525F4D 
ARM GAS  C:\Users\jorti\AppData\Local\Temp\ccCX4ftZ.s 			page 163


 7171      454D5F46 
 7171      554C4C00 
 7172              	.LASF145:
 7173 0b78 4F535F45 		.ascii	"OS_ERR_TASK_NO_MORE_TCB\000"
 7173      52525F54 
 7173      41534B5F 
 7173      4E4F5F4D 
 7173      4F52455F 
 7174              	.LASF76:
 7175 0b90 4F535F45 		.ascii	"OS_ERR_MEM_INVALID_P_MEM\000"
 7175      52525F4D 
 7175      454D5F49 
 7175      4E56414C 
 7175      49445F50 
 7176              	.LASF23:
 7177 0ba9 4350555F 		.ascii	"CPU_TS32\000"
 7177      54533332 
 7177      00
 7178              	.LASF258:
 7179 0bb2 53757370 		.ascii	"SuspendCtr\000"
 7179      656E6443 
 7179      747200
 7180              	.LASF230:
 7181 0bbd 53746B4C 		.ascii	"StkLimitPtr\000"
 7181      696D6974 
 7181      50747200 
 7182              	.LASF262:
 7183 0bc9 4379636C 		.ascii	"CyclesDelta\000"
 7183      65734465 
 7183      6C746100 
 7184              	.LASF37:
 7185 0bd5 4F535F53 		.ascii	"OS_SEM_CTR\000"
 7185      454D5F43 
 7185      545200
 7186              	.LASF193:
 7187 0be0 4F535F45 		.ascii	"OS_ERR_TMR_STK_SIZE_INVALID\000"
 7187      52525F54 
 7187      4D525F53 
 7187      544B5F53 
 7187      495A455F 
 7188              	.LASF170:
 7189 0bfc 4F535F45 		.ascii	"OS_ERR_TICK_WHEEL_SIZE\000"
 7189      52525F54 
 7189      49434B5F 
 7189      57484545 
 7189      4C5F5349 
 7190              	.LASF232:
 7191 0c13 5469636B 		.ascii	"TickNextPtr\000"
 7191      4E657874 
 7191      50747200 
 7192              	.LASF147:
 7193 0c1f 4F535F45 		.ascii	"OS_ERR_TASK_NOT_EXIST\000"
 7193      52525F54 
 7193      41534B5F 
 7193      4E4F545F 
 7193      45584953 
 7194              	.LASF317:
ARM GAS  C:\Users\jorti\AppData\Local\Temp\ccCX4ftZ.s 			page 164


 7195 0c35 705F7065 		.ascii	"p_pend_data_next\000"
 7195      6E645F64 
 7195      6174615F 
 7195      6E657874 
 7195      00
 7196              	.LASF144:
 7197 0c46 4F535F45 		.ascii	"OS_ERR_TASK_INVALID\000"
 7197      52525F54 
 7197      41534B5F 
 7197      494E5641 
 7197      4C494400 
 7198              	.LASF191:
 7199 0c5a 4F535F45 		.ascii	"OS_ERR_TMR_PRIO_INVALID\000"
 7199      52525F54 
 7199      4D525F50 
 7199      52494F5F 
 7199      494E5641 
 7200              	.LASF299:
 7201 0c72 705F7473 		.ascii	"p_ts\000"
 7201      00
 7202              	.LASF159:
 7203 0c77 4F535F45 		.ascii	"OS_ERR_TASK_SUSPEND_PRIO\000"
 7203      52525F54 
 7203      41534B5F 
 7203      53555350 
 7203      454E445F 
 7204              	.LASF277:
 7205 0c90 5264794F 		.ascii	"RdyObjPtr\000"
 7205      626A5074 
 7205      7200
 7206              	.LASF64:
 7207 0c9a 4F535F45 		.ascii	"OS_ERR_INT_Q_STK_SIZE_INVALID\000"
 7207      52525F49 
 7207      4E545F51 
 7207      5F53544B 
 7207      5F53495A 
 7208              	.LASF163:
 7209 0cb8 4F535F45 		.ascii	"OS_ERR_TLS_ISR\000"
 7209      52525F54 
 7209      4C535F49 
 7209      535200
 7210              	.LASF143:
 7211 0cc7 4F535F45 		.ascii	"OS_ERR_TASK_DEL_ISR\000"
 7211      52525F54 
 7211      41534B5F 
 7211      44454C5F 
 7211      49535200 
 7212              	.LASF266:
 7213 0cdb 53656D50 		.ascii	"SemPendTime\000"
 7213      656E6454 
 7213      696D6500 
 7214              	.LASF110:
 7215 0ce7 4F535F45 		.ascii	"OS_ERR_PTR_INVALID\000"
 7215      52525F50 
 7215      54525F49 
 7215      4E56414C 
 7215      494400
ARM GAS  C:\Users\jorti\AppData\Local\Temp\ccCX4ftZ.s 			page 165


 7216              	.LASF132:
 7217 0cfa 4F535F45 		.ascii	"OS_ERR_STATE_INVALID\000"
 7217      52525F53 
 7217      54415445 
 7217      5F494E56 
 7217      414C4944 
 7218              	.LASF214:
 7219 0d0f 4E657874 		.ascii	"NextPtr\000"
 7219      50747200 
 7220              	.LASF21:
 7221 0d17 6C6F6E67 		.ascii	"long double\000"
 7221      20646F75 
 7221      626C6500 
 7222              	.LASF94:
 7223 0d23 4F535F45 		.ascii	"OS_ERR_OS_NOT_RUNNING\000"
 7223      52525F4F 
 7223      535F4E4F 
 7223      545F5255 
 7223      4E4E494E 
 7224              	.LASF319:
 7225 0d39 4F53496E 		.ascii	"OSIntNestingCtr\000"
 7225      744E6573 
 7225      74696E67 
 7225      43747200 
 7226              	.LASF179:
 7227 0d49 4F535F45 		.ascii	"OS_ERR_TIME_SET_ISR\000"
 7227      52525F54 
 7227      494D455F 
 7227      5345545F 
 7227      49535200 
 7228              	.LASF118:
 7229 0d5d 4F535F45 		.ascii	"OS_ERR_ROUND_ROBIN_1\000"
 7229      52525F52 
 7229      4F554E44 
 7229      5F524F42 
 7229      494E5F31 
 7230              	.LASF75:
 7231 0d72 4F535F45 		.ascii	"OS_ERR_MEM_INVALID_P_BLK\000"
 7231      52525F4D 
 7231      454D5F49 
 7231      4E56414C 
 7231      49445F50 
 7232              	.LASF72:
 7233 0d8b 4F535F45 		.ascii	"OS_ERR_MEM_INVALID_P_ADDR\000"
 7233      52525F4D 
 7233      454D5F49 
 7233      4E56414C 
 7233      49445F50 
 7234              	.LASF280:
 7235 0da5 52647954 		.ascii	"RdyTS\000"
 7235      5300
 7236              	.LASF68:
 7237 0dab 4F535F45 		.ascii	"OS_ERR_LOCK_NESTING_OVF\000"
 7237      52525F4C 
 7237      4F434B5F 
 7237      4E455354 
 7237      494E475F 
ARM GAS  C:\Users\jorti\AppData\Local\Temp\ccCX4ftZ.s 			page 166


 7238              	.LASF154:
 7239 0dc3 4F535F45 		.ascii	"OS_ERR_TASK_STK_CHK_ISR\000"
 7239      52525F54 
 7239      41534B5F 
 7239      53544B5F 
 7239      43484B5F 
 7240              	.LASF324:
 7241 0ddb 4350555F 		.ascii	"CPU_SR_Save\000"
 7241      53525F53 
 7241      61766500 
 7242              	.LASF8:
 7243 0de7 73686F72 		.ascii	"short int\000"
 7243      7420696E 
 7243      7400
 7244              	.LASF279:
 7245 0df1 5264794D 		.ascii	"RdyMsgSize\000"
 7245      73675369 
 7245      7A6500
 7246              	.LASF80:
 7247 0dfc 4F535F45 		.ascii	"OS_ERR_MSG_POOL_EMPTY\000"
 7247      52525F4D 
 7247      53475F50 
 7247      4F4F4C5F 
 7247      454D5054 
 7248              	.LASF19:
 7249 0e12 6C6F6E67 		.ascii	"long int\000"
 7249      20696E74 
 7249      00
 7250              	.LASF125:
 7251 0e1b 4F535F45 		.ascii	"OS_ERR_SCHED_UNLOCK_ISR\000"
 7251      52525F53 
 7251      43484544 
 7251      5F554E4C 
 7251      4F434B5F 
 7252              	.LASF267:
 7253 0e33 53656D50 		.ascii	"SemPendTimeMax\000"
 7253      656E6454 
 7253      696D654D 
 7253      617800
 7254              	.LASF265:
 7255 0e42 4379636C 		.ascii	"CyclesTotalPrev\000"
 7255      6573546F 
 7255      74616C50 
 7255      72657600 
 7256              	.LASF168:
 7257 0e52 4F535F45 		.ascii	"OS_ERR_TICK_STK_INVALID\000"
 7257      52525F54 
 7257      49434B5F 
 7257      53544B5F 
 7257      494E5641 
 7258              	.LASF81:
 7259 0e6a 4F535F45 		.ascii	"OS_ERR_MSG_POOL_NULL_PTR\000"
 7259      52525F4D 
 7259      53475F50 
 7259      4F4F4C5F 
 7259      4E554C4C 
 7260              	.LASF31:
ARM GAS  C:\Users\jorti\AppData\Local\Temp\ccCX4ftZ.s 			page 167


 7261 0e83 4F535F4E 		.ascii	"OS_NESTING_CTR\000"
 7261      45535449 
 7261      4E475F43 
 7261      545200
 7262              	.LASF264:
 7263 0e92 4379636C 		.ascii	"CyclesTotal\000"
 7263      6573546F 
 7263      74616C00 
 7264              	.LASF285:
 7265 0e9e 4F535F50 		.ascii	"OS_PEND_OBJ\000"
 7265      454E445F 
 7265      4F424A00 
 7266              	.LASF316:
 7267 0eaa 666C6167 		.ascii	"flags_cur\000"
 7267      735F6375 
 7267      7200
 7268              	.LASF152:
 7269 0eb4 4F535F45 		.ascii	"OS_ERR_TASK_RESUME_SELF\000"
 7269      52525F54 
 7269      41534B5F 
 7269      52455355 
 7269      4D455F53 
 7270              	.LASF260:
 7271 0ecc 43505555 		.ascii	"CPUUsageMax\000"
 7271      73616765 
 7271      4D617800 
 7272              	.LASF206:
 7273 0ed8 50656E64 		.ascii	"PendList\000"
 7273      4C697374 
 7273      00
 7274              	.LASF92:
 7275 0ee1 4F535F45 		.ascii	"OS_ERR_OBJ_TYPE\000"
 7275      52525F4F 
 7275      424A5F54 
 7275      59504500 
 7276              	.LASF238:
 7277 0ef1 50656E64 		.ascii	"PendDataTblPtr\000"
 7277      44617461 
 7277      54626C50 
 7277      747200
 7278              	.LASF307:
 7279 0f00 4F535F46 		.ascii	"OS_FlagDbgListAdd\000"
 7279      6C616744 
 7279      62674C69 
 7279      73744164 
 7279      6400
 7280              	.LASF245:
 7281 0f12 53656D43 		.ascii	"SemCtr\000"
 7281      747200
 7282              	.LASF220:
 7283 0f19 496E5074 		.ascii	"InPtr\000"
 7283      7200
 7284              	.LASF248:
 7285 0f1f 5469636B 		.ascii	"TickRemain\000"
 7285      52656D61 
 7285      696E00
 7286              	.LASF283:
ARM GAS  C:\Users\jorti\AppData\Local\Temp\ccCX4ftZ.s 			page 168


 7287 0f2a 48656164 		.ascii	"HeadPtr\000"
 7287      50747200 
 7288              	.LASF301:
 7289 0f32 666C6167 		.ascii	"flags_rdy\000"
 7289      735F7264 
 7289      7900
 7290              	.LASF99:
 7291 0f3c 4F535F45 		.ascii	"OS_ERR_PEND_ABORT_NONE\000"
 7291      52525F50 
 7291      454E445F 
 7291      41424F52 
 7291      545F4E4F 
 7292              	.LASF10:
 7293 0f53 756E7369 		.ascii	"unsigned int\000"
 7293      676E6564 
 7293      20696E74 
 7293      00
 7294              	.LASF216:
 7295 0f60 4D736753 		.ascii	"MsgSize\000"
 7295      697A6500 
 7296              	.LASF83:
 7297 0f68 4F535F45 		.ascii	"OS_ERR_MUTEX_OWNER\000"
 7297      52525F4D 
 7297      55544558 
 7297      5F4F574E 
 7297      455200
 7298              	.LASF272:
 7299 0f7b 46697273 		.ascii	"FirstPtr\000"
 7299      74507472 
 7299      00
 7300              	.LASF131:
 7301 0f84 4F535F45 		.ascii	"OS_ERR_STAT_STK_SIZE_INVALID\000"
 7301      52525F53 
 7301      5441545F 
 7301      53544B5F 
 7301      53495A45 
 7302              	.LASF53:
 7303 0fa1 4F535F45 		.ascii	"OS_ERR_FLAG_NOT_RDY\000"
 7303      52525F46 
 7303      4C41475F 
 7303      4E4F545F 
 7303      52445900 
 7304              	.LASF332:
 7305 0fb5 4F535F54 		.ascii	"OS_TaskRdy\000"
 7305      61736B52 
 7305      647900
 7306              	.LASF229:
 7307 0fc0 45787450 		.ascii	"ExtPtr\000"
 7307      747200
 7308              	.LASF22:
 7309 0fc7 73697A65 		.ascii	"sizetype\000"
 7309      74797065 
 7309      00
 7310              	.LASF20:
 7311 0fd0 6C6F6E67 		.ascii	"long unsigned int\000"
 7311      20756E73 
 7311      69676E65 
ARM GAS  C:\Users\jorti\AppData\Local\Temp\ccCX4ftZ.s 			page 169


 7311      6420696E 
 7311      7400
 7312              	.LASF98:
 7313 0fe2 4F535F45 		.ascii	"OS_ERR_PEND_ABORT_ISR\000"
 7313      52525F50 
 7313      454E445F 
 7313      41424F52 
 7313      545F4953 
 7314              	.LASF15:
 7315 0ff8 4350555F 		.ascii	"CPU_ADDR\000"
 7315      41444452 
 7315      00
 7316              	.LASF106:
 7317 1001 4F535F45 		.ascii	"OS_ERR_POST_ISR\000"
 7317      52525F50 
 7317      4F53545F 
 7317      49535200 
 7318              	.LASF171:
 7319 1011 4F535F45 		.ascii	"OS_ERR_TIME_DLY_ISR\000"
 7319      52525F54 
 7319      494D455F 
 7319      444C595F 
 7319      49535200 
 7320              	.LASF136:
 7321 1025 4F535F45 		.ascii	"OS_ERR_STK_LIMIT_INVALID\000"
 7321      52525F53 
 7321      544B5F4C 
 7321      494D4954 
 7321      5F494E56 
 7322              	.LASF1:
 7323 103e 4350555F 		.ascii	"CPU_BOOLEAN\000"
 7323      424F4F4C 
 7323      45414E00 
 7324              	.LASF27:
 7325 104a 4F535F43 		.ascii	"OS_CYCLES\000"
 7325      59434C45 
 7325      5300
 7326              	.LASF226:
 7327 1054 4F535F54 		.ascii	"OS_TCB\000"
 7327      434200
 7328              	.LASF135:
 7329 105b 4F535F45 		.ascii	"OS_ERR_STK_SIZE_INVALID\000"
 7329      52525F53 
 7329      544B5F53 
 7329      495A455F 
 7329      494E5641 
 7330              	.LASF194:
 7331 1073 4F535F45 		.ascii	"OS_ERR_TMR_STOPPED\000"
 7331      52525F54 
 7331      4D525F53 
 7331      544F5050 
 7331      454400
 7332              	.LASF328:
 7333 1086 4F535363 		.ascii	"OSSched\000"
 7333      68656400 
 7334              	.LASF3:
 7335 108e 756E7369 		.ascii	"unsigned char\000"
ARM GAS  C:\Users\jorti\AppData\Local\Temp\ccCX4ftZ.s 			page 170


 7335      676E6564 
 7335      20636861 
 7335      7200
 7336              	.LASF149:
 7337 109c 4F535F45 		.ascii	"OS_ERR_TASK_OPT\000"
 7337      52525F54 
 7337      41534B5F 
 7337      4F505400 
 7338              	.LASF322:
 7339 10ac 4F535363 		.ascii	"OSSchedLockNestingCtr\000"
 7339      6865644C 
 7339      6F636B4E 
 7339      65737469 
 7339      6E674374 
 7340              	.LASF181:
 7341 10c2 4F535F45 		.ascii	"OS_ERR_TIMEOUT\000"
 7341      52525F54 
 7341      494D454F 
 7341      555400
 7342              	.LASF38:
 7343 10d1 4F535F53 		.ascii	"OS_STATE\000"
 7343      54415445 
 7343      00
 7344              	.LASF297:
 7345 10da 74696D65 		.ascii	"timeout\000"
 7345      6F757400 
 7346              	.LASF34:
 7347 10e2 4F535F4F 		.ascii	"OS_OPT\000"
 7347      505400
 7348              	.LASF225:
 7349 10e9 4F535F54 		.ascii	"OS_TASK_PTR\000"
 7349      41534B5F 
 7349      50545200 
 7350              	.LASF70:
 7351 10f5 4F535F45 		.ascii	"OS_ERR_MEM_CREATE_ISR\000"
 7351      52525F4D 
 7351      454D5F43 
 7351      52454154 
 7351      455F4953 
 7352              	.LASF133:
 7353 110b 4F535F45 		.ascii	"OS_ERR_STATUS_INVALID\000"
 7353      52525F53 
 7353      54415455 
 7353      535F494E 
 7353      56414C49 
 7354              	.LASF199:
 7355 1121 4F535F45 		.ascii	"OS_ERR_Y\000"
 7355      52525F59 
 7355      00
 7356              	.LASF102:
 7357 112a 4F535F45 		.ascii	"OS_ERR_PEND_ISR\000"
 7357      52525F50 
 7357      454E445F 
 7357      49535200 
 7358              	.LASF201:
 7359 113a 4F535F45 		.ascii	"OS_ERR_Z\000"
 7359      52525F5A 
ARM GAS  C:\Users\jorti\AppData\Local\Temp\ccCX4ftZ.s 			page 171


 7359      00
 7360              	.LASF234:
 7361 1143 5469636B 		.ascii	"TickSpokePtr\000"
 7361      53706F6B 
 7361      65507472 
 7361      00
 7362              	.LASF336:
 7363 1150 433A5C55 		.ascii	"C:\\Users\\jorti\\Documents\\FH_Technikum\\MES1\\Sy"
 7363      73657273 
 7363      5C6A6F72 
 7363      74695C44 
 7363      6F63756D 
 7364 117d 7374656D 		.ascii	"stem_Software_1\\cypress_bldc_motor\\esw_rtos_cykit"
 7364      5F536F66 
 7364      74776172 
 7364      655F315C 
 7364      63797072 
 7365 11ae 5C657377 		.ascii	"\\esw_uCOS3_cykit.cydsn\000"
 7365      5F75434F 
 7365      53335F63 
 7365      796B6974 
 7365      2E637964 
 7366              	.LASF221:
 7367 11c5 4F757450 		.ascii	"OutPtr\000"
 7367      747200
 7368              	.LASF237:
 7369 11cc 5461736B 		.ascii	"TaskEntryArg\000"
 7369      456E7472 
 7369      79417267 
 7369      00
 7370              	.LASF112:
 7371 11d9 4F535F45 		.ascii	"OS_ERR_Q_FULL\000"
 7371      52525F51 
 7371      5F46554C 
 7371      4C00
 7372              	.LASF335:
 7373 11e7 75434F53 		.ascii	"uCOS-III\\Source\\os_flag.c\000"
 7373      2D494949 
 7373      5C536F75 
 7373      7263655C 
 7373      6F735F66 
 7374              	.LASF63:
 7375 1201 4F535F45 		.ascii	"OS_ERR_INT_Q_STK_INVALID\000"
 7375      52525F49 
 7375      4E545F51 
 7375      5F53544B 
 7375      5F494E56 
 7376              	.LASF176:
 7377 121a 4F535F45 		.ascii	"OS_ERR_TIME_INVALID_SECONDS\000"
 7377      52525F54 
 7377      494D455F 
 7377      494E5641 
 7377      4C49445F 
 7378              	.LASF294:
 7379 1236 4F53466C 		.ascii	"OSFlagPendGetFlagsRdy\000"
 7379      61675065 
 7379      6E644765 
ARM GAS  C:\Users\jorti\AppData\Local\Temp\ccCX4ftZ.s 			page 172


 7379      74466C61 
 7379      67735264 
 7380              	.LASF140:
 7381 124c 4F535F45 		.ascii	"OS_ERR_TASK_DEL\000"
 7381      52525F54 
 7381      41534B5F 
 7381      44454C00 
 7382              	.LASF281:
 7383 125c 4F535F50 		.ascii	"OS_PEND_LIST\000"
 7383      454E445F 
 7383      4C495354 
 7383      00
 7384              	.LASF320:
 7385 1269 4F53466C 		.ascii	"OSFlagDbgListPtr\000"
 7385      61674462 
 7385      674C6973 
 7385      74507472 
 7385      00
 7386              	.LASF326:
 7387 127a 4350555F 		.ascii	"CPU_TS_TmrRd\000"
 7387      54535F54 
 7387      6D725264 
 7387      00
 7388              	.LASF5:
 7389 1287 7369676E 		.ascii	"signed char\000"
 7389      65642063 
 7389      68617200 
 7390              	.LASF217:
 7391 1293 4D736754 		.ascii	"MsgTS\000"
 7391      5300
 7392              	.LASF51:
 7393 1299 4F535F45 		.ascii	"OS_ERR_FATAL_RETURN\000"
 7393      52525F46 
 7393      4154414C 
 7393      5F524554 
 7393      55524E00 
 7394              	.LASF7:
 7395 12ad 73686F72 		.ascii	"short unsigned int\000"
 7395      7420756E 
 7395      7369676E 
 7395      65642069 
 7395      6E7400
 7396              	.LASF321:
 7397 12c0 4F53466C 		.ascii	"OSFlagQty\000"
 7397      61675174 
 7397      7900
 7398              	.LASF28:
 7399 12ca 4F535F46 		.ascii	"OS_FLAGS\000"
 7399      4C414753 
 7399      00
 7400              	.LASF215:
 7401 12d3 4D736750 		.ascii	"MsgPtr\000"
 7401      747200
 7402              	.LASF164:
 7403 12da 4F535F45 		.ascii	"OS_ERR_TLS_NO_MORE_AVAIL\000"
 7403      52525F54 
 7403      4C535F4E 
ARM GAS  C:\Users\jorti\AppData\Local\Temp\ccCX4ftZ.s 			page 173


 7403      4F5F4D4F 
 7403      52455F41 
 7404              	.LASF41:
 7405 12f3 4F535F45 		.ascii	"OS_ERR_NONE\000"
 7405      52525F4E 
 7405      4F4E4500 
 7406              	.LASF274:
 7407 12ff 6F735F70 		.ascii	"os_pend_data\000"
 7407      656E645F 
 7407      64617461 
 7407      00
 7408              	.LASF123:
 7409 130c 4F535F45 		.ascii	"OS_ERR_SCHED_LOCKED\000"
 7409      52525F53 
 7409      43484544 
 7409      5F4C4F43 
 7409      4B454400 
 7410              	.LASF55:
 7411 1320 4F535F45 		.ascii	"OS_ERR_FLUSH_ISR\000"
 7411      52525F46 
 7411      4C555348 
 7411      5F495352 
 7411      00
 7412              	.LASF242:
 7413 1331 5072696F 		.ascii	"Prio\000"
 7413      00
 7414              	.LASF14:
 7415 1336 646F7562 		.ascii	"double\000"
 7415      6C6500
 7416              	.LASF97:
 7417 133d 4F535F45 		.ascii	"OS_ERR_PEND_ABORT\000"
 7417      52525F50 
 7417      454E445F 
 7417      41424F52 
 7417      5400
 7418              	.LASF259:
 7419 134f 43505555 		.ascii	"CPUUsage\000"
 7419      73616765 
 7419      00
 7420              	.LASF124:
 7421 1358 4F535F45 		.ascii	"OS_ERR_SCHED_NOT_LOCKED\000"
 7421      52525F53 
 7421      43484544 
 7421      5F4E4F54 
 7421      5F4C4F43 
 7422              	.LASF108:
 7423 1370 4F535F45 		.ascii	"OS_ERR_PRIO\000"
 7423      52525F50 
 7423      52494F00 
 7424              	.LASF101:
 7425 137c 4F535F45 		.ascii	"OS_ERR_PEND_DEL\000"
 7425      52525F50 
 7425      454E445F 
 7425      44454C00 
 7426              	.LASF276:
 7427 138c 50656E64 		.ascii	"PendObjPtr\000"
 7427      4F626A50 
ARM GAS  C:\Users\jorti\AppData\Local\Temp\ccCX4ftZ.s 			page 174


 7427      747200
 7428              	.LASF224:
 7429 1397 4E627245 		.ascii	"NbrEntriesMax\000"
 7429      6E747269 
 7429      65734D61 
 7429      7800
 7430              	.LASF282:
 7431 13a5 6F735F70 		.ascii	"os_pend_list\000"
 7431      656E645F 
 7431      6C697374 
 7431      00
 7432              	.LASF78:
 7433 13b2 4F535F45 		.ascii	"OS_ERR_MEM_INVALID_SIZE\000"
 7433      52525F4D 
 7433      454D5F49 
 7433      4E56414C 
 7433      49445F53 
 7434              	.LASF155:
 7435 13ca 4F535F45 		.ascii	"OS_ERR_TASK_SUSPENDED\000"
 7435      52525F54 
 7435      41534B5F 
 7435      53555350 
 7435      454E4445 
 7436              	.LASF203:
 7437 13e0 4F535F46 		.ascii	"OS_FLAG_GRP\000"
 7437      4C41475F 
 7437      47525000 
 7438              	.LASF127:
 7439 13ec 4F535F45 		.ascii	"OS_ERR_SET_ISR\000"
 7439      52525F53 
 7439      45545F49 
 7439      535200
 7440              	.LASF209:
 7441 13fb 4462674E 		.ascii	"DbgNamePtr\000"
 7441      616D6550 
 7441      747200
 7442              	.LASF254:
 7443 1406 52656754 		.ascii	"RegTbl\000"
 7443      626C00
 7444              	.LASF126:
 7445 140d 4F535F45 		.ascii	"OS_ERR_SEM_OVF\000"
 7445      52525F53 
 7445      454D5F4F 
 7445      564600
 7446              	.LASF141:
 7447 141c 4F535F45 		.ascii	"OS_ERR_TASK_DEL_IDLE\000"
 7447      52525F54 
 7447      41534B5F 
 7447      44454C5F 
 7447      49444C45 
 7448              	.LASF173:
 7449 1431 4F535F45 		.ascii	"OS_ERR_TIME_GET_ISR\000"
 7449      52525F54 
 7449      494D455F 
 7449      4745545F 
 7449      49535200 
 7450              	.LASF249:
ARM GAS  C:\Users\jorti\AppData\Local\Temp\ccCX4ftZ.s 			page 175


 7451 1445 54696D65 		.ascii	"TimeQuanta\000"
 7451      5175616E 
 7451      746100
 7452              	.LASF172:
 7453 1450 4F535F45 		.ascii	"OS_ERR_TIME_DLY_RESUME_ISR\000"
 7453      52525F54 
 7453      494D455F 
 7453      444C595F 
 7453      52455355 
 7454              	.LASF167:
 7455 146b 4F535F45 		.ascii	"OS_ERR_TICK_PRIO_INVALID\000"
 7455      52525F54 
 7455      49434B5F 
 7455      5052494F 
 7455      5F494E56 
 7456              	.LASF107:
 7457 1484 4F535F45 		.ascii	"OS_ERR_PRIO_EXIST\000"
 7457      52525F50 
 7457      52494F5F 
 7457      45584953 
 7457      5400
 7458              	.LASF219:
 7459 1496 6F735F6D 		.ascii	"os_msg_q\000"
 7459      73675F71 
 7459      00
 7460              	.LASF79:
 7461 149f 4F535F45 		.ascii	"OS_ERR_MEM_NO_FREE_BLKS\000"
 7461      52525F4D 
 7461      454D5F4E 
 7461      4F5F4652 
 7461      45455F42 
 7462              	.LASF16:
 7463 14b7 4350555F 		.ascii	"CPU_STK\000"
 7463      53544B00 
 7464              		.ident	"GCC: (GNU Tools for ARM Embedded Processors) 5.4.1 20160609 (release) [ARM/embedded-5-bran
