ARM GAS  C:\Users\jorti\AppData\Local\Temp\ccCrvehj.s 			page 1


   1              		.syntax unified
   2              		.cpu cortex-m3
   3              		.fpu softvfp
   4              		.eabi_attribute 20, 1
   5              		.eabi_attribute 21, 1
   6              		.eabi_attribute 23, 3
   7              		.eabi_attribute 24, 1
   8              		.eabi_attribute 25, 1
   9              		.eabi_attribute 26, 1
  10              		.eabi_attribute 30, 1
  11              		.eabi_attribute 34, 1
  12              		.eabi_attribute 18, 4
  13              		.thumb
  14              		.syntax unified
  15              		.file	"os_msg.c"
  16              		.text
  17              	.Ltext0:
  18              		.cfi_sections	.debug_frame
  19              		.section	.text.OS_MsgPoolInit,"ax",%progbits
  20              		.align	2
  21              		.global	OS_MsgPoolInit
  22              		.thumb
  23              		.thumb_func
  24              		.type	OS_MsgPoolInit, %function
  25              	OS_MsgPoolInit:
  26              	.LFB1:
  27              		.file 1 "uCOS-III\\Source\\os_msg.c"
   1:uCOS-III\Source/os_msg.c **** /*
   2:uCOS-III\Source/os_msg.c **** ***************************************************************************************************
   3:uCOS-III\Source/os_msg.c **** *                                                      uC/OS-III
   4:uCOS-III\Source/os_msg.c **** *                                                 The Real-Time Kernel
   5:uCOS-III\Source/os_msg.c **** *
   6:uCOS-III\Source/os_msg.c **** *                                  (c) Copyright 2009-2012; Micrium, Inc.; Weston, FL
   7:uCOS-III\Source/os_msg.c **** *                           All rights reserved.  Protected by international copyright laws.
   8:uCOS-III\Source/os_msg.c **** *
   9:uCOS-III\Source/os_msg.c **** *                                              MESSAGE HANDLING SERVICES
  10:uCOS-III\Source/os_msg.c **** *
  11:uCOS-III\Source/os_msg.c **** * File    : OS_MSG.C
  12:uCOS-III\Source/os_msg.c **** * By      : JJL
  13:uCOS-III\Source/os_msg.c **** * Version : V3.03.01
  14:uCOS-III\Source/os_msg.c **** *
  15:uCOS-III\Source/os_msg.c **** * LICENSING TERMS:
  16:uCOS-III\Source/os_msg.c **** * ---------------
  17:uCOS-III\Source/os_msg.c **** *           uC/OS-III is provided in source form for FREE short-term evaluation, for educational us
  18:uCOS-III\Source/os_msg.c **** *           for peaceful research.  If you plan or intend to use uC/OS-III in a commercial applicat
  19:uCOS-III\Source/os_msg.c **** *           product then, you need to contact Micrium to properly license uC/OS-III for its use in 
  20:uCOS-III\Source/os_msg.c **** *           application/product.   We provide ALL the source code for your convenience and to help 
  21:uCOS-III\Source/os_msg.c **** *           experience uC/OS-III.  The fact that the source is provided does NOT mean that you can 
  22:uCOS-III\Source/os_msg.c **** *           it commercially without paying a licensing fee.
  23:uCOS-III\Source/os_msg.c **** *
  24:uCOS-III\Source/os_msg.c **** *           Knowledge of the source code may NOT be used to develop a similar product.
  25:uCOS-III\Source/os_msg.c **** *
  26:uCOS-III\Source/os_msg.c **** *           Please help us continue to provide the embedded community with the finest software avai
  27:uCOS-III\Source/os_msg.c **** *           Your honesty is greatly appreciated.
  28:uCOS-III\Source/os_msg.c **** *
  29:uCOS-III\Source/os_msg.c **** *           You can contact us at www.micrium.com, or by phone at +1 (954) 217-2036.
  30:uCOS-III\Source/os_msg.c **** ***************************************************************************************************
ARM GAS  C:\Users\jorti\AppData\Local\Temp\ccCrvehj.s 			page 2


  31:uCOS-III\Source/os_msg.c **** */
  32:uCOS-III\Source/os_msg.c **** 
  33:uCOS-III\Source/os_msg.c **** #define  MICRIUM_SOURCE
  34:uCOS-III\Source/os_msg.c **** #include <os.h>
  35:uCOS-III\Source/os_msg.c **** 
  36:uCOS-III\Source/os_msg.c **** #ifdef VSC_INCLUDE_SOURCE_FILE_NAMES
  37:uCOS-III\Source/os_msg.c **** const  CPU_CHAR  *os_msg__c = "$Id: $";
  38:uCOS-III\Source/os_msg.c **** #endif
  39:uCOS-III\Source/os_msg.c **** 
  40:uCOS-III\Source/os_msg.c **** 
  41:uCOS-III\Source/os_msg.c **** #if OS_MSG_EN > 0u
  42:uCOS-III\Source/os_msg.c **** /*$PAGE*/
  43:uCOS-III\Source/os_msg.c **** /*
  44:uCOS-III\Source/os_msg.c **** ***************************************************************************************************
  45:uCOS-III\Source/os_msg.c **** *                                            INITIALIZE THE POOL OF 'OS_MSG'
  46:uCOS-III\Source/os_msg.c **** *
  47:uCOS-III\Source/os_msg.c **** * Description: This function is called by OSInit() to initialize the free list of OS_MSGs.
  48:uCOS-III\Source/os_msg.c **** *
  49:uCOS-III\Source/os_msg.c **** * Argument(s): p_err     is a pointer to a variable that will contain an error code returned by thi
  50:uCOS-III\Source/os_msg.c **** *
  51:uCOS-III\Source/os_msg.c **** *                            OS_ERR_MSG_POOL_NULL_PTR
  52:uCOS-III\Source/os_msg.c **** *                            OS_ERR_MSG_POOL_EMPTY
  53:uCOS-III\Source/os_msg.c **** *                            OS_ERR_NONE
  54:uCOS-III\Source/os_msg.c **** *
  55:uCOS-III\Source/os_msg.c **** * Returns    : none
  56:uCOS-III\Source/os_msg.c **** *
  57:uCOS-III\Source/os_msg.c **** * Note(s)    : 1) This function is INTERNAL to uC/OS-III and your application MUST NOT call it.
  58:uCOS-III\Source/os_msg.c **** ***************************************************************************************************
  59:uCOS-III\Source/os_msg.c **** */
  60:uCOS-III\Source/os_msg.c **** 
  61:uCOS-III\Source/os_msg.c **** void  OS_MsgPoolInit (OS_ERR  *p_err)
  62:uCOS-III\Source/os_msg.c **** {
  28              		.loc 1 62 0
  29              		.cfi_startproc
  30              		@ args = 0, pretend = 0, frame = 0
  31              		@ frame_needed = 0, uses_anonymous_args = 0
  32              		@ link register save eliminated.
  33              	.LVL0:
  34 0000 F0B4     		push	{r4, r5, r6, r7}
  35              		.cfi_def_cfa_offset 16
  36              		.cfi_offset 4, -16
  37              		.cfi_offset 5, -12
  38              		.cfi_offset 6, -8
  39              		.cfi_offset 7, -4
  63:uCOS-III\Source/os_msg.c ****     OS_MSG      *p_msg1;
  64:uCOS-III\Source/os_msg.c ****     OS_MSG      *p_msg2;
  65:uCOS-III\Source/os_msg.c ****     OS_MSG_QTY   i;
  66:uCOS-III\Source/os_msg.c ****     OS_MSG_QTY   loops;
  67:uCOS-III\Source/os_msg.c **** 
  68:uCOS-III\Source/os_msg.c **** 
  69:uCOS-III\Source/os_msg.c **** 
  70:uCOS-III\Source/os_msg.c **** #ifdef OS_SAFETY_CRITICAL
  71:uCOS-III\Source/os_msg.c ****     if (p_err == (OS_ERR *)0) {
  72:uCOS-III\Source/os_msg.c ****         OS_SAFETY_CRITICAL_EXCEPTION();
  73:uCOS-III\Source/os_msg.c ****         return;
  74:uCOS-III\Source/os_msg.c ****     }
  75:uCOS-III\Source/os_msg.c **** #endif
ARM GAS  C:\Users\jorti\AppData\Local\Temp\ccCrvehj.s 			page 3


  76:uCOS-III\Source/os_msg.c **** 
  77:uCOS-III\Source/os_msg.c **** #if OS_CFG_ARG_CHK_EN > 0u
  78:uCOS-III\Source/os_msg.c ****     if (OSCfg_MsgPoolBasePtr == (OS_MSG *)0) {
  40              		.loc 1 78 0
  41 0002 164B     		ldr	r3, .L8
  42 0004 1E68     		ldr	r6, [r3]
  43 0006 1EB9     		cbnz	r6, .L2
  79:uCOS-III\Source/os_msg.c ****        *p_err = OS_ERR_MSG_POOL_NULL_PTR;
  44              		.loc 1 79 0
  45 0008 45F21E73 		movw	r3, #22302
  46 000c 0380     		strh	r3, [r0]	@ movhi
  80:uCOS-III\Source/os_msg.c ****         return;
  47              		.loc 1 80 0
  48 000e 23E0     		b	.L1
  49              	.L2:
  81:uCOS-III\Source/os_msg.c ****     }
  82:uCOS-III\Source/os_msg.c ****     if (OSCfg_MsgPoolSize == (OS_MSG_QTY)0) {
  50              		.loc 1 82 0
  51 0010 134B     		ldr	r3, .L8+4
  52 0012 1F88     		ldrh	r7, [r3]
  53 0014 1FB9     		cbnz	r7, .L4
  83:uCOS-III\Source/os_msg.c ****        *p_err = OS_ERR_MSG_POOL_EMPTY;
  54              		.loc 1 83 0
  55 0016 45F21D73 		movw	r3, #22301
  56 001a 0380     		strh	r3, [r0]	@ movhi
  84:uCOS-III\Source/os_msg.c ****         return;
  57              		.loc 1 84 0
  58 001c 1CE0     		b	.L1
  59              	.L4:
  60              	.LVL1:
  85:uCOS-III\Source/os_msg.c ****     }
  86:uCOS-III\Source/os_msg.c **** #endif
  87:uCOS-III\Source/os_msg.c **** 
  88:uCOS-III\Source/os_msg.c ****     p_msg1 = OSCfg_MsgPoolBasePtr;
  89:uCOS-III\Source/os_msg.c ****     p_msg2 = OSCfg_MsgPoolBasePtr;
  90:uCOS-III\Source/os_msg.c ****     p_msg2++;
  61              		.loc 1 90 0
  62 001e 06F11004 		add	r4, r6, #16
  63              	.LVL2:
  91:uCOS-III\Source/os_msg.c ****     loops  = OSCfg_MsgPoolSize - 1u;
  64              		.loc 1 91 0
  65 0022 7D1E     		subs	r5, r7, #1
  66 0024 ADB2     		uxth	r5, r5
  67              	.LVL3:
  88:uCOS-III\Source/os_msg.c ****     p_msg2 = OSCfg_MsgPoolBasePtr;
  68              		.loc 1 88 0
  69 0026 3346     		mov	r3, r6
  92:uCOS-III\Source/os_msg.c ****     for (i = 0u; i < loops; i++) {                          /* Init. list of free OS_MSGs          
  70              		.loc 1 92 0
  71 0028 0022     		movs	r2, #0
  72 002a 08E0     		b	.L5
  73              	.LVL4:
  74              	.L6:
  93:uCOS-III\Source/os_msg.c ****         p_msg1->NextPtr = p_msg2;
  75              		.loc 1 93 0 discriminator 3
  76 002c 1C60     		str	r4, [r3]
  94:uCOS-III\Source/os_msg.c ****         p_msg1->MsgPtr  = (void      *)0;
ARM GAS  C:\Users\jorti\AppData\Local\Temp\ccCrvehj.s 			page 4


  77              		.loc 1 94 0 discriminator 3
  78 002e 0021     		movs	r1, #0
  79 0030 5960     		str	r1, [r3, #4]
  95:uCOS-III\Source/os_msg.c ****         p_msg1->MsgSize = (OS_MSG_SIZE)0u;
  80              		.loc 1 95 0 discriminator 3
  81 0032 1981     		strh	r1, [r3, #8]	@ movhi
  96:uCOS-III\Source/os_msg.c ****         p_msg1->MsgTS   = (CPU_TS     )0u;
  82              		.loc 1 96 0 discriminator 3
  83 0034 D960     		str	r1, [r3, #12]
  97:uCOS-III\Source/os_msg.c ****         p_msg1++;
  84              		.loc 1 97 0 discriminator 3
  85 0036 1033     		adds	r3, r3, #16
  86              	.LVL5:
  98:uCOS-III\Source/os_msg.c ****         p_msg2++;
  87              		.loc 1 98 0 discriminator 3
  88 0038 1034     		adds	r4, r4, #16
  89              	.LVL6:
  92:uCOS-III\Source/os_msg.c ****         p_msg1->NextPtr = p_msg2;
  90              		.loc 1 92 0 discriminator 3
  91 003a 0132     		adds	r2, r2, #1
  92              	.LVL7:
  93 003c 92B2     		uxth	r2, r2
  94              	.LVL8:
  95              	.L5:
  92:uCOS-III\Source/os_msg.c ****         p_msg1->NextPtr = p_msg2;
  96              		.loc 1 92 0 is_stmt 0 discriminator 1
  97 003e AA42     		cmp	r2, r5
  98 0040 F4D3     		bcc	.L6
  99:uCOS-III\Source/os_msg.c ****     }
 100:uCOS-III\Source/os_msg.c ****     p_msg1->NextPtr = (OS_MSG    *)0;                       /* Last OS_MSG                         
  99              		.loc 1 100 0 is_stmt 1
 100 0042 0022     		movs	r2, #0
 101              	.LVL9:
 102 0044 1A60     		str	r2, [r3]
 101:uCOS-III\Source/os_msg.c ****     p_msg1->MsgPtr  = (void      *)0;
 103              		.loc 1 101 0
 104 0046 5A60     		str	r2, [r3, #4]
 102:uCOS-III\Source/os_msg.c ****     p_msg1->MsgSize = (OS_MSG_SIZE)0u;
 105              		.loc 1 102 0
 106 0048 1A81     		strh	r2, [r3, #8]	@ movhi
 103:uCOS-III\Source/os_msg.c ****     p_msg1->MsgTS   = (CPU_TS     )0u;
 107              		.loc 1 103 0
 108 004a DA60     		str	r2, [r3, #12]
 104:uCOS-III\Source/os_msg.c **** 
 105:uCOS-III\Source/os_msg.c ****     OSMsgPool.NextPtr    =  OSCfg_MsgPoolBasePtr;
 109              		.loc 1 105 0
 110 004c 054B     		ldr	r3, .L8+8
 111              	.LVL10:
 112 004e 1E60     		str	r6, [r3]
 106:uCOS-III\Source/os_msg.c ****     OSMsgPool.NbrFree    =  OSCfg_MsgPoolSize;
 113              		.loc 1 106 0
 114 0050 9F80     		strh	r7, [r3, #4]	@ movhi
 107:uCOS-III\Source/os_msg.c ****     OSMsgPool.NbrUsed    = (OS_MSG_QTY)0;
 115              		.loc 1 107 0
 116 0052 DA80     		strh	r2, [r3, #6]	@ movhi
 108:uCOS-III\Source/os_msg.c ****     OSMsgPool.NbrUsedMax = (OS_MSG_QTY)0;
 117              		.loc 1 108 0
ARM GAS  C:\Users\jorti\AppData\Local\Temp\ccCrvehj.s 			page 5


 118 0054 1A81     		strh	r2, [r3, #8]	@ movhi
 109:uCOS-III\Source/os_msg.c ****    *p_err                =  OS_ERR_NONE;
 119              		.loc 1 109 0
 120 0056 0280     		strh	r2, [r0]	@ movhi
 121              	.LVL11:
 122              	.L1:
 110:uCOS-III\Source/os_msg.c **** }
 123              		.loc 1 110 0
 124 0058 F0BC     		pop	{r4, r5, r6, r7}
 125              		.cfi_restore 7
 126              		.cfi_restore 6
 127              		.cfi_restore 5
 128              		.cfi_restore 4
 129              		.cfi_def_cfa_offset 0
 130 005a 7047     		bx	lr
 131              	.L9:
 132              		.align	2
 133              	.L8:
 134 005c 00000000 		.word	OSCfg_MsgPoolBasePtr
 135 0060 00000000 		.word	OSCfg_MsgPoolSize
 136 0064 00000000 		.word	OSMsgPool
 137              		.cfi_endproc
 138              	.LFE1:
 139              		.size	OS_MsgPoolInit, .-OS_MsgPoolInit
 140              		.section	.text.OS_MsgQFreeAll,"ax",%progbits
 141              		.align	2
 142              		.global	OS_MsgQFreeAll
 143              		.thumb
 144              		.thumb_func
 145              		.type	OS_MsgQFreeAll, %function
 146              	OS_MsgQFreeAll:
 147              	.LFB2:
 111:uCOS-III\Source/os_msg.c **** 
 112:uCOS-III\Source/os_msg.c **** /*$PAGE*/
 113:uCOS-III\Source/os_msg.c **** /*
 114:uCOS-III\Source/os_msg.c **** ***************************************************************************************************
 115:uCOS-III\Source/os_msg.c **** *                                        RELEASE ALL MESSAGE IN MESSAGE QUEUE
 116:uCOS-III\Source/os_msg.c **** *
 117:uCOS-III\Source/os_msg.c **** * Description: This function returns all the messages in a message queue to the free list.
 118:uCOS-III\Source/os_msg.c **** *
 119:uCOS-III\Source/os_msg.c **** * Arguments  : p_msg_q       is a pointer to the OS_MSG_Q structure containing messages to free.
 120:uCOS-III\Source/os_msg.c **** *              -------
 121:uCOS-III\Source/os_msg.c **** *
 122:uCOS-III\Source/os_msg.c **** * Returns    : the number of OS_MSGs returned to the free list
 123:uCOS-III\Source/os_msg.c **** *
 124:uCOS-III\Source/os_msg.c **** * Note(s)    : 1) This function is INTERNAL to uC/OS-III and your application MUST NOT call it.
 125:uCOS-III\Source/os_msg.c **** ***************************************************************************************************
 126:uCOS-III\Source/os_msg.c **** */
 127:uCOS-III\Source/os_msg.c **** 
 128:uCOS-III\Source/os_msg.c **** OS_MSG_QTY  OS_MsgQFreeAll (OS_MSG_Q  *p_msg_q)
 129:uCOS-III\Source/os_msg.c **** {
 148              		.loc 1 129 0
 149              		.cfi_startproc
 150              		@ args = 0, pretend = 0, frame = 0
 151              		@ frame_needed = 0, uses_anonymous_args = 0
 152              		@ link register save eliminated.
 153              	.LVL12:
ARM GAS  C:\Users\jorti\AppData\Local\Temp\ccCrvehj.s 			page 6


 154 0000 0346     		mov	r3, r0
 130:uCOS-III\Source/os_msg.c ****     OS_MSG      *p_msg;
 131:uCOS-III\Source/os_msg.c ****     OS_MSG_QTY   qty;
 132:uCOS-III\Source/os_msg.c **** 
 133:uCOS-III\Source/os_msg.c **** 
 134:uCOS-III\Source/os_msg.c **** 
 135:uCOS-III\Source/os_msg.c ****     qty = p_msg_q->NbrEntries;                              /* Get the number of OS_MSGs being free
 155              		.loc 1 135 0
 156 0002 4089     		ldrh	r0, [r0, #10]
 157              	.LVL13:
 136:uCOS-III\Source/os_msg.c ****     if (p_msg_q->NbrEntries > (OS_MSG_QTY)0) {
 158              		.loc 1 136 0
 159 0004 98B1     		cbz	r0, .L14
 129:uCOS-III\Source/os_msg.c ****     OS_MSG      *p_msg;
 160              		.loc 1 129 0
 161 0006 30B4     		push	{r4, r5}
 162              		.cfi_def_cfa_offset 8
 163              		.cfi_offset 4, -8
 164              		.cfi_offset 5, -4
 137:uCOS-III\Source/os_msg.c ****         p_msg                   = p_msg_q->InPtr;           /* Point to end of message chain       
 165              		.loc 1 137 0
 166 0008 1968     		ldr	r1, [r3]
 167              	.LVL14:
 138:uCOS-III\Source/os_msg.c ****         p_msg->NextPtr          = OSMsgPool.NextPtr;
 168              		.loc 1 138 0
 169 000a 094A     		ldr	r2, .L15
 170 000c 1468     		ldr	r4, [r2]
 171 000e 0C60     		str	r4, [r1]
 139:uCOS-III\Source/os_msg.c ****         OSMsgPool.NextPtr       = p_msg_q->OutPtr;          /* Point to beginning of message chain 
 172              		.loc 1 139 0
 173 0010 5968     		ldr	r1, [r3, #4]
 174              	.LVL15:
 175 0012 1160     		str	r1, [r2]
 140:uCOS-III\Source/os_msg.c ****         OSMsgPool.NbrUsed      -= p_msg_q->NbrEntries;      /* Update statistics for free list of m
 176              		.loc 1 140 0
 177 0014 5D89     		ldrh	r5, [r3, #10]
 178 0016 D488     		ldrh	r4, [r2, #6]
 179 0018 641B     		subs	r4, r4, r5
 180 001a D480     		strh	r4, [r2, #6]	@ movhi
 141:uCOS-III\Source/os_msg.c ****         OSMsgPool.NbrFree      += p_msg_q->NbrEntries;
 181              		.loc 1 141 0
 182 001c 9188     		ldrh	r1, [r2, #4]
 183 001e 2944     		add	r1, r1, r5
 184 0020 9180     		strh	r1, [r2, #4]	@ movhi
 142:uCOS-III\Source/os_msg.c ****         p_msg_q->NbrEntries     = (OS_MSG_QTY)0;            /* Flush the message queue             
 185              		.loc 1 142 0
 186 0022 0022     		movs	r2, #0
 187 0024 5A81     		strh	r2, [r3, #10]	@ movhi
 143:uCOS-III\Source/os_msg.c ****         p_msg_q->NbrEntriesMax  = (OS_MSG_QTY)0;
 188              		.loc 1 143 0
 189 0026 9A81     		strh	r2, [r3, #12]	@ movhi
 144:uCOS-III\Source/os_msg.c ****         p_msg_q->InPtr          = (OS_MSG   *)0;
 190              		.loc 1 144 0
 191 0028 1A60     		str	r2, [r3]
 145:uCOS-III\Source/os_msg.c ****         p_msg_q->OutPtr         = (OS_MSG   *)0;
 192              		.loc 1 145 0
 193 002a 5A60     		str	r2, [r3, #4]
ARM GAS  C:\Users\jorti\AppData\Local\Temp\ccCrvehj.s 			page 7


 146:uCOS-III\Source/os_msg.c ****     }
 147:uCOS-III\Source/os_msg.c ****     return (qty);
 148:uCOS-III\Source/os_msg.c **** }
 194              		.loc 1 148 0
 195 002c 30BC     		pop	{r4, r5}
 196              		.cfi_restore 5
 197              		.cfi_restore 4
 198              		.cfi_def_cfa_offset 0
 199              	.L14:
 200 002e 7047     		bx	lr
 201              	.L16:
 202              		.align	2
 203              	.L15:
 204 0030 00000000 		.word	OSMsgPool
 205              		.cfi_endproc
 206              	.LFE2:
 207              		.size	OS_MsgQFreeAll, .-OS_MsgQFreeAll
 208              		.section	.text.OS_MsgQInit,"ax",%progbits
 209              		.align	2
 210              		.global	OS_MsgQInit
 211              		.thumb
 212              		.thumb_func
 213              		.type	OS_MsgQInit, %function
 214              	OS_MsgQInit:
 215              	.LFB3:
 149:uCOS-III\Source/os_msg.c **** 
 150:uCOS-III\Source/os_msg.c **** /*$PAGE*/
 151:uCOS-III\Source/os_msg.c **** /*
 152:uCOS-III\Source/os_msg.c **** ***************************************************************************************************
 153:uCOS-III\Source/os_msg.c **** *                                               INITIALIZE A MESSAGE QUEUE
 154:uCOS-III\Source/os_msg.c **** *
 155:uCOS-III\Source/os_msg.c **** * Description: This function is called to initialize a message queue
 156:uCOS-III\Source/os_msg.c **** *
 157:uCOS-III\Source/os_msg.c **** * Arguments  : p_msg_q      is a pointer to the message queue to initialize
 158:uCOS-III\Source/os_msg.c **** *              -------
 159:uCOS-III\Source/os_msg.c **** *
 160:uCOS-III\Source/os_msg.c **** *              max          is the maximum number of entries that a message queue can have.
 161:uCOS-III\Source/os_msg.c **** *
 162:uCOS-III\Source/os_msg.c **** * Returns    : none
 163:uCOS-III\Source/os_msg.c **** *
 164:uCOS-III\Source/os_msg.c **** * Note(s)    : 1) This function is INTERNAL to uC/OS-III and your application MUST NOT call it.
 165:uCOS-III\Source/os_msg.c **** ***************************************************************************************************
 166:uCOS-III\Source/os_msg.c **** */
 167:uCOS-III\Source/os_msg.c **** 
 168:uCOS-III\Source/os_msg.c **** void  OS_MsgQInit (OS_MSG_Q    *p_msg_q,
 169:uCOS-III\Source/os_msg.c ****                    OS_MSG_QTY   size)
 170:uCOS-III\Source/os_msg.c **** {
 216              		.loc 1 170 0
 217              		.cfi_startproc
 218              		@ args = 0, pretend = 0, frame = 0
 219              		@ frame_needed = 0, uses_anonymous_args = 0
 220              		@ link register save eliminated.
 221              	.LVL16:
 171:uCOS-III\Source/os_msg.c ****     p_msg_q->NbrEntriesSize = (OS_MSG_QTY)size;
 222              		.loc 1 171 0
 223 0000 0181     		strh	r1, [r0, #8]	@ movhi
 172:uCOS-III\Source/os_msg.c ****     p_msg_q->NbrEntries     = (OS_MSG_QTY)0;
ARM GAS  C:\Users\jorti\AppData\Local\Temp\ccCrvehj.s 			page 8


 224              		.loc 1 172 0
 225 0002 0023     		movs	r3, #0
 226 0004 4381     		strh	r3, [r0, #10]	@ movhi
 173:uCOS-III\Source/os_msg.c ****     p_msg_q->NbrEntriesMax  = (OS_MSG_QTY)0;
 227              		.loc 1 173 0
 228 0006 8381     		strh	r3, [r0, #12]	@ movhi
 174:uCOS-III\Source/os_msg.c ****     p_msg_q->InPtr          = (OS_MSG   *)0;
 229              		.loc 1 174 0
 230 0008 0360     		str	r3, [r0]
 175:uCOS-III\Source/os_msg.c ****     p_msg_q->OutPtr         = (OS_MSG   *)0;
 231              		.loc 1 175 0
 232 000a 4360     		str	r3, [r0, #4]
 233 000c 7047     		bx	lr
 234              		.cfi_endproc
 235              	.LFE3:
 236              		.size	OS_MsgQInit, .-OS_MsgQInit
 237 000e 00BF     		.section	.text.OS_MsgQGet,"ax",%progbits
 238              		.align	2
 239              		.global	OS_MsgQGet
 240              		.thumb
 241              		.thumb_func
 242              		.type	OS_MsgQGet, %function
 243              	OS_MsgQGet:
 244              	.LFB4:
 176:uCOS-III\Source/os_msg.c **** }
 177:uCOS-III\Source/os_msg.c **** 
 178:uCOS-III\Source/os_msg.c **** /*$PAGE*/
 179:uCOS-III\Source/os_msg.c **** /*
 180:uCOS-III\Source/os_msg.c **** ***************************************************************************************************
 181:uCOS-III\Source/os_msg.c **** *                                           RETRIEVE MESSAGE FROM MESSAGE QUEUE
 182:uCOS-III\Source/os_msg.c **** *
 183:uCOS-III\Source/os_msg.c **** * Description: This function retrieves a message from a message queue
 184:uCOS-III\Source/os_msg.c **** *
 185:uCOS-III\Source/os_msg.c **** * Arguments  : p_msg_q     is a pointer to the message queue where we want to extract the message f
 186:uCOS-III\Source/os_msg.c **** *              -------
 187:uCOS-III\Source/os_msg.c **** *
 188:uCOS-III\Source/os_msg.c **** *              p_msg_size  is a pointer to where the size (in bytes) of the message will be placed
 189:uCOS-III\Source/os_msg.c **** *
 190:uCOS-III\Source/os_msg.c **** *              p_ts        is a pointer to where the time stamp will be placed
 191:uCOS-III\Source/os_msg.c **** *
 192:uCOS-III\Source/os_msg.c **** *              p_err       is a pointer to an error code that will be returned from this call.
 193:uCOS-III\Source/os_msg.c **** *
 194:uCOS-III\Source/os_msg.c **** *                              OS_ERR_Q_EMPTY
 195:uCOS-III\Source/os_msg.c **** *                              OS_ERR_NONE
 196:uCOS-III\Source/os_msg.c **** *
 197:uCOS-III\Source/os_msg.c **** * Returns    : The message (a pointer)
 198:uCOS-III\Source/os_msg.c **** *
 199:uCOS-III\Source/os_msg.c **** * Note(s)    : 1) This function is INTERNAL to uC/OS-III and your application MUST NOT call it.
 200:uCOS-III\Source/os_msg.c **** ***************************************************************************************************
 201:uCOS-III\Source/os_msg.c **** */
 202:uCOS-III\Source/os_msg.c **** 
 203:uCOS-III\Source/os_msg.c **** void  *OS_MsgQGet (OS_MSG_Q     *p_msg_q,
 204:uCOS-III\Source/os_msg.c ****                    OS_MSG_SIZE  *p_msg_size,
 205:uCOS-III\Source/os_msg.c ****                    CPU_TS       *p_ts,
 206:uCOS-III\Source/os_msg.c ****                    OS_ERR       *p_err)
 207:uCOS-III\Source/os_msg.c **** {
 245              		.loc 1 207 0
ARM GAS  C:\Users\jorti\AppData\Local\Temp\ccCrvehj.s 			page 9


 246              		.cfi_startproc
 247              		@ args = 0, pretend = 0, frame = 0
 248              		@ frame_needed = 0, uses_anonymous_args = 0
 249              		@ link register save eliminated.
 250              	.LVL17:
 251 0000 70B4     		push	{r4, r5, r6}
 252              		.cfi_def_cfa_offset 12
 253              		.cfi_offset 4, -12
 254              		.cfi_offset 5, -8
 255              		.cfi_offset 6, -4
 208:uCOS-III\Source/os_msg.c ****     OS_MSG  *p_msg;
 209:uCOS-III\Source/os_msg.c ****     void    *p_void;
 210:uCOS-III\Source/os_msg.c **** 
 211:uCOS-III\Source/os_msg.c **** 
 212:uCOS-III\Source/os_msg.c **** 
 213:uCOS-III\Source/os_msg.c **** #ifdef OS_SAFETY_CRITICAL
 214:uCOS-III\Source/os_msg.c ****     if (p_err == (OS_ERR *)0) {
 215:uCOS-III\Source/os_msg.c ****         OS_SAFETY_CRITICAL_EXCEPTION();
 216:uCOS-III\Source/os_msg.c ****         return ((void *)0);
 217:uCOS-III\Source/os_msg.c ****     }
 218:uCOS-III\Source/os_msg.c **** #endif
 219:uCOS-III\Source/os_msg.c **** 
 220:uCOS-III\Source/os_msg.c ****     if (p_msg_q->NbrEntries == (OS_MSG_QTY)0) {             /* Is the queue empty?                 
 256              		.loc 1 220 0
 257 0002 4489     		ldrh	r4, [r0, #10]
 258 0004 44B9     		cbnz	r4, .L19
 221:uCOS-III\Source/os_msg.c ****        *p_msg_size = (OS_MSG_SIZE)0;                        /* Yes                                 
 259              		.loc 1 221 0
 260 0006 0020     		movs	r0, #0
 261              	.LVL18:
 262 0008 0880     		strh	r0, [r1]	@ movhi
 222:uCOS-III\Source/os_msg.c ****         if (p_ts != (CPU_TS *)0) {
 263              		.loc 1 222 0
 264 000a 02B1     		cbz	r2, .L20
 223:uCOS-III\Source/os_msg.c ****            *p_ts  = (CPU_TS  )0;
 265              		.loc 1 223 0
 266 000c 1060     		str	r0, [r2]
 267              	.L20:
 224:uCOS-III\Source/os_msg.c ****         }
 225:uCOS-III\Source/os_msg.c ****        *p_err = OS_ERR_Q_EMPTY;
 268              		.loc 1 225 0
 269 000e 46F29252 		movw	r2, #26002
 270              	.LVL19:
 271 0012 1A80     		strh	r2, [r3]	@ movhi
 226:uCOS-III\Source/os_msg.c ****         return ((void *)0);
 272              		.loc 1 226 0
 273 0014 0020     		movs	r0, #0
 274 0016 1CE0     		b	.L21
 275              	.LVL20:
 276              	.L19:
 227:uCOS-III\Source/os_msg.c ****     }
 228:uCOS-III\Source/os_msg.c **** 
 229:uCOS-III\Source/os_msg.c ****     p_msg           = p_msg_q->OutPtr;                      /* No, get the next message to extract 
 277              		.loc 1 229 0
 278 0018 4468     		ldr	r4, [r0, #4]
 279              	.LVL21:
 230:uCOS-III\Source/os_msg.c ****     p_void          = p_msg->MsgPtr;
ARM GAS  C:\Users\jorti\AppData\Local\Temp\ccCrvehj.s 			page 10


 280              		.loc 1 230 0
 281 001a 6568     		ldr	r5, [r4, #4]
 282              	.LVL22:
 231:uCOS-III\Source/os_msg.c ****    *p_msg_size      = p_msg->MsgSize;
 283              		.loc 1 231 0
 284 001c 2689     		ldrh	r6, [r4, #8]
 285 001e 0E80     		strh	r6, [r1]	@ movhi
 232:uCOS-III\Source/os_msg.c ****     if (p_ts != (CPU_TS *)0) {
 286              		.loc 1 232 0
 287 0020 0AB1     		cbz	r2, .L22
 233:uCOS-III\Source/os_msg.c ****        *p_ts  = p_msg->MsgTS;
 288              		.loc 1 233 0
 289 0022 E168     		ldr	r1, [r4, #12]
 290              	.LVL23:
 291 0024 1160     		str	r1, [r2]
 292              	.L22:
 234:uCOS-III\Source/os_msg.c ****     }
 235:uCOS-III\Source/os_msg.c **** 
 236:uCOS-III\Source/os_msg.c ****     p_msg_q->OutPtr = p_msg->NextPtr;                       /* Point to next message to extract    
 293              		.loc 1 236 0
 294 0026 2268     		ldr	r2, [r4]
 295              	.LVL24:
 296 0028 4260     		str	r2, [r0, #4]
 237:uCOS-III\Source/os_msg.c **** 
 238:uCOS-III\Source/os_msg.c ****     if (p_msg_q->OutPtr == (OS_MSG *)0) {                   /* Are there any more messages in the q
 297              		.loc 1 238 0
 298 002a 12B9     		cbnz	r2, .L23
 239:uCOS-III\Source/os_msg.c ****         p_msg_q->InPtr      = (OS_MSG   *)0;                /* No                                  
 299              		.loc 1 239 0
 300 002c 0260     		str	r2, [r0]
 240:uCOS-III\Source/os_msg.c ****         p_msg_q->NbrEntries = (OS_MSG_QTY)0;
 301              		.loc 1 240 0
 302 002e 4281     		strh	r2, [r0, #10]	@ movhi
 303 0030 02E0     		b	.L24
 304              	.L23:
 241:uCOS-III\Source/os_msg.c ****     } else {
 242:uCOS-III\Source/os_msg.c ****         p_msg_q->NbrEntries--;                              /* Yes, One less message in the queue  
 305              		.loc 1 242 0
 306 0032 4289     		ldrh	r2, [r0, #10]
 307 0034 013A     		subs	r2, r2, #1
 308 0036 4281     		strh	r2, [r0, #10]	@ movhi
 309              	.L24:
 243:uCOS-III\Source/os_msg.c ****     }
 244:uCOS-III\Source/os_msg.c **** 
 245:uCOS-III\Source/os_msg.c ****     p_msg->NextPtr    = OSMsgPool.NextPtr;                  /* Return message control block to free
 310              		.loc 1 245 0
 311 0038 074A     		ldr	r2, .L26
 312 003a 1168     		ldr	r1, [r2]
 313 003c 2160     		str	r1, [r4]
 246:uCOS-III\Source/os_msg.c ****     OSMsgPool.NextPtr = p_msg;
 314              		.loc 1 246 0
 315 003e 1460     		str	r4, [r2]
 247:uCOS-III\Source/os_msg.c ****     OSMsgPool.NbrFree++;
 316              		.loc 1 247 0
 317 0040 9188     		ldrh	r1, [r2, #4]
 318 0042 0131     		adds	r1, r1, #1
 319 0044 9180     		strh	r1, [r2, #4]	@ movhi
ARM GAS  C:\Users\jorti\AppData\Local\Temp\ccCrvehj.s 			page 11


 248:uCOS-III\Source/os_msg.c ****     OSMsgPool.NbrUsed--;
 320              		.loc 1 248 0
 321 0046 D188     		ldrh	r1, [r2, #6]
 322 0048 0139     		subs	r1, r1, #1
 323 004a D180     		strh	r1, [r2, #6]	@ movhi
 249:uCOS-III\Source/os_msg.c **** 
 250:uCOS-III\Source/os_msg.c ****    *p_err             = OS_ERR_NONE;
 324              		.loc 1 250 0
 325 004c 0022     		movs	r2, #0
 326 004e 1A80     		strh	r2, [r3]	@ movhi
 251:uCOS-III\Source/os_msg.c ****     return (p_void);
 327              		.loc 1 251 0
 328 0050 2846     		mov	r0, r5
 329              	.LVL25:
 330              	.L21:
 252:uCOS-III\Source/os_msg.c **** }
 331              		.loc 1 252 0
 332 0052 70BC     		pop	{r4, r5, r6}
 333              		.cfi_restore 6
 334              		.cfi_restore 5
 335              		.cfi_restore 4
 336              		.cfi_def_cfa_offset 0
 337 0054 7047     		bx	lr
 338              	.L27:
 339 0056 00BF     		.align	2
 340              	.L26:
 341 0058 00000000 		.word	OSMsgPool
 342              		.cfi_endproc
 343              	.LFE4:
 344              		.size	OS_MsgQGet, .-OS_MsgQGet
 345              		.section	.text.OS_MsgQPut,"ax",%progbits
 346              		.align	2
 347              		.global	OS_MsgQPut
 348              		.thumb
 349              		.thumb_func
 350              		.type	OS_MsgQPut, %function
 351              	OS_MsgQPut:
 352              	.LFB5:
 253:uCOS-III\Source/os_msg.c **** 
 254:uCOS-III\Source/os_msg.c **** /*$PAGE*/
 255:uCOS-III\Source/os_msg.c **** /*
 256:uCOS-III\Source/os_msg.c **** ***************************************************************************************************
 257:uCOS-III\Source/os_msg.c **** *                                           DEPOSIT MESSAGE IN MESSAGE QUEUE
 258:uCOS-III\Source/os_msg.c **** *
 259:uCOS-III\Source/os_msg.c **** * Description: This function places a message in a message queue
 260:uCOS-III\Source/os_msg.c **** *
 261:uCOS-III\Source/os_msg.c **** * Arguments  : p_msg_q     is a pointer to the OS_TCB of the task to post the message to
 262:uCOS-III\Source/os_msg.c **** *              -------
 263:uCOS-III\Source/os_msg.c **** *
 264:uCOS-III\Source/os_msg.c **** *              p_void      is a pointer to the message to send.
 265:uCOS-III\Source/os_msg.c **** *
 266:uCOS-III\Source/os_msg.c **** *              msg_size    is the size of the message (in bytes)
 267:uCOS-III\Source/os_msg.c **** *
 268:uCOS-III\Source/os_msg.c **** *              opt         specifies whether the message will be posted in FIFO or LIFO order
 269:uCOS-III\Source/os_msg.c **** *
 270:uCOS-III\Source/os_msg.c **** *                              OS_OPT_POST_FIFO
 271:uCOS-III\Source/os_msg.c **** *                              OS_OPT_POST_LIFO
ARM GAS  C:\Users\jorti\AppData\Local\Temp\ccCrvehj.s 			page 12


 272:uCOS-III\Source/os_msg.c **** *
 273:uCOS-III\Source/os_msg.c **** *              ts          is a timestamp as to when the message was posted
 274:uCOS-III\Source/os_msg.c **** *
 275:uCOS-III\Source/os_msg.c **** *              p_err       is a pointer to a variable that will contain an error code returned by t
 276:uCOS-III\Source/os_msg.c **** *
 277:uCOS-III\Source/os_msg.c **** *                              OS_ERR_Q_MAX           if the queue is full
 278:uCOS-III\Source/os_msg.c **** *                              OS_ERR_MSG_POOL_EMPTY  if we no longer have any OS_MSG to use
 279:uCOS-III\Source/os_msg.c **** *                              OS_ERR_NONE            the message was deposited in the queue
 280:uCOS-III\Source/os_msg.c **** *
 281:uCOS-III\Source/os_msg.c **** * Returns    : none
 282:uCOS-III\Source/os_msg.c **** *
 283:uCOS-III\Source/os_msg.c **** * Note(s)    : 1) This function is INTERNAL to uC/OS-III and your application MUST NOT call it.
 284:uCOS-III\Source/os_msg.c **** ***************************************************************************************************
 285:uCOS-III\Source/os_msg.c **** */
 286:uCOS-III\Source/os_msg.c **** 
 287:uCOS-III\Source/os_msg.c **** void  OS_MsgQPut (OS_MSG_Q     *p_msg_q,
 288:uCOS-III\Source/os_msg.c ****                   void         *p_void,
 289:uCOS-III\Source/os_msg.c ****                   OS_MSG_SIZE   msg_size,
 290:uCOS-III\Source/os_msg.c ****                   OS_OPT        opt,
 291:uCOS-III\Source/os_msg.c ****                   CPU_TS        ts,
 292:uCOS-III\Source/os_msg.c ****                   OS_ERR       *p_err)
 293:uCOS-III\Source/os_msg.c **** {
 353              		.loc 1 293 0
 354              		.cfi_startproc
 355              		@ args = 8, pretend = 0, frame = 0
 356              		@ frame_needed = 0, uses_anonymous_args = 0
 357              	.LVL26:
 358 0000 F0B5     		push	{r4, r5, r6, r7, lr}
 359              		.cfi_def_cfa_offset 20
 360              		.cfi_offset 4, -20
 361              		.cfi_offset 5, -16
 362              		.cfi_offset 6, -12
 363              		.cfi_offset 7, -8
 364              		.cfi_offset 14, -4
 294:uCOS-III\Source/os_msg.c ****     OS_MSG  *p_msg;
 295:uCOS-III\Source/os_msg.c ****     OS_MSG  *p_msg_in;
 296:uCOS-III\Source/os_msg.c **** 
 297:uCOS-III\Source/os_msg.c **** 
 298:uCOS-III\Source/os_msg.c **** 
 299:uCOS-III\Source/os_msg.c **** #ifdef OS_SAFETY_CRITICAL
 300:uCOS-III\Source/os_msg.c ****     if (p_err == (OS_ERR *)0) {
 301:uCOS-III\Source/os_msg.c ****         OS_SAFETY_CRITICAL_EXCEPTION();
 302:uCOS-III\Source/os_msg.c ****         return;
 303:uCOS-III\Source/os_msg.c ****     }
 304:uCOS-III\Source/os_msg.c **** #endif
 305:uCOS-III\Source/os_msg.c **** 
 306:uCOS-III\Source/os_msg.c ****     if (p_msg_q->NbrEntries >= p_msg_q->NbrEntriesSize) {
 365              		.loc 1 306 0
 366 0002 4789     		ldrh	r7, [r0, #10]
 367 0004 0489     		ldrh	r4, [r0, #8]
 368 0006 A742     		cmp	r7, r4
 369 0008 04D3     		bcc	.L29
 307:uCOS-III\Source/os_msg.c ****        *p_err = OS_ERR_Q_MAX;                               /* Message queue cannot accept any more
 370              		.loc 1 307 0
 371 000a 46F29353 		movw	r3, #26003
 372              	.LVL27:
 373 000e 069A     		ldr	r2, [sp, #24]
ARM GAS  C:\Users\jorti\AppData\Local\Temp\ccCrvehj.s 			page 13


 374              	.LVL28:
 375 0010 1380     		strh	r3, [r2]	@ movhi
 308:uCOS-III\Source/os_msg.c ****         return;
 376              		.loc 1 308 0
 377 0012 F0BD     		pop	{r4, r5, r6, r7, pc}
 378              	.LVL29:
 379              	.L29:
 380 0014 9E46     		mov	lr, r3
 309:uCOS-III\Source/os_msg.c ****     }
 310:uCOS-III\Source/os_msg.c **** 
 311:uCOS-III\Source/os_msg.c ****     if (OSMsgPool.NbrFree == (OS_MSG_QTY)0) {
 381              		.loc 1 311 0
 382 0016 1E4C     		ldr	r4, .L39
 383 0018 A588     		ldrh	r5, [r4, #4]
 384 001a 25B9     		cbnz	r5, .L31
 312:uCOS-III\Source/os_msg.c ****        *p_err = OS_ERR_MSG_POOL_EMPTY;                      /* No more OS_MSG to use               
 385              		.loc 1 312 0
 386 001c 45F21D73 		movw	r3, #22301
 387              	.LVL30:
 388 0020 069A     		ldr	r2, [sp, #24]
 389              	.LVL31:
 390 0022 1380     		strh	r3, [r2]	@ movhi
 313:uCOS-III\Source/os_msg.c ****         return;
 391              		.loc 1 313 0
 392 0024 F0BD     		pop	{r4, r5, r6, r7, pc}
 393              	.LVL32:
 394              	.L31:
 314:uCOS-III\Source/os_msg.c ****     }
 315:uCOS-III\Source/os_msg.c **** 
 316:uCOS-III\Source/os_msg.c ****     p_msg             = OSMsgPool.NextPtr;                  /* Remove message control block from fr
 395              		.loc 1 316 0
 396 0026 1A4E     		ldr	r6, .L39
 397 0028 3468     		ldr	r4, [r6]
 398              	.LVL33:
 317:uCOS-III\Source/os_msg.c ****     OSMsgPool.NextPtr = p_msg->NextPtr;
 399              		.loc 1 317 0
 400 002a 2368     		ldr	r3, [r4]
 401              	.LVL34:
 402 002c 3360     		str	r3, [r6]
 318:uCOS-III\Source/os_msg.c ****     OSMsgPool.NbrFree--;
 403              		.loc 1 318 0
 404 002e 013D     		subs	r5, r5, #1
 405 0030 B580     		strh	r5, [r6, #4]	@ movhi
 319:uCOS-III\Source/os_msg.c ****     OSMsgPool.NbrUsed++;
 406              		.loc 1 319 0
 407 0032 F588     		ldrh	r5, [r6, #6]
 408 0034 0135     		adds	r5, r5, #1
 409 0036 ADB2     		uxth	r5, r5
 410 0038 F580     		strh	r5, [r6, #6]	@ movhi
 320:uCOS-III\Source/os_msg.c ****     if (OSMsgPool.NbrUsedMax < OSMsgPool.NbrUsed) {
 411              		.loc 1 320 0
 412 003a 3689     		ldrh	r6, [r6, #8]
 413 003c B542     		cmp	r5, r6
 414 003e 01D9     		bls	.L32
 321:uCOS-III\Source/os_msg.c ****         OSMsgPool.NbrUsedMax = OSMsgPool.NbrUsed;
 415              		.loc 1 321 0
 416 0040 134E     		ldr	r6, .L39
ARM GAS  C:\Users\jorti\AppData\Local\Temp\ccCrvehj.s 			page 14


 417 0042 3581     		strh	r5, [r6, #8]	@ movhi
 418              	.L32:
 322:uCOS-III\Source/os_msg.c ****     }
 323:uCOS-III\Source/os_msg.c **** 
 324:uCOS-III\Source/os_msg.c ****     if (p_msg_q->NbrEntries == (OS_MSG_QTY)0) {             /* Is this first message placed in the 
 419              		.loc 1 324 0
 420 0044 37B9     		cbnz	r7, .L33
 325:uCOS-III\Source/os_msg.c ****         p_msg_q->InPtr         = p_msg;                     /* Yes                                 
 421              		.loc 1 325 0
 422 0046 0460     		str	r4, [r0]
 326:uCOS-III\Source/os_msg.c ****         p_msg_q->OutPtr        = p_msg;
 423              		.loc 1 326 0
 424 0048 4460     		str	r4, [r0, #4]
 327:uCOS-III\Source/os_msg.c ****         p_msg_q->NbrEntries    = (OS_MSG_QTY)1;
 425              		.loc 1 327 0
 426 004a 0123     		movs	r3, #1
 427 004c 4381     		strh	r3, [r0, #10]	@ movhi
 328:uCOS-III\Source/os_msg.c ****         p_msg->NextPtr         = (OS_MSG *)0;
 428              		.loc 1 328 0
 429 004e 0023     		movs	r3, #0
 430 0050 2360     		str	r3, [r4]
 431 0052 0FE0     		b	.L34
 432              	.L33:
 329:uCOS-III\Source/os_msg.c ****     } else {                                                /* No                                  
 330:uCOS-III\Source/os_msg.c ****         if ((opt & OS_OPT_POST_LIFO) == OS_OPT_POST_FIFO) { /* Is it FIFO or LIFO?                 
 433              		.loc 1 330 0
 434 0054 0EF01003 		and	r3, lr, #16
 435 0058 9BB2     		uxth	r3, r3
 436 005a 2BB9     		cbnz	r3, .L35
 331:uCOS-III\Source/os_msg.c ****             p_msg_in           = p_msg_q->InPtr;            /* FIFO, add to the head               
 437              		.loc 1 331 0
 438 005c 0368     		ldr	r3, [r0]
 439              	.LVL35:
 332:uCOS-III\Source/os_msg.c ****             p_msg_in->NextPtr  = p_msg;
 440              		.loc 1 332 0
 441 005e 1C60     		str	r4, [r3]
 333:uCOS-III\Source/os_msg.c ****             p_msg_q->InPtr     = p_msg;
 442              		.loc 1 333 0
 443 0060 0460     		str	r4, [r0]
 334:uCOS-III\Source/os_msg.c ****             p_msg->NextPtr     = (OS_MSG *)0;
 444              		.loc 1 334 0
 445 0062 0023     		movs	r3, #0
 446              	.LVL36:
 447 0064 2360     		str	r3, [r4]
 448 0066 02E0     		b	.L36
 449              	.L35:
 335:uCOS-III\Source/os_msg.c ****         } else {
 336:uCOS-III\Source/os_msg.c ****             p_msg->NextPtr     = p_msg_q->OutPtr;           /* LIFO, add to the tail               
 450              		.loc 1 336 0
 451 0068 4368     		ldr	r3, [r0, #4]
 452 006a 2360     		str	r3, [r4]
 337:uCOS-III\Source/os_msg.c ****             p_msg_q->OutPtr    = p_msg;
 453              		.loc 1 337 0
 454 006c 4460     		str	r4, [r0, #4]
 455              	.L36:
 338:uCOS-III\Source/os_msg.c ****         }
 339:uCOS-III\Source/os_msg.c ****         p_msg_q->NbrEntries++;
ARM GAS  C:\Users\jorti\AppData\Local\Temp\ccCrvehj.s 			page 15


 456              		.loc 1 339 0
 457 006e 4389     		ldrh	r3, [r0, #10]
 458 0070 0133     		adds	r3, r3, #1
 459 0072 4381     		strh	r3, [r0, #10]	@ movhi
 460              	.L34:
 340:uCOS-III\Source/os_msg.c ****     }
 341:uCOS-III\Source/os_msg.c ****     if (p_msg_q->NbrEntriesMax < p_msg_q->NbrEntries) {
 461              		.loc 1 341 0
 462 0074 8589     		ldrh	r5, [r0, #12]
 463 0076 4389     		ldrh	r3, [r0, #10]
 464 0078 9D42     		cmp	r5, r3
 465 007a 00D2     		bcs	.L37
 342:uCOS-III\Source/os_msg.c ****         p_msg_q->NbrEntriesMax = p_msg_q->NbrEntries;
 466              		.loc 1 342 0
 467 007c 8381     		strh	r3, [r0, #12]	@ movhi
 468              	.L37:
 343:uCOS-III\Source/os_msg.c ****     }
 344:uCOS-III\Source/os_msg.c ****     p_msg->MsgPtr  = p_void;                                /* Deposit message in the message queue
 469              		.loc 1 344 0
 470 007e 6160     		str	r1, [r4, #4]
 345:uCOS-III\Source/os_msg.c ****     p_msg->MsgSize = msg_size;
 471              		.loc 1 345 0
 472 0080 2281     		strh	r2, [r4, #8]	@ movhi
 346:uCOS-III\Source/os_msg.c ****     p_msg->MsgTS   = ts;
 473              		.loc 1 346 0
 474 0082 059B     		ldr	r3, [sp, #20]
 475 0084 E360     		str	r3, [r4, #12]
 347:uCOS-III\Source/os_msg.c ****    *p_err          = OS_ERR_NONE;
 476              		.loc 1 347 0
 477 0086 0023     		movs	r3, #0
 478 0088 069A     		ldr	r2, [sp, #24]
 479              	.LVL37:
 480 008a 1380     		strh	r3, [r2]	@ movhi
 481              	.LVL38:
 482 008c F0BD     		pop	{r4, r5, r6, r7, pc}
 483              	.LVL39:
 484              	.L40:
 485 008e 00BF     		.align	2
 486              	.L39:
 487 0090 00000000 		.word	OSMsgPool
 488              		.cfi_endproc
 489              	.LFE5:
 490              		.size	OS_MsgQPut, .-OS_MsgQPut
 491              		.text
 492              	.Letext0:
 493              		.file 2 ".\\uC-CPU\\ARM-Cortex-M3\\GNU/cpu.h"
 494              		.file 3 ".\\uC-CPU/cpu_core.h"
 495              		.file 4 ".\\uCOS-III\\Source/os_type.h"
 496              		.file 5 ".\\uCOS-III\\Source/os.h"