ARM GAS  C:\Users\jorti\AppData\Local\Temp\ccbANLDA.s 			page 1


   1              		.syntax unified
   2              		.cpu cortex-m3
   3              		.fpu softvfp
   4              		.eabi_attribute 20, 1
   5              		.eabi_attribute 21, 1
   6              		.eabi_attribute 23, 3
   7              		.eabi_attribute 24, 1
   8              		.eabi_attribute 25, 1
   9              		.eabi_attribute 26, 1
  10              		.eabi_attribute 30, 1
  11              		.eabi_attribute 34, 1
  12              		.eabi_attribute 18, 4
  13              		.thumb
  14              		.syntax unified
  15              		.file	"os_mem.c"
  16              		.text
  17              	.Ltext0:
  18              		.cfi_sections	.debug_frame
  19              		.section	.text.OSMemGet,"ax",%progbits
  20              		.align	2
  21              		.global	OSMemGet
  22              		.thumb
  23              		.thumb_func
  24              		.type	OSMemGet, %function
  25              	OSMemGet:
  26              	.LFB2:
  27              		.file 1 "uCOS-III\\Source\\os_mem.c"
   1:uCOS-III\Source/os_mem.c **** /*
   2:uCOS-III\Source/os_mem.c **** ***************************************************************************************************
   3:uCOS-III\Source/os_mem.c **** *                                                      uC/OS-III
   4:uCOS-III\Source/os_mem.c **** *                                                 The Real-Time Kernel
   5:uCOS-III\Source/os_mem.c **** *
   6:uCOS-III\Source/os_mem.c **** *                                  (c) Copyright 2009-2012; Micrium, Inc.; Weston, FL
   7:uCOS-III\Source/os_mem.c **** *                           All rights reserved.  Protected by international copyright laws.
   8:uCOS-III\Source/os_mem.c **** *
   9:uCOS-III\Source/os_mem.c **** *                                             MEMORY PARTITION MANAGEMENT
  10:uCOS-III\Source/os_mem.c **** *
  11:uCOS-III\Source/os_mem.c **** * File    : OS_MEM.C
  12:uCOS-III\Source/os_mem.c **** * By      : JJL
  13:uCOS-III\Source/os_mem.c **** * Version : V3.03.01
  14:uCOS-III\Source/os_mem.c **** *
  15:uCOS-III\Source/os_mem.c **** * LICENSING TERMS:
  16:uCOS-III\Source/os_mem.c **** * ---------------
  17:uCOS-III\Source/os_mem.c **** *           uC/OS-III is provided in source form for FREE short-term evaluation, for educational us
  18:uCOS-III\Source/os_mem.c **** *           for peaceful research.  If you plan or intend to use uC/OS-III in a commercial applicat
  19:uCOS-III\Source/os_mem.c **** *           product then, you need to contact Micrium to properly license uC/OS-III for its use in 
  20:uCOS-III\Source/os_mem.c **** *           application/product.   We provide ALL the source code for your convenience and to help 
  21:uCOS-III\Source/os_mem.c **** *           experience uC/OS-III.  The fact that the source is provided does NOT mean that you can 
  22:uCOS-III\Source/os_mem.c **** *           it commercially without paying a licensing fee.
  23:uCOS-III\Source/os_mem.c **** *
  24:uCOS-III\Source/os_mem.c **** *           Knowledge of the source code may NOT be used to develop a similar product.
  25:uCOS-III\Source/os_mem.c **** *
  26:uCOS-III\Source/os_mem.c **** *           Please help us continue to provide the embedded community with the finest software avai
  27:uCOS-III\Source/os_mem.c **** *           Your honesty is greatly appreciated.
  28:uCOS-III\Source/os_mem.c **** *
  29:uCOS-III\Source/os_mem.c **** *           You can contact us at www.micrium.com, or by phone at +1 (954) 217-2036.
  30:uCOS-III\Source/os_mem.c **** ***************************************************************************************************
ARM GAS  C:\Users\jorti\AppData\Local\Temp\ccbANLDA.s 			page 2


  31:uCOS-III\Source/os_mem.c **** */
  32:uCOS-III\Source/os_mem.c **** 
  33:uCOS-III\Source/os_mem.c **** #define   MICRIUM_SOURCE
  34:uCOS-III\Source/os_mem.c **** #include  <os.h>
  35:uCOS-III\Source/os_mem.c **** 
  36:uCOS-III\Source/os_mem.c **** #ifdef VSC_INCLUDE_SOURCE_FILE_NAMES
  37:uCOS-III\Source/os_mem.c **** const  CPU_CHAR  *os_mem__c = "$Id: $";
  38:uCOS-III\Source/os_mem.c **** #endif
  39:uCOS-III\Source/os_mem.c **** 
  40:uCOS-III\Source/os_mem.c **** 
  41:uCOS-III\Source/os_mem.c **** #if OS_CFG_MEM_EN > 0u
  42:uCOS-III\Source/os_mem.c **** /*
  43:uCOS-III\Source/os_mem.c **** ***************************************************************************************************
  44:uCOS-III\Source/os_mem.c **** *                                               CREATE A MEMORY PARTITION
  45:uCOS-III\Source/os_mem.c **** *
  46:uCOS-III\Source/os_mem.c **** * Description : Create a fixed-sized memory partition that will be managed by uC/OS-III.
  47:uCOS-III\Source/os_mem.c **** *
  48:uCOS-III\Source/os_mem.c **** * Arguments   : p_mem    is a pointer to a memory partition control block which is allocated in use
  49:uCOS-III\Source/os_mem.c **** *
  50:uCOS-III\Source/os_mem.c **** *               p_name   is a pointer to an ASCII string to provide a name to the memory partition.
  51:uCOS-III\Source/os_mem.c **** *
  52:uCOS-III\Source/os_mem.c **** *               p_addr   is the starting address of the memory partition
  53:uCOS-III\Source/os_mem.c **** *
  54:uCOS-III\Source/os_mem.c **** *               n_blks   is the number of memory blocks to create from the partition.
  55:uCOS-III\Source/os_mem.c **** *
  56:uCOS-III\Source/os_mem.c **** *               blk_size is the size (in bytes) of each block in the memory partition.
  57:uCOS-III\Source/os_mem.c **** *
  58:uCOS-III\Source/os_mem.c **** *               p_err    is a pointer to a variable containing an error message which will be set b
  59:uCOS-III\Source/os_mem.c **** *                        either:
  60:uCOS-III\Source/os_mem.c **** *
  61:uCOS-III\Source/os_mem.c **** *                            OS_ERR_NONE                    if the memory partition has been create
  62:uCOS-III\Source/os_mem.c **** *                            OS_ERR_ILLEGAL_CREATE_RUN_TIME if you are trying to create the memory 
  63:uCOS-III\Source/os_mem.c **** *                                                             called OSSafetyCriticalStart().
  64:uCOS-III\Source/os_mem.c **** *                            OS_ERR_MEM_INVALID_BLKS        user specified an invalid number of blo
  65:uCOS-III\Source/os_mem.c **** *                            OS_ERR_MEM_INVALID_P_ADDR      if you are specifying an invalid addres
  66:uCOS-III\Source/os_mem.c **** *                                                           storage of the partition or, the block 
  67:uCOS-III\Source/os_mem.c **** *                                                           pointer boundary
  68:uCOS-III\Source/os_mem.c **** *                            OS_ERR_MEM_INVALID_SIZE        user specified an invalid block size
  69:uCOS-III\Source/os_mem.c **** *                                                             - must be greater than the size of a 
  70:uCOS-III\Source/os_mem.c **** *                                                             - must be able to hold an integral nu
  71:uCOS-III\Source/os_mem.c **** * Returns    : none
  72:uCOS-III\Source/os_mem.c **** ***************************************************************************************************
  73:uCOS-III\Source/os_mem.c **** */
  74:uCOS-III\Source/os_mem.c **** 
  75:uCOS-III\Source/os_mem.c **** void  OSMemCreate (OS_MEM       *p_mem,
  76:uCOS-III\Source/os_mem.c ****                    CPU_CHAR     *p_name,
  77:uCOS-III\Source/os_mem.c ****                    void         *p_addr,
  78:uCOS-III\Source/os_mem.c ****                    OS_MEM_QTY    n_blks,
  79:uCOS-III\Source/os_mem.c ****                    OS_MEM_SIZE   blk_size,
  80:uCOS-III\Source/os_mem.c ****                    OS_ERR       *p_err)
  81:uCOS-III\Source/os_mem.c **** {
  82:uCOS-III\Source/os_mem.c **** #if OS_CFG_ARG_CHK_EN > 0u
  83:uCOS-III\Source/os_mem.c ****     CPU_DATA       align_msk;
  84:uCOS-III\Source/os_mem.c **** #endif
  85:uCOS-III\Source/os_mem.c ****     OS_MEM_QTY     i;
  86:uCOS-III\Source/os_mem.c ****     OS_MEM_QTY     loops;
  87:uCOS-III\Source/os_mem.c ****     CPU_INT08U    *p_blk;
ARM GAS  C:\Users\jorti\AppData\Local\Temp\ccbANLDA.s 			page 3


  88:uCOS-III\Source/os_mem.c ****     void         **p_link;
  89:uCOS-III\Source/os_mem.c ****     CPU_SR_ALLOC();
  90:uCOS-III\Source/os_mem.c **** 
  91:uCOS-III\Source/os_mem.c **** 
  92:uCOS-III\Source/os_mem.c **** 
  93:uCOS-III\Source/os_mem.c **** #ifdef OS_SAFETY_CRITICAL
  94:uCOS-III\Source/os_mem.c ****     if (p_err == (OS_ERR *)0) {
  95:uCOS-III\Source/os_mem.c ****         OS_SAFETY_CRITICAL_EXCEPTION();
  96:uCOS-III\Source/os_mem.c ****         return;
  97:uCOS-III\Source/os_mem.c ****     }
  98:uCOS-III\Source/os_mem.c **** #endif
  99:uCOS-III\Source/os_mem.c **** 
 100:uCOS-III\Source/os_mem.c **** #ifdef OS_SAFETY_CRITICAL_IEC61508
 101:uCOS-III\Source/os_mem.c ****     if (OSSafetyCriticalStartFlag == DEF_TRUE) {
 102:uCOS-III\Source/os_mem.c ****        *p_err = OS_ERR_ILLEGAL_CREATE_RUN_TIME;
 103:uCOS-III\Source/os_mem.c ****         return;
 104:uCOS-III\Source/os_mem.c ****     }
 105:uCOS-III\Source/os_mem.c **** #endif
 106:uCOS-III\Source/os_mem.c **** 
 107:uCOS-III\Source/os_mem.c **** #if OS_CFG_CALLED_FROM_ISR_CHK_EN > 0u
 108:uCOS-III\Source/os_mem.c ****     if (OSIntNestingCtr > (OS_NESTING_CTR)0) {              /* Not allowed to call from an ISR     
 109:uCOS-III\Source/os_mem.c ****        *p_err = OS_ERR_MEM_CREATE_ISR;
 110:uCOS-III\Source/os_mem.c ****         return;
 111:uCOS-III\Source/os_mem.c ****     }
 112:uCOS-III\Source/os_mem.c **** #endif
 113:uCOS-III\Source/os_mem.c **** 
 114:uCOS-III\Source/os_mem.c **** #if OS_CFG_ARG_CHK_EN > 0u
 115:uCOS-III\Source/os_mem.c ****     if (p_addr == (void *)0) {                              /* Must pass a valid address for the me
 116:uCOS-III\Source/os_mem.c ****        *p_err   = OS_ERR_MEM_INVALID_P_ADDR;
 117:uCOS-III\Source/os_mem.c ****         return;
 118:uCOS-III\Source/os_mem.c ****     }
 119:uCOS-III\Source/os_mem.c ****     if (n_blks < (OS_MEM_QTY)2) {                           /* Must have at least 2 blocks per part
 120:uCOS-III\Source/os_mem.c ****        *p_err = OS_ERR_MEM_INVALID_BLKS;
 121:uCOS-III\Source/os_mem.c ****         return;
 122:uCOS-III\Source/os_mem.c ****     }
 123:uCOS-III\Source/os_mem.c ****     if (blk_size < sizeof(void *)) {                        /* Must contain space for at least a po
 124:uCOS-III\Source/os_mem.c ****        *p_err = OS_ERR_MEM_INVALID_SIZE;
 125:uCOS-III\Source/os_mem.c ****         return;
 126:uCOS-III\Source/os_mem.c ****     }
 127:uCOS-III\Source/os_mem.c ****     align_msk = sizeof(void *) - 1u;
 128:uCOS-III\Source/os_mem.c ****     if (align_msk > 0u) {
 129:uCOS-III\Source/os_mem.c ****         if (((CPU_ADDR)p_addr & align_msk) != 0u){          /* Must be pointer size aligned        
 130:uCOS-III\Source/os_mem.c ****            *p_err = OS_ERR_MEM_INVALID_P_ADDR;
 131:uCOS-III\Source/os_mem.c ****             return;
 132:uCOS-III\Source/os_mem.c ****         }
 133:uCOS-III\Source/os_mem.c ****         if ((blk_size & align_msk) != 0u) {                 /* Block size must be a multiple addres
 134:uCOS-III\Source/os_mem.c ****            *p_err = OS_ERR_MEM_INVALID_SIZE;
 135:uCOS-III\Source/os_mem.c ****             return;
 136:uCOS-III\Source/os_mem.c ****         }
 137:uCOS-III\Source/os_mem.c ****     }
 138:uCOS-III\Source/os_mem.c **** #endif
 139:uCOS-III\Source/os_mem.c **** 
 140:uCOS-III\Source/os_mem.c ****     p_link = (void **)p_addr;                               /* Create linked list of free memory bl
 141:uCOS-III\Source/os_mem.c ****     p_blk  = (CPU_INT08U *)p_addr;
 142:uCOS-III\Source/os_mem.c ****     loops  = n_blks - 1u;
 143:uCOS-III\Source/os_mem.c ****     for (i = 0u; i < loops; i++) {
 144:uCOS-III\Source/os_mem.c ****         p_blk +=  blk_size;
ARM GAS  C:\Users\jorti\AppData\Local\Temp\ccbANLDA.s 			page 4


 145:uCOS-III\Source/os_mem.c ****        *p_link = (void  *)p_blk;                            /* Save pointer to NEXT block in CURREN
 146:uCOS-III\Source/os_mem.c ****         p_link = (void **)(void *)p_blk;                    /* Position     to NEXT block          
 147:uCOS-III\Source/os_mem.c ****     }
 148:uCOS-III\Source/os_mem.c ****    *p_link             = (void *)0;                         /* Last memory block points to NULL    
 149:uCOS-III\Source/os_mem.c **** 
 150:uCOS-III\Source/os_mem.c ****     OS_CRITICAL_ENTER();
 151:uCOS-III\Source/os_mem.c ****     p_mem->Type        = OS_OBJ_TYPE_MEM;                   /* Set the type of object              
 152:uCOS-III\Source/os_mem.c ****     p_mem->NamePtr     = p_name;                            /* Save name of memory partition       
 153:uCOS-III\Source/os_mem.c ****     p_mem->AddrPtr     = p_addr;                            /* Store start address of memory partit
 154:uCOS-III\Source/os_mem.c ****     p_mem->FreeListPtr = p_addr;                            /* Initialize pointer to pool of free b
 155:uCOS-III\Source/os_mem.c ****     p_mem->NbrFree     = n_blks;                            /* Store number of free blocks in MCB  
 156:uCOS-III\Source/os_mem.c ****     p_mem->NbrMax      = n_blks;
 157:uCOS-III\Source/os_mem.c ****     p_mem->BlkSize     = blk_size;                          /* Store block size of each memory bloc
 158:uCOS-III\Source/os_mem.c **** 
 159:uCOS-III\Source/os_mem.c **** #if OS_CFG_DBG_EN > 0u
 160:uCOS-III\Source/os_mem.c ****     OS_MemDbgListAdd(p_mem);
 161:uCOS-III\Source/os_mem.c **** #endif
 162:uCOS-III\Source/os_mem.c **** 
 163:uCOS-III\Source/os_mem.c ****     OSMemQty++;
 164:uCOS-III\Source/os_mem.c **** 
 165:uCOS-III\Source/os_mem.c ****     OS_CRITICAL_EXIT_NO_SCHED();
 166:uCOS-III\Source/os_mem.c ****    *p_err = OS_ERR_NONE;
 167:uCOS-III\Source/os_mem.c **** }
 168:uCOS-III\Source/os_mem.c **** 
 169:uCOS-III\Source/os_mem.c **** /*$PAGE*/
 170:uCOS-III\Source/os_mem.c **** /*
 171:uCOS-III\Source/os_mem.c **** ***************************************************************************************************
 172:uCOS-III\Source/os_mem.c **** *                                                  GET A MEMORY BLOCK
 173:uCOS-III\Source/os_mem.c **** *
 174:uCOS-III\Source/os_mem.c **** * Description : Get a memory block from a partition
 175:uCOS-III\Source/os_mem.c **** *
 176:uCOS-III\Source/os_mem.c **** * Arguments   : p_mem   is a pointer to the memory partition control block
 177:uCOS-III\Source/os_mem.c **** *
 178:uCOS-III\Source/os_mem.c **** *               p_err   is a pointer to a variable containing an error message which will be set by
 179:uCOS-III\Source/os_mem.c **** *                       either:
 180:uCOS-III\Source/os_mem.c **** *
 181:uCOS-III\Source/os_mem.c **** *                       OS_ERR_NONE               if the memory partition has been created correctl
 182:uCOS-III\Source/os_mem.c **** *                       OS_ERR_MEM_INVALID_P_MEM  if you passed a NULL pointer for 'p_mem'
 183:uCOS-III\Source/os_mem.c **** *                       OS_ERR_MEM_NO_FREE_BLKS   if there are no more free memory blocks to alloca
 184:uCOS-III\Source/os_mem.c **** *
 185:uCOS-III\Source/os_mem.c **** * Returns     : A pointer to a memory block if no error is detected
 186:uCOS-III\Source/os_mem.c **** *               A pointer to NULL if an error is detected
 187:uCOS-III\Source/os_mem.c **** ***************************************************************************************************
 188:uCOS-III\Source/os_mem.c **** */
 189:uCOS-III\Source/os_mem.c **** 
 190:uCOS-III\Source/os_mem.c **** void  *OSMemGet (OS_MEM  *p_mem,
 191:uCOS-III\Source/os_mem.c ****                  OS_ERR  *p_err)
 192:uCOS-III\Source/os_mem.c **** {
  28              		.loc 1 192 0
  29              		.cfi_startproc
  30              		@ args = 0, pretend = 0, frame = 0
  31              		@ frame_needed = 0, uses_anonymous_args = 0
  32              	.LVL0:
 193:uCOS-III\Source/os_mem.c ****     void    *p_blk;
 194:uCOS-III\Source/os_mem.c ****     CPU_SR_ALLOC();
 195:uCOS-III\Source/os_mem.c **** 
 196:uCOS-III\Source/os_mem.c **** 
ARM GAS  C:\Users\jorti\AppData\Local\Temp\ccbANLDA.s 			page 5


 197:uCOS-III\Source/os_mem.c **** 
 198:uCOS-III\Source/os_mem.c **** #ifdef OS_SAFETY_CRITICAL
 199:uCOS-III\Source/os_mem.c ****     if (p_err == (OS_ERR *)0) {
 200:uCOS-III\Source/os_mem.c ****         OS_SAFETY_CRITICAL_EXCEPTION();
 201:uCOS-III\Source/os_mem.c ****         return ((void *)0);
 202:uCOS-III\Source/os_mem.c ****     }
 203:uCOS-III\Source/os_mem.c **** #endif
 204:uCOS-III\Source/os_mem.c **** 
 205:uCOS-III\Source/os_mem.c **** #if OS_CFG_ARG_CHK_EN > 0u
 206:uCOS-III\Source/os_mem.c ****     if (p_mem == (OS_MEM *)0) {                             /* Must point to a valid memory partiti
  33              		.loc 1 206 0
  34 0000 18B9     		cbnz	r0, .L2
 207:uCOS-III\Source/os_mem.c ****        *p_err  = OS_ERR_MEM_INVALID_P_MEM;
  35              		.loc 1 207 0
  36 0002 45F2BF63 		movw	r3, #22207
  37 0006 0B80     		strh	r3, [r1]	@ movhi
 208:uCOS-III\Source/os_mem.c ****         return ((void *)0);
 209:uCOS-III\Source/os_mem.c ****     }
 210:uCOS-III\Source/os_mem.c **** #endif
 211:uCOS-III\Source/os_mem.c **** 
 212:uCOS-III\Source/os_mem.c ****     CPU_CRITICAL_ENTER();
 213:uCOS-III\Source/os_mem.c ****     if (p_mem->NbrFree == (OS_MEM_QTY)0) {                  /* See if there are any free memory blo
 214:uCOS-III\Source/os_mem.c ****         CPU_CRITICAL_EXIT();
 215:uCOS-III\Source/os_mem.c ****        *p_err = OS_ERR_MEM_NO_FREE_BLKS;                    /* No,  Notify caller of empty memory p
 216:uCOS-III\Source/os_mem.c ****         return ((void *)0);                                 /*      Return NULL pointer to caller  
 217:uCOS-III\Source/os_mem.c ****     }
 218:uCOS-III\Source/os_mem.c ****     p_blk              = p_mem->FreeListPtr;                /* Yes, point to next free memory block
 219:uCOS-III\Source/os_mem.c ****     p_mem->FreeListPtr = *(void **)p_blk;                   /*      Adjust pointer to new free list
 220:uCOS-III\Source/os_mem.c ****     p_mem->NbrFree--;                                       /*      One less memory block in this p
 221:uCOS-III\Source/os_mem.c ****     CPU_CRITICAL_EXIT();
 222:uCOS-III\Source/os_mem.c ****    *p_err = OS_ERR_NONE;                                    /*      No error                       
 223:uCOS-III\Source/os_mem.c ****     return (p_blk);                                         /*      Return memory block to caller  
 224:uCOS-III\Source/os_mem.c **** }
  38              		.loc 1 224 0
  39 0008 7047     		bx	lr
  40              	.L2:
 192:uCOS-III\Source/os_mem.c ****     void    *p_blk;
  41              		.loc 1 192 0
  42 000a 70B5     		push	{r4, r5, r6, lr}
  43              		.cfi_def_cfa_offset 16
  44              		.cfi_offset 4, -16
  45              		.cfi_offset 5, -12
  46              		.cfi_offset 6, -8
  47              		.cfi_offset 14, -4
  48 000c 0446     		mov	r4, r0
  49 000e 0E46     		mov	r6, r1
 212:uCOS-III\Source/os_mem.c ****     if (p_mem->NbrFree == (OS_MEM_QTY)0) {                  /* See if there are any free memory blo
  50              		.loc 1 212 0
  51 0010 FFF7FEFF 		bl	CPU_SR_Save
  52              	.LVL1:
 213:uCOS-III\Source/os_mem.c ****         CPU_CRITICAL_EXIT();
  53              		.loc 1 213 0
  54 0014 A38A     		ldrh	r3, [r4, #20]
  55 0016 33B9     		cbnz	r3, .L4
 214:uCOS-III\Source/os_mem.c ****        *p_err = OS_ERR_MEM_NO_FREE_BLKS;                    /* No,  Notify caller of empty memory p
  56              		.loc 1 214 0
  57 0018 FFF7FEFF 		bl	CPU_SR_Restore
ARM GAS  C:\Users\jorti\AppData\Local\Temp\ccbANLDA.s 			page 6


  58              	.LVL2:
 215:uCOS-III\Source/os_mem.c ****         return ((void *)0);                                 /*      Return NULL pointer to caller  
  59              		.loc 1 215 0
  60 001c 45F2C263 		movw	r3, #22210
  61 0020 3380     		strh	r3, [r6]	@ movhi
 216:uCOS-III\Source/os_mem.c ****     }
  62              		.loc 1 216 0
  63 0022 0020     		movs	r0, #0
  64 0024 70BD     		pop	{r4, r5, r6, pc}
  65              	.LVL3:
  66              	.L4:
 218:uCOS-III\Source/os_mem.c ****     p_mem->FreeListPtr = *(void **)p_blk;                   /*      Adjust pointer to new free list
  67              		.loc 1 218 0
  68 0026 E568     		ldr	r5, [r4, #12]
  69              	.LVL4:
 219:uCOS-III\Source/os_mem.c ****     p_mem->NbrFree--;                                       /*      One less memory block in this p
  70              		.loc 1 219 0
  71 0028 2A68     		ldr	r2, [r5]
  72 002a E260     		str	r2, [r4, #12]
 220:uCOS-III\Source/os_mem.c ****     CPU_CRITICAL_EXIT();
  73              		.loc 1 220 0
  74 002c 013B     		subs	r3, r3, #1
  75 002e A382     		strh	r3, [r4, #20]	@ movhi
 221:uCOS-III\Source/os_mem.c ****    *p_err = OS_ERR_NONE;                                    /*      No error                       
  76              		.loc 1 221 0
  77 0030 FFF7FEFF 		bl	CPU_SR_Restore
  78              	.LVL5:
 222:uCOS-III\Source/os_mem.c ****     return (p_blk);                                         /*      Return memory block to caller  
  79              		.loc 1 222 0
  80 0034 0023     		movs	r3, #0
  81 0036 3380     		strh	r3, [r6]	@ movhi
 223:uCOS-III\Source/os_mem.c **** }
  82              		.loc 1 223 0
  83 0038 2846     		mov	r0, r5
  84              		.loc 1 224 0
  85 003a 70BD     		pop	{r4, r5, r6, pc}
  86              		.cfi_endproc
  87              	.LFE2:
  88              		.size	OSMemGet, .-OSMemGet
  89              		.section	.text.OSMemPut,"ax",%progbits
  90              		.align	2
  91              		.global	OSMemPut
  92              		.thumb
  93              		.thumb_func
  94              		.type	OSMemPut, %function
  95              	OSMemPut:
  96              	.LFB3:
 225:uCOS-III\Source/os_mem.c **** 
 226:uCOS-III\Source/os_mem.c **** /*$PAGE*/
 227:uCOS-III\Source/os_mem.c **** /*
 228:uCOS-III\Source/os_mem.c **** ***************************************************************************************************
 229:uCOS-III\Source/os_mem.c **** *                                                 RELEASE A MEMORY BLOCK
 230:uCOS-III\Source/os_mem.c **** *
 231:uCOS-III\Source/os_mem.c **** * Description : Returns a memory block to a partition
 232:uCOS-III\Source/os_mem.c **** *
 233:uCOS-III\Source/os_mem.c **** * Arguments   : p_mem    is a pointer to the memory partition control block
 234:uCOS-III\Source/os_mem.c **** *
ARM GAS  C:\Users\jorti\AppData\Local\Temp\ccbANLDA.s 			page 7


 235:uCOS-III\Source/os_mem.c **** *               p_blk    is a pointer to the memory block being released.
 236:uCOS-III\Source/os_mem.c **** *
 237:uCOS-III\Source/os_mem.c **** *               p_err    is a pointer to a variable that will contain an error code returned by thi
 238:uCOS-III\Source/os_mem.c **** *
 239:uCOS-III\Source/os_mem.c **** *                            OS_ERR_NONE               if the memory block was inserted into the pa
 240:uCOS-III\Source/os_mem.c **** *                            OS_ERR_MEM_FULL           if you are returning a memory block to an al
 241:uCOS-III\Source/os_mem.c **** *                                                      partition (You freed more blocks than you al
 242:uCOS-III\Source/os_mem.c **** *                            OS_ERR_MEM_INVALID_P_BLK  if you passed a NULL pointer for the block t
 243:uCOS-III\Source/os_mem.c **** *                            OS_ERR_MEM_INVALID_P_MEM  if you passed a NULL pointer for 'p_mem'
 244:uCOS-III\Source/os_mem.c **** ***************************************************************************************************
 245:uCOS-III\Source/os_mem.c **** */
 246:uCOS-III\Source/os_mem.c **** 
 247:uCOS-III\Source/os_mem.c **** void  OSMemPut (OS_MEM  *p_mem,
 248:uCOS-III\Source/os_mem.c ****                 void    *p_blk,
 249:uCOS-III\Source/os_mem.c ****                 OS_ERR  *p_err)
 250:uCOS-III\Source/os_mem.c **** {
  97              		.loc 1 250 0
  98              		.cfi_startproc
  99              		@ args = 0, pretend = 0, frame = 0
 100              		@ frame_needed = 0, uses_anonymous_args = 0
 101              	.LVL6:
 251:uCOS-III\Source/os_mem.c ****     CPU_SR_ALLOC();
 252:uCOS-III\Source/os_mem.c **** 
 253:uCOS-III\Source/os_mem.c **** 
 254:uCOS-III\Source/os_mem.c **** 
 255:uCOS-III\Source/os_mem.c **** #ifdef OS_SAFETY_CRITICAL
 256:uCOS-III\Source/os_mem.c ****     if (p_err == (OS_ERR *)0) {
 257:uCOS-III\Source/os_mem.c ****         OS_SAFETY_CRITICAL_EXCEPTION();
 258:uCOS-III\Source/os_mem.c ****         return;
 259:uCOS-III\Source/os_mem.c ****     }
 260:uCOS-III\Source/os_mem.c **** #endif
 261:uCOS-III\Source/os_mem.c **** 
 262:uCOS-III\Source/os_mem.c **** #if OS_CFG_ARG_CHK_EN > 0u
 263:uCOS-III\Source/os_mem.c ****     if (p_mem == (OS_MEM *)0) {                             /* Must point to a valid memory partiti
 102              		.loc 1 263 0
 103 0000 18B9     		cbnz	r0, .L7
 264:uCOS-III\Source/os_mem.c ****        *p_err  = OS_ERR_MEM_INVALID_P_MEM;
 104              		.loc 1 264 0
 105 0002 45F2BF63 		movw	r3, #22207
 106 0006 1380     		strh	r3, [r2]	@ movhi
 107 0008 7047     		bx	lr
 108              	.L7:
 250:uCOS-III\Source/os_mem.c ****     CPU_SR_ALLOC();
 109              		.loc 1 250 0
 110 000a 70B5     		push	{r4, r5, r6, lr}
 111              		.cfi_def_cfa_offset 16
 112              		.cfi_offset 4, -16
 113              		.cfi_offset 5, -12
 114              		.cfi_offset 6, -8
 115              		.cfi_offset 14, -4
 116 000c 0446     		mov	r4, r0
 265:uCOS-III\Source/os_mem.c ****         return;
 266:uCOS-III\Source/os_mem.c ****     }
 267:uCOS-III\Source/os_mem.c ****     if (p_blk == (void *)0) {                               /* Must release a valid block          
 117              		.loc 1 267 0
 118 000e 19B9     		cbnz	r1, .L9
 268:uCOS-III\Source/os_mem.c ****        *p_err  = OS_ERR_MEM_INVALID_P_BLK;
ARM GAS  C:\Users\jorti\AppData\Local\Temp\ccbANLDA.s 			page 8


 119              		.loc 1 268 0
 120 0010 45F2BE63 		movw	r3, #22206
 121 0014 1380     		strh	r3, [r2]	@ movhi
 269:uCOS-III\Source/os_mem.c ****         return;
 122              		.loc 1 269 0
 123 0016 70BD     		pop	{r4, r5, r6, pc}
 124              	.L9:
 125 0018 1646     		mov	r6, r2
 126 001a 0D46     		mov	r5, r1
 270:uCOS-III\Source/os_mem.c ****     }
 271:uCOS-III\Source/os_mem.c **** #endif
 272:uCOS-III\Source/os_mem.c **** 
 273:uCOS-III\Source/os_mem.c ****     CPU_CRITICAL_ENTER();
 127              		.loc 1 273 0
 128 001c FFF7FEFF 		bl	CPU_SR_Save
 129              	.LVL7:
 274:uCOS-III\Source/os_mem.c ****     if (p_mem->NbrFree >= p_mem->NbrMax) {                  /* Make sure all blocks not already ret
 130              		.loc 1 274 0
 131 0020 A28A     		ldrh	r2, [r4, #20]
 132 0022 638A     		ldrh	r3, [r4, #18]
 133 0024 9A42     		cmp	r2, r3
 134 0026 05D3     		bcc	.L10
 275:uCOS-III\Source/os_mem.c ****         CPU_CRITICAL_EXIT();
 135              		.loc 1 275 0
 136 0028 FFF7FEFF 		bl	CPU_SR_Restore
 137              	.LVL8:
 276:uCOS-III\Source/os_mem.c ****        *p_err = OS_ERR_MEM_FULL;
 138              		.loc 1 276 0
 139 002c 45F2BA63 		movw	r3, #22202
 140 0030 3380     		strh	r3, [r6]	@ movhi
 277:uCOS-III\Source/os_mem.c ****         return;
 141              		.loc 1 277 0
 142 0032 70BD     		pop	{r4, r5, r6, pc}
 143              	.LVL9:
 144              	.L10:
 278:uCOS-III\Source/os_mem.c ****     }
 279:uCOS-III\Source/os_mem.c ****     *(void **)p_blk    = p_mem->FreeListPtr;                /* Insert released block into free bloc
 145              		.loc 1 279 0
 146 0034 E368     		ldr	r3, [r4, #12]
 147 0036 2B60     		str	r3, [r5]
 280:uCOS-III\Source/os_mem.c ****     p_mem->FreeListPtr = p_blk;
 148              		.loc 1 280 0
 149 0038 E560     		str	r5, [r4, #12]
 281:uCOS-III\Source/os_mem.c ****     p_mem->NbrFree++;                                       /* One more memory block in this partit
 150              		.loc 1 281 0
 151 003a A38A     		ldrh	r3, [r4, #20]
 152 003c 0133     		adds	r3, r3, #1
 153 003e A382     		strh	r3, [r4, #20]	@ movhi
 282:uCOS-III\Source/os_mem.c ****     CPU_CRITICAL_EXIT();
 154              		.loc 1 282 0
 155 0040 FFF7FEFF 		bl	CPU_SR_Restore
 156              	.LVL10:
 283:uCOS-III\Source/os_mem.c ****    *p_err              = OS_ERR_NONE;                       /* Notify caller that memory block was 
 157              		.loc 1 283 0
 158 0044 0023     		movs	r3, #0
 159 0046 3380     		strh	r3, [r6]	@ movhi
 160 0048 70BD     		pop	{r4, r5, r6, pc}
ARM GAS  C:\Users\jorti\AppData\Local\Temp\ccbANLDA.s 			page 9


 161              		.cfi_endproc
 162              	.LFE3:
 163              		.size	OSMemPut, .-OSMemPut
 164 004a 00BF     		.section	.text.OS_MemDbgListAdd,"ax",%progbits
 165              		.align	2
 166              		.global	OS_MemDbgListAdd
 167              		.thumb
 168              		.thumb_func
 169              		.type	OS_MemDbgListAdd, %function
 170              	OS_MemDbgListAdd:
 171              	.LFB4:
 284:uCOS-III\Source/os_mem.c **** }
 285:uCOS-III\Source/os_mem.c **** 
 286:uCOS-III\Source/os_mem.c **** /*$PAGE*/
 287:uCOS-III\Source/os_mem.c **** /*
 288:uCOS-III\Source/os_mem.c **** ***************************************************************************************************
 289:uCOS-III\Source/os_mem.c **** *                                           ADD MEMORY PARTITION TO DEBUG LIST
 290:uCOS-III\Source/os_mem.c **** *
 291:uCOS-III\Source/os_mem.c **** * Description : This function is called by OSMemCreate() to add the memory partition to the debug t
 292:uCOS-III\Source/os_mem.c **** *
 293:uCOS-III\Source/os_mem.c **** * Arguments   : p_mem    Is a pointer to the memory partition
 294:uCOS-III\Source/os_mem.c **** *
 295:uCOS-III\Source/os_mem.c **** * Returns     : none
 296:uCOS-III\Source/os_mem.c **** *
 297:uCOS-III\Source/os_mem.c **** * Note(s)    : This function is INTERNAL to uC/OS-III and your application should not call it.
 298:uCOS-III\Source/os_mem.c **** ***************************************************************************************************
 299:uCOS-III\Source/os_mem.c **** */
 300:uCOS-III\Source/os_mem.c **** 
 301:uCOS-III\Source/os_mem.c **** #if OS_CFG_DBG_EN > 0u
 302:uCOS-III\Source/os_mem.c **** void  OS_MemDbgListAdd (OS_MEM  *p_mem)
 303:uCOS-III\Source/os_mem.c **** {
 172              		.loc 1 303 0
 173              		.cfi_startproc
 174              		@ args = 0, pretend = 0, frame = 0
 175              		@ frame_needed = 0, uses_anonymous_args = 0
 176              		@ link register save eliminated.
 177              	.LVL11:
 304:uCOS-III\Source/os_mem.c ****     p_mem->DbgPrevPtr               = (OS_MEM *)0;
 178              		.loc 1 304 0
 179 0000 0023     		movs	r3, #0
 180 0002 8361     		str	r3, [r0, #24]
 305:uCOS-III\Source/os_mem.c ****     if (OSMemDbgListPtr == (OS_MEM *)0) {
 181              		.loc 1 305 0
 182 0004 044B     		ldr	r3, .L15
 183 0006 1B68     		ldr	r3, [r3]
 184 0008 0BB9     		cbnz	r3, .L13
 306:uCOS-III\Source/os_mem.c ****         p_mem->DbgNextPtr           = (OS_MEM *)0;
 185              		.loc 1 306 0
 186 000a C361     		str	r3, [r0, #28]
 187 000c 01E0     		b	.L14
 188              	.L13:
 307:uCOS-III\Source/os_mem.c ****     } else {
 308:uCOS-III\Source/os_mem.c ****         p_mem->DbgNextPtr           =  OSMemDbgListPtr;
 189              		.loc 1 308 0
 190 000e C361     		str	r3, [r0, #28]
 309:uCOS-III\Source/os_mem.c ****         OSMemDbgListPtr->DbgPrevPtr =  p_mem;
 191              		.loc 1 309 0
ARM GAS  C:\Users\jorti\AppData\Local\Temp\ccbANLDA.s 			page 10


 192 0010 9861     		str	r0, [r3, #24]
 193              	.L14:
 310:uCOS-III\Source/os_mem.c ****     }
 311:uCOS-III\Source/os_mem.c ****     OSMemDbgListPtr                 =  p_mem;
 194              		.loc 1 311 0
 195 0012 014B     		ldr	r3, .L15
 196 0014 1860     		str	r0, [r3]
 197 0016 7047     		bx	lr
 198              	.L16:
 199              		.align	2
 200              	.L15:
 201 0018 00000000 		.word	OSMemDbgListPtr
 202              		.cfi_endproc
 203              	.LFE4:
 204              		.size	OS_MemDbgListAdd, .-OS_MemDbgListAdd
 205              		.section	.text.OSMemCreate,"ax",%progbits
 206              		.align	2
 207              		.global	OSMemCreate
 208              		.thumb
 209              		.thumb_func
 210              		.type	OSMemCreate, %function
 211              	OSMemCreate:
 212              	.LFB1:
  81:uCOS-III\Source/os_mem.c **** #if OS_CFG_ARG_CHK_EN > 0u
 213              		.loc 1 81 0
 214              		.cfi_startproc
 215              		@ args = 8, pretend = 0, frame = 0
 216              		@ frame_needed = 0, uses_anonymous_args = 0
 217              	.LVL12:
 218 0000 2DE9F047 		push	{r4, r5, r6, r7, r8, r9, r10, lr}
 219              		.cfi_def_cfa_offset 32
 220              		.cfi_offset 4, -32
 221              		.cfi_offset 5, -28
 222              		.cfi_offset 6, -24
 223              		.cfi_offset 7, -20
 224              		.cfi_offset 8, -16
 225              		.cfi_offset 9, -12
 226              		.cfi_offset 10, -8
 227              		.cfi_offset 14, -4
 228 0004 BDF82070 		ldrh	r7, [sp, #32]
 229              	.LVL13:
 108:uCOS-III\Source/os_mem.c ****        *p_err = OS_ERR_MEM_CREATE_ISR;
 230              		.loc 1 108 0
 231 0008 324C     		ldr	r4, .L28
 232 000a 2478     		ldrb	r4, [r4]	@ zero_extendqisi2
 233 000c 2CB1     		cbz	r4, .L18
 109:uCOS-III\Source/os_mem.c ****         return;
 234              		.loc 1 109 0
 235 000e 45F2B963 		movw	r3, #22201
 236              	.LVL14:
 237 0012 099A     		ldr	r2, [sp, #36]
 238              	.LVL15:
 239 0014 1380     		strh	r3, [r2]	@ movhi
 110:uCOS-III\Source/os_mem.c ****     }
 240              		.loc 1 110 0
 241 0016 BDE8F087 		pop	{r4, r5, r6, r7, r8, r9, r10, pc}
 242              	.LVL16:
ARM GAS  C:\Users\jorti\AppData\Local\Temp\ccbANLDA.s 			page 11


 243              	.L18:
 115:uCOS-III\Source/os_mem.c ****        *p_err   = OS_ERR_MEM_INVALID_P_ADDR;
 244              		.loc 1 115 0
 245 001a 2AB9     		cbnz	r2, .L20
 116:uCOS-III\Source/os_mem.c ****         return;
 246              		.loc 1 116 0
 247 001c 45F2BB63 		movw	r3, #22203
 248              	.LVL17:
 249 0020 099A     		ldr	r2, [sp, #36]
 250              	.LVL18:
 251 0022 1380     		strh	r3, [r2]	@ movhi
 117:uCOS-III\Source/os_mem.c ****     }
 252              		.loc 1 117 0
 253 0024 BDE8F087 		pop	{r4, r5, r6, r7, r8, r9, r10, pc}
 254              	.LVL19:
 255              	.L20:
 119:uCOS-III\Source/os_mem.c ****        *p_err = OS_ERR_MEM_INVALID_BLKS;
 256              		.loc 1 119 0
 257 0028 012B     		cmp	r3, #1
 258 002a 05D8     		bhi	.L21
 120:uCOS-III\Source/os_mem.c ****         return;
 259              		.loc 1 120 0
 260 002c 45F2BC63 		movw	r3, #22204
 261              	.LVL20:
 262 0030 099A     		ldr	r2, [sp, #36]
 263              	.LVL21:
 264 0032 1380     		strh	r3, [r2]	@ movhi
 121:uCOS-III\Source/os_mem.c ****     }
 265              		.loc 1 121 0
 266 0034 BDE8F087 		pop	{r4, r5, r6, r7, r8, r9, r10, pc}
 267              	.LVL22:
 268              	.L21:
 123:uCOS-III\Source/os_mem.c ****        *p_err = OS_ERR_MEM_INVALID_SIZE;
 269              		.loc 1 123 0
 270 0038 032F     		cmp	r7, #3
 271 003a 05D8     		bhi	.L22
 124:uCOS-III\Source/os_mem.c ****         return;
 272              		.loc 1 124 0
 273 003c 45F2C163 		movw	r3, #22209
 274              	.LVL23:
 275 0040 099A     		ldr	r2, [sp, #36]
 276              	.LVL24:
 277 0042 1380     		strh	r3, [r2]	@ movhi
 125:uCOS-III\Source/os_mem.c ****     }
 278              		.loc 1 125 0
 279 0044 BDE8F087 		pop	{r4, r5, r6, r7, r8, r9, r10, pc}
 280              	.LVL25:
 281              	.L22:
 129:uCOS-III\Source/os_mem.c ****            *p_err = OS_ERR_MEM_INVALID_P_ADDR;
 282              		.loc 1 129 0
 283 0048 12F0030F 		tst	r2, #3
 284 004c 05D0     		beq	.L23
 130:uCOS-III\Source/os_mem.c ****             return;
 285              		.loc 1 130 0
 286 004e 45F2BB63 		movw	r3, #22203
 287              	.LVL26:
 288 0052 099A     		ldr	r2, [sp, #36]
ARM GAS  C:\Users\jorti\AppData\Local\Temp\ccbANLDA.s 			page 12


 289              	.LVL27:
 290 0054 1380     		strh	r3, [r2]	@ movhi
 131:uCOS-III\Source/os_mem.c ****         }
 291              		.loc 1 131 0
 292 0056 BDE8F087 		pop	{r4, r5, r6, r7, r8, r9, r10, pc}
 293              	.LVL28:
 294              	.L23:
 133:uCOS-III\Source/os_mem.c ****            *p_err = OS_ERR_MEM_INVALID_SIZE;
 295              		.loc 1 133 0
 296 005a 17F0030F 		tst	r7, #3
 297 005e 05D0     		beq	.L24
 134:uCOS-III\Source/os_mem.c ****             return;
 298              		.loc 1 134 0
 299 0060 45F2C163 		movw	r3, #22209
 300              	.LVL29:
 301 0064 099A     		ldr	r2, [sp, #36]
 302              	.LVL30:
 303 0066 1380     		strh	r3, [r2]	@ movhi
 135:uCOS-III\Source/os_mem.c ****         }
 304              		.loc 1 135 0
 305 0068 BDE8F087 		pop	{r4, r5, r6, r7, r8, r9, r10, pc}
 306              	.LVL31:
 307              	.L24:
 142:uCOS-III\Source/os_mem.c ****     for (i = 0u; i < loops; i++) {
 308              		.loc 1 142 0
 309 006c 03F1FF3E 		add	lr, r3, #-1
 310 0070 1FFA8EFE 		uxth	lr, lr
 311              	.LVL32:
 141:uCOS-III\Source/os_mem.c ****     loops  = n_blks - 1u;
 312              		.loc 1 141 0
 313 0074 1546     		mov	r5, r2
 143:uCOS-III\Source/os_mem.c ****         p_blk +=  blk_size;
 314              		.loc 1 143 0
 315 0076 0024     		movs	r4, #0
 316 0078 04E0     		b	.L25
 317              	.LVL33:
 318              	.L26:
 144:uCOS-III\Source/os_mem.c ****        *p_link = (void  *)p_blk;                            /* Save pointer to NEXT block in CURREN
 319              		.loc 1 144 0 discriminator 3
 320 007a EE19     		adds	r6, r5, r7
 321              	.LVL34:
 145:uCOS-III\Source/os_mem.c ****         p_link = (void **)(void *)p_blk;                    /* Position     to NEXT block          
 322              		.loc 1 145 0 discriminator 3
 323 007c 2E60     		str	r6, [r5]
 324              	.LVL35:
 143:uCOS-III\Source/os_mem.c ****         p_blk +=  blk_size;
 325              		.loc 1 143 0 discriminator 3
 326 007e 0134     		adds	r4, r4, #1
 327              	.LVL36:
 328 0080 A4B2     		uxth	r4, r4
 329              	.LVL37:
 144:uCOS-III\Source/os_mem.c ****        *p_link = (void  *)p_blk;                            /* Save pointer to NEXT block in CURREN
 330              		.loc 1 144 0 discriminator 3
 331 0082 3546     		mov	r5, r6
 332              	.LVL38:
 333              	.L25:
 143:uCOS-III\Source/os_mem.c ****         p_blk +=  blk_size;
ARM GAS  C:\Users\jorti\AppData\Local\Temp\ccbANLDA.s 			page 13


 334              		.loc 1 143 0 discriminator 1
 335 0084 7445     		cmp	r4, lr
 336 0086 F8D3     		bcc	.L26
 337 0088 1C46     		mov	r4, r3
 338              	.LVL39:
 339 008a 9146     		mov	r9, r2
 340 008c 8A46     		mov	r10, r1
 341 008e 0646     		mov	r6, r0
 148:uCOS-III\Source/os_mem.c **** 
 342              		.loc 1 148 0
 343 0090 4FF00008 		mov	r8, #0
 344 0094 C5F80080 		str	r8, [r5]
 150:uCOS-III\Source/os_mem.c ****     p_mem->Type        = OS_OBJ_TYPE_MEM;                   /* Set the type of object              
 345              		.loc 1 150 0
 346 0098 FFF7FEFF 		bl	CPU_SR_Save
 347              	.LVL40:
 348 009c 0546     		mov	r5, r0
 349              	.LVL41:
 151:uCOS-III\Source/os_mem.c ****     p_mem->NamePtr     = p_name;                            /* Save name of memory partition       
 350              		.loc 1 151 0
 351 009e 0E4B     		ldr	r3, .L28+4
 352 00a0 3360     		str	r3, [r6]
 152:uCOS-III\Source/os_mem.c ****     p_mem->AddrPtr     = p_addr;                            /* Store start address of memory partit
 353              		.loc 1 152 0
 354 00a2 C6F808A0 		str	r10, [r6, #8]
 153:uCOS-III\Source/os_mem.c ****     p_mem->FreeListPtr = p_addr;                            /* Initialize pointer to pool of free b
 355              		.loc 1 153 0
 356 00a6 C6F80490 		str	r9, [r6, #4]
 154:uCOS-III\Source/os_mem.c ****     p_mem->NbrFree     = n_blks;                            /* Store number of free blocks in MCB  
 357              		.loc 1 154 0
 358 00aa C6F80C90 		str	r9, [r6, #12]
 155:uCOS-III\Source/os_mem.c ****     p_mem->NbrMax      = n_blks;
 359              		.loc 1 155 0
 360 00ae B482     		strh	r4, [r6, #20]	@ movhi
 156:uCOS-III\Source/os_mem.c ****     p_mem->BlkSize     = blk_size;                          /* Store block size of each memory bloc
 361              		.loc 1 156 0
 362 00b0 7482     		strh	r4, [r6, #18]	@ movhi
 157:uCOS-III\Source/os_mem.c **** 
 363              		.loc 1 157 0
 364 00b2 3782     		strh	r7, [r6, #16]	@ movhi
 160:uCOS-III\Source/os_mem.c **** #endif
 365              		.loc 1 160 0
 366 00b4 3046     		mov	r0, r6
 367              	.LVL42:
 368 00b6 FFF7FEFF 		bl	OS_MemDbgListAdd
 369              	.LVL43:
 163:uCOS-III\Source/os_mem.c **** 
 370              		.loc 1 163 0
 371 00ba 084A     		ldr	r2, .L28+8
 372 00bc 1388     		ldrh	r3, [r2]
 373 00be 0133     		adds	r3, r3, #1
 374 00c0 1380     		strh	r3, [r2]	@ movhi
 165:uCOS-III\Source/os_mem.c ****    *p_err = OS_ERR_NONE;
 375              		.loc 1 165 0
 376 00c2 2846     		mov	r0, r5
 377 00c4 FFF7FEFF 		bl	CPU_SR_Restore
 378              	.LVL44:
ARM GAS  C:\Users\jorti\AppData\Local\Temp\ccbANLDA.s 			page 14


 166:uCOS-III\Source/os_mem.c **** }
 379              		.loc 1 166 0
 380 00c8 099B     		ldr	r3, [sp, #36]
 381 00ca A3F80080 		strh	r8, [r3]	@ movhi
 382 00ce BDE8F087 		pop	{r4, r5, r6, r7, r8, r9, r10, pc}
 383              	.LVL45:
 384              	.L29:
 385 00d2 00BF     		.align	2
 386              	.L28:
 387 00d4 00000000 		.word	OSIntNestingCtr
 388 00d8 4D454D20 		.word	541934925
 389 00dc 00000000 		.word	OSMemQty
 390              		.cfi_endproc
 391              	.LFE1:
 392              		.size	OSMemCreate, .-OSMemCreate
 393              		.section	.text.OS_MemInit,"ax",%progbits
 394              		.align	2
 395              		.global	OS_MemInit
 396              		.thumb
 397              		.thumb_func
 398              		.type	OS_MemInit, %function
 399              	OS_MemInit:
 400              	.LFB5:
 312:uCOS-III\Source/os_mem.c **** }
 313:uCOS-III\Source/os_mem.c **** #endif
 314:uCOS-III\Source/os_mem.c **** 
 315:uCOS-III\Source/os_mem.c **** /*$PAGE*/
 316:uCOS-III\Source/os_mem.c **** /*
 317:uCOS-III\Source/os_mem.c **** ***************************************************************************************************
 318:uCOS-III\Source/os_mem.c **** *                                           INITIALIZE MEMORY PARTITION MANAGER
 319:uCOS-III\Source/os_mem.c **** *
 320:uCOS-III\Source/os_mem.c **** * Description : This function is called by uC/OS-III to initialize the memory partition manager.  Y
 321:uCOS-III\Source/os_mem.c **** *               application MUST NOT call this function.
 322:uCOS-III\Source/os_mem.c **** *
 323:uCOS-III\Source/os_mem.c **** * Arguments   : none
 324:uCOS-III\Source/os_mem.c **** *
 325:uCOS-III\Source/os_mem.c **** * Returns     : none
 326:uCOS-III\Source/os_mem.c **** *
 327:uCOS-III\Source/os_mem.c **** * Note(s)    : This function is INTERNAL to uC/OS-III and your application should not call it.
 328:uCOS-III\Source/os_mem.c **** ***************************************************************************************************
 329:uCOS-III\Source/os_mem.c **** */
 330:uCOS-III\Source/os_mem.c **** 
 331:uCOS-III\Source/os_mem.c **** void  OS_MemInit (OS_ERR  *p_err)
 332:uCOS-III\Source/os_mem.c **** {
 401              		.loc 1 332 0
 402              		.cfi_startproc
 403              		@ args = 0, pretend = 0, frame = 0
 404              		@ frame_needed = 0, uses_anonymous_args = 0
 405              		@ link register save eliminated.
 406              	.LVL46:
 333:uCOS-III\Source/os_mem.c **** #ifdef OS_SAFETY_CRITICAL
 334:uCOS-III\Source/os_mem.c ****     if (p_err == (OS_ERR *)0) {
 335:uCOS-III\Source/os_mem.c ****         OS_SAFETY_CRITICAL_EXCEPTION();
 336:uCOS-III\Source/os_mem.c ****         return;
 337:uCOS-III\Source/os_mem.c ****     }
 338:uCOS-III\Source/os_mem.c **** #endif
 339:uCOS-III\Source/os_mem.c **** 
ARM GAS  C:\Users\jorti\AppData\Local\Temp\ccbANLDA.s 			page 15


 340:uCOS-III\Source/os_mem.c **** #if OS_CFG_DBG_EN > 0u
 341:uCOS-III\Source/os_mem.c ****     OSMemDbgListPtr = (OS_MEM   *)0;
 407              		.loc 1 341 0
 408 0000 0023     		movs	r3, #0
 409 0002 034A     		ldr	r2, .L31
 410 0004 1360     		str	r3, [r2]
 342:uCOS-III\Source/os_mem.c **** #endif
 343:uCOS-III\Source/os_mem.c **** 
 344:uCOS-III\Source/os_mem.c ****     OSMemQty        = (OS_OBJ_QTY)0;
 411              		.loc 1 344 0
 412 0006 034A     		ldr	r2, .L31+4
 413 0008 1380     		strh	r3, [r2]	@ movhi
 345:uCOS-III\Source/os_mem.c ****    *p_err           = OS_ERR_NONE;
 414              		.loc 1 345 0
 415 000a 0380     		strh	r3, [r0]	@ movhi
 416 000c 7047     		bx	lr
 417              	.L32:
 418 000e 00BF     		.align	2
 419              	.L31:
 420 0010 00000000 		.word	OSMemDbgListPtr
 421 0014 00000000 		.word	OSMemQty
 422              		.cfi_endproc
 423              	.LFE5:
 424              		.size	OS_MemInit, .-OS_MemInit
 425              		.text
 426              	.Letext0:
 427              		.file 2 ".\\uC-CPU\\ARM-Cortex-M3\\GNU/cpu.h"
 428              		.file 3 ".\\uCOS-III\\Source/os_type.h"
 429              		.file 4 ".\\uCOS-III\\Source/os.h"