ARM GAS  C:\Users\jorti\AppData\Local\Temp\cc35e6eL.s 			page 1


   1              		.syntax unified
   2              		.cpu cortex-m3
   3              		.fpu softvfp
   4              		.eabi_attribute 20, 1
   5              		.eabi_attribute 21, 1
   6              		.eabi_attribute 23, 3
   7              		.eabi_attribute 24, 1
   8              		.eabi_attribute 25, 1
   9              		.eabi_attribute 26, 1
  10              		.eabi_attribute 30, 1
  11              		.eabi_attribute 34, 1
  12              		.eabi_attribute 18, 4
  13              		.thumb
  14              		.syntax unified
  15              		.file	"os_mutex.c"
  16              		.text
  17              	.Ltext0:
  18              		.cfi_sections	.debug_frame
  19              		.section	.text.OSMutexPend,"ax",%progbits
  20              		.align	2
  21              		.global	OSMutexPend
  22              		.thumb
  23              		.thumb_func
  24              		.type	OSMutexPend, %function
  25              	OSMutexPend:
  26              	.LFB3:
  27              		.file 1 "uCOS-III\\Source\\os_mutex.c"
   1:uCOS-III\Source/os_mutex.c **** /*
   2:uCOS-III\Source/os_mutex.c **** ***************************************************************************************************
   3:uCOS-III\Source/os_mutex.c **** *                                                      uC/OS-III
   4:uCOS-III\Source/os_mutex.c **** *                                                 The Real-Time Kernel
   5:uCOS-III\Source/os_mutex.c **** *
   6:uCOS-III\Source/os_mutex.c **** *                                  (c) Copyright 2009-2012; Micrium, Inc.; Weston, FL
   7:uCOS-III\Source/os_mutex.c **** *                           All rights reserved.  Protected by international copyright laws.
   8:uCOS-III\Source/os_mutex.c **** *
   9:uCOS-III\Source/os_mutex.c **** *                                                   MUTEX MANAGEMENT
  10:uCOS-III\Source/os_mutex.c **** *
  11:uCOS-III\Source/os_mutex.c **** * File    : OS_MUTEX.C
  12:uCOS-III\Source/os_mutex.c **** * By      : JJL
  13:uCOS-III\Source/os_mutex.c **** * Version : V3.03.01
  14:uCOS-III\Source/os_mutex.c **** *
  15:uCOS-III\Source/os_mutex.c **** * LICENSING TERMS:
  16:uCOS-III\Source/os_mutex.c **** * ---------------
  17:uCOS-III\Source/os_mutex.c **** *           uC/OS-III is provided in source form for FREE short-term evaluation, for educational us
  18:uCOS-III\Source/os_mutex.c **** *           for peaceful research.  If you plan or intend to use uC/OS-III in a commercial applicat
  19:uCOS-III\Source/os_mutex.c **** *           product then, you need to contact Micrium to properly license uC/OS-III for its use in 
  20:uCOS-III\Source/os_mutex.c **** *           application/product.   We provide ALL the source code for your convenience and to help 
  21:uCOS-III\Source/os_mutex.c **** *           experience uC/OS-III.  The fact that the source is provided does NOT mean that you can 
  22:uCOS-III\Source/os_mutex.c **** *           it commercially without paying a licensing fee.
  23:uCOS-III\Source/os_mutex.c **** *
  24:uCOS-III\Source/os_mutex.c **** *           Knowledge of the source code may NOT be used to develop a similar product.
  25:uCOS-III\Source/os_mutex.c **** *
  26:uCOS-III\Source/os_mutex.c **** *           Please help us continue to provide the embedded community with the finest software avai
  27:uCOS-III\Source/os_mutex.c **** *           Your honesty is greatly appreciated.
  28:uCOS-III\Source/os_mutex.c **** *
  29:uCOS-III\Source/os_mutex.c **** *           You can contact us at www.micrium.com, or by phone at +1 (954) 217-2036.
  30:uCOS-III\Source/os_mutex.c **** ***************************************************************************************************
ARM GAS  C:\Users\jorti\AppData\Local\Temp\cc35e6eL.s 			page 2


  31:uCOS-III\Source/os_mutex.c **** */
  32:uCOS-III\Source/os_mutex.c **** 
  33:uCOS-III\Source/os_mutex.c **** #define  MICRIUM_SOURCE
  34:uCOS-III\Source/os_mutex.c **** #include <os.h>
  35:uCOS-III\Source/os_mutex.c **** 
  36:uCOS-III\Source/os_mutex.c **** #ifdef VSC_INCLUDE_SOURCE_FILE_NAMES
  37:uCOS-III\Source/os_mutex.c **** const  CPU_CHAR  *os_mutex__c = "$Id: $";
  38:uCOS-III\Source/os_mutex.c **** #endif
  39:uCOS-III\Source/os_mutex.c **** 
  40:uCOS-III\Source/os_mutex.c **** 
  41:uCOS-III\Source/os_mutex.c **** #if OS_CFG_MUTEX_EN > 0u
  42:uCOS-III\Source/os_mutex.c **** /*
  43:uCOS-III\Source/os_mutex.c **** ***************************************************************************************************
  44:uCOS-III\Source/os_mutex.c **** *                                                   CREATE A MUTEX
  45:uCOS-III\Source/os_mutex.c **** *
  46:uCOS-III\Source/os_mutex.c **** * Description: This function creates a mutex.
  47:uCOS-III\Source/os_mutex.c **** *
  48:uCOS-III\Source/os_mutex.c **** * Arguments  : p_mutex       is a pointer to the mutex to initialize.  Your application is responsi
  49:uCOS-III\Source/os_mutex.c **** *                            storage for the mutex.
  50:uCOS-III\Source/os_mutex.c **** *
  51:uCOS-III\Source/os_mutex.c **** *              p_name        is a pointer to the name you would like to give the mutex.
  52:uCOS-III\Source/os_mutex.c **** *
  53:uCOS-III\Source/os_mutex.c **** *              p_err         is a pointer to a variable that will contain an error code returned by
  54:uCOS-III\Source/os_mutex.c **** *
  55:uCOS-III\Source/os_mutex.c **** *                                OS_ERR_NONE                    if the call was successful
  56:uCOS-III\Source/os_mutex.c **** *                                OS_ERR_CREATE_ISR              if you called this function from an
  57:uCOS-III\Source/os_mutex.c **** *                                OS_ERR_ILLEGAL_CREATE_RUN_TIME if you are trying to create the Mut
  58:uCOS-III\Source/os_mutex.c **** *                                                                 OSSafetyCriticalStart().
  59:uCOS-III\Source/os_mutex.c **** *                                OS_ERR_NAME                    if 'p_name'  is a NULL pointer
  60:uCOS-III\Source/os_mutex.c **** *                                OS_ERR_OBJ_CREATED             if the mutex has already been creat
  61:uCOS-III\Source/os_mutex.c **** *                                OS_ERR_OBJ_PTR_NULL            if 'p_mutex' is a NULL pointer
  62:uCOS-III\Source/os_mutex.c **** *
  63:uCOS-III\Source/os_mutex.c **** * Returns    : none
  64:uCOS-III\Source/os_mutex.c **** ***************************************************************************************************
  65:uCOS-III\Source/os_mutex.c **** */
  66:uCOS-III\Source/os_mutex.c **** 
  67:uCOS-III\Source/os_mutex.c **** void  OSMutexCreate (OS_MUTEX  *p_mutex,
  68:uCOS-III\Source/os_mutex.c ****                      CPU_CHAR  *p_name,
  69:uCOS-III\Source/os_mutex.c ****                      OS_ERR    *p_err)
  70:uCOS-III\Source/os_mutex.c **** {
  71:uCOS-III\Source/os_mutex.c ****     CPU_SR_ALLOC();
  72:uCOS-III\Source/os_mutex.c **** 
  73:uCOS-III\Source/os_mutex.c **** 
  74:uCOS-III\Source/os_mutex.c **** 
  75:uCOS-III\Source/os_mutex.c **** #ifdef OS_SAFETY_CRITICAL
  76:uCOS-III\Source/os_mutex.c ****     if (p_err == (OS_ERR *)0) {
  77:uCOS-III\Source/os_mutex.c ****         OS_SAFETY_CRITICAL_EXCEPTION();
  78:uCOS-III\Source/os_mutex.c ****         return;
  79:uCOS-III\Source/os_mutex.c ****     }
  80:uCOS-III\Source/os_mutex.c **** #endif
  81:uCOS-III\Source/os_mutex.c **** 
  82:uCOS-III\Source/os_mutex.c **** #ifdef OS_SAFETY_CRITICAL_IEC61508
  83:uCOS-III\Source/os_mutex.c ****     if (OSSafetyCriticalStartFlag == DEF_TRUE) {
  84:uCOS-III\Source/os_mutex.c ****        *p_err = OS_ERR_ILLEGAL_CREATE_RUN_TIME;
  85:uCOS-III\Source/os_mutex.c ****         return;
  86:uCOS-III\Source/os_mutex.c ****     }
  87:uCOS-III\Source/os_mutex.c **** #endif
ARM GAS  C:\Users\jorti\AppData\Local\Temp\cc35e6eL.s 			page 3


  88:uCOS-III\Source/os_mutex.c **** 
  89:uCOS-III\Source/os_mutex.c **** #if OS_CFG_CALLED_FROM_ISR_CHK_EN > 0u
  90:uCOS-III\Source/os_mutex.c ****     if (OSIntNestingCtr > (OS_NESTING_CTR)0) {              /* Not allowed to be called from an ISR
  91:uCOS-III\Source/os_mutex.c ****        *p_err = OS_ERR_CREATE_ISR;
  92:uCOS-III\Source/os_mutex.c ****         return;
  93:uCOS-III\Source/os_mutex.c ****     }
  94:uCOS-III\Source/os_mutex.c **** #endif
  95:uCOS-III\Source/os_mutex.c **** 
  96:uCOS-III\Source/os_mutex.c **** #if OS_CFG_ARG_CHK_EN > 0u
  97:uCOS-III\Source/os_mutex.c ****     if (p_mutex == (OS_MUTEX *)0) {                         /* Validate 'p_mutex'                  
  98:uCOS-III\Source/os_mutex.c ****        *p_err = OS_ERR_OBJ_PTR_NULL;
  99:uCOS-III\Source/os_mutex.c ****         return;
 100:uCOS-III\Source/os_mutex.c ****     }
 101:uCOS-III\Source/os_mutex.c **** #endif
 102:uCOS-III\Source/os_mutex.c **** 
 103:uCOS-III\Source/os_mutex.c ****     OS_CRITICAL_ENTER();
 104:uCOS-III\Source/os_mutex.c ****     p_mutex->Type              =  OS_OBJ_TYPE_MUTEX;        /* Mark the data structure as a mutex  
 105:uCOS-III\Source/os_mutex.c ****     p_mutex->NamePtr           =  p_name;
 106:uCOS-III\Source/os_mutex.c ****     p_mutex->OwnerTCBPtr       = (OS_TCB       *)0;
 107:uCOS-III\Source/os_mutex.c ****     p_mutex->OwnerNestingCtr   = (OS_NESTING_CTR)0;         /* Mutex is available                  
 108:uCOS-III\Source/os_mutex.c ****     p_mutex->TS                = (CPU_TS        )0;
 109:uCOS-III\Source/os_mutex.c ****     p_mutex->OwnerOriginalPrio =  OS_CFG_PRIO_MAX;
 110:uCOS-III\Source/os_mutex.c ****     OS_PendListInit(&p_mutex->PendList);                    /* Initialize the waiting list         
 111:uCOS-III\Source/os_mutex.c **** 
 112:uCOS-III\Source/os_mutex.c **** #if OS_CFG_DBG_EN > 0u
 113:uCOS-III\Source/os_mutex.c ****     OS_MutexDbgListAdd(p_mutex);
 114:uCOS-III\Source/os_mutex.c **** #endif
 115:uCOS-III\Source/os_mutex.c ****     OSMutexQty++;
 116:uCOS-III\Source/os_mutex.c **** 
 117:uCOS-III\Source/os_mutex.c ****     OS_CRITICAL_EXIT_NO_SCHED();
 118:uCOS-III\Source/os_mutex.c ****    *p_err = OS_ERR_NONE;
 119:uCOS-III\Source/os_mutex.c **** }
 120:uCOS-III\Source/os_mutex.c **** 
 121:uCOS-III\Source/os_mutex.c **** /*$PAGE*/
 122:uCOS-III\Source/os_mutex.c **** /*
 123:uCOS-III\Source/os_mutex.c **** ***************************************************************************************************
 124:uCOS-III\Source/os_mutex.c **** *                                                   DELETE A MUTEX
 125:uCOS-III\Source/os_mutex.c **** *
 126:uCOS-III\Source/os_mutex.c **** * Description: This function deletes a mutex and readies all tasks pending on the mutex.
 127:uCOS-III\Source/os_mutex.c **** *
 128:uCOS-III\Source/os_mutex.c **** * Arguments  : p_mutex       is a pointer to the mutex to delete
 129:uCOS-III\Source/os_mutex.c **** *
 130:uCOS-III\Source/os_mutex.c **** *              opt           determines delete options as follows:
 131:uCOS-III\Source/os_mutex.c **** *
 132:uCOS-III\Source/os_mutex.c **** *                                OS_OPT_DEL_NO_PEND          Delete mutex ONLY if no task pending
 133:uCOS-III\Source/os_mutex.c **** *                                OS_OPT_DEL_ALWAYS           Deletes the mutex even if tasks are wa
 134:uCOS-III\Source/os_mutex.c **** *                                                            In this case, all the tasks pending wi
 135:uCOS-III\Source/os_mutex.c **** *
 136:uCOS-III\Source/os_mutex.c **** *              p_err         is a pointer to a variable that will contain an error code returned by
 137:uCOS-III\Source/os_mutex.c **** *
 138:uCOS-III\Source/os_mutex.c **** *                                OS_ERR_NONE                 The call was successful and the mutex 
 139:uCOS-III\Source/os_mutex.c **** *                                OS_ERR_DEL_ISR              If you attempted to delete the mutex f
 140:uCOS-III\Source/os_mutex.c **** *                                OS_ERR_OBJ_PTR_NULL         If 'p_mutex' is a NULL pointer.
 141:uCOS-III\Source/os_mutex.c **** *                                OS_ERR_OBJ_TYPE             If 'p_mutex' is not pointing to a mute
 142:uCOS-III\Source/os_mutex.c **** *                                OS_ERR_OPT_INVALID          An invalid option was specified
 143:uCOS-III\Source/os_mutex.c **** *                                OS_ERR_STATE_INVALID        Task is in an invalid state
 144:uCOS-III\Source/os_mutex.c **** *                                OS_ERR_TASK_WAITING         One or more tasks were waiting on the 
ARM GAS  C:\Users\jorti\AppData\Local\Temp\cc35e6eL.s 			page 4


 145:uCOS-III\Source/os_mutex.c **** *
 146:uCOS-III\Source/os_mutex.c **** * Returns    : == 0          if no tasks were waiting on the mutex, or upon error.
 147:uCOS-III\Source/os_mutex.c **** *              >  0          if one or more tasks waiting on the mutex are now readied and informed
 148:uCOS-III\Source/os_mutex.c **** *
 149:uCOS-III\Source/os_mutex.c **** * Note(s)    : 1) This function must be used with care.  Tasks that would normally expect the prese
 150:uCOS-III\Source/os_mutex.c **** *                 check the return code of OSMutexPend().
 151:uCOS-III\Source/os_mutex.c **** *
 152:uCOS-III\Source/os_mutex.c **** *              2) OSMutexAccept() callers will not know that the intended mutex has been deleted.
 153:uCOS-III\Source/os_mutex.c **** *
 154:uCOS-III\Source/os_mutex.c **** *              3) Because ALL tasks pending on the mutex will be readied, you MUST be careful in ap
 155:uCOS-III\Source/os_mutex.c **** *                 mutex is used for mutual exclusion because the resource(s) will no longer be guar
 156:uCOS-III\Source/os_mutex.c **** ***************************************************************************************************
 157:uCOS-III\Source/os_mutex.c **** */
 158:uCOS-III\Source/os_mutex.c **** 
 159:uCOS-III\Source/os_mutex.c **** #if OS_CFG_MUTEX_DEL_EN > 0u
 160:uCOS-III\Source/os_mutex.c **** OS_OBJ_QTY  OSMutexDel (OS_MUTEX  *p_mutex,
 161:uCOS-III\Source/os_mutex.c ****                         OS_OPT     opt,
 162:uCOS-III\Source/os_mutex.c ****                         OS_ERR    *p_err)
 163:uCOS-III\Source/os_mutex.c **** {
 164:uCOS-III\Source/os_mutex.c ****     OS_OBJ_QTY     cnt;
 165:uCOS-III\Source/os_mutex.c ****     OS_OBJ_QTY     nbr_tasks;
 166:uCOS-III\Source/os_mutex.c ****     OS_PEND_DATA  *p_pend_data;
 167:uCOS-III\Source/os_mutex.c ****     OS_PEND_LIST  *p_pend_list;
 168:uCOS-III\Source/os_mutex.c ****     OS_TCB        *p_tcb;
 169:uCOS-III\Source/os_mutex.c ****     OS_TCB        *p_tcb_owner;
 170:uCOS-III\Source/os_mutex.c ****     CPU_TS         ts;
 171:uCOS-III\Source/os_mutex.c ****     CPU_SR_ALLOC();
 172:uCOS-III\Source/os_mutex.c **** 
 173:uCOS-III\Source/os_mutex.c **** 
 174:uCOS-III\Source/os_mutex.c **** 
 175:uCOS-III\Source/os_mutex.c **** #ifdef OS_SAFETY_CRITICAL
 176:uCOS-III\Source/os_mutex.c ****     if (p_err == (OS_ERR *)0) {
 177:uCOS-III\Source/os_mutex.c ****         OS_SAFETY_CRITICAL_EXCEPTION();
 178:uCOS-III\Source/os_mutex.c ****         return ((OS_OBJ_QTY)0);
 179:uCOS-III\Source/os_mutex.c ****     }
 180:uCOS-III\Source/os_mutex.c **** #endif
 181:uCOS-III\Source/os_mutex.c **** 
 182:uCOS-III\Source/os_mutex.c **** #if OS_CFG_CALLED_FROM_ISR_CHK_EN > 0u
 183:uCOS-III\Source/os_mutex.c ****     if (OSIntNestingCtr > (OS_NESTING_CTR)0) {                  /* Not allowed to delete a mutex fr
 184:uCOS-III\Source/os_mutex.c ****        *p_err = OS_ERR_DEL_ISR;
 185:uCOS-III\Source/os_mutex.c ****         return ((OS_OBJ_QTY)0);
 186:uCOS-III\Source/os_mutex.c ****     }
 187:uCOS-III\Source/os_mutex.c **** #endif
 188:uCOS-III\Source/os_mutex.c **** 
 189:uCOS-III\Source/os_mutex.c **** #if OS_CFG_ARG_CHK_EN > 0u
 190:uCOS-III\Source/os_mutex.c ****     if (p_mutex == (OS_MUTEX *)0) {                             /* Validate 'p_mutex'              
 191:uCOS-III\Source/os_mutex.c ****        *p_err = OS_ERR_OBJ_PTR_NULL;
 192:uCOS-III\Source/os_mutex.c ****         return ((OS_OBJ_QTY)0);
 193:uCOS-III\Source/os_mutex.c ****     }
 194:uCOS-III\Source/os_mutex.c ****     switch (opt) {                                              /* Validate 'opt'                  
 195:uCOS-III\Source/os_mutex.c ****         case OS_OPT_DEL_NO_PEND:
 196:uCOS-III\Source/os_mutex.c ****         case OS_OPT_DEL_ALWAYS:
 197:uCOS-III\Source/os_mutex.c ****              break;
 198:uCOS-III\Source/os_mutex.c **** 
 199:uCOS-III\Source/os_mutex.c ****         default:
 200:uCOS-III\Source/os_mutex.c ****             *p_err =  OS_ERR_OPT_INVALID;
 201:uCOS-III\Source/os_mutex.c ****              return ((OS_OBJ_QTY)0);
ARM GAS  C:\Users\jorti\AppData\Local\Temp\cc35e6eL.s 			page 5


 202:uCOS-III\Source/os_mutex.c ****     }
 203:uCOS-III\Source/os_mutex.c **** #endif
 204:uCOS-III\Source/os_mutex.c **** 
 205:uCOS-III\Source/os_mutex.c **** #if OS_CFG_OBJ_TYPE_CHK_EN > 0u
 206:uCOS-III\Source/os_mutex.c ****     if (p_mutex->Type != OS_OBJ_TYPE_MUTEX) {                   /* Make sure mutex was created     
 207:uCOS-III\Source/os_mutex.c ****        *p_err = OS_ERR_OBJ_TYPE;
 208:uCOS-III\Source/os_mutex.c ****         return ((OS_OBJ_QTY)0);
 209:uCOS-III\Source/os_mutex.c ****     }
 210:uCOS-III\Source/os_mutex.c **** #endif
 211:uCOS-III\Source/os_mutex.c **** 
 212:uCOS-III\Source/os_mutex.c ****     OS_CRITICAL_ENTER();
 213:uCOS-III\Source/os_mutex.c ****     p_pend_list = &p_mutex->PendList;
 214:uCOS-III\Source/os_mutex.c ****     cnt         = p_pend_list->NbrEntries;
 215:uCOS-III\Source/os_mutex.c ****     nbr_tasks   = cnt;
 216:uCOS-III\Source/os_mutex.c ****     switch (opt) {
 217:uCOS-III\Source/os_mutex.c ****         case OS_OPT_DEL_NO_PEND:                                /* Delete mutex only if no task wai
 218:uCOS-III\Source/os_mutex.c ****              if (nbr_tasks == (OS_OBJ_QTY)0) {
 219:uCOS-III\Source/os_mutex.c **** #if OS_CFG_DBG_EN > 0u
 220:uCOS-III\Source/os_mutex.c ****                  OS_MutexDbgListRemove(p_mutex);
 221:uCOS-III\Source/os_mutex.c **** #endif
 222:uCOS-III\Source/os_mutex.c ****                  OSMutexQty--;
 223:uCOS-III\Source/os_mutex.c ****                  OS_MutexClr(p_mutex);
 224:uCOS-III\Source/os_mutex.c ****                  OS_CRITICAL_EXIT();
 225:uCOS-III\Source/os_mutex.c ****                 *p_err = OS_ERR_NONE;
 226:uCOS-III\Source/os_mutex.c ****              } else {
 227:uCOS-III\Source/os_mutex.c ****                  OS_CRITICAL_EXIT();
 228:uCOS-III\Source/os_mutex.c ****                 *p_err = OS_ERR_TASK_WAITING;
 229:uCOS-III\Source/os_mutex.c ****              }
 230:uCOS-III\Source/os_mutex.c ****              break;
 231:uCOS-III\Source/os_mutex.c **** 
 232:uCOS-III\Source/os_mutex.c ****         case OS_OPT_DEL_ALWAYS:                                            /* Always delete the mut
 233:uCOS-III\Source/os_mutex.c ****              p_tcb_owner = p_mutex->OwnerTCBPtr;                           /* Did we had to change 
 234:uCOS-III\Source/os_mutex.c ****              if ((p_tcb_owner       != (OS_TCB *)0) &&
 235:uCOS-III\Source/os_mutex.c ****                  (p_tcb_owner->Prio !=  p_mutex->OwnerOriginalPrio)) {
 236:uCOS-III\Source/os_mutex.c ****                  switch (p_tcb_owner->TaskState) {                         /* yes                  
 237:uCOS-III\Source/os_mutex.c ****                      case OS_TASK_STATE_RDY:
 238:uCOS-III\Source/os_mutex.c ****                           OS_RdyListRemove(p_tcb_owner);
 239:uCOS-III\Source/os_mutex.c ****                           p_tcb_owner->Prio = p_mutex->OwnerOriginalPrio;  /* Lower owner's prio ba
 240:uCOS-III\Source/os_mutex.c ****                           OS_PrioInsert(p_tcb_owner->Prio);
 241:uCOS-III\Source/os_mutex.c ****                           OS_RdyListInsertTail(p_tcb_owner);               /* Insert owner in ready
 242:uCOS-III\Source/os_mutex.c ****                           break;
 243:uCOS-III\Source/os_mutex.c **** 
 244:uCOS-III\Source/os_mutex.c ****                      case OS_TASK_STATE_DLY:
 245:uCOS-III\Source/os_mutex.c ****                      case OS_TASK_STATE_SUSPENDED:
 246:uCOS-III\Source/os_mutex.c ****                      case OS_TASK_STATE_DLY_SUSPENDED:
 247:uCOS-III\Source/os_mutex.c ****                           p_tcb_owner->Prio = p_mutex->OwnerOriginalPrio;  /* Not in any pend list,
 248:uCOS-III\Source/os_mutex.c ****                           break;
 249:uCOS-III\Source/os_mutex.c **** 
 250:uCOS-III\Source/os_mutex.c ****                      case OS_TASK_STATE_PEND:
 251:uCOS-III\Source/os_mutex.c ****                      case OS_TASK_STATE_PEND_TIMEOUT:
 252:uCOS-III\Source/os_mutex.c ****                      case OS_TASK_STATE_PEND_SUSPENDED:
 253:uCOS-III\Source/os_mutex.c ****                      case OS_TASK_STATE_PEND_TIMEOUT_SUSPENDED:
 254:uCOS-III\Source/os_mutex.c ****                           OS_PendListChangePrio(p_tcb_owner,               /* Owner is pending on a
 255:uCOS-III\Source/os_mutex.c ****                                                 p_mutex->OwnerOriginalPrio);
 256:uCOS-III\Source/os_mutex.c ****                           break;
 257:uCOS-III\Source/os_mutex.c **** 
 258:uCOS-III\Source/os_mutex.c ****                      default:
ARM GAS  C:\Users\jorti\AppData\Local\Temp\cc35e6eL.s 			page 6


 259:uCOS-III\Source/os_mutex.c ****                           OS_CRITICAL_EXIT();
 260:uCOS-III\Source/os_mutex.c ****                          *p_err = OS_ERR_STATE_INVALID;
 261:uCOS-III\Source/os_mutex.c ****                           return ((OS_OBJ_QTY)0);
 262:uCOS-III\Source/os_mutex.c ****                  }
 263:uCOS-III\Source/os_mutex.c ****              }
 264:uCOS-III\Source/os_mutex.c **** 
 265:uCOS-III\Source/os_mutex.c ****              ts = OS_TS_GET();                                             /* Get timestamp        
 266:uCOS-III\Source/os_mutex.c ****              while (cnt > 0u) {                                            /* Remove all tasks from
 267:uCOS-III\Source/os_mutex.c ****                  p_pend_data = p_pend_list->HeadPtr;
 268:uCOS-III\Source/os_mutex.c ****                  p_tcb       = p_pend_data->TCBPtr;
 269:uCOS-III\Source/os_mutex.c ****                  OS_PendObjDel((OS_PEND_OBJ *)((void *)p_mutex),
 270:uCOS-III\Source/os_mutex.c ****                                p_tcb,
 271:uCOS-III\Source/os_mutex.c ****                                ts);
 272:uCOS-III\Source/os_mutex.c ****                  cnt--;
 273:uCOS-III\Source/os_mutex.c ****              }
 274:uCOS-III\Source/os_mutex.c **** #if OS_CFG_DBG_EN > 0u
 275:uCOS-III\Source/os_mutex.c ****              OS_MutexDbgListRemove(p_mutex);
 276:uCOS-III\Source/os_mutex.c **** #endif
 277:uCOS-III\Source/os_mutex.c ****              OSMutexQty--;
 278:uCOS-III\Source/os_mutex.c ****              OS_MutexClr(p_mutex);
 279:uCOS-III\Source/os_mutex.c ****              OS_CRITICAL_EXIT_NO_SCHED();
 280:uCOS-III\Source/os_mutex.c ****              OSSched();                                                    /* Find highest priority
 281:uCOS-III\Source/os_mutex.c ****             *p_err = OS_ERR_NONE;
 282:uCOS-III\Source/os_mutex.c ****              break;
 283:uCOS-III\Source/os_mutex.c **** 
 284:uCOS-III\Source/os_mutex.c ****         default:
 285:uCOS-III\Source/os_mutex.c ****              OS_CRITICAL_EXIT();
 286:uCOS-III\Source/os_mutex.c ****             *p_err = OS_ERR_OPT_INVALID;
 287:uCOS-III\Source/os_mutex.c ****              break;
 288:uCOS-III\Source/os_mutex.c ****     }
 289:uCOS-III\Source/os_mutex.c ****     return (nbr_tasks);
 290:uCOS-III\Source/os_mutex.c **** }
 291:uCOS-III\Source/os_mutex.c **** #endif
 292:uCOS-III\Source/os_mutex.c **** 
 293:uCOS-III\Source/os_mutex.c **** /*$PAGE*/
 294:uCOS-III\Source/os_mutex.c **** /*
 295:uCOS-III\Source/os_mutex.c **** ***************************************************************************************************
 296:uCOS-III\Source/os_mutex.c **** *                                                    PEND ON MUTEX
 297:uCOS-III\Source/os_mutex.c **** *
 298:uCOS-III\Source/os_mutex.c **** * Description: This function waits for a mutex.
 299:uCOS-III\Source/os_mutex.c **** *
 300:uCOS-III\Source/os_mutex.c **** * Arguments  : p_mutex       is a pointer to the mutex
 301:uCOS-III\Source/os_mutex.c **** *
 302:uCOS-III\Source/os_mutex.c **** *              timeout       is an optional timeout period (in clock ticks).  If non-zero, your tas
 303:uCOS-III\Source/os_mutex.c **** *                            resource up to the amount of time (in 'ticks') specified by this argum
 304:uCOS-III\Source/os_mutex.c **** *                            0, however, your task will wait forever at the specified mutex or, unt
 305:uCOS-III\Source/os_mutex.c **** *                            becomes available.
 306:uCOS-III\Source/os_mutex.c **** *
 307:uCOS-III\Source/os_mutex.c **** *              opt           determines whether the user wants to block if the mutex is not availab
 308:uCOS-III\Source/os_mutex.c **** *
 309:uCOS-III\Source/os_mutex.c **** *                                OS_OPT_PEND_BLOCKING
 310:uCOS-III\Source/os_mutex.c **** *                                OS_OPT_PEND_NON_BLOCKING
 311:uCOS-III\Source/os_mutex.c **** *
 312:uCOS-III\Source/os_mutex.c **** *              p_ts          is a pointer to a variable that will receive the timestamp of when the
 313:uCOS-III\Source/os_mutex.c **** *                            pend aborted or the mutex deleted.  If you pass a NULL pointer (i.e. (
 314:uCOS-III\Source/os_mutex.c **** *                            will not get the timestamp.  In other words, passing a NULL pointer is
 315:uCOS-III\Source/os_mutex.c **** *                            that you don't need the timestamp.
ARM GAS  C:\Users\jorti\AppData\Local\Temp\cc35e6eL.s 			page 7


 316:uCOS-III\Source/os_mutex.c **** *
 317:uCOS-III\Source/os_mutex.c **** *              p_err         is a pointer to a variable that will contain an error code returned by
 318:uCOS-III\Source/os_mutex.c **** *
 319:uCOS-III\Source/os_mutex.c **** *                                OS_ERR_NONE               The call was successful and your task ow
 320:uCOS-III\Source/os_mutex.c **** *                                OS_ERR_MUTEX_OWNER        If calling task already owns the mutex
 321:uCOS-III\Source/os_mutex.c **** *                                OS_ERR_OBJ_DEL            If 'p_mutex' was deleted
 322:uCOS-III\Source/os_mutex.c **** *                                OS_ERR_OBJ_PTR_NULL       If 'p_mutex' is a NULL pointer.
 323:uCOS-III\Source/os_mutex.c **** *                                OS_ERR_OBJ_TYPE           If 'p_mutex' is not pointing at a mutex
 324:uCOS-III\Source/os_mutex.c **** *                                OS_ERR_OPT_INVALID        If you didn't specify a valid option
 325:uCOS-III\Source/os_mutex.c **** *                                OS_ERR_PEND_ABORT         If the pend was aborted by another task
 326:uCOS-III\Source/os_mutex.c **** *                                OS_ERR_PEND_ISR           If you called this function from an ISR 
 327:uCOS-III\Source/os_mutex.c **** *                                                          would lead to a suspension.
 328:uCOS-III\Source/os_mutex.c **** *                                OS_ERR_PEND_WOULD_BLOCK   If you specified non-blocking but the mu
 329:uCOS-III\Source/os_mutex.c **** *                                                          available.
 330:uCOS-III\Source/os_mutex.c **** *                                OS_ERR_SCHED_LOCKED       If you called this function when the sch
 331:uCOS-III\Source/os_mutex.c **** *                                OS_ERR_STATE_INVALID      If the task is in an invalid state
 332:uCOS-III\Source/os_mutex.c **** *                                OS_ERR_STATUS_INVALID     If the pend status has an invalid value
 333:uCOS-III\Source/os_mutex.c **** *                                OS_ERR_TIMEOUT            The mutex was not received within the sp
 334:uCOS-III\Source/os_mutex.c **** *
 335:uCOS-III\Source/os_mutex.c **** * Returns    : none
 336:uCOS-III\Source/os_mutex.c **** ***************************************************************************************************
 337:uCOS-III\Source/os_mutex.c **** */
 338:uCOS-III\Source/os_mutex.c **** 
 339:uCOS-III\Source/os_mutex.c **** void  OSMutexPend (OS_MUTEX  *p_mutex,
 340:uCOS-III\Source/os_mutex.c ****                    OS_TICK    timeout,
 341:uCOS-III\Source/os_mutex.c ****                    OS_OPT     opt,
 342:uCOS-III\Source/os_mutex.c ****                    CPU_TS    *p_ts,
 343:uCOS-III\Source/os_mutex.c ****                    OS_ERR    *p_err)
 344:uCOS-III\Source/os_mutex.c **** {
  28              		.loc 1 344 0
  29              		.cfi_startproc
  30              		@ args = 4, pretend = 0, frame = 32
  31              		@ frame_needed = 0, uses_anonymous_args = 0
  32              	.LVL0:
  33 0000 2DE9F043 		push	{r4, r5, r6, r7, r8, r9, lr}
  34              		.cfi_def_cfa_offset 28
  35              		.cfi_offset 4, -28
  36              		.cfi_offset 5, -24
  37              		.cfi_offset 6, -20
  38              		.cfi_offset 7, -16
  39              		.cfi_offset 8, -12
  40              		.cfi_offset 9, -8
  41              		.cfi_offset 14, -4
  42 0004 89B0     		sub	sp, sp, #36
  43              		.cfi_def_cfa_offset 64
  44              	.LVL1:
 345:uCOS-III\Source/os_mutex.c ****     OS_PEND_DATA  pend_data;
 346:uCOS-III\Source/os_mutex.c ****     OS_TCB       *p_tcb;
 347:uCOS-III\Source/os_mutex.c ****     CPU_SR_ALLOC();
 348:uCOS-III\Source/os_mutex.c **** 
 349:uCOS-III\Source/os_mutex.c **** 
 350:uCOS-III\Source/os_mutex.c **** 
 351:uCOS-III\Source/os_mutex.c **** #ifdef OS_SAFETY_CRITICAL
 352:uCOS-III\Source/os_mutex.c ****     if (p_err == (OS_ERR *)0) {
 353:uCOS-III\Source/os_mutex.c ****         OS_SAFETY_CRITICAL_EXCEPTION();
 354:uCOS-III\Source/os_mutex.c ****         return;
 355:uCOS-III\Source/os_mutex.c ****     }
ARM GAS  C:\Users\jorti\AppData\Local\Temp\cc35e6eL.s 			page 8


 356:uCOS-III\Source/os_mutex.c **** #endif
 357:uCOS-III\Source/os_mutex.c **** 
 358:uCOS-III\Source/os_mutex.c **** #if OS_CFG_CALLED_FROM_ISR_CHK_EN > 0u
 359:uCOS-III\Source/os_mutex.c ****     if (OSIntNestingCtr > (OS_NESTING_CTR)0) {              /* Not allowed to call from an ISR     
  45              		.loc 1 359 0
  46 0006 664C     		ldr	r4, .L33
  47 0008 2478     		ldrb	r4, [r4]	@ zero_extendqisi2
  48 000a 24B1     		cbz	r4, .L2
 360:uCOS-III\Source/os_mutex.c ****        *p_err = OS_ERR_PEND_ISR;
  49              		.loc 1 360 0
  50 000c 46F2AE13 		movw	r3, #25006
  51              	.LVL2:
  52 0010 109A     		ldr	r2, [sp, #64]
  53              	.LVL3:
  54 0012 1380     		strh	r3, [r2]	@ movhi
 361:uCOS-III\Source/os_mutex.c ****         return;
  55              		.loc 1 361 0
  56 0014 C0E0     		b	.L1
  57              	.LVL4:
  58              	.L2:
 362:uCOS-III\Source/os_mutex.c ****     }
 363:uCOS-III\Source/os_mutex.c **** #endif
 364:uCOS-III\Source/os_mutex.c **** 
 365:uCOS-III\Source/os_mutex.c **** #if OS_CFG_ARG_CHK_EN > 0u
 366:uCOS-III\Source/os_mutex.c ****     if (p_mutex == (OS_MUTEX *)0) {                         /* Validate arguments                  
  59              		.loc 1 366 0
  60 0016 20B9     		cbnz	r0, .L4
 367:uCOS-III\Source/os_mutex.c ****        *p_err = OS_ERR_OBJ_PTR_NULL;
  61              		.loc 1 367 0
  62 0018 45F6C353 		movw	r3, #24003
  63              	.LVL5:
  64 001c 109A     		ldr	r2, [sp, #64]
  65              	.LVL6:
  66 001e 1380     		strh	r3, [r2]	@ movhi
 368:uCOS-III\Source/os_mutex.c ****         return;
  67              		.loc 1 368 0
  68 0020 BAE0     		b	.L1
  69              	.LVL7:
  70              	.L4:
 369:uCOS-III\Source/os_mutex.c ****     }
 370:uCOS-III\Source/os_mutex.c ****     switch (opt) {                                          /* Validate 'opt'                      
  71              		.loc 1 370 0
  72 0022 3AB1     		cbz	r2, .L6
  73 0024 B2F5004F 		cmp	r2, #32768
  74 0028 04D0     		beq	.L6
 371:uCOS-III\Source/os_mutex.c ****         case OS_OPT_PEND_BLOCKING:
 372:uCOS-III\Source/os_mutex.c ****         case OS_OPT_PEND_NON_BLOCKING:
 373:uCOS-III\Source/os_mutex.c ****              break;
 374:uCOS-III\Source/os_mutex.c **** 
 375:uCOS-III\Source/os_mutex.c ****         default:
 376:uCOS-III\Source/os_mutex.c ****             *p_err = OS_ERR_OPT_INVALID;
  75              		.loc 1 376 0
  76 002a 45F62563 		movw	r3, #24101
  77              	.LVL8:
  78 002e 109A     		ldr	r2, [sp, #64]
  79              	.LVL9:
  80 0030 1380     		strh	r3, [r2]	@ movhi
ARM GAS  C:\Users\jorti\AppData\Local\Temp\cc35e6eL.s 			page 9


 377:uCOS-III\Source/os_mutex.c ****              return;
  81              		.loc 1 377 0
  82 0032 B1E0     		b	.L1
  83              	.LVL10:
  84              	.L6:
 378:uCOS-III\Source/os_mutex.c ****     }
 379:uCOS-III\Source/os_mutex.c **** #endif
 380:uCOS-III\Source/os_mutex.c **** 
 381:uCOS-III\Source/os_mutex.c **** #if OS_CFG_OBJ_TYPE_CHK_EN > 0u
 382:uCOS-III\Source/os_mutex.c ****     if (p_mutex->Type != OS_OBJ_TYPE_MUTEX) {               /* Make sure mutex was created         
 383:uCOS-III\Source/os_mutex.c ****        *p_err = OS_ERR_OBJ_TYPE;
 384:uCOS-III\Source/os_mutex.c ****         return;
 385:uCOS-III\Source/os_mutex.c ****     }
 386:uCOS-III\Source/os_mutex.c **** #endif
 387:uCOS-III\Source/os_mutex.c **** 
 388:uCOS-III\Source/os_mutex.c ****     if (p_ts != (CPU_TS *)0) {
  85              		.loc 1 388 0
  86 0034 0BB1     		cbz	r3, .L7
 389:uCOS-III\Source/os_mutex.c ****        *p_ts  = (CPU_TS  )0;                                /* Initialize the returned timestamp   
  87              		.loc 1 389 0
  88 0036 0024     		movs	r4, #0
  89 0038 1C60     		str	r4, [r3]
  90              	.L7:
  91 003a 1E46     		mov	r6, r3
  92 003c 1546     		mov	r5, r2
  93 003e 0F46     		mov	r7, r1
  94 0040 0446     		mov	r4, r0
 390:uCOS-III\Source/os_mutex.c ****     }
 391:uCOS-III\Source/os_mutex.c **** 
 392:uCOS-III\Source/os_mutex.c ****     CPU_CRITICAL_ENTER();
  95              		.loc 1 392 0
  96 0042 FFF7FEFF 		bl	CPU_SR_Save
  97              	.LVL11:
  98 0046 8046     		mov	r8, r0
  99              	.LVL12:
 393:uCOS-III\Source/os_mutex.c ****     if (p_mutex->OwnerNestingCtr == (OS_NESTING_CTR)0) {    /* Resource available?                 
 100              		.loc 1 393 0
 101 0048 94F82530 		ldrb	r3, [r4, #37]	@ zero_extendqisi2
 102 004c 9BB9     		cbnz	r3, .L8
 394:uCOS-III\Source/os_mutex.c ****         p_mutex->OwnerTCBPtr       =  OSTCBCurPtr;          /* Yes, caller may proceed             
 103              		.loc 1 394 0
 104 004e 554B     		ldr	r3, .L33+4
 105 0050 1B68     		ldr	r3, [r3]
 106 0052 2362     		str	r3, [r4, #32]
 395:uCOS-III\Source/os_mutex.c ****         p_mutex->OwnerOriginalPrio =  OSTCBCurPtr->Prio;
 107              		.loc 1 395 0
 108 0054 93F83730 		ldrb	r3, [r3, #55]	@ zero_extendqisi2
 109 0058 84F82430 		strb	r3, [r4, #36]
 396:uCOS-III\Source/os_mutex.c ****         p_mutex->OwnerNestingCtr   = (OS_NESTING_CTR)1;
 110              		.loc 1 396 0
 111 005c 0123     		movs	r3, #1
 112 005e 84F82530 		strb	r3, [r4, #37]
 397:uCOS-III\Source/os_mutex.c ****         if (p_ts != (CPU_TS *)0) {
 113              		.loc 1 397 0
 114 0062 0EB1     		cbz	r6, .L9
 398:uCOS-III\Source/os_mutex.c ****            *p_ts  = p_mutex->TS;
 115              		.loc 1 398 0
ARM GAS  C:\Users\jorti\AppData\Local\Temp\cc35e6eL.s 			page 10


 116 0064 A36A     		ldr	r3, [r4, #40]
 117 0066 3360     		str	r3, [r6]
 118              	.L9:
 399:uCOS-III\Source/os_mutex.c ****         }
 400:uCOS-III\Source/os_mutex.c ****         CPU_CRITICAL_EXIT();
 119              		.loc 1 400 0
 120 0068 4046     		mov	r0, r8
 121              	.LVL13:
 122 006a FFF7FEFF 		bl	CPU_SR_Restore
 123              	.LVL14:
 401:uCOS-III\Source/os_mutex.c ****        *p_err = OS_ERR_NONE;
 124              		.loc 1 401 0
 125 006e 0023     		movs	r3, #0
 126 0070 109A     		ldr	r2, [sp, #64]
 127 0072 1380     		strh	r3, [r2]	@ movhi
 402:uCOS-III\Source/os_mutex.c ****         return;
 128              		.loc 1 402 0
 129 0074 90E0     		b	.L1
 130              	.LVL15:
 131              	.L8:
 403:uCOS-III\Source/os_mutex.c ****     }
 404:uCOS-III\Source/os_mutex.c **** 
 405:uCOS-III\Source/os_mutex.c ****     if (OSTCBCurPtr == p_mutex->OwnerTCBPtr) {              /* See if current task is already the o
 132              		.loc 1 405 0
 133 0076 D4F82090 		ldr	r9, [r4, #32]
 134 007a 4A4A     		ldr	r2, .L33+4
 135 007c 1268     		ldr	r2, [r2]
 136 007e 9145     		cmp	r9, r2
 137 0080 0DD1     		bne	.L10
 406:uCOS-III\Source/os_mutex.c ****         p_mutex->OwnerNestingCtr++;
 138              		.loc 1 406 0
 139 0082 0133     		adds	r3, r3, #1
 140 0084 84F82530 		strb	r3, [r4, #37]
 407:uCOS-III\Source/os_mutex.c ****         if (p_ts != (CPU_TS *)0) {
 141              		.loc 1 407 0
 142 0088 0EB1     		cbz	r6, .L11
 408:uCOS-III\Source/os_mutex.c ****            *p_ts  = p_mutex->TS;
 143              		.loc 1 408 0
 144 008a A36A     		ldr	r3, [r4, #40]
 145 008c 3360     		str	r3, [r6]
 146              	.L11:
 409:uCOS-III\Source/os_mutex.c ****         }
 410:uCOS-III\Source/os_mutex.c ****         CPU_CRITICAL_EXIT();
 147              		.loc 1 410 0
 148 008e 4046     		mov	r0, r8
 149              	.LVL16:
 150 0090 FFF7FEFF 		bl	CPU_SR_Restore
 151              	.LVL17:
 411:uCOS-III\Source/os_mutex.c ****        *p_err = OS_ERR_MUTEX_OWNER;                         /* Indicate that current task already o
 152              		.loc 1 411 0
 153 0094 45F28273 		movw	r3, #22402
 154 0098 109A     		ldr	r2, [sp, #64]
 155 009a 1380     		strh	r3, [r2]	@ movhi
 412:uCOS-III\Source/os_mutex.c ****         return;
 156              		.loc 1 412 0
 157 009c 7CE0     		b	.L1
 158              	.LVL18:
ARM GAS  C:\Users\jorti\AppData\Local\Temp\cc35e6eL.s 			page 11


 159              	.L10:
 413:uCOS-III\Source/os_mutex.c ****     }
 414:uCOS-III\Source/os_mutex.c **** 
 415:uCOS-III\Source/os_mutex.c ****     if ((opt & OS_OPT_PEND_NON_BLOCKING) != (OS_OPT)0) {    /* Caller wants to block if not availab
 160              		.loc 1 415 0
 161 009e 15F4004F 		tst	r5, #32768
 162 00a2 06D0     		beq	.L12
 416:uCOS-III\Source/os_mutex.c ****         CPU_CRITICAL_EXIT();
 163              		.loc 1 416 0
 164 00a4 FFF7FEFF 		bl	CPU_SR_Restore
 165              	.LVL19:
 417:uCOS-III\Source/os_mutex.c ****        *p_err = OS_ERR_PEND_WOULD_BLOCK;                    /* No                                  
 166              		.loc 1 417 0
 167 00a8 46F2B013 		movw	r3, #25008
 168 00ac 109A     		ldr	r2, [sp, #64]
 169 00ae 1380     		strh	r3, [r2]	@ movhi
 418:uCOS-III\Source/os_mutex.c ****         return;
 170              		.loc 1 418 0
 171 00b0 72E0     		b	.L1
 172              	.LVL20:
 173              	.L12:
 419:uCOS-III\Source/os_mutex.c ****     } else {
 420:uCOS-III\Source/os_mutex.c ****         if (OSSchedLockNestingCtr > (OS_NESTING_CTR)0) {    /* Can't pend when the scheduler is loc
 174              		.loc 1 420 0
 175 00b2 3D4B     		ldr	r3, .L33+8
 176 00b4 1B78     		ldrb	r3, [r3]	@ zero_extendqisi2
 177 00b6 33B1     		cbz	r3, .L13
 421:uCOS-III\Source/os_mutex.c ****             CPU_CRITICAL_EXIT();
 178              		.loc 1 421 0
 179 00b8 FFF7FEFF 		bl	CPU_SR_Restore
 180              	.LVL21:
 422:uCOS-III\Source/os_mutex.c ****            *p_err = OS_ERR_SCHED_LOCKED;
 181              		.loc 1 422 0
 182 00bc 46F66353 		movw	r3, #28003
 183 00c0 109A     		ldr	r2, [sp, #64]
 184 00c2 1380     		strh	r3, [r2]	@ movhi
 423:uCOS-III\Source/os_mutex.c ****             return;
 185              		.loc 1 423 0
 186 00c4 68E0     		b	.L1
 187              	.LVL22:
 188              	.L13:
 424:uCOS-III\Source/os_mutex.c ****         }
 425:uCOS-III\Source/os_mutex.c ****     }
 426:uCOS-III\Source/os_mutex.c ****                                                             /* Lock the scheduler/re-enable interru
 427:uCOS-III\Source/os_mutex.c ****     OS_CRITICAL_ENTER_CPU_EXIT();
 428:uCOS-III\Source/os_mutex.c ****     p_tcb = p_mutex->OwnerTCBPtr;                           /* Point to the TCB of the Mutex owner 
 429:uCOS-III\Source/os_mutex.c ****     if (p_tcb->Prio > OSTCBCurPtr->Prio) {                  /* See if mutex owner has a lower prior
 189              		.loc 1 429 0
 190 00c6 99F83730 		ldrb	r3, [r9, #55]	@ zero_extendqisi2
 191 00ca 92F83710 		ldrb	r1, [r2, #55]	@ zero_extendqisi2
 192 00ce 8B42     		cmp	r3, r1
 193 00d0 26D9     		bls	.L14
 430:uCOS-III\Source/os_mutex.c ****         switch (p_tcb->TaskState) {
 194              		.loc 1 430 0
 195 00d2 99F83630 		ldrb	r3, [r9, #54]	@ zero_extendqisi2
 196 00d6 072B     		cmp	r3, #7
 197 00d8 1BD8     		bhi	.L15
ARM GAS  C:\Users\jorti\AppData\Local\Temp\cc35e6eL.s 			page 12


 198 00da DFE803F0 		tbb	[pc, r3]
 199              	.L17:
 200 00de 04       		.byte	(.L16-.L17)/2
 201 00df 13       		.byte	(.L18-.L17)/2
 202 00e0 16       		.byte	(.L19-.L17)/2
 203 00e1 16       		.byte	(.L19-.L17)/2
 204 00e2 13       		.byte	(.L18-.L17)/2
 205 00e3 13       		.byte	(.L18-.L17)/2
 206 00e4 16       		.byte	(.L19-.L17)/2
 207 00e5 16       		.byte	(.L19-.L17)/2
 208              		.p2align 1
 209              	.L16:
 431:uCOS-III\Source/os_mutex.c ****             case OS_TASK_STATE_RDY:
 432:uCOS-III\Source/os_mutex.c ****                  OS_RdyListRemove(p_tcb);                   /* Remove from ready list at current pr
 210              		.loc 1 432 0
 211 00e6 4846     		mov	r0, r9
 212              	.LVL23:
 213 00e8 FFF7FEFF 		bl	OS_RdyListRemove
 214              	.LVL24:
 433:uCOS-III\Source/os_mutex.c ****                  p_tcb->Prio = OSTCBCurPtr->Prio;           /* Raise owner's priority              
 215              		.loc 1 433 0
 216 00ec 2D4B     		ldr	r3, .L33+4
 217 00ee 1B68     		ldr	r3, [r3]
 218 00f0 93F83700 		ldrb	r0, [r3, #55]	@ zero_extendqisi2
 219 00f4 89F83700 		strb	r0, [r9, #55]
 434:uCOS-III\Source/os_mutex.c ****                  OS_PrioInsert(p_tcb->Prio);
 220              		.loc 1 434 0
 221 00f8 FFF7FEFF 		bl	OS_PrioInsert
 222              	.LVL25:
 435:uCOS-III\Source/os_mutex.c ****                  OS_RdyListInsertHead(p_tcb);               /* Insert in ready list at new priority
 223              		.loc 1 435 0
 224 00fc 4846     		mov	r0, r9
 225 00fe FFF7FEFF 		bl	OS_RdyListInsertHead
 226              	.LVL26:
 436:uCOS-III\Source/os_mutex.c ****                  break;
 227              		.loc 1 436 0
 228 0102 0DE0     		b	.L14
 229              	.LVL27:
 230              	.L18:
 437:uCOS-III\Source/os_mutex.c **** 
 438:uCOS-III\Source/os_mutex.c ****             case OS_TASK_STATE_DLY:
 439:uCOS-III\Source/os_mutex.c ****             case OS_TASK_STATE_DLY_SUSPENDED:
 440:uCOS-III\Source/os_mutex.c ****             case OS_TASK_STATE_SUSPENDED:
 441:uCOS-III\Source/os_mutex.c ****                  p_tcb->Prio = OSTCBCurPtr->Prio;           /* Only need to raise the owner's prior
 231              		.loc 1 441 0
 232 0104 89F83710 		strb	r1, [r9, #55]
 442:uCOS-III\Source/os_mutex.c ****                  break;
 233              		.loc 1 442 0
 234 0108 0AE0     		b	.L14
 235              	.L19:
 443:uCOS-III\Source/os_mutex.c **** 
 444:uCOS-III\Source/os_mutex.c ****             case OS_TASK_STATE_PEND:                        /* Change the position of the task in t
 445:uCOS-III\Source/os_mutex.c ****             case OS_TASK_STATE_PEND_TIMEOUT:
 446:uCOS-III\Source/os_mutex.c ****             case OS_TASK_STATE_PEND_SUSPENDED:
 447:uCOS-III\Source/os_mutex.c ****             case OS_TASK_STATE_PEND_TIMEOUT_SUSPENDED:
 448:uCOS-III\Source/os_mutex.c ****                  OS_PendListChangePrio(p_tcb,
 236              		.loc 1 448 0
ARM GAS  C:\Users\jorti\AppData\Local\Temp\cc35e6eL.s 			page 13


 237 010a 4846     		mov	r0, r9
 238              	.LVL28:
 239 010c FFF7FEFF 		bl	OS_PendListChangePrio
 240              	.LVL29:
 449:uCOS-III\Source/os_mutex.c ****                                        OSTCBCurPtr->Prio);
 450:uCOS-III\Source/os_mutex.c ****                  break;
 241              		.loc 1 450 0
 242 0110 06E0     		b	.L14
 243              	.LVL30:
 244              	.L15:
 451:uCOS-III\Source/os_mutex.c **** 
 452:uCOS-III\Source/os_mutex.c ****             default:
 453:uCOS-III\Source/os_mutex.c ****                  OS_CRITICAL_EXIT();
 245              		.loc 1 453 0
 246 0112 FFF7FEFF 		bl	CPU_SR_Restore
 247              	.LVL31:
 454:uCOS-III\Source/os_mutex.c ****                 *p_err = OS_ERR_STATE_INVALID;
 248              		.loc 1 454 0
 249 0116 46F62D63 		movw	r3, #28205
 250 011a 109A     		ldr	r2, [sp, #64]
 251 011c 1380     		strh	r3, [r2]	@ movhi
 455:uCOS-III\Source/os_mutex.c ****                  return;
 252              		.loc 1 455 0
 253 011e 3BE0     		b	.L1
 254              	.L14:
 456:uCOS-III\Source/os_mutex.c ****         }
 457:uCOS-III\Source/os_mutex.c ****     }
 458:uCOS-III\Source/os_mutex.c **** 
 459:uCOS-III\Source/os_mutex.c ****     OS_Pend(&pend_data,                                     /* Block task pending on Mutex         
 255              		.loc 1 459 0
 256 0120 3B46     		mov	r3, r7
 257 0122 0422     		movs	r2, #4
 258 0124 2146     		mov	r1, r4
 259 0126 6846     		mov	r0, sp
 260 0128 FFF7FEFF 		bl	OS_Pend
 261              	.LVL32:
 460:uCOS-III\Source/os_mutex.c ****             (OS_PEND_OBJ *)((void *)p_mutex),
 461:uCOS-III\Source/os_mutex.c ****              OS_TASK_PEND_ON_MUTEX,
 462:uCOS-III\Source/os_mutex.c ****              timeout);
 463:uCOS-III\Source/os_mutex.c **** 
 464:uCOS-III\Source/os_mutex.c ****     OS_CRITICAL_EXIT_NO_SCHED();
 262              		.loc 1 464 0
 263 012c 4046     		mov	r0, r8
 264 012e FFF7FEFF 		bl	CPU_SR_Restore
 265              	.LVL33:
 465:uCOS-III\Source/os_mutex.c **** 
 466:uCOS-III\Source/os_mutex.c ****     OSSched();                                              /* Find the next highest priority task 
 266              		.loc 1 466 0
 267 0132 FFF7FEFF 		bl	OSSched
 268              	.LVL34:
 467:uCOS-III\Source/os_mutex.c **** 
 468:uCOS-III\Source/os_mutex.c ****     CPU_CRITICAL_ENTER();
 269              		.loc 1 468 0
 270 0136 FFF7FEFF 		bl	CPU_SR_Save
 271              	.LVL35:
 469:uCOS-III\Source/os_mutex.c ****     switch (OSTCBCurPtr->PendStatus) {
 272              		.loc 1 469 0
ARM GAS  C:\Users\jorti\AppData\Local\Temp\cc35e6eL.s 			page 14


 273 013a 1A4B     		ldr	r3, .L33+4
 274 013c 1A68     		ldr	r2, [r3]
 275 013e 92F83530 		ldrb	r3, [r2, #53]	@ zero_extendqisi2
 276 0142 032B     		cmp	r3, #3
 277 0144 22D8     		bhi	.L20
 278 0146 DFE803F0 		tbb	[pc, r3]
 279              	.L22:
 280 014a 02       		.byte	(.L21-.L22)/2
 281 014b 09       		.byte	(.L23-.L22)/2
 282 014c 19       		.byte	(.L24-.L22)/2
 283 014d 11       		.byte	(.L25-.L22)/2
 284              		.p2align 1
 285              	.L21:
 470:uCOS-III\Source/os_mutex.c ****         case OS_STATUS_PEND_OK:                             /* We got the mutex                    
 471:uCOS-III\Source/os_mutex.c ****              if (p_ts != (CPU_TS *)0) {
 286              		.loc 1 471 0
 287 014e 0EB1     		cbz	r6, .L26
 472:uCOS-III\Source/os_mutex.c ****                 *p_ts  = OSTCBCurPtr->TS;
 288              		.loc 1 472 0
 289 0150 136C     		ldr	r3, [r2, #64]
 290 0152 3360     		str	r3, [r6]
 291              	.L26:
 473:uCOS-III\Source/os_mutex.c ****              }
 474:uCOS-III\Source/os_mutex.c ****             *p_err = OS_ERR_NONE;
 292              		.loc 1 474 0
 293 0154 0023     		movs	r3, #0
 294 0156 109A     		ldr	r2, [sp, #64]
 295 0158 1380     		strh	r3, [r2]	@ movhi
 475:uCOS-III\Source/os_mutex.c ****              break;
 296              		.loc 1 475 0
 297 015a 1BE0     		b	.L27
 298              	.L23:
 476:uCOS-III\Source/os_mutex.c **** 
 477:uCOS-III\Source/os_mutex.c ****         case OS_STATUS_PEND_ABORT:                          /* Indicate that we aborted            
 478:uCOS-III\Source/os_mutex.c ****              if (p_ts != (CPU_TS *)0) {
 299              		.loc 1 478 0
 300 015c 0EB1     		cbz	r6, .L28
 479:uCOS-III\Source/os_mutex.c ****                 *p_ts  = OSTCBCurPtr->TS;
 301              		.loc 1 479 0
 302 015e 136C     		ldr	r3, [r2, #64]
 303 0160 3360     		str	r3, [r6]
 304              	.L28:
 480:uCOS-III\Source/os_mutex.c ****              }
 481:uCOS-III\Source/os_mutex.c ****             *p_err = OS_ERR_PEND_ABORT;
 305              		.loc 1 481 0
 306 0162 46F2A913 		movw	r3, #25001
 307 0166 109A     		ldr	r2, [sp, #64]
 308 0168 1380     		strh	r3, [r2]	@ movhi
 482:uCOS-III\Source/os_mutex.c ****              break;
 309              		.loc 1 482 0
 310 016a 13E0     		b	.L27
 311              	.L25:
 483:uCOS-III\Source/os_mutex.c **** 
 484:uCOS-III\Source/os_mutex.c ****         case OS_STATUS_PEND_TIMEOUT:                        /* Indicate that we didn't get mutex wi
 485:uCOS-III\Source/os_mutex.c ****              if (p_ts != (CPU_TS *)0) {
 312              		.loc 1 485 0
 313 016c 0EB1     		cbz	r6, .L29
ARM GAS  C:\Users\jorti\AppData\Local\Temp\cc35e6eL.s 			page 15


 486:uCOS-III\Source/os_mutex.c ****                 *p_ts  = (CPU_TS  )0;
 314              		.loc 1 486 0
 315 016e 0023     		movs	r3, #0
 316 0170 3360     		str	r3, [r6]
 317              	.L29:
 487:uCOS-III\Source/os_mutex.c ****              }
 488:uCOS-III\Source/os_mutex.c ****             *p_err = OS_ERR_TIMEOUT;
 318              		.loc 1 488 0
 319 0172 47F2D923 		movw	r3, #29401
 320 0176 109A     		ldr	r2, [sp, #64]
 321 0178 1380     		strh	r3, [r2]	@ movhi
 489:uCOS-III\Source/os_mutex.c ****              break;
 322              		.loc 1 489 0
 323 017a 0BE0     		b	.L27
 324              	.L24:
 490:uCOS-III\Source/os_mutex.c **** 
 491:uCOS-III\Source/os_mutex.c ****         case OS_STATUS_PEND_DEL:                            /* Indicate that object pended on has b
 492:uCOS-III\Source/os_mutex.c ****              if (p_ts != (CPU_TS *)0) {
 325              		.loc 1 492 0
 326 017c 0EB1     		cbz	r6, .L30
 493:uCOS-III\Source/os_mutex.c ****                 *p_ts  = OSTCBCurPtr->TS;
 327              		.loc 1 493 0
 328 017e 136C     		ldr	r3, [r2, #64]
 329 0180 3360     		str	r3, [r6]
 330              	.L30:
 494:uCOS-III\Source/os_mutex.c ****              }
 495:uCOS-III\Source/os_mutex.c ****             *p_err = OS_ERR_OBJ_DEL;
 331              		.loc 1 495 0
 332 0182 45F6C253 		movw	r3, #24002
 333 0186 109A     		ldr	r2, [sp, #64]
 334 0188 1380     		strh	r3, [r2]	@ movhi
 496:uCOS-III\Source/os_mutex.c ****              break;
 335              		.loc 1 496 0
 336 018a 03E0     		b	.L27
 337              	.L20:
 497:uCOS-III\Source/os_mutex.c **** 
 498:uCOS-III\Source/os_mutex.c ****         default:
 499:uCOS-III\Source/os_mutex.c ****             *p_err = OS_ERR_STATUS_INVALID;
 338              		.loc 1 499 0
 339 018c 46F62E63 		movw	r3, #28206
 340 0190 109A     		ldr	r2, [sp, #64]
 341 0192 1380     		strh	r3, [r2]	@ movhi
 342              	.L27:
 500:uCOS-III\Source/os_mutex.c ****              break;
 501:uCOS-III\Source/os_mutex.c ****     }
 502:uCOS-III\Source/os_mutex.c ****     CPU_CRITICAL_EXIT();
 343              		.loc 1 502 0
 344 0194 FFF7FEFF 		bl	CPU_SR_Restore
 345              	.LVL36:
 346              	.L1:
 503:uCOS-III\Source/os_mutex.c **** }
 347              		.loc 1 503 0
 348 0198 09B0     		add	sp, sp, #36
 349              		.cfi_def_cfa_offset 28
 350              		@ sp needed
 351 019a BDE8F083 		pop	{r4, r5, r6, r7, r8, r9, pc}
 352              	.LVL37:
ARM GAS  C:\Users\jorti\AppData\Local\Temp\cc35e6eL.s 			page 16


 353              	.L34:
 354 019e 00BF     		.align	2
 355              	.L33:
 356 01a0 00000000 		.word	OSIntNestingCtr
 357 01a4 00000000 		.word	OSTCBCurPtr
 358 01a8 00000000 		.word	OSSchedLockNestingCtr
 359              		.cfi_endproc
 360              	.LFE3:
 361              		.size	OSMutexPend, .-OSMutexPend
 362              		.section	.text.OSMutexPendAbort,"ax",%progbits
 363              		.align	2
 364              		.global	OSMutexPendAbort
 365              		.thumb
 366              		.thumb_func
 367              		.type	OSMutexPendAbort, %function
 368              	OSMutexPendAbort:
 369              	.LFB4:
 504:uCOS-III\Source/os_mutex.c **** 
 505:uCOS-III\Source/os_mutex.c **** /*$PAGE*/
 506:uCOS-III\Source/os_mutex.c **** /*
 507:uCOS-III\Source/os_mutex.c **** ***************************************************************************************************
 508:uCOS-III\Source/os_mutex.c **** *                                               ABORT WAITING ON A MUTEX
 509:uCOS-III\Source/os_mutex.c **** *
 510:uCOS-III\Source/os_mutex.c **** * Description: This function aborts & readies any tasks currently waiting on a mutex.  This functio
 511:uCOS-III\Source/os_mutex.c **** *              to fault-abort the wait on the mutex, rather than to normally signal the mutex via O
 512:uCOS-III\Source/os_mutex.c **** *
 513:uCOS-III\Source/os_mutex.c **** * Arguments  : p_mutex   is a pointer to the mutex
 514:uCOS-III\Source/os_mutex.c **** *
 515:uCOS-III\Source/os_mutex.c **** *              opt       determines the type of ABORT performed:
 516:uCOS-III\Source/os_mutex.c **** *
 517:uCOS-III\Source/os_mutex.c **** *                            OS_OPT_PEND_ABORT_1          ABORT wait for a single task (HPT) waitin
 518:uCOS-III\Source/os_mutex.c **** *                            OS_OPT_PEND_ABORT_ALL        ABORT wait for ALL tasks that are  waitin
 519:uCOS-III\Source/os_mutex.c **** *                            OS_OPT_POST_NO_SCHED         Do not call the scheduler
 520:uCOS-III\Source/os_mutex.c **** *
 521:uCOS-III\Source/os_mutex.c **** *              p_err     is a pointer to a variable that will contain an error code returned by thi
 522:uCOS-III\Source/os_mutex.c **** *
 523:uCOS-III\Source/os_mutex.c **** *                            OS_ERR_NONE                  At least one task waiting on the mutex wa
 524:uCOS-III\Source/os_mutex.c **** *                                                         informed of the aborted wait; check retur
 525:uCOS-III\Source/os_mutex.c **** *                                                         number of tasks whose wait on the mutex w
 526:uCOS-III\Source/os_mutex.c **** *                            OS_ERR_OBJ_PTR_NULL          If 'p_mutex' is a NULL pointer.
 527:uCOS-III\Source/os_mutex.c **** *                            OS_ERR_OBJ_TYPE              If 'p_mutex' is not pointing at a mutex
 528:uCOS-III\Source/os_mutex.c **** *                            OS_ERR_OPT_INVALID           If you specified an invalid option
 529:uCOS-III\Source/os_mutex.c **** *                            OS_ERR_PEND_ABORT_ISR        If you attempted to call this function fr
 530:uCOS-III\Source/os_mutex.c **** *                            OS_ERR_PEND_ABORT_NONE       No task were pending
 531:uCOS-III\Source/os_mutex.c **** *
 532:uCOS-III\Source/os_mutex.c **** * Returns    : == 0          if no tasks were waiting on the mutex, or upon error.
 533:uCOS-III\Source/os_mutex.c **** *              >  0          if one or more tasks waiting on the mutex are now readied and informed
 534:uCOS-III\Source/os_mutex.c **** ***************************************************************************************************
 535:uCOS-III\Source/os_mutex.c **** */
 536:uCOS-III\Source/os_mutex.c **** 
 537:uCOS-III\Source/os_mutex.c **** #if OS_CFG_MUTEX_PEND_ABORT_EN > 0u
 538:uCOS-III\Source/os_mutex.c **** OS_OBJ_QTY  OSMutexPendAbort (OS_MUTEX  *p_mutex,
 539:uCOS-III\Source/os_mutex.c ****                               OS_OPT     opt,
 540:uCOS-III\Source/os_mutex.c ****                               OS_ERR    *p_err)
 541:uCOS-III\Source/os_mutex.c **** {
 370              		.loc 1 541 0
 371              		.cfi_startproc
ARM GAS  C:\Users\jorti\AppData\Local\Temp\cc35e6eL.s 			page 17


 372              		@ args = 0, pretend = 0, frame = 0
 373              		@ frame_needed = 0, uses_anonymous_args = 0
 374              	.LVL38:
 375 0000 2DE9F843 		push	{r3, r4, r5, r6, r7, r8, r9, lr}
 376              		.cfi_def_cfa_offset 32
 377              		.cfi_offset 3, -32
 378              		.cfi_offset 4, -28
 379              		.cfi_offset 5, -24
 380              		.cfi_offset 6, -20
 381              		.cfi_offset 7, -16
 382              		.cfi_offset 8, -12
 383              		.cfi_offset 9, -8
 384              		.cfi_offset 14, -4
 385              	.LVL39:
 542:uCOS-III\Source/os_mutex.c ****     OS_PEND_LIST  *p_pend_list;
 543:uCOS-III\Source/os_mutex.c ****     OS_TCB        *p_tcb;
 544:uCOS-III\Source/os_mutex.c ****     CPU_TS         ts;
 545:uCOS-III\Source/os_mutex.c ****     OS_OBJ_QTY     nbr_tasks;
 546:uCOS-III\Source/os_mutex.c ****     CPU_SR_ALLOC();
 547:uCOS-III\Source/os_mutex.c **** 
 548:uCOS-III\Source/os_mutex.c **** 
 549:uCOS-III\Source/os_mutex.c **** 
 550:uCOS-III\Source/os_mutex.c **** #ifdef OS_SAFETY_CRITICAL
 551:uCOS-III\Source/os_mutex.c ****     if (p_err == (OS_ERR *)0) {
 552:uCOS-III\Source/os_mutex.c ****         OS_SAFETY_CRITICAL_EXCEPTION();
 553:uCOS-III\Source/os_mutex.c ****         return ((OS_OBJ_QTY)0u);
 554:uCOS-III\Source/os_mutex.c ****     }
 555:uCOS-III\Source/os_mutex.c **** #endif
 556:uCOS-III\Source/os_mutex.c **** 
 557:uCOS-III\Source/os_mutex.c **** #if OS_CFG_CALLED_FROM_ISR_CHK_EN > 0u
 558:uCOS-III\Source/os_mutex.c ****     if (OSIntNestingCtr > (OS_NESTING_CTR)0u) {             /* Not allowed to Pend Abort from an IS
 386              		.loc 1 558 0
 387 0004 264B     		ldr	r3, .L48
 388 0006 1B78     		ldrb	r3, [r3]	@ zero_extendqisi2
 389 0008 23B1     		cbz	r3, .L36
 559:uCOS-III\Source/os_mutex.c ****        *p_err =  OS_ERR_PEND_ABORT_ISR;
 390              		.loc 1 559 0
 391 000a 46F2AA13 		movw	r3, #25002
 392 000e 1380     		strh	r3, [r2]	@ movhi
 560:uCOS-III\Source/os_mutex.c ****         return ((OS_OBJ_QTY)0u);
 393              		.loc 1 560 0
 394 0010 0024     		movs	r4, #0
 395 0012 41E0     		b	.L37
 396              	.L36:
 561:uCOS-III\Source/os_mutex.c ****     }
 562:uCOS-III\Source/os_mutex.c **** #endif
 563:uCOS-III\Source/os_mutex.c **** 
 564:uCOS-III\Source/os_mutex.c **** #if OS_CFG_ARG_CHK_EN > 0u
 565:uCOS-III\Source/os_mutex.c ****     if (p_mutex == (OS_MUTEX *)0) {                         /* Validate 'p_mutex'                  
 397              		.loc 1 565 0
 398 0014 20B9     		cbnz	r0, .L38
 566:uCOS-III\Source/os_mutex.c ****        *p_err =  OS_ERR_OBJ_PTR_NULL;
 399              		.loc 1 566 0
 400 0016 45F6C353 		movw	r3, #24003
 401 001a 1380     		strh	r3, [r2]	@ movhi
 567:uCOS-III\Source/os_mutex.c ****         return ((OS_OBJ_QTY)0u);
 402              		.loc 1 567 0
ARM GAS  C:\Users\jorti\AppData\Local\Temp\cc35e6eL.s 			page 18


 403 001c 0024     		movs	r4, #0
 404 001e 3BE0     		b	.L37
 405              	.L38:
 568:uCOS-III\Source/os_mutex.c ****     }
 569:uCOS-III\Source/os_mutex.c ****     switch (opt) {                                          /* Validate 'opt'                      
 406              		.loc 1 569 0
 407 0020 B1F5807F 		cmp	r1, #256
 408 0024 0DD0     		beq	.L40
 409 0026 01D8     		bhi	.L41
 410 0028 31B9     		cbnz	r1, .L39
 411 002a 0AE0     		b	.L40
 412              	.L41:
 413 002c B1F5004F 		cmp	r1, #32768
 414 0030 07D0     		beq	.L40
 415 0032 B1F5014F 		cmp	r1, #33024
 416 0036 04D0     		beq	.L40
 417              	.L39:
 570:uCOS-III\Source/os_mutex.c ****         case OS_OPT_PEND_ABORT_1:
 571:uCOS-III\Source/os_mutex.c ****         case OS_OPT_PEND_ABORT_ALL:
 572:uCOS-III\Source/os_mutex.c ****         case OS_OPT_PEND_ABORT_1   | OS_OPT_POST_NO_SCHED:
 573:uCOS-III\Source/os_mutex.c ****         case OS_OPT_PEND_ABORT_ALL | OS_OPT_POST_NO_SCHED:
 574:uCOS-III\Source/os_mutex.c ****              break;
 575:uCOS-III\Source/os_mutex.c **** 
 576:uCOS-III\Source/os_mutex.c ****         default:
 577:uCOS-III\Source/os_mutex.c ****             *p_err =  OS_ERR_OPT_INVALID;
 418              		.loc 1 577 0
 419 0038 45F62563 		movw	r3, #24101
 420 003c 1380     		strh	r3, [r2]	@ movhi
 578:uCOS-III\Source/os_mutex.c ****              return ((OS_OBJ_QTY)0u);
 421              		.loc 1 578 0
 422 003e 0024     		movs	r4, #0
 423 0040 2AE0     		b	.L37
 424              	.L40:
 425 0042 1746     		mov	r7, r2
 426 0044 0E46     		mov	r6, r1
 427 0046 0546     		mov	r5, r0
 579:uCOS-III\Source/os_mutex.c ****     }
 580:uCOS-III\Source/os_mutex.c **** #endif
 581:uCOS-III\Source/os_mutex.c **** 
 582:uCOS-III\Source/os_mutex.c **** #if OS_CFG_OBJ_TYPE_CHK_EN > 0u
 583:uCOS-III\Source/os_mutex.c ****     if (p_mutex->Type != OS_OBJ_TYPE_MUTEX) {               /* Make sure mutex was created         
 584:uCOS-III\Source/os_mutex.c ****        *p_err =  OS_ERR_OBJ_TYPE;
 585:uCOS-III\Source/os_mutex.c ****         return ((OS_OBJ_QTY)0u);
 586:uCOS-III\Source/os_mutex.c ****     }
 587:uCOS-III\Source/os_mutex.c **** #endif
 588:uCOS-III\Source/os_mutex.c **** 
 589:uCOS-III\Source/os_mutex.c ****     CPU_CRITICAL_ENTER();
 428              		.loc 1 589 0
 429 0048 FFF7FEFF 		bl	CPU_SR_Save
 430              	.LVL40:
 431 004c 8046     		mov	r8, r0
 432              	.LVL41:
 590:uCOS-III\Source/os_mutex.c ****     p_pend_list = &p_mutex->PendList;
 591:uCOS-III\Source/os_mutex.c ****     if (p_pend_list->NbrEntries == (OS_OBJ_QTY)0u) {        /* Any task waiting on mutex?          
 433              		.loc 1 591 0
 434 004e 2C8A     		ldrh	r4, [r5, #16]
 435 0050 2CB9     		cbnz	r4, .L42
ARM GAS  C:\Users\jorti\AppData\Local\Temp\cc35e6eL.s 			page 19


 592:uCOS-III\Source/os_mutex.c ****         CPU_CRITICAL_EXIT();                                /* No                                  
 436              		.loc 1 592 0
 437 0052 FFF7FEFF 		bl	CPU_SR_Restore
 438              	.LVL42:
 593:uCOS-III\Source/os_mutex.c ****        *p_err =  OS_ERR_PEND_ABORT_NONE;
 439              		.loc 1 593 0
 440 0056 46F2AB13 		movw	r3, #25003
 441 005a 3B80     		strh	r3, [r7]	@ movhi
 594:uCOS-III\Source/os_mutex.c ****         return ((OS_OBJ_QTY)0u);
 442              		.loc 1 594 0
 443 005c 1CE0     		b	.L37
 444              	.LVL43:
 445              	.L42:
 595:uCOS-III\Source/os_mutex.c ****     }
 596:uCOS-III\Source/os_mutex.c **** 
 597:uCOS-III\Source/os_mutex.c ****     OS_CRITICAL_ENTER_CPU_EXIT();
 598:uCOS-III\Source/os_mutex.c ****     nbr_tasks = 0u;
 599:uCOS-III\Source/os_mutex.c ****     ts        = OS_TS_GET();                                /* Get local time stamp so all tasks ge
 446              		.loc 1 599 0
 447 005e FFF7FEFF 		bl	CPU_TS_TmrRd
 448              	.LVL44:
 449 0062 8146     		mov	r9, r0
 450              	.LVL45:
 598:uCOS-III\Source/os_mutex.c ****     ts        = OS_TS_GET();                                /* Get local time stamp so all tasks ge
 451              		.loc 1 598 0
 452 0064 0024     		movs	r4, #0
 600:uCOS-III\Source/os_mutex.c ****     while (p_pend_list->NbrEntries > (OS_OBJ_QTY)0u) {
 453              		.loc 1 600 0
 454 0066 0AE0     		b	.L43
 455              	.LVL46:
 456              	.L45:
 601:uCOS-III\Source/os_mutex.c ****         p_tcb = p_pend_list->HeadPtr->TCBPtr;
 457              		.loc 1 601 0
 458 0068 AB68     		ldr	r3, [r5, #8]
 459              	.LVL47:
 602:uCOS-III\Source/os_mutex.c ****         OS_PendAbort((OS_PEND_OBJ *)((void *)p_mutex),
 460              		.loc 1 602 0
 461 006a 4A46     		mov	r2, r9
 462 006c 9968     		ldr	r1, [r3, #8]
 463 006e 2846     		mov	r0, r5
 464 0070 FFF7FEFF 		bl	OS_PendAbort
 465              	.LVL48:
 603:uCOS-III\Source/os_mutex.c ****                      p_tcb,
 604:uCOS-III\Source/os_mutex.c ****                      ts);
 605:uCOS-III\Source/os_mutex.c ****         nbr_tasks++;
 466              		.loc 1 605 0
 467 0074 0134     		adds	r4, r4, #1
 468              	.LVL49:
 469 0076 A4B2     		uxth	r4, r4
 470              	.LVL50:
 606:uCOS-III\Source/os_mutex.c ****         if (opt != OS_OPT_PEND_ABORT_ALL) {                 /* Pend abort all tasks waiting?       
 471              		.loc 1 606 0
 472 0078 B6F5807F 		cmp	r6, #256
 473 007c 02D1     		bne	.L44
 474              	.LVL51:
 475              	.L43:
 600:uCOS-III\Source/os_mutex.c ****         p_tcb = p_pend_list->HeadPtr->TCBPtr;
ARM GAS  C:\Users\jorti\AppData\Local\Temp\cc35e6eL.s 			page 20


 476              		.loc 1 600 0
 477 007e 2B8A     		ldrh	r3, [r5, #16]
 478 0080 002B     		cmp	r3, #0
 479 0082 F1D1     		bne	.L45
 480              	.L44:
 607:uCOS-III\Source/os_mutex.c ****             break;                                          /* No                                  
 608:uCOS-III\Source/os_mutex.c ****         }
 609:uCOS-III\Source/os_mutex.c ****     }
 610:uCOS-III\Source/os_mutex.c ****     OS_CRITICAL_EXIT_NO_SCHED();
 481              		.loc 1 610 0
 482 0084 4046     		mov	r0, r8
 483 0086 FFF7FEFF 		bl	CPU_SR_Restore
 484              	.LVL52:
 611:uCOS-III\Source/os_mutex.c **** 
 612:uCOS-III\Source/os_mutex.c ****     if ((opt & OS_OPT_POST_NO_SCHED) == (OS_OPT)0u) {
 485              		.loc 1 612 0
 486 008a 16F4004F 		tst	r6, #32768
 487 008e 01D1     		bne	.L46
 613:uCOS-III\Source/os_mutex.c ****         OSSched();                                          /* Run the scheduler                   
 488              		.loc 1 613 0
 489 0090 FFF7FEFF 		bl	OSSched
 490              	.LVL53:
 491              	.L46:
 614:uCOS-III\Source/os_mutex.c ****     }
 615:uCOS-III\Source/os_mutex.c **** 
 616:uCOS-III\Source/os_mutex.c ****    *p_err = OS_ERR_NONE;
 492              		.loc 1 616 0
 493 0094 0023     		movs	r3, #0
 494 0096 3B80     		strh	r3, [r7]	@ movhi
 495              	.LVL54:
 496              	.L37:
 617:uCOS-III\Source/os_mutex.c ****     return (nbr_tasks);
 618:uCOS-III\Source/os_mutex.c **** }
 497              		.loc 1 618 0
 498 0098 2046     		mov	r0, r4
 499 009a BDE8F883 		pop	{r3, r4, r5, r6, r7, r8, r9, pc}
 500              	.L49:
 501 009e 00BF     		.align	2
 502              	.L48:
 503 00a0 00000000 		.word	OSIntNestingCtr
 504              		.cfi_endproc
 505              	.LFE4:
 506              		.size	OSMutexPendAbort, .-OSMutexPendAbort
 507              		.section	.text.OSMutexPost,"ax",%progbits
 508              		.align	2
 509              		.global	OSMutexPost
 510              		.thumb
 511              		.thumb_func
 512              		.type	OSMutexPost, %function
 513              	OSMutexPost:
 514              	.LFB5:
 619:uCOS-III\Source/os_mutex.c **** #endif
 620:uCOS-III\Source/os_mutex.c **** 
 621:uCOS-III\Source/os_mutex.c **** /*$PAGE*/
 622:uCOS-III\Source/os_mutex.c **** /*
 623:uCOS-III\Source/os_mutex.c **** ***************************************************************************************************
 624:uCOS-III\Source/os_mutex.c **** *                                                   POST TO A MUTEX
ARM GAS  C:\Users\jorti\AppData\Local\Temp\cc35e6eL.s 			page 21


 625:uCOS-III\Source/os_mutex.c **** *
 626:uCOS-III\Source/os_mutex.c **** * Description: This function signals a mutex
 627:uCOS-III\Source/os_mutex.c **** *
 628:uCOS-III\Source/os_mutex.c **** * Arguments  : p_mutex  is a pointer to the mutex
 629:uCOS-III\Source/os_mutex.c **** *
 630:uCOS-III\Source/os_mutex.c **** *              opt      is an option you can specify to alter the behavior of the post.  The choice
 631:uCOS-III\Source/os_mutex.c **** *
 632:uCOS-III\Source/os_mutex.c **** *                           OS_OPT_POST_NONE        No special option selected
 633:uCOS-III\Source/os_mutex.c **** *                           OS_OPT_POST_NO_SCHED    If you don't want the scheduler to be called af
 634:uCOS-III\Source/os_mutex.c **** *
 635:uCOS-III\Source/os_mutex.c **** *              p_err    is a pointer to a variable that will contain an error code returned by this
 636:uCOS-III\Source/os_mutex.c **** *
 637:uCOS-III\Source/os_mutex.c **** *                           OS_ERR_NONE             The call was successful and the mutex was signa
 638:uCOS-III\Source/os_mutex.c **** *                           OS_ERR_MUTEX_NESTING    Mutex owner nested its use of the mutex
 639:uCOS-III\Source/os_mutex.c **** *                           OS_ERR_MUTEX_NOT_OWNER  If the task posting is not the Mutex owner
 640:uCOS-III\Source/os_mutex.c **** *                           OS_ERR_OBJ_PTR_NULL     If 'p_mutex' is a NULL pointer.
 641:uCOS-III\Source/os_mutex.c **** *                           OS_ERR_OBJ_TYPE         If 'p_mutex' is not pointing at a mutex
 642:uCOS-III\Source/os_mutex.c **** *                           OS_ERR_POST_ISR         If you attempted to post from an ISR
 643:uCOS-III\Source/os_mutex.c **** *
 644:uCOS-III\Source/os_mutex.c **** * Returns    : none
 645:uCOS-III\Source/os_mutex.c **** ***************************************************************************************************
 646:uCOS-III\Source/os_mutex.c **** */
 647:uCOS-III\Source/os_mutex.c **** 
 648:uCOS-III\Source/os_mutex.c **** void  OSMutexPost (OS_MUTEX  *p_mutex,
 649:uCOS-III\Source/os_mutex.c ****                    OS_OPT     opt,
 650:uCOS-III\Source/os_mutex.c ****                    OS_ERR    *p_err)
 651:uCOS-III\Source/os_mutex.c **** {
 515              		.loc 1 651 0
 516              		.cfi_startproc
 517              		@ args = 0, pretend = 0, frame = 0
 518              		@ frame_needed = 0, uses_anonymous_args = 0
 519              	.LVL55:
 520 0000 2DE9F043 		push	{r4, r5, r6, r7, r8, r9, lr}
 521              		.cfi_def_cfa_offset 28
 522              		.cfi_offset 4, -28
 523              		.cfi_offset 5, -24
 524              		.cfi_offset 6, -20
 525              		.cfi_offset 7, -16
 526              		.cfi_offset 8, -12
 527              		.cfi_offset 9, -8
 528              		.cfi_offset 14, -4
 529 0004 83B0     		sub	sp, sp, #12
 530              		.cfi_def_cfa_offset 40
 531              	.LVL56:
 652:uCOS-III\Source/os_mutex.c ****     OS_PEND_LIST  *p_pend_list;
 653:uCOS-III\Source/os_mutex.c ****     OS_TCB        *p_tcb;
 654:uCOS-III\Source/os_mutex.c ****     CPU_TS         ts;
 655:uCOS-III\Source/os_mutex.c ****     CPU_SR_ALLOC();
 656:uCOS-III\Source/os_mutex.c **** 
 657:uCOS-III\Source/os_mutex.c **** 
 658:uCOS-III\Source/os_mutex.c **** 
 659:uCOS-III\Source/os_mutex.c **** #ifdef OS_SAFETY_CRITICAL
 660:uCOS-III\Source/os_mutex.c ****     if (p_err == (OS_ERR *)0) {
 661:uCOS-III\Source/os_mutex.c ****         OS_SAFETY_CRITICAL_EXCEPTION();
 662:uCOS-III\Source/os_mutex.c ****         return;
 663:uCOS-III\Source/os_mutex.c ****     }
 664:uCOS-III\Source/os_mutex.c **** #endif
ARM GAS  C:\Users\jorti\AppData\Local\Temp\cc35e6eL.s 			page 22


 665:uCOS-III\Source/os_mutex.c **** 
 666:uCOS-III\Source/os_mutex.c **** #if OS_CFG_CALLED_FROM_ISR_CHK_EN > 0u
 667:uCOS-III\Source/os_mutex.c ****     if (OSIntNestingCtr > (OS_NESTING_CTR)0) {              /* Not allowed to call from an ISR     
 532              		.loc 1 667 0
 533 0006 3F4B     		ldr	r3, .L62
 534 0008 1B78     		ldrb	r3, [r3]	@ zero_extendqisi2
 535 000a 1BB1     		cbz	r3, .L51
 668:uCOS-III\Source/os_mutex.c ****        *p_err = OS_ERR_POST_ISR;
 536              		.loc 1 668 0
 537 000c 46F20E23 		movw	r3, #25102
 538 0010 1380     		strh	r3, [r2]	@ movhi
 669:uCOS-III\Source/os_mutex.c ****         return;
 539              		.loc 1 669 0
 540 0012 73E0     		b	.L50
 541              	.L51:
 670:uCOS-III\Source/os_mutex.c ****     }
 671:uCOS-III\Source/os_mutex.c **** #endif
 672:uCOS-III\Source/os_mutex.c **** 
 673:uCOS-III\Source/os_mutex.c **** #if OS_CFG_ARG_CHK_EN > 0u
 674:uCOS-III\Source/os_mutex.c ****     if (p_mutex == (OS_MUTEX *)0) {                         /* Validate 'p_mutex'                  
 542              		.loc 1 674 0
 543 0014 18B9     		cbnz	r0, .L53
 675:uCOS-III\Source/os_mutex.c ****        *p_err = OS_ERR_OBJ_PTR_NULL;
 544              		.loc 1 675 0
 545 0016 45F6C353 		movw	r3, #24003
 546 001a 1380     		strh	r3, [r2]	@ movhi
 676:uCOS-III\Source/os_mutex.c ****         return;
 547              		.loc 1 676 0
 548 001c 6EE0     		b	.L50
 549              	.L53:
 677:uCOS-III\Source/os_mutex.c ****     }
 678:uCOS-III\Source/os_mutex.c ****     switch (opt) {                                          /* Validate 'opt'                      
 550              		.loc 1 678 0
 551 001e 31B1     		cbz	r1, .L55
 552 0020 B1F5004F 		cmp	r1, #32768
 553 0024 03D0     		beq	.L55
 679:uCOS-III\Source/os_mutex.c ****         case OS_OPT_POST_NONE:
 680:uCOS-III\Source/os_mutex.c ****         case OS_OPT_POST_NO_SCHED:
 681:uCOS-III\Source/os_mutex.c ****              break;
 682:uCOS-III\Source/os_mutex.c **** 
 683:uCOS-III\Source/os_mutex.c ****         default:
 684:uCOS-III\Source/os_mutex.c ****             *p_err =  OS_ERR_OPT_INVALID;
 554              		.loc 1 684 0
 555 0026 45F62563 		movw	r3, #24101
 556 002a 1380     		strh	r3, [r2]	@ movhi
 685:uCOS-III\Source/os_mutex.c ****              return;
 557              		.loc 1 685 0
 558 002c 66E0     		b	.L50
 559              	.L55:
 560 002e 1646     		mov	r6, r2
 561 0030 0D46     		mov	r5, r1
 562 0032 0446     		mov	r4, r0
 686:uCOS-III\Source/os_mutex.c ****     }
 687:uCOS-III\Source/os_mutex.c **** #endif
 688:uCOS-III\Source/os_mutex.c **** 
 689:uCOS-III\Source/os_mutex.c **** #if OS_CFG_OBJ_TYPE_CHK_EN > 0u
 690:uCOS-III\Source/os_mutex.c ****     if (p_mutex->Type != OS_OBJ_TYPE_MUTEX) {               /* Make sure mutex was created         
ARM GAS  C:\Users\jorti\AppData\Local\Temp\cc35e6eL.s 			page 23


 691:uCOS-III\Source/os_mutex.c ****        *p_err = OS_ERR_OBJ_TYPE;
 692:uCOS-III\Source/os_mutex.c ****         return;
 693:uCOS-III\Source/os_mutex.c ****     }
 694:uCOS-III\Source/os_mutex.c **** #endif
 695:uCOS-III\Source/os_mutex.c **** 
 696:uCOS-III\Source/os_mutex.c ****     CPU_CRITICAL_ENTER();
 563              		.loc 1 696 0
 564 0034 FFF7FEFF 		bl	CPU_SR_Save
 565              	.LVL57:
 566 0038 0746     		mov	r7, r0
 567              	.LVL58:
 697:uCOS-III\Source/os_mutex.c ****     if (OSTCBCurPtr != p_mutex->OwnerTCBPtr) {              /* Make sure the mutex owner is releasi
 568              		.loc 1 697 0
 569 003a 226A     		ldr	r2, [r4, #32]
 570 003c 324B     		ldr	r3, .L62+4
 571 003e 1B68     		ldr	r3, [r3]
 572 0040 9A42     		cmp	r2, r3
 573 0042 05D0     		beq	.L56
 698:uCOS-III\Source/os_mutex.c ****         CPU_CRITICAL_EXIT();
 574              		.loc 1 698 0
 575 0044 FFF7FEFF 		bl	CPU_SR_Restore
 576              	.LVL59:
 699:uCOS-III\Source/os_mutex.c ****        *p_err = OS_ERR_MUTEX_NOT_OWNER;
 577              		.loc 1 699 0
 578 0048 45F28173 		movw	r3, #22401
 579 004c 3380     		strh	r3, [r6]	@ movhi
 700:uCOS-III\Source/os_mutex.c ****         return;
 580              		.loc 1 700 0
 581 004e 55E0     		b	.L50
 582              	.LVL60:
 583              	.L56:
 701:uCOS-III\Source/os_mutex.c ****     }
 702:uCOS-III\Source/os_mutex.c **** 
 703:uCOS-III\Source/os_mutex.c ****     OS_CRITICAL_ENTER_CPU_EXIT();
 704:uCOS-III\Source/os_mutex.c ****     ts          = OS_TS_GET();                              /* Get timestamp                       
 584              		.loc 1 704 0
 585 0050 FFF7FEFF 		bl	CPU_TS_TmrRd
 586              	.LVL61:
 587 0054 8046     		mov	r8, r0
 588              	.LVL62:
 705:uCOS-III\Source/os_mutex.c ****     p_mutex->TS = ts;
 589              		.loc 1 705 0
 590 0056 A062     		str	r0, [r4, #40]
 706:uCOS-III\Source/os_mutex.c ****     p_mutex->OwnerNestingCtr--;                             /* Decrement owner's nesting counter   
 591              		.loc 1 706 0
 592 0058 94F82530 		ldrb	r3, [r4, #37]	@ zero_extendqisi2
 593 005c 013B     		subs	r3, r3, #1
 594 005e DBB2     		uxtb	r3, r3
 595 0060 84F82530 		strb	r3, [r4, #37]
 707:uCOS-III\Source/os_mutex.c ****     if (p_mutex->OwnerNestingCtr > (OS_NESTING_CTR)0) {     /* Are we done with all nestings?      
 596              		.loc 1 707 0
 597 0064 33B1     		cbz	r3, .L57
 708:uCOS-III\Source/os_mutex.c ****         OS_CRITICAL_EXIT();                                 /* No                                  
 598              		.loc 1 708 0
 599 0066 3846     		mov	r0, r7
 600              	.LVL63:
 601 0068 FFF7FEFF 		bl	CPU_SR_Restore
ARM GAS  C:\Users\jorti\AppData\Local\Temp\cc35e6eL.s 			page 24


 602              	.LVL64:
 709:uCOS-III\Source/os_mutex.c ****        *p_err = OS_ERR_MUTEX_NESTING;
 603              		.loc 1 709 0
 604 006c 45F28373 		movw	r3, #22403
 605 0070 3380     		strh	r3, [r6]	@ movhi
 710:uCOS-III\Source/os_mutex.c ****         return;
 606              		.loc 1 710 0
 607 0072 43E0     		b	.L50
 608              	.LVL65:
 609              	.L57:
 711:uCOS-III\Source/os_mutex.c ****     }
 712:uCOS-III\Source/os_mutex.c **** 
 713:uCOS-III\Source/os_mutex.c ****     p_pend_list = &p_mutex->PendList;
 714:uCOS-III\Source/os_mutex.c ****     if (p_pend_list->NbrEntries == (OS_OBJ_QTY)0) {         /* Any task waiting on mutex?          
 610              		.loc 1 714 0
 611 0074 238A     		ldrh	r3, [r4, #16]
 612 0076 43B9     		cbnz	r3, .L58
 715:uCOS-III\Source/os_mutex.c ****         p_mutex->OwnerTCBPtr     = (OS_TCB       *)0;       /* No                                  
 613              		.loc 1 715 0
 614 0078 0025     		movs	r5, #0
 615 007a 2562     		str	r5, [r4, #32]
 716:uCOS-III\Source/os_mutex.c ****         p_mutex->OwnerNestingCtr = (OS_NESTING_CTR)0;
 616              		.loc 1 716 0
 617 007c 84F82550 		strb	r5, [r4, #37]
 717:uCOS-III\Source/os_mutex.c ****         OS_CRITICAL_EXIT();
 618              		.loc 1 717 0
 619 0080 3846     		mov	r0, r7
 620              	.LVL66:
 621 0082 FFF7FEFF 		bl	CPU_SR_Restore
 622              	.LVL67:
 718:uCOS-III\Source/os_mutex.c ****        *p_err = OS_ERR_NONE;
 623              		.loc 1 718 0
 624 0086 3580     		strh	r5, [r6]	@ movhi
 719:uCOS-III\Source/os_mutex.c ****         return;
 625              		.loc 1 719 0
 626 0088 38E0     		b	.L50
 627              	.LVL68:
 628              	.L58:
 720:uCOS-III\Source/os_mutex.c ****     }
 721:uCOS-III\Source/os_mutex.c ****                                                             /* Yes                                 
 722:uCOS-III\Source/os_mutex.c ****     if (OSTCBCurPtr->Prio != p_mutex->OwnerOriginalPrio) {
 629              		.loc 1 722 0
 630 008a 1F4B     		ldr	r3, .L62+4
 631 008c 1868     		ldr	r0, [r3]
 632              	.LVL69:
 633 008e 90F83720 		ldrb	r2, [r0, #55]	@ zero_extendqisi2
 634 0092 94F82430 		ldrb	r3, [r4, #36]	@ zero_extendqisi2
 635 0096 9A42     		cmp	r2, r3
 636 0098 15D0     		beq	.L59
 723:uCOS-III\Source/os_mutex.c ****         OS_RdyListRemove(OSTCBCurPtr);
 637              		.loc 1 723 0
 638 009a FFF7FEFF 		bl	OS_RdyListRemove
 639              	.LVL70:
 724:uCOS-III\Source/os_mutex.c ****         OSTCBCurPtr->Prio = p_mutex->OwnerOriginalPrio;     /* Lower owner's priority back to its o
 640              		.loc 1 724 0
 641 009e DFF86890 		ldr	r9, .L62+4
 642 00a2 D9F80030 		ldr	r3, [r9]
ARM GAS  C:\Users\jorti\AppData\Local\Temp\cc35e6eL.s 			page 25


 643 00a6 94F82400 		ldrb	r0, [r4, #36]	@ zero_extendqisi2
 644 00aa 83F83700 		strb	r0, [r3, #55]
 725:uCOS-III\Source/os_mutex.c ****         OS_PrioInsert(OSTCBCurPtr->Prio);
 645              		.loc 1 725 0
 646 00ae FFF7FEFF 		bl	OS_PrioInsert
 647              	.LVL71:
 726:uCOS-III\Source/os_mutex.c ****         OS_RdyListInsertTail(OSTCBCurPtr);                  /* Insert owner in ready list at new pr
 648              		.loc 1 726 0
 649 00b2 D9F80000 		ldr	r0, [r9]
 650 00b6 FFF7FEFF 		bl	OS_RdyListInsertTail
 651              	.LVL72:
 727:uCOS-III\Source/os_mutex.c ****         OSPrioCur         = OSTCBCurPtr->Prio;
 652              		.loc 1 727 0
 653 00ba D9F80030 		ldr	r3, [r9]
 654 00be 93F83720 		ldrb	r2, [r3, #55]	@ zero_extendqisi2
 655 00c2 124B     		ldr	r3, .L62+8
 656 00c4 1A70     		strb	r2, [r3]
 657              	.L59:
 728:uCOS-III\Source/os_mutex.c ****     }
 729:uCOS-III\Source/os_mutex.c ****                                                             /* Get TCB from head of pend list      
 730:uCOS-III\Source/os_mutex.c ****     p_tcb                      = p_pend_list->HeadPtr->TCBPtr;
 658              		.loc 1 730 0
 659 00c6 A368     		ldr	r3, [r4, #8]
 660 00c8 9968     		ldr	r1, [r3, #8]
 661              	.LVL73:
 731:uCOS-III\Source/os_mutex.c ****     p_mutex->OwnerTCBPtr       = p_tcb;                     /* Give mutex to new owner             
 662              		.loc 1 731 0
 663 00ca 2162     		str	r1, [r4, #32]
 732:uCOS-III\Source/os_mutex.c ****     p_mutex->OwnerOriginalPrio = p_tcb->Prio;
 664              		.loc 1 732 0
 665 00cc 91F83730 		ldrb	r3, [r1, #55]	@ zero_extendqisi2
 666 00d0 84F82430 		strb	r3, [r4, #36]
 733:uCOS-III\Source/os_mutex.c ****     p_mutex->OwnerNestingCtr   = (OS_NESTING_CTR)1;
 667              		.loc 1 733 0
 668 00d4 0123     		movs	r3, #1
 669 00d6 84F82530 		strb	r3, [r4, #37]
 734:uCOS-III\Source/os_mutex.c ****                                                             /* Post to mutex                       
 735:uCOS-III\Source/os_mutex.c ****     OS_Post((OS_PEND_OBJ *)((void *)p_mutex),
 670              		.loc 1 735 0
 671 00da CDF80080 		str	r8, [sp]
 672 00de 0023     		movs	r3, #0
 673 00e0 1A46     		mov	r2, r3
 674 00e2 2046     		mov	r0, r4
 675 00e4 FFF7FEFF 		bl	OS_Post
 676              	.LVL74:
 736:uCOS-III\Source/os_mutex.c ****             (OS_TCB      *)p_tcb,
 737:uCOS-III\Source/os_mutex.c ****             (void        *)0,
 738:uCOS-III\Source/os_mutex.c ****             (OS_MSG_SIZE  )0,
 739:uCOS-III\Source/os_mutex.c ****             (CPU_TS       )ts);
 740:uCOS-III\Source/os_mutex.c **** 
 741:uCOS-III\Source/os_mutex.c ****     OS_CRITICAL_EXIT_NO_SCHED();
 677              		.loc 1 741 0
 678 00e8 3846     		mov	r0, r7
 679 00ea FFF7FEFF 		bl	CPU_SR_Restore
 680              	.LVL75:
 742:uCOS-III\Source/os_mutex.c **** 
 743:uCOS-III\Source/os_mutex.c ****     if ((opt & OS_OPT_POST_NO_SCHED) == (OS_OPT)0) {
ARM GAS  C:\Users\jorti\AppData\Local\Temp\cc35e6eL.s 			page 26


 681              		.loc 1 743 0
 682 00ee 15F4004F 		tst	r5, #32768
 683 00f2 01D1     		bne	.L60
 744:uCOS-III\Source/os_mutex.c ****         OSSched();                                          /* Run the scheduler                   
 684              		.loc 1 744 0
 685 00f4 FFF7FEFF 		bl	OSSched
 686              	.LVL76:
 687              	.L60:
 745:uCOS-III\Source/os_mutex.c ****     }
 746:uCOS-III\Source/os_mutex.c **** 
 747:uCOS-III\Source/os_mutex.c ****    *p_err = OS_ERR_NONE;
 688              		.loc 1 747 0
 689 00f8 0023     		movs	r3, #0
 690 00fa 3380     		strh	r3, [r6]	@ movhi
 691              	.LVL77:
 692              	.L50:
 748:uCOS-III\Source/os_mutex.c **** }
 693              		.loc 1 748 0
 694 00fc 03B0     		add	sp, sp, #12
 695              		.cfi_def_cfa_offset 28
 696              		@ sp needed
 697 00fe BDE8F083 		pop	{r4, r5, r6, r7, r8, r9, pc}
 698              	.L63:
 699 0102 00BF     		.align	2
 700              	.L62:
 701 0104 00000000 		.word	OSIntNestingCtr
 702 0108 00000000 		.word	OSTCBCurPtr
 703 010c 00000000 		.word	OSPrioCur
 704              		.cfi_endproc
 705              	.LFE5:
 706              		.size	OSMutexPost, .-OSMutexPost
 707              		.section	.text.OS_MutexClr,"ax",%progbits
 708              		.align	2
 709              		.global	OS_MutexClr
 710              		.thumb
 711              		.thumb_func
 712              		.type	OS_MutexClr, %function
 713              	OS_MutexClr:
 714              	.LFB6:
 749:uCOS-III\Source/os_mutex.c **** 
 750:uCOS-III\Source/os_mutex.c **** /*$PAGE*/
 751:uCOS-III\Source/os_mutex.c **** /*
 752:uCOS-III\Source/os_mutex.c **** ***************************************************************************************************
 753:uCOS-III\Source/os_mutex.c **** *                                            CLEAR THE CONTENTS OF A MUTEX
 754:uCOS-III\Source/os_mutex.c **** *
 755:uCOS-III\Source/os_mutex.c **** * Description: This function is called by OSMutexDel() to clear the contents of a mutex
 756:uCOS-III\Source/os_mutex.c **** *
 757:uCOS-III\Source/os_mutex.c **** 
 758:uCOS-III\Source/os_mutex.c **** * Argument(s): p_mutex      is a pointer to the mutex to clear
 759:uCOS-III\Source/os_mutex.c **** *              -------
 760:uCOS-III\Source/os_mutex.c **** *
 761:uCOS-III\Source/os_mutex.c **** * Returns    : none
 762:uCOS-III\Source/os_mutex.c **** *
 763:uCOS-III\Source/os_mutex.c **** * Note(s)    : This function is INTERNAL to uC/OS-III and your application should not call it.
 764:uCOS-III\Source/os_mutex.c **** ***************************************************************************************************
 765:uCOS-III\Source/os_mutex.c **** */
 766:uCOS-III\Source/os_mutex.c **** 
ARM GAS  C:\Users\jorti\AppData\Local\Temp\cc35e6eL.s 			page 27


 767:uCOS-III\Source/os_mutex.c **** void  OS_MutexClr (OS_MUTEX  *p_mutex)
 768:uCOS-III\Source/os_mutex.c **** {
 715              		.loc 1 768 0
 716              		.cfi_startproc
 717              		@ args = 0, pretend = 0, frame = 0
 718              		@ frame_needed = 0, uses_anonymous_args = 0
 719              	.LVL78:
 720 0000 08B5     		push	{r3, lr}
 721              		.cfi_def_cfa_offset 8
 722              		.cfi_offset 3, -8
 723              		.cfi_offset 14, -4
 769:uCOS-III\Source/os_mutex.c ****     p_mutex->Type              =  OS_OBJ_TYPE_NONE;         /* Mark the data structure as a NONE   
 724              		.loc 1 769 0
 725 0002 084B     		ldr	r3, .L66
 726 0004 0360     		str	r3, [r0]
 770:uCOS-III\Source/os_mutex.c ****     p_mutex->NamePtr           = (CPU_CHAR     *)((void *)"?MUTEX");
 727              		.loc 1 770 0
 728 0006 084B     		ldr	r3, .L66+4
 729 0008 4360     		str	r3, [r0, #4]
 771:uCOS-III\Source/os_mutex.c ****     p_mutex->OwnerTCBPtr       = (OS_TCB       *)0;
 730              		.loc 1 771 0
 731 000a 0023     		movs	r3, #0
 732 000c 0362     		str	r3, [r0, #32]
 772:uCOS-III\Source/os_mutex.c ****     p_mutex->OwnerNestingCtr   = (OS_NESTING_CTR)0;
 733              		.loc 1 772 0
 734 000e 80F82530 		strb	r3, [r0, #37]
 773:uCOS-III\Source/os_mutex.c ****     p_mutex->TS                = (CPU_TS        )0;
 735              		.loc 1 773 0
 736 0012 8362     		str	r3, [r0, #40]
 774:uCOS-III\Source/os_mutex.c ****     p_mutex->OwnerOriginalPrio =  OS_CFG_PRIO_MAX;
 737              		.loc 1 774 0
 738 0014 0823     		movs	r3, #8
 739 0016 80F82430 		strb	r3, [r0, #36]
 775:uCOS-III\Source/os_mutex.c ****     OS_PendListInit(&p_mutex->PendList);                    /* Initialize the waiting list         
 740              		.loc 1 775 0
 741 001a 1844     		add	r0, r0, r3
 742              	.LVL79:
 743 001c FFF7FEFF 		bl	OS_PendListInit
 744              	.LVL80:
 745 0020 08BD     		pop	{r3, pc}
 746              	.L67:
 747 0022 00BF     		.align	2
 748              	.L66:
 749 0024 4E4F4E45 		.word	1162760014
 750 0028 00000000 		.word	.LC0
 751              		.cfi_endproc
 752              	.LFE6:
 753              		.size	OS_MutexClr, .-OS_MutexClr
 754              		.section	.text.OS_MutexDbgListAdd,"ax",%progbits
 755              		.align	2
 756              		.global	OS_MutexDbgListAdd
 757              		.thumb
 758              		.thumb_func
 759              		.type	OS_MutexDbgListAdd, %function
 760              	OS_MutexDbgListAdd:
 761              	.LFB7:
 776:uCOS-III\Source/os_mutex.c **** }
ARM GAS  C:\Users\jorti\AppData\Local\Temp\cc35e6eL.s 			page 28


 777:uCOS-III\Source/os_mutex.c **** 
 778:uCOS-III\Source/os_mutex.c **** /*$PAGE*/
 779:uCOS-III\Source/os_mutex.c **** /*
 780:uCOS-III\Source/os_mutex.c **** ***************************************************************************************************
 781:uCOS-III\Source/os_mutex.c **** *                                          ADD/REMOVE MUTEX TO/FROM DEBUG LIST
 782:uCOS-III\Source/os_mutex.c **** *
 783:uCOS-III\Source/os_mutex.c **** * Description: These functions are called by uC/OS-III to add or remove a mutex to/from the debug l
 784:uCOS-III\Source/os_mutex.c **** *
 785:uCOS-III\Source/os_mutex.c **** * Arguments  : p_mutex     is a pointer to the mutex to add/remove
 786:uCOS-III\Source/os_mutex.c **** *
 787:uCOS-III\Source/os_mutex.c **** * Returns    : none
 788:uCOS-III\Source/os_mutex.c **** *
 789:uCOS-III\Source/os_mutex.c **** * Note(s)    : These functions are INTERNAL to uC/OS-III and your application should not call it.
 790:uCOS-III\Source/os_mutex.c **** ***************************************************************************************************
 791:uCOS-III\Source/os_mutex.c **** */
 792:uCOS-III\Source/os_mutex.c **** 
 793:uCOS-III\Source/os_mutex.c **** 
 794:uCOS-III\Source/os_mutex.c **** #if OS_CFG_DBG_EN > 0u
 795:uCOS-III\Source/os_mutex.c **** void  OS_MutexDbgListAdd (OS_MUTEX  *p_mutex)
 796:uCOS-III\Source/os_mutex.c **** {
 762              		.loc 1 796 0
 763              		.cfi_startproc
 764              		@ args = 0, pretend = 0, frame = 0
 765              		@ frame_needed = 0, uses_anonymous_args = 0
 766              		@ link register save eliminated.
 767              	.LVL81:
 797:uCOS-III\Source/os_mutex.c ****     p_mutex->DbgNamePtr               = (CPU_CHAR *)((void *)" ");
 768              		.loc 1 797 0
 769 0000 064B     		ldr	r3, .L71
 770 0002 C361     		str	r3, [r0, #28]
 798:uCOS-III\Source/os_mutex.c ****     p_mutex->DbgPrevPtr               = (OS_MUTEX *)0;
 771              		.loc 1 798 0
 772 0004 0023     		movs	r3, #0
 773 0006 4361     		str	r3, [r0, #20]
 799:uCOS-III\Source/os_mutex.c ****     if (OSMutexDbgListPtr == (OS_MUTEX *)0) {
 774              		.loc 1 799 0
 775 0008 054B     		ldr	r3, .L71+4
 776 000a 1B68     		ldr	r3, [r3]
 777 000c 0BB9     		cbnz	r3, .L69
 800:uCOS-III\Source/os_mutex.c ****         p_mutex->DbgNextPtr           = (OS_MUTEX *)0;
 778              		.loc 1 800 0
 779 000e 8361     		str	r3, [r0, #24]
 780 0010 01E0     		b	.L70
 781              	.L69:
 801:uCOS-III\Source/os_mutex.c ****     } else {
 802:uCOS-III\Source/os_mutex.c ****         p_mutex->DbgNextPtr           =  OSMutexDbgListPtr;
 782              		.loc 1 802 0
 783 0012 8361     		str	r3, [r0, #24]
 803:uCOS-III\Source/os_mutex.c ****         OSMutexDbgListPtr->DbgPrevPtr =  p_mutex;
 784              		.loc 1 803 0
 785 0014 5861     		str	r0, [r3, #20]
 786              	.L70:
 804:uCOS-III\Source/os_mutex.c ****     }
 805:uCOS-III\Source/os_mutex.c ****     OSMutexDbgListPtr                 =  p_mutex;
 787              		.loc 1 805 0
 788 0016 024B     		ldr	r3, .L71+4
 789 0018 1860     		str	r0, [r3]
ARM GAS  C:\Users\jorti\AppData\Local\Temp\cc35e6eL.s 			page 29


 790 001a 7047     		bx	lr
 791              	.L72:
 792              		.align	2
 793              	.L71:
 794 001c 08000000 		.word	.LC1
 795 0020 00000000 		.word	OSMutexDbgListPtr
 796              		.cfi_endproc
 797              	.LFE7:
 798              		.size	OS_MutexDbgListAdd, .-OS_MutexDbgListAdd
 799              		.section	.text.OSMutexCreate,"ax",%progbits
 800              		.align	2
 801              		.global	OSMutexCreate
 802              		.thumb
 803              		.thumb_func
 804              		.type	OSMutexCreate, %function
 805              	OSMutexCreate:
 806              	.LFB1:
  70:uCOS-III\Source/os_mutex.c ****     CPU_SR_ALLOC();
 807              		.loc 1 70 0
 808              		.cfi_startproc
 809              		@ args = 0, pretend = 0, frame = 0
 810              		@ frame_needed = 0, uses_anonymous_args = 0
 811              	.LVL82:
 812 0000 F8B5     		push	{r3, r4, r5, r6, r7, lr}
 813              		.cfi_def_cfa_offset 24
 814              		.cfi_offset 3, -24
 815              		.cfi_offset 4, -20
 816              		.cfi_offset 5, -16
 817              		.cfi_offset 6, -12
 818              		.cfi_offset 7, -8
 819              		.cfi_offset 14, -4
 820              	.LVL83:
  90:uCOS-III\Source/os_mutex.c ****        *p_err = OS_ERR_CREATE_ISR;
 821              		.loc 1 90 0
 822 0002 164B     		ldr	r3, .L78
 823 0004 1B78     		ldrb	r3, [r3]	@ zero_extendqisi2
 824 0006 1BB1     		cbz	r3, .L74
  91:uCOS-III\Source/os_mutex.c ****         return;
 825              		.loc 1 91 0
 826 0008 42F6E163 		movw	r3, #12001
 827 000c 1380     		strh	r3, [r2]	@ movhi
  92:uCOS-III\Source/os_mutex.c ****     }
 828              		.loc 1 92 0
 829 000e F8BD     		pop	{r3, r4, r5, r6, r7, pc}
 830              	.L74:
  97:uCOS-III\Source/os_mutex.c ****        *p_err = OS_ERR_OBJ_PTR_NULL;
 831              		.loc 1 97 0
 832 0010 18B9     		cbnz	r0, .L76
  98:uCOS-III\Source/os_mutex.c ****         return;
 833              		.loc 1 98 0
 834 0012 45F6C353 		movw	r3, #24003
 835 0016 1380     		strh	r3, [r2]	@ movhi
  99:uCOS-III\Source/os_mutex.c ****     }
 836              		.loc 1 99 0
 837 0018 F8BD     		pop	{r3, r4, r5, r6, r7, pc}
 838              	.L76:
 839 001a 1646     		mov	r6, r2
ARM GAS  C:\Users\jorti\AppData\Local\Temp\cc35e6eL.s 			page 30


 840 001c 0D46     		mov	r5, r1
 841 001e 0446     		mov	r4, r0
 103:uCOS-III\Source/os_mutex.c ****     p_mutex->Type              =  OS_OBJ_TYPE_MUTEX;        /* Mark the data structure as a mutex  
 842              		.loc 1 103 0
 843 0020 FFF7FEFF 		bl	CPU_SR_Save
 844              	.LVL84:
 845 0024 0746     		mov	r7, r0
 846              	.LVL85:
 104:uCOS-III\Source/os_mutex.c ****     p_mutex->NamePtr           =  p_name;
 847              		.loc 1 104 0
 848 0026 0E4B     		ldr	r3, .L78+4
 849 0028 2360     		str	r3, [r4]
 105:uCOS-III\Source/os_mutex.c ****     p_mutex->OwnerTCBPtr       = (OS_TCB       *)0;
 850              		.loc 1 105 0
 851 002a 6560     		str	r5, [r4, #4]
 106:uCOS-III\Source/os_mutex.c ****     p_mutex->OwnerNestingCtr   = (OS_NESTING_CTR)0;         /* Mutex is available                  
 852              		.loc 1 106 0
 853 002c 0025     		movs	r5, #0
 854              	.LVL86:
 855 002e 2562     		str	r5, [r4, #32]
 107:uCOS-III\Source/os_mutex.c ****     p_mutex->TS                = (CPU_TS        )0;
 856              		.loc 1 107 0
 857 0030 84F82550 		strb	r5, [r4, #37]
 108:uCOS-III\Source/os_mutex.c ****     p_mutex->OwnerOriginalPrio =  OS_CFG_PRIO_MAX;
 858              		.loc 1 108 0
 859 0034 A562     		str	r5, [r4, #40]
 109:uCOS-III\Source/os_mutex.c ****     OS_PendListInit(&p_mutex->PendList);                    /* Initialize the waiting list         
 860              		.loc 1 109 0
 861 0036 0823     		movs	r3, #8
 862 0038 84F82430 		strb	r3, [r4, #36]
 110:uCOS-III\Source/os_mutex.c **** 
 863              		.loc 1 110 0
 864 003c E018     		adds	r0, r4, r3
 865              	.LVL87:
 866 003e FFF7FEFF 		bl	OS_PendListInit
 867              	.LVL88:
 113:uCOS-III\Source/os_mutex.c **** #endif
 868              		.loc 1 113 0
 869 0042 2046     		mov	r0, r4
 870 0044 FFF7FEFF 		bl	OS_MutexDbgListAdd
 871              	.LVL89:
 115:uCOS-III\Source/os_mutex.c **** 
 872              		.loc 1 115 0
 873 0048 064A     		ldr	r2, .L78+8
 874 004a 1388     		ldrh	r3, [r2]
 875 004c 0133     		adds	r3, r3, #1
 876 004e 1380     		strh	r3, [r2]	@ movhi
 117:uCOS-III\Source/os_mutex.c ****    *p_err = OS_ERR_NONE;
 877              		.loc 1 117 0
 878 0050 3846     		mov	r0, r7
 879 0052 FFF7FEFF 		bl	CPU_SR_Restore
 880              	.LVL90:
 118:uCOS-III\Source/os_mutex.c **** }
 881              		.loc 1 118 0
 882 0056 3580     		strh	r5, [r6]	@ movhi
 883 0058 F8BD     		pop	{r3, r4, r5, r6, r7, pc}
 884              	.LVL91:
ARM GAS  C:\Users\jorti\AppData\Local\Temp\cc35e6eL.s 			page 31


 885              	.L79:
 886 005a 00BF     		.align	2
 887              	.L78:
 888 005c 00000000 		.word	OSIntNestingCtr
 889 0060 4D555458 		.word	1481921869
 890 0064 00000000 		.word	OSMutexQty
 891              		.cfi_endproc
 892              	.LFE1:
 893              		.size	OSMutexCreate, .-OSMutexCreate
 894              		.section	.text.OS_MutexDbgListRemove,"ax",%progbits
 895              		.align	2
 896              		.global	OS_MutexDbgListRemove
 897              		.thumb
 898              		.thumb_func
 899              		.type	OS_MutexDbgListRemove, %function
 900              	OS_MutexDbgListRemove:
 901              	.LFB8:
 806:uCOS-III\Source/os_mutex.c **** }
 807:uCOS-III\Source/os_mutex.c **** 
 808:uCOS-III\Source/os_mutex.c **** 
 809:uCOS-III\Source/os_mutex.c **** 
 810:uCOS-III\Source/os_mutex.c **** void  OS_MutexDbgListRemove (OS_MUTEX  *p_mutex)
 811:uCOS-III\Source/os_mutex.c **** {
 902              		.loc 1 811 0
 903              		.cfi_startproc
 904              		@ args = 0, pretend = 0, frame = 0
 905              		@ frame_needed = 0, uses_anonymous_args = 0
 906              		@ link register save eliminated.
 907              	.LVL92:
 812:uCOS-III\Source/os_mutex.c ****     OS_MUTEX  *p_mutex_next;
 813:uCOS-III\Source/os_mutex.c ****     OS_MUTEX  *p_mutex_prev;
 814:uCOS-III\Source/os_mutex.c **** 
 815:uCOS-III\Source/os_mutex.c **** 
 816:uCOS-III\Source/os_mutex.c ****     p_mutex_prev = p_mutex->DbgPrevPtr;
 908              		.loc 1 816 0
 909 0000 4269     		ldr	r2, [r0, #20]
 910              	.LVL93:
 817:uCOS-III\Source/os_mutex.c ****     p_mutex_next = p_mutex->DbgNextPtr;
 911              		.loc 1 817 0
 912 0002 8369     		ldr	r3, [r0, #24]
 913              	.LVL94:
 818:uCOS-III\Source/os_mutex.c **** 
 819:uCOS-III\Source/os_mutex.c ****     if (p_mutex_prev == (OS_MUTEX *)0) {
 914              		.loc 1 819 0
 915 0004 3AB9     		cbnz	r2, .L81
 820:uCOS-III\Source/os_mutex.c ****         OSMutexDbgListPtr = p_mutex_next;
 916              		.loc 1 820 0
 917 0006 094A     		ldr	r2, .L85
 918              	.LVL95:
 919 0008 1360     		str	r3, [r2]
 821:uCOS-III\Source/os_mutex.c ****         if (p_mutex_next != (OS_MUTEX *)0) {
 920              		.loc 1 821 0
 921 000a 0BB1     		cbz	r3, .L82
 822:uCOS-III\Source/os_mutex.c ****             p_mutex_next->DbgPrevPtr = (OS_MUTEX *)0;
 922              		.loc 1 822 0
 923 000c 0022     		movs	r2, #0
 924 000e 5A61     		str	r2, [r3, #20]
ARM GAS  C:\Users\jorti\AppData\Local\Temp\cc35e6eL.s 			page 32


 925              	.LVL96:
 926              	.L82:
 823:uCOS-III\Source/os_mutex.c ****         }
 824:uCOS-III\Source/os_mutex.c ****         p_mutex->DbgNextPtr = (OS_MUTEX *)0;
 927              		.loc 1 824 0
 928 0010 0023     		movs	r3, #0
 929              	.LVL97:
 930 0012 8361     		str	r3, [r0, #24]
 931 0014 7047     		bx	lr
 932              	.LVL98:
 933              	.L81:
 825:uCOS-III\Source/os_mutex.c **** 
 826:uCOS-III\Source/os_mutex.c ****     } else if (p_mutex_next == (OS_MUTEX *)0) {
 934              		.loc 1 826 0
 935 0016 13B9     		cbnz	r3, .L84
 827:uCOS-III\Source/os_mutex.c ****         p_mutex_prev->DbgNextPtr = (OS_MUTEX *)0;
 936              		.loc 1 827 0
 937 0018 9361     		str	r3, [r2, #24]
 828:uCOS-III\Source/os_mutex.c ****         p_mutex->DbgPrevPtr      = (OS_MUTEX *)0;
 938              		.loc 1 828 0
 939 001a 4361     		str	r3, [r0, #20]
 940 001c 7047     		bx	lr
 941              	.L84:
 829:uCOS-III\Source/os_mutex.c **** 
 830:uCOS-III\Source/os_mutex.c ****     } else {
 831:uCOS-III\Source/os_mutex.c ****         p_mutex_prev->DbgNextPtr =  p_mutex_next;
 942              		.loc 1 831 0
 943 001e 9361     		str	r3, [r2, #24]
 832:uCOS-III\Source/os_mutex.c ****         p_mutex_next->DbgPrevPtr =  p_mutex_prev;
 944              		.loc 1 832 0
 945 0020 5A61     		str	r2, [r3, #20]
 833:uCOS-III\Source/os_mutex.c ****         p_mutex->DbgNextPtr      = (OS_MUTEX *)0;
 946              		.loc 1 833 0
 947 0022 0023     		movs	r3, #0
 948              	.LVL99:
 949 0024 8361     		str	r3, [r0, #24]
 834:uCOS-III\Source/os_mutex.c ****         p_mutex->DbgPrevPtr      = (OS_MUTEX *)0;
 950              		.loc 1 834 0
 951 0026 4361     		str	r3, [r0, #20]
 952 0028 7047     		bx	lr
 953              	.L86:
 954 002a 00BF     		.align	2
 955              	.L85:
 956 002c 00000000 		.word	OSMutexDbgListPtr
 957              		.cfi_endproc
 958              	.LFE8:
 959              		.size	OS_MutexDbgListRemove, .-OS_MutexDbgListRemove
 960              		.section	.text.OSMutexDel,"ax",%progbits
 961              		.align	2
 962              		.global	OSMutexDel
 963              		.thumb
 964              		.thumb_func
 965              		.type	OSMutexDel, %function
 966              	OSMutexDel:
 967              	.LFB2:
 163:uCOS-III\Source/os_mutex.c ****     OS_OBJ_QTY     cnt;
 968              		.loc 1 163 0
ARM GAS  C:\Users\jorti\AppData\Local\Temp\cc35e6eL.s 			page 33


 969              		.cfi_startproc
 970              		@ args = 0, pretend = 0, frame = 0
 971              		@ frame_needed = 0, uses_anonymous_args = 0
 972              	.LVL100:
 973 0000 2DE9F843 		push	{r3, r4, r5, r6, r7, r8, r9, lr}
 974              		.cfi_def_cfa_offset 32
 975              		.cfi_offset 3, -32
 976              		.cfi_offset 4, -28
 977              		.cfi_offset 5, -24
 978              		.cfi_offset 6, -20
 979              		.cfi_offset 7, -16
 980              		.cfi_offset 8, -12
 981              		.cfi_offset 9, -8
 982              		.cfi_offset 14, -4
 983              	.LVL101:
 183:uCOS-III\Source/os_mutex.c ****        *p_err = OS_ERR_DEL_ISR;
 984              		.loc 1 183 0
 985 0004 4A4B     		ldr	r3, .L108
 986 0006 1B78     		ldrb	r3, [r3]	@ zero_extendqisi2
 987 0008 2BB1     		cbz	r3, .L88
 184:uCOS-III\Source/os_mutex.c ****         return ((OS_OBJ_QTY)0);
 988              		.loc 1 184 0
 989 000a 43F2C923 		movw	r3, #13001
 990 000e 1380     		strh	r3, [r2]	@ movhi
 185:uCOS-III\Source/os_mutex.c ****     }
 991              		.loc 1 185 0
 992 0010 0020     		movs	r0, #0
 993              	.LVL102:
 994 0012 BDE8F883 		pop	{r3, r4, r5, r6, r7, r8, r9, pc}
 995              	.LVL103:
 996              	.L88:
 190:uCOS-III\Source/os_mutex.c ****        *p_err = OS_ERR_OBJ_PTR_NULL;
 997              		.loc 1 190 0
 998 0016 20B9     		cbnz	r0, .L90
 191:uCOS-III\Source/os_mutex.c ****         return ((OS_OBJ_QTY)0);
 999              		.loc 1 191 0
 1000 0018 45F6C353 		movw	r3, #24003
 1001 001c 1380     		strh	r3, [r2]	@ movhi
 192:uCOS-III\Source/os_mutex.c ****     }
 1002              		.loc 1 192 0
 1003 001e BDE8F883 		pop	{r3, r4, r5, r6, r7, r8, r9, pc}
 1004              	.L90:
 194:uCOS-III\Source/os_mutex.c ****         case OS_OPT_DEL_NO_PEND:
 1005              		.loc 1 194 0
 1006 0022 0129     		cmp	r1, #1
 1007 0024 05D9     		bls	.L105
 200:uCOS-III\Source/os_mutex.c ****              return ((OS_OBJ_QTY)0);
 1008              		.loc 1 200 0
 1009 0026 45F62563 		movw	r3, #24101
 1010 002a 1380     		strh	r3, [r2]	@ movhi
 201:uCOS-III\Source/os_mutex.c ****     }
 1011              		.loc 1 201 0
 1012 002c 0020     		movs	r0, #0
 1013              	.LVL104:
 1014 002e BDE8F883 		pop	{r3, r4, r5, r6, r7, r8, r9, pc}
 1015              	.LVL105:
 1016              	.L105:
ARM GAS  C:\Users\jorti\AppData\Local\Temp\cc35e6eL.s 			page 34


 1017 0032 1746     		mov	r7, r2
 1018 0034 0D46     		mov	r5, r1
 1019 0036 0446     		mov	r4, r0
 212:uCOS-III\Source/os_mutex.c ****     p_pend_list = &p_mutex->PendList;
 1020              		.loc 1 212 0
 1021 0038 FFF7FEFF 		bl	CPU_SR_Save
 1022              	.LVL106:
 1023 003c 8046     		mov	r8, r0
 1024              	.LVL107:
 214:uCOS-III\Source/os_mutex.c ****     nbr_tasks   = cnt;
 1025              		.loc 1 214 0
 1026 003e 268A     		ldrh	r6, [r4, #16]
 1027              	.LVL108:
 216:uCOS-III\Source/os_mutex.c ****         case OS_OPT_DEL_NO_PEND:                                /* Delete mutex only if no task wai
 1028              		.loc 1 216 0
 1029 0040 15B1     		cbz	r5, .L94
 1030 0042 012D     		cmp	r5, #1
 1031 0044 1BD0     		beq	.L95
 1032 0046 6BE0     		b	.L106
 1033              	.L94:
 218:uCOS-III\Source/os_mutex.c **** #if OS_CFG_DBG_EN > 0u
 1034              		.loc 1 218 0
 1035 0048 8EB9     		cbnz	r6, .L96
 220:uCOS-III\Source/os_mutex.c **** #endif
 1036              		.loc 1 220 0
 1037 004a 2046     		mov	r0, r4
 1038              	.LVL109:
 1039 004c FFF7FEFF 		bl	OS_MutexDbgListRemove
 1040              	.LVL110:
 222:uCOS-III\Source/os_mutex.c ****                  OS_MutexClr(p_mutex);
 1041              		.loc 1 222 0
 1042 0050 384A     		ldr	r2, .L108+4
 1043 0052 1388     		ldrh	r3, [r2]
 1044 0054 013B     		subs	r3, r3, #1
 1045 0056 1380     		strh	r3, [r2]	@ movhi
 223:uCOS-III\Source/os_mutex.c ****                  OS_CRITICAL_EXIT();
 1046              		.loc 1 223 0
 1047 0058 2046     		mov	r0, r4
 1048 005a FFF7FEFF 		bl	OS_MutexClr
 1049              	.LVL111:
 224:uCOS-III\Source/os_mutex.c ****                 *p_err = OS_ERR_NONE;
 1050              		.loc 1 224 0
 1051 005e 4046     		mov	r0, r8
 1052 0060 FFF7FEFF 		bl	CPU_SR_Restore
 1053              	.LVL112:
 225:uCOS-III\Source/os_mutex.c ****              } else {
 1054              		.loc 1 225 0
 1055 0064 0023     		movs	r3, #0
 1056 0066 3B80     		strh	r3, [r7]	@ movhi
 289:uCOS-III\Source/os_mutex.c **** }
 1057              		.loc 1 289 0
 1058 0068 3046     		mov	r0, r6
 1059 006a BDE8F883 		pop	{r3, r4, r5, r6, r7, r8, r9, pc}
 1060              	.LVL113:
 1061              	.L96:
 227:uCOS-III\Source/os_mutex.c ****                 *p_err = OS_ERR_TASK_WAITING;
 1062              		.loc 1 227 0
ARM GAS  C:\Users\jorti\AppData\Local\Temp\cc35e6eL.s 			page 35


 1063 006e FFF7FEFF 		bl	CPU_SR_Restore
 1064              	.LVL114:
 228:uCOS-III\Source/os_mutex.c ****              }
 1065              		.loc 1 228 0
 1066 0072 47F25F13 		movw	r3, #29023
 1067 0076 3B80     		strh	r3, [r7]	@ movhi
 289:uCOS-III\Source/os_mutex.c **** }
 1068              		.loc 1 289 0
 1069 0078 3046     		mov	r0, r6
 1070 007a BDE8F883 		pop	{r3, r4, r5, r6, r7, r8, r9, pc}
 1071              	.LVL115:
 1072              	.L95:
 233:uCOS-III\Source/os_mutex.c ****              if ((p_tcb_owner       != (OS_TCB *)0) &&
 1073              		.loc 1 233 0
 1074 007e 256A     		ldr	r5, [r4, #32]
 1075              	.LVL116:
 234:uCOS-III\Source/os_mutex.c ****                  (p_tcb_owner->Prio !=  p_mutex->OwnerOriginalPrio)) {
 1076              		.loc 1 234 0
 1077 0080 5DB3     		cbz	r5, .L97
 235:uCOS-III\Source/os_mutex.c ****                  switch (p_tcb_owner->TaskState) {                         /* yes                  
 1078              		.loc 1 235 0 discriminator 1
 1079 0082 95F83730 		ldrb	r3, [r5, #55]	@ zero_extendqisi2
 1080 0086 94F82410 		ldrb	r1, [r4, #36]	@ zero_extendqisi2
 234:uCOS-III\Source/os_mutex.c ****                  (p_tcb_owner->Prio !=  p_mutex->OwnerOriginalPrio)) {
 1081              		.loc 1 234 0 discriminator 1
 1082 008a 8B42     		cmp	r3, r1
 1083 008c 25D0     		beq	.L97
 236:uCOS-III\Source/os_mutex.c ****                      case OS_TASK_STATE_RDY:
 1084              		.loc 1 236 0
 1085 008e 95F83630 		ldrb	r3, [r5, #54]	@ zero_extendqisi2
 1086 0092 072B     		cmp	r3, #7
 1087 0094 19D8     		bhi	.L98
 1088 0096 DFE803F0 		tbb	[pc, r3]
 1089              	.L100:
 1090 009a 04       		.byte	(.L99-.L100)/2
 1091 009b 11       		.byte	(.L101-.L100)/2
 1092 009c 14       		.byte	(.L102-.L100)/2
 1093 009d 14       		.byte	(.L102-.L100)/2
 1094 009e 11       		.byte	(.L101-.L100)/2
 1095 009f 11       		.byte	(.L101-.L100)/2
 1096 00a0 14       		.byte	(.L102-.L100)/2
 1097 00a1 14       		.byte	(.L102-.L100)/2
 1098              		.p2align 1
 1099              	.L99:
 238:uCOS-III\Source/os_mutex.c ****                           p_tcb_owner->Prio = p_mutex->OwnerOriginalPrio;  /* Lower owner's prio ba
 1100              		.loc 1 238 0
 1101 00a2 2846     		mov	r0, r5
 1102              	.LVL117:
 1103 00a4 FFF7FEFF 		bl	OS_RdyListRemove
 1104              	.LVL118:
 239:uCOS-III\Source/os_mutex.c ****                           OS_PrioInsert(p_tcb_owner->Prio);
 1105              		.loc 1 239 0
 1106 00a8 94F82400 		ldrb	r0, [r4, #36]	@ zero_extendqisi2
 1107 00ac 85F83700 		strb	r0, [r5, #55]
 240:uCOS-III\Source/os_mutex.c ****                           OS_RdyListInsertTail(p_tcb_owner);               /* Insert owner in ready
 1108              		.loc 1 240 0
 1109 00b0 FFF7FEFF 		bl	OS_PrioInsert
ARM GAS  C:\Users\jorti\AppData\Local\Temp\cc35e6eL.s 			page 36


 1110              	.LVL119:
 241:uCOS-III\Source/os_mutex.c ****                           break;
 1111              		.loc 1 241 0
 1112 00b4 2846     		mov	r0, r5
 1113 00b6 FFF7FEFF 		bl	OS_RdyListInsertTail
 1114              	.LVL120:
 242:uCOS-III\Source/os_mutex.c **** 
 1115              		.loc 1 242 0
 1116 00ba 0EE0     		b	.L97
 1117              	.LVL121:
 1118              	.L101:
 247:uCOS-III\Source/os_mutex.c ****                           break;
 1119              		.loc 1 247 0
 1120 00bc 85F83710 		strb	r1, [r5, #55]
 248:uCOS-III\Source/os_mutex.c **** 
 1121              		.loc 1 248 0
 1122 00c0 0BE0     		b	.L97
 1123              	.L102:
 254:uCOS-III\Source/os_mutex.c ****                                                 p_mutex->OwnerOriginalPrio);
 1124              		.loc 1 254 0
 1125 00c2 2846     		mov	r0, r5
 1126              	.LVL122:
 1127 00c4 FFF7FEFF 		bl	OS_PendListChangePrio
 1128              	.LVL123:
 256:uCOS-III\Source/os_mutex.c **** 
 1129              		.loc 1 256 0
 1130 00c8 07E0     		b	.L97
 1131              	.LVL124:
 1132              	.L98:
 259:uCOS-III\Source/os_mutex.c ****                          *p_err = OS_ERR_STATE_INVALID;
 1133              		.loc 1 259 0
 1134 00ca FFF7FEFF 		bl	CPU_SR_Restore
 1135              	.LVL125:
 260:uCOS-III\Source/os_mutex.c ****                           return ((OS_OBJ_QTY)0);
 1136              		.loc 1 260 0
 1137 00ce 46F62D63 		movw	r3, #28205
 1138 00d2 3B80     		strh	r3, [r7]	@ movhi
 261:uCOS-III\Source/os_mutex.c ****                  }
 1139              		.loc 1 261 0
 1140 00d4 0020     		movs	r0, #0
 1141 00d6 BDE8F883 		pop	{r3, r4, r5, r6, r7, r8, r9, pc}
 1142              	.LVL126:
 1143              	.L97:
 265:uCOS-III\Source/os_mutex.c ****              while (cnt > 0u) {                                            /* Remove all tasks from
 1144              		.loc 1 265 0
 1145 00da FFF7FEFF 		bl	CPU_TS_TmrRd
 1146              	.LVL127:
 1147 00de 8146     		mov	r9, r0
 1148              	.LVL128:
 214:uCOS-III\Source/os_mutex.c ****     nbr_tasks   = cnt;
 1149              		.loc 1 214 0
 1150 00e0 3546     		mov	r5, r6
 1151              	.LVL129:
 266:uCOS-III\Source/os_mutex.c ****                  p_pend_data = p_pend_list->HeadPtr;
 1152              		.loc 1 266 0
 1153 00e2 07E0     		b	.L103
 1154              	.LVL130:
ARM GAS  C:\Users\jorti\AppData\Local\Temp\cc35e6eL.s 			page 37


 1155              	.L104:
 267:uCOS-III\Source/os_mutex.c ****                  p_tcb       = p_pend_data->TCBPtr;
 1156              		.loc 1 267 0
 1157 00e4 A368     		ldr	r3, [r4, #8]
 1158              	.LVL131:
 269:uCOS-III\Source/os_mutex.c ****                                p_tcb,
 1159              		.loc 1 269 0
 1160 00e6 4A46     		mov	r2, r9
 1161 00e8 9968     		ldr	r1, [r3, #8]
 1162 00ea 2046     		mov	r0, r4
 1163 00ec FFF7FEFF 		bl	OS_PendObjDel
 1164              	.LVL132:
 272:uCOS-III\Source/os_mutex.c ****              }
 1165              		.loc 1 272 0
 1166 00f0 013D     		subs	r5, r5, #1
 1167              	.LVL133:
 1168 00f2 ADB2     		uxth	r5, r5
 1169              	.LVL134:
 1170              	.L103:
 266:uCOS-III\Source/os_mutex.c ****                  p_pend_data = p_pend_list->HeadPtr;
 1171              		.loc 1 266 0
 1172 00f4 002D     		cmp	r5, #0
 1173 00f6 F5D1     		bne	.L104
 275:uCOS-III\Source/os_mutex.c **** #endif
 1174              		.loc 1 275 0
 1175 00f8 2046     		mov	r0, r4
 1176 00fa FFF7FEFF 		bl	OS_MutexDbgListRemove
 1177              	.LVL135:
 277:uCOS-III\Source/os_mutex.c ****              OS_MutexClr(p_mutex);
 1178              		.loc 1 277 0
 1179 00fe 0D4A     		ldr	r2, .L108+4
 1180 0100 1388     		ldrh	r3, [r2]
 1181 0102 013B     		subs	r3, r3, #1
 1182 0104 1380     		strh	r3, [r2]	@ movhi
 278:uCOS-III\Source/os_mutex.c ****              OS_CRITICAL_EXIT_NO_SCHED();
 1183              		.loc 1 278 0
 1184 0106 2046     		mov	r0, r4
 1185 0108 FFF7FEFF 		bl	OS_MutexClr
 1186              	.LVL136:
 279:uCOS-III\Source/os_mutex.c ****              OSSched();                                                    /* Find highest priority
 1187              		.loc 1 279 0
 1188 010c 4046     		mov	r0, r8
 1189 010e FFF7FEFF 		bl	CPU_SR_Restore
 1190              	.LVL137:
 280:uCOS-III\Source/os_mutex.c ****             *p_err = OS_ERR_NONE;
 1191              		.loc 1 280 0
 1192 0112 FFF7FEFF 		bl	OSSched
 1193              	.LVL138:
 281:uCOS-III\Source/os_mutex.c ****              break;
 1194              		.loc 1 281 0
 1195 0116 0023     		movs	r3, #0
 1196 0118 3B80     		strh	r3, [r7]	@ movhi
 289:uCOS-III\Source/os_mutex.c **** }
 1197              		.loc 1 289 0
 1198 011a 3046     		mov	r0, r6
 282:uCOS-III\Source/os_mutex.c **** 
 1199              		.loc 1 282 0
ARM GAS  C:\Users\jorti\AppData\Local\Temp\cc35e6eL.s 			page 38


 1200 011c BDE8F883 		pop	{r3, r4, r5, r6, r7, r8, r9, pc}
 1201              	.LVL139:
 1202              	.L106:
 285:uCOS-III\Source/os_mutex.c ****             *p_err = OS_ERR_OPT_INVALID;
 1203              		.loc 1 285 0
 1204 0120 FFF7FEFF 		bl	CPU_SR_Restore
 1205              	.LVL140:
 286:uCOS-III\Source/os_mutex.c ****              break;
 1206              		.loc 1 286 0
 1207 0124 45F62563 		movw	r3, #24101
 1208 0128 3B80     		strh	r3, [r7]	@ movhi
 289:uCOS-III\Source/os_mutex.c **** }
 1209              		.loc 1 289 0
 1210 012a 3046     		mov	r0, r6
 290:uCOS-III\Source/os_mutex.c **** #endif
 1211              		.loc 1 290 0
 1212 012c BDE8F883 		pop	{r3, r4, r5, r6, r7, r8, r9, pc}
 1213              	.LVL141:
 1214              	.L109:
 1215              		.align	2
 1216              	.L108:
 1217 0130 00000000 		.word	OSIntNestingCtr
 1218 0134 00000000 		.word	OSMutexQty
 1219              		.cfi_endproc
 1220              	.LFE2:
 1221              		.size	OSMutexDel, .-OSMutexDel
 1222              		.section	.text.OS_MutexInit,"ax",%progbits
 1223              		.align	2
 1224              		.global	OS_MutexInit
 1225              		.thumb
 1226              		.thumb_func
 1227              		.type	OS_MutexInit, %function
 1228              	OS_MutexInit:
 1229              	.LFB9:
 835:uCOS-III\Source/os_mutex.c ****     }
 836:uCOS-III\Source/os_mutex.c **** }
 837:uCOS-III\Source/os_mutex.c **** #endif
 838:uCOS-III\Source/os_mutex.c **** 
 839:uCOS-III\Source/os_mutex.c **** /*$PAGE*/
 840:uCOS-III\Source/os_mutex.c **** /*
 841:uCOS-III\Source/os_mutex.c **** ***************************************************************************************************
 842:uCOS-III\Source/os_mutex.c **** *                                                MUTEX INITIALIZATION
 843:uCOS-III\Source/os_mutex.c **** *
 844:uCOS-III\Source/os_mutex.c **** * Description: This function is called by OSInit() to initialize the mutex management.
 845:uCOS-III\Source/os_mutex.c **** *
 846:uCOS-III\Source/os_mutex.c **** 
 847:uCOS-III\Source/os_mutex.c **** * Argument(s): p_err        is a pointer to a variable that will contain an error code returned by 
 848:uCOS-III\Source/os_mutex.c **** *
 849:uCOS-III\Source/os_mutex.c **** *                                OS_ERR_NONE     the call was successful
 850:uCOS-III\Source/os_mutex.c **** *
 851:uCOS-III\Source/os_mutex.c **** * Returns    : none
 852:uCOS-III\Source/os_mutex.c **** *
 853:uCOS-III\Source/os_mutex.c **** * Note(s)    : 1) This function is INTERNAL to uC/OS-III and your application MUST NOT call it.
 854:uCOS-III\Source/os_mutex.c **** ***************************************************************************************************
 855:uCOS-III\Source/os_mutex.c **** */
 856:uCOS-III\Source/os_mutex.c **** 
 857:uCOS-III\Source/os_mutex.c **** void  OS_MutexInit (OS_ERR  *p_err)
ARM GAS  C:\Users\jorti\AppData\Local\Temp\cc35e6eL.s 			page 39


 858:uCOS-III\Source/os_mutex.c **** {
 1230              		.loc 1 858 0
 1231              		.cfi_startproc
 1232              		@ args = 0, pretend = 0, frame = 0
 1233              		@ frame_needed = 0, uses_anonymous_args = 0
 1234              		@ link register save eliminated.
 1235              	.LVL142:
 859:uCOS-III\Source/os_mutex.c **** #ifdef OS_SAFETY_CRITICAL
 860:uCOS-III\Source/os_mutex.c ****     if (p_err == (OS_ERR *)0) {
 861:uCOS-III\Source/os_mutex.c ****         OS_SAFETY_CRITICAL_EXCEPTION();
 862:uCOS-III\Source/os_mutex.c ****         return;
 863:uCOS-III\Source/os_mutex.c ****     }
 864:uCOS-III\Source/os_mutex.c **** #endif
 865:uCOS-III\Source/os_mutex.c **** 
 866:uCOS-III\Source/os_mutex.c **** #if OS_CFG_DBG_EN > 0u
 867:uCOS-III\Source/os_mutex.c ****     OSMutexDbgListPtr = (OS_MUTEX *)0;
 1236              		.loc 1 867 0
 1237 0000 0023     		movs	r3, #0
 1238 0002 034A     		ldr	r2, .L111
 1239 0004 1360     		str	r3, [r2]
 868:uCOS-III\Source/os_mutex.c **** #endif
 869:uCOS-III\Source/os_mutex.c **** 
 870:uCOS-III\Source/os_mutex.c ****     OSMutexQty        = (OS_OBJ_QTY)0;
 1240              		.loc 1 870 0
 1241 0006 034A     		ldr	r2, .L111+4
 1242 0008 1380     		strh	r3, [r2]	@ movhi
 871:uCOS-III\Source/os_mutex.c ****    *p_err             =  OS_ERR_NONE;
 1243              		.loc 1 871 0
 1244 000a 0380     		strh	r3, [r0]	@ movhi
 1245 000c 7047     		bx	lr
 1246              	.L112:
 1247 000e 00BF     		.align	2
 1248              	.L111:
 1249 0010 00000000 		.word	OSMutexDbgListPtr
 1250 0014 00000000 		.word	OSMutexQty
 1251              		.cfi_endproc
 1252              	.LFE9:
 1253              		.size	OS_MutexInit, .-OS_MutexInit
 1254              		.section	.rodata.str1.4,"aMS",%progbits,1
 1255              		.align	2
 1256              	.LC0:
 1257 0000 3F4D5554 		.ascii	"?MUTEX\000"
 1257      455800
 1258 0007 00       		.space	1
 1259              	.LC1:
 1260 0008 2000     		.ascii	" \000"
 1261              		.text
 1262              	.Letext0:
 1263              		.file 2 ".\\uC-CPU\\ARM-Cortex-M3\\GNU/cpu.h"
 1264              		.file 3 ".\\uC-CPU/cpu_core.h"
 1265              		.file 4 ".\\uCOS-III\\Source/os_type.h"
 1266              		.file 5 ".\\uCOS-III\\Source/os.h"