ARM GAS  C:\Users\jorti\AppData\Local\Temp\ccretXNg.s 			page 1


   1              		.syntax unified
   2              		.cpu cortex-m3
   3              		.fpu softvfp
   4              		.eabi_attribute 20, 1
   5              		.eabi_attribute 21, 1
   6              		.eabi_attribute 23, 3
   7              		.eabi_attribute 24, 1
   8              		.eabi_attribute 25, 1
   9              		.eabi_attribute 26, 1
  10              		.eabi_attribute 30, 1
  11              		.eabi_attribute 34, 1
  12              		.eabi_attribute 18, 4
  13              		.thumb
  14              		.syntax unified
  15              		.file	"os_pend_multi.c"
  16              		.text
  17              	.Ltext0:
  18              		.cfi_sections	.debug_frame
  19              		.section	.text.OS_PendMultiGetRdy,"ax",%progbits
  20              		.align	2
  21              		.global	OS_PendMultiGetRdy
  22              		.thumb
  23              		.thumb_func
  24              		.type	OS_PendMultiGetRdy, %function
  25              	OS_PendMultiGetRdy:
  26              	.LFB2:
  27              		.file 1 "uCOS-III\\Source\\os_pend_multi.c"
   1:uCOS-III\Source/os_pend_multi.c **** /*
   2:uCOS-III\Source/os_pend_multi.c **** ***************************************************************************************************
   3:uCOS-III\Source/os_pend_multi.c **** *                                                      uC/OS-III
   4:uCOS-III\Source/os_pend_multi.c **** *                                                 The Real-Time Kernel
   5:uCOS-III\Source/os_pend_multi.c **** *
   6:uCOS-III\Source/os_pend_multi.c **** *                                  (c) Copyright 2009-2012; Micrium, Inc.; Weston, FL
   7:uCOS-III\Source/os_pend_multi.c **** *                           All rights reserved.  Protected by international copyright laws.
   8:uCOS-III\Source/os_pend_multi.c **** *
   9:uCOS-III\Source/os_pend_multi.c **** *                                               PEND ON MULTIPLE OBJECTS
  10:uCOS-III\Source/os_pend_multi.c **** *
  11:uCOS-III\Source/os_pend_multi.c **** * File    : OS_PEND_MULTI.C
  12:uCOS-III\Source/os_pend_multi.c **** * By      : JJL
  13:uCOS-III\Source/os_pend_multi.c **** * Version : V3.03.01
  14:uCOS-III\Source/os_pend_multi.c **** *
  15:uCOS-III\Source/os_pend_multi.c **** * LICENSING TERMS:
  16:uCOS-III\Source/os_pend_multi.c **** * ---------------
  17:uCOS-III\Source/os_pend_multi.c **** *           uC/OS-III is provided in source form for FREE short-term evaluation, for educational us
  18:uCOS-III\Source/os_pend_multi.c **** *           for peaceful research.  If you plan or intend to use uC/OS-III in a commercial applicat
  19:uCOS-III\Source/os_pend_multi.c **** *           product then, you need to contact Micrium to properly license uC/OS-III for its use in 
  20:uCOS-III\Source/os_pend_multi.c **** *           application/product.   We provide ALL the source code for your convenience and to help 
  21:uCOS-III\Source/os_pend_multi.c **** *           experience uC/OS-III.  The fact that the source is provided does NOT mean that you can 
  22:uCOS-III\Source/os_pend_multi.c **** *           it commercially without paying a licensing fee.
  23:uCOS-III\Source/os_pend_multi.c **** *
  24:uCOS-III\Source/os_pend_multi.c **** *           Knowledge of the source code may NOT be used to develop a similar product.
  25:uCOS-III\Source/os_pend_multi.c **** *
  26:uCOS-III\Source/os_pend_multi.c **** *           Please help us continue to provide the embedded community with the finest software avai
  27:uCOS-III\Source/os_pend_multi.c **** *           Your honesty is greatly appreciated.
  28:uCOS-III\Source/os_pend_multi.c **** *
  29:uCOS-III\Source/os_pend_multi.c **** *           You can contact us at www.micrium.com, or by phone at +1 (954) 217-2036.
  30:uCOS-III\Source/os_pend_multi.c **** ***************************************************************************************************
ARM GAS  C:\Users\jorti\AppData\Local\Temp\ccretXNg.s 			page 2


  31:uCOS-III\Source/os_pend_multi.c **** */
  32:uCOS-III\Source/os_pend_multi.c **** 
  33:uCOS-III\Source/os_pend_multi.c **** #define  MICRIUM_SOURCE
  34:uCOS-III\Source/os_pend_multi.c **** #include <os.h>
  35:uCOS-III\Source/os_pend_multi.c **** 
  36:uCOS-III\Source/os_pend_multi.c **** #ifdef VSC_INCLUDE_SOURCE_FILE_NAMES
  37:uCOS-III\Source/os_pend_multi.c **** const  CPU_CHAR  *os_pend_multi__c = "$Id: $";
  38:uCOS-III\Source/os_pend_multi.c **** #endif
  39:uCOS-III\Source/os_pend_multi.c **** 
  40:uCOS-III\Source/os_pend_multi.c **** 
  41:uCOS-III\Source/os_pend_multi.c **** #if (((OS_CFG_Q_EN > 0u) || (OS_CFG_SEM_EN > 0u)) && (OS_CFG_PEND_MULTI_EN > 0u))
  42:uCOS-III\Source/os_pend_multi.c **** /*
  43:uCOS-III\Source/os_pend_multi.c **** ***************************************************************************************************
  44:uCOS-III\Source/os_pend_multi.c **** *                                               PEND ON MULTIPLE OBJECTS
  45:uCOS-III\Source/os_pend_multi.c **** *
  46:uCOS-III\Source/os_pend_multi.c **** * Description: This function pends on multiple objects.  The objects pended on MUST be either semap
  47:uCOS-III\Source/os_pend_multi.c **** *              queues.  If multiple objects are ready at the start of the pend call, then all avail
  48:uCOS-III\Source/os_pend_multi.c **** *              are ready will be indicated to the caller.  If the task must pend on the multiple ev
  49:uCOS-III\Source/os_pend_multi.c **** *              as one of the object is either posted, aborted or deleted, the task will be readied.
  50:uCOS-III\Source/os_pend_multi.c **** *
  51:uCOS-III\Source/os_pend_multi.c **** *              This function only allows you to pend on semaphores and/or message queues.
  52:uCOS-III\Source/os_pend_multi.c **** *
  53:uCOS-III\Source/os_pend_multi.c **** * Arguments  : p_pend_data_tbl   is a pointer to an array of type OS_PEND_DATA which contains a lis
  54:uCOS-III\Source/os_pend_multi.c **** *                                objects we will be waiting on.  The caller must declare an array o
  55:uCOS-III\Source/os_pend_multi.c **** *                                and initialize the .PendObjPtr (see below) with a pointer to the o
  56:uCOS-III\Source/os_pend_multi.c **** *                                message queue) to pend on.
  57:uCOS-III\Source/os_pend_multi.c **** *
  58:uCOS-III\Source/os_pend_multi.c **** *                                    OS_PEND_DATA  MyPendArray[?];
  59:uCOS-III\Source/os_pend_multi.c **** *
  60:uCOS-III\Source/os_pend_multi.c **** *                                The OS_PEND_DATA field are as follows:
  61:uCOS-III\Source/os_pend_multi.c **** *
  62:uCOS-III\Source/os_pend_multi.c **** *                                    OS_PEND_DATA  *PrevPtr;      Used to link OS_PEND_DATA objects
  63:uCOS-III\Source/os_pend_multi.c **** *                                    OS_PEND_DATA  *NextPtr;      Used to link OS_PEND_DATA objects
  64:uCOS-III\Source/os_pend_multi.c **** *                                    OS_TCB        *TCBPtr;       Pointer to the TCB that is pendin
  65:uCOS-III\Source/os_pend_multi.c **** *                                    OS_PEND_OBJ   *PendObjPtr;   USER supplied field which is a po
  66:uCOS-III\Source/os_pend_multi.c **** *                                                                 semaphore or message queue you wa
  67:uCOS-III\Source/os_pend_multi.c **** *                                                                 you call OSPendMulti() you MUST f
  68:uCOS-III\Source/os_pend_multi.c **** *                                                                 each of the objects you want to p
  69:uCOS-III\Source/os_pend_multi.c **** *                                    OS_PEND_OBJ   *RdyObjPtr;    OSPendMulti() will return the obj
  70:uCOS-III\Source/os_pend_multi.c **** *                                                                 aborted or deleted in this field.
  71:uCOS-III\Source/os_pend_multi.c **** *                                    void          *RdyMsgPtr;    OSPendMulti() will fill in this f
  72:uCOS-III\Source/os_pend_multi.c **** *                                                                 posted was a message queue.  This
  73:uCOS-III\Source/os_pend_multi.c **** *                                                                 message posted.
  74:uCOS-III\Source/os_pend_multi.c **** *                                    OS_MSG_SIZE    RdyMsgSize;   OSPendMulti() will fill in this f
  75:uCOS-III\Source/os_pend_multi.c **** *                                                                 posted was a message queue.  This
  76:uCOS-III\Source/os_pend_multi.c **** *                                                                 size of the message posted.
  77:uCOS-III\Source/os_pend_multi.c **** *                                    CPU_TS         RdyTS;        OSPendMulti() will fill in this f
  78:uCOS-III\Source/os_pend_multi.c **** *                                                                 was a message queue.  This corres
  79:uCOS-III\Source/os_pend_multi.c **** *                                                                 stamp when the message was posted
  80:uCOS-III\Source/os_pend_multi.c **** *                                                                 object is a semaphore and the obj
  81:uCOS-III\Source/os_pend_multi.c **** *                                                                 the this field will be set to (CP
  82:uCOS-III\Source/os_pend_multi.c **** *                                                                 not possible to know when the sem
  83:uCOS-III\Source/os_pend_multi.c **** *
  84:uCOS-III\Source/os_pend_multi.c **** *              tbl_size      is the size (in number of elements) of the OS_PEND_DATA array passed t
  85:uCOS-III\Source/os_pend_multi.c **** *                            other words, if the called needs to pend on 4 separate objects (semaph
  86:uCOS-III\Source/os_pend_multi.c **** *                            then you would pass 4 to this call.
  87:uCOS-III\Source/os_pend_multi.c **** *
ARM GAS  C:\Users\jorti\AppData\Local\Temp\ccretXNg.s 			page 3


  88:uCOS-III\Source/os_pend_multi.c **** *              timeout       is an optional timeout period (in clock ticks).  If non-zero, your tas
  89:uCOS-III\Source/os_pend_multi.c **** *                            the objects up to the amount of time specified by this argument. If yo
  90:uCOS-III\Source/os_pend_multi.c **** *                            your task will wait forever for the specified objects or, until an obj
  91:uCOS-III\Source/os_pend_multi.c **** *                            aborted or deleted.
  92:uCOS-III\Source/os_pend_multi.c **** *
  93:uCOS-III\Source/os_pend_multi.c **** *              opt           determines whether the user wants to block if none of the objects are 
  94:uCOS-III\Source/os_pend_multi.c **** *
  95:uCOS-III\Source/os_pend_multi.c **** *                                OS_OPT_PEND_BLOCKING
  96:uCOS-III\Source/os_pend_multi.c **** *                                OS_OPT_PEND_NON_BLOCKING
  97:uCOS-III\Source/os_pend_multi.c **** *
  98:uCOS-III\Source/os_pend_multi.c **** *              p_err         is a pointer to where an error message will be deposited.  Possible er
  99:uCOS-III\Source/os_pend_multi.c **** *
 100:uCOS-III\Source/os_pend_multi.c **** *                                OS_ERR_NONE              The call was successful and your task own
 101:uCOS-III\Source/os_pend_multi.c **** *                                                         the objects you are waiting for occurred.
 102:uCOS-III\Source/os_pend_multi.c **** *                                                         fields to know which objects have been po
 103:uCOS-III\Source/os_pend_multi.c **** *                                OS_ERR_OBJ_TYPE          If any of the .PendPtr is NOT a semaphore
 104:uCOS-III\Source/os_pend_multi.c **** *                                OS_ERR_OPT_INVALID       If you specified an invalid option for 'o
 105:uCOS-III\Source/os_pend_multi.c **** *                                OS_ERR_PEND_ABORT        The wait on the events was aborted; check
 106:uCOS-III\Source/os_pend_multi.c **** *                                                         for which objects were aborted.
 107:uCOS-III\Source/os_pend_multi.c **** *                                OS_ERR_PEND_DEL          The wait on the events was aborted; check
 108:uCOS-III\Source/os_pend_multi.c **** *                                                         for which objects were aborted.
 109:uCOS-III\Source/os_pend_multi.c **** *                                OS_ERR_PEND_ISR          If you called this function from an ISR
 110:uCOS-III\Source/os_pend_multi.c **** *                                OS_ERR_PEND_LOCKED       If you called this function when the sche
 111:uCOS-III\Source/os_pend_multi.c **** *                                OS_ERR_PEND_WOULD_BLOCK  If the caller didn't want to block and no
 112:uCOS-III\Source/os_pend_multi.c **** *                                OS_ERR_STATUS_INVALID    Invalid pend status
 113:uCOS-III\Source/os_pend_multi.c **** *                                OS_ERR_PTR_INVALID       If you passes a NULL pointer of 'p_pend_d
 114:uCOS-III\Source/os_pend_multi.c **** *                                OS_ERR_TIMEOUT           The objects were not posted within the sp
 115:uCOS-III\Source/os_pend_multi.c **** *
 116:uCOS-III\Source/os_pend_multi.c **** * Returns    : >  0          the number of objects returned as ready, aborted or deleted
 117:uCOS-III\Source/os_pend_multi.c **** *              == 0          if no events are returned as ready because of timeout or upon error.
 118:uCOS-III\Source/os_pend_multi.c **** ***************************************************************************************************
 119:uCOS-III\Source/os_pend_multi.c **** */
 120:uCOS-III\Source/os_pend_multi.c **** /*$PAGE*/
 121:uCOS-III\Source/os_pend_multi.c **** OS_OBJ_QTY  OSPendMulti (OS_PEND_DATA  *p_pend_data_tbl,
 122:uCOS-III\Source/os_pend_multi.c ****                          OS_OBJ_QTY     tbl_size,
 123:uCOS-III\Source/os_pend_multi.c ****                          OS_TICK        timeout,
 124:uCOS-III\Source/os_pend_multi.c ****                          OS_OPT         opt,
 125:uCOS-III\Source/os_pend_multi.c ****                          OS_ERR        *p_err)
 126:uCOS-III\Source/os_pend_multi.c **** {
 127:uCOS-III\Source/os_pend_multi.c ****     CPU_BOOLEAN   valid;
 128:uCOS-III\Source/os_pend_multi.c ****     OS_OBJ_QTY    nbr_obj_rdy;
 129:uCOS-III\Source/os_pend_multi.c ****     CPU_SR_ALLOC();
 130:uCOS-III\Source/os_pend_multi.c **** 
 131:uCOS-III\Source/os_pend_multi.c **** 
 132:uCOS-III\Source/os_pend_multi.c **** 
 133:uCOS-III\Source/os_pend_multi.c **** #ifdef OS_SAFETY_CRITICAL
 134:uCOS-III\Source/os_pend_multi.c ****     if (p_err == (OS_ERR *)0) {
 135:uCOS-III\Source/os_pend_multi.c ****         OS_SAFETY_CRITICAL_EXCEPTION();
 136:uCOS-III\Source/os_pend_multi.c ****         return ((OS_OBJ_QTY)0);
 137:uCOS-III\Source/os_pend_multi.c ****     }
 138:uCOS-III\Source/os_pend_multi.c **** #endif
 139:uCOS-III\Source/os_pend_multi.c **** 
 140:uCOS-III\Source/os_pend_multi.c **** #if OS_CFG_CALLED_FROM_ISR_CHK_EN > 0u
 141:uCOS-III\Source/os_pend_multi.c ****     if (OSIntNestingCtr > (OS_NESTING_CTR)0) {              /* Can't pend from an ISR              
 142:uCOS-III\Source/os_pend_multi.c ****        *p_err = OS_ERR_PEND_ISR;
 143:uCOS-III\Source/os_pend_multi.c ****         return ((OS_OBJ_QTY)0);
 144:uCOS-III\Source/os_pend_multi.c ****     }
ARM GAS  C:\Users\jorti\AppData\Local\Temp\ccretXNg.s 			page 4


 145:uCOS-III\Source/os_pend_multi.c **** #endif
 146:uCOS-III\Source/os_pend_multi.c **** 
 147:uCOS-III\Source/os_pend_multi.c **** #if OS_CFG_ARG_CHK_EN > 0u
 148:uCOS-III\Source/os_pend_multi.c ****     if (p_pend_data_tbl == (OS_PEND_DATA *)0) {             /* Validate 'p_pend_data_tbl'          
 149:uCOS-III\Source/os_pend_multi.c ****        *p_err = OS_ERR_PTR_INVALID;
 150:uCOS-III\Source/os_pend_multi.c ****         return ((OS_OBJ_QTY)0);
 151:uCOS-III\Source/os_pend_multi.c ****     }
 152:uCOS-III\Source/os_pend_multi.c ****     if (tbl_size == (OS_OBJ_QTY)0) {                        /* Array size must be > 0              
 153:uCOS-III\Source/os_pend_multi.c ****        *p_err = OS_ERR_PTR_INVALID;
 154:uCOS-III\Source/os_pend_multi.c ****         return ((OS_OBJ_QTY)0);
 155:uCOS-III\Source/os_pend_multi.c ****     }
 156:uCOS-III\Source/os_pend_multi.c ****     switch (opt) {
 157:uCOS-III\Source/os_pend_multi.c ****         case OS_OPT_PEND_BLOCKING:
 158:uCOS-III\Source/os_pend_multi.c ****         case OS_OPT_PEND_NON_BLOCKING:
 159:uCOS-III\Source/os_pend_multi.c ****              break;
 160:uCOS-III\Source/os_pend_multi.c **** 
 161:uCOS-III\Source/os_pend_multi.c ****         default:
 162:uCOS-III\Source/os_pend_multi.c ****             *p_err = OS_ERR_OPT_INVALID;
 163:uCOS-III\Source/os_pend_multi.c ****              return ((OS_OBJ_QTY)0);
 164:uCOS-III\Source/os_pend_multi.c ****     }
 165:uCOS-III\Source/os_pend_multi.c **** #endif
 166:uCOS-III\Source/os_pend_multi.c **** 
 167:uCOS-III\Source/os_pend_multi.c ****     valid = OS_PendMultiValidate(p_pend_data_tbl,           /* -------- Validate objects to be OS_S
 168:uCOS-III\Source/os_pend_multi.c ****                                  tbl_size);
 169:uCOS-III\Source/os_pend_multi.c ****     if (valid == DEF_FALSE) {
 170:uCOS-III\Source/os_pend_multi.c ****        *p_err = OS_ERR_OBJ_TYPE;                            /* Invalid, not OS_SEM or OS_Q         
 171:uCOS-III\Source/os_pend_multi.c ****         return ((OS_OBJ_QTY)0);
 172:uCOS-III\Source/os_pend_multi.c ****     }
 173:uCOS-III\Source/os_pend_multi.c **** 
 174:uCOS-III\Source/os_pend_multi.c **** /*$PAGE*/
 175:uCOS-III\Source/os_pend_multi.c ****     CPU_CRITICAL_ENTER();
 176:uCOS-III\Source/os_pend_multi.c ****     nbr_obj_rdy = OS_PendMultiGetRdy(p_pend_data_tbl,       /* --------- SEE IF OBJECT(s) HAVE BEEN
 177:uCOS-III\Source/os_pend_multi.c ****                                      tbl_size);
 178:uCOS-III\Source/os_pend_multi.c ****     if (nbr_obj_rdy > (OS_OBJ_QTY)0) {
 179:uCOS-III\Source/os_pend_multi.c ****         CPU_CRITICAL_EXIT();
 180:uCOS-III\Source/os_pend_multi.c ****        *p_err = OS_ERR_NONE;
 181:uCOS-III\Source/os_pend_multi.c ****         return ((OS_OBJ_QTY)nbr_obj_rdy);
 182:uCOS-III\Source/os_pend_multi.c ****     }
 183:uCOS-III\Source/os_pend_multi.c **** 
 184:uCOS-III\Source/os_pend_multi.c ****     if ((opt & OS_OPT_PEND_NON_BLOCKING) != (OS_OPT)0) {    /* Caller wants to block if not availab
 185:uCOS-III\Source/os_pend_multi.c ****         CPU_CRITICAL_EXIT();
 186:uCOS-III\Source/os_pend_multi.c ****        *p_err = OS_ERR_PEND_WOULD_BLOCK;                    /* No                                  
 187:uCOS-III\Source/os_pend_multi.c ****         return ((OS_OBJ_QTY)0);
 188:uCOS-III\Source/os_pend_multi.c ****     } else {
 189:uCOS-III\Source/os_pend_multi.c ****         if (OSSchedLockNestingCtr > (OS_NESTING_CTR)0) {    /* Can't pend when the scheduler is loc
 190:uCOS-III\Source/os_pend_multi.c ****             CPU_CRITICAL_EXIT();
 191:uCOS-III\Source/os_pend_multi.c ****            *p_err = OS_ERR_SCHED_LOCKED;
 192:uCOS-III\Source/os_pend_multi.c ****             return ((OS_OBJ_QTY)0);
 193:uCOS-III\Source/os_pend_multi.c ****         }
 194:uCOS-III\Source/os_pend_multi.c ****     }
 195:uCOS-III\Source/os_pend_multi.c ****                                                             /* Lock the scheduler/re-enable interru
 196:uCOS-III\Source/os_pend_multi.c ****     OS_CRITICAL_ENTER_CPU_EXIT();
 197:uCOS-III\Source/os_pend_multi.c ****                                                             /* ------ NO OBJECT READY, PEND ON MULT
 198:uCOS-III\Source/os_pend_multi.c ****     OS_PendMultiWait(p_pend_data_tbl,                       /* Suspend task until object posted or 
 199:uCOS-III\Source/os_pend_multi.c ****                      tbl_size,
 200:uCOS-III\Source/os_pend_multi.c ****                      timeout);
 201:uCOS-III\Source/os_pend_multi.c **** 
ARM GAS  C:\Users\jorti\AppData\Local\Temp\ccretXNg.s 			page 5


 202:uCOS-III\Source/os_pend_multi.c ****     OS_CRITICAL_EXIT_NO_SCHED();
 203:uCOS-III\Source/os_pend_multi.c **** 
 204:uCOS-III\Source/os_pend_multi.c ****     OSSched();                                              /* Find next highest priority task read
 205:uCOS-III\Source/os_pend_multi.c **** 
 206:uCOS-III\Source/os_pend_multi.c ****     CPU_CRITICAL_ENTER();
 207:uCOS-III\Source/os_pend_multi.c ****     switch (OSTCBCurPtr->PendStatus) {
 208:uCOS-III\Source/os_pend_multi.c ****         case OS_STATUS_PEND_OK:                             /* We got one of the objects posted to 
 209:uCOS-III\Source/os_pend_multi.c ****             *p_err = OS_ERR_NONE;
 210:uCOS-III\Source/os_pend_multi.c ****              break;
 211:uCOS-III\Source/os_pend_multi.c **** 
 212:uCOS-III\Source/os_pend_multi.c ****         case OS_STATUS_PEND_ABORT:                          /* Indicate that the multi-pend was abo
 213:uCOS-III\Source/os_pend_multi.c ****             *p_err = OS_ERR_PEND_ABORT;
 214:uCOS-III\Source/os_pend_multi.c ****              break;
 215:uCOS-III\Source/os_pend_multi.c **** 
 216:uCOS-III\Source/os_pend_multi.c ****         case OS_STATUS_PEND_TIMEOUT:                        /* Indicate that we didn't get semaphor
 217:uCOS-III\Source/os_pend_multi.c ****             *p_err = OS_ERR_TIMEOUT;
 218:uCOS-III\Source/os_pend_multi.c ****              break;
 219:uCOS-III\Source/os_pend_multi.c **** 
 220:uCOS-III\Source/os_pend_multi.c ****         case OS_STATUS_PEND_DEL:                            /* Indicate that an object pended on ha
 221:uCOS-III\Source/os_pend_multi.c ****             *p_err = OS_ERR_OBJ_DEL;
 222:uCOS-III\Source/os_pend_multi.c ****             break;
 223:uCOS-III\Source/os_pend_multi.c **** 
 224:uCOS-III\Source/os_pend_multi.c ****         default:
 225:uCOS-III\Source/os_pend_multi.c ****             *p_err = OS_ERR_STATUS_INVALID;
 226:uCOS-III\Source/os_pend_multi.c ****              break;
 227:uCOS-III\Source/os_pend_multi.c ****     }
 228:uCOS-III\Source/os_pend_multi.c **** 
 229:uCOS-III\Source/os_pend_multi.c ****     OSTCBCurPtr->PendStatus = OS_STATUS_PEND_OK;
 230:uCOS-III\Source/os_pend_multi.c ****     CPU_CRITICAL_EXIT();
 231:uCOS-III\Source/os_pend_multi.c **** 
 232:uCOS-III\Source/os_pend_multi.c ****     return ((OS_OBJ_QTY)1);
 233:uCOS-III\Source/os_pend_multi.c **** }
 234:uCOS-III\Source/os_pend_multi.c **** 
 235:uCOS-III\Source/os_pend_multi.c **** /*$PAGE*/
 236:uCOS-III\Source/os_pend_multi.c **** /*
 237:uCOS-III\Source/os_pend_multi.c **** ***************************************************************************************************
 238:uCOS-III\Source/os_pend_multi.c **** *                                              GET A LIST OF OBJECTS READY
 239:uCOS-III\Source/os_pend_multi.c **** *
 240:uCOS-III\Source/os_pend_multi.c **** * Description: This function is called by OSPendMulti() to obtain the list of object that are ready
 241:uCOS-III\Source/os_pend_multi.c **** *
 242:uCOS-III\Source/os_pend_multi.c **** * Arguments  : p_pend_data_tbl   is a pointer to an array of OS_PEND_DATA
 243:uCOS-III\Source/os_pend_multi.c **** *              ---------------
 244:uCOS-III\Source/os_pend_multi.c **** *
 245:uCOS-III\Source/os_pend_multi.c **** *              tbl_size          is the size of the array
 246:uCOS-III\Source/os_pend_multi.c **** *
 247:uCOS-III\Source/os_pend_multi.c **** * Returns    :  > 0              the number of objects ready
 248:uCOS-III\Source/os_pend_multi.c **** *              == 0              if no object ready
 249:uCOS-III\Source/os_pend_multi.c **** *
 250:uCOS-III\Source/os_pend_multi.c **** * Note       : This function is INTERNAL to uC/OS-III and your application should not call it.
 251:uCOS-III\Source/os_pend_multi.c **** ***************************************************************************************************
 252:uCOS-III\Source/os_pend_multi.c **** */
 253:uCOS-III\Source/os_pend_multi.c **** 
 254:uCOS-III\Source/os_pend_multi.c **** OS_OBJ_QTY  OS_PendMultiGetRdy (OS_PEND_DATA  *p_pend_data_tbl,
 255:uCOS-III\Source/os_pend_multi.c ****                                 OS_OBJ_QTY     tbl_size)
 256:uCOS-III\Source/os_pend_multi.c **** {
  28              		.loc 1 256 0
  29              		.cfi_startproc
ARM GAS  C:\Users\jorti\AppData\Local\Temp\ccretXNg.s 			page 6


  30              		@ args = 0, pretend = 0, frame = 8
  31              		@ frame_needed = 0, uses_anonymous_args = 0
  32              	.LVL0:
  33 0000 F0B5     		push	{r4, r5, r6, r7, lr}
  34              		.cfi_def_cfa_offset 20
  35              		.cfi_offset 4, -20
  36              		.cfi_offset 5, -16
  37              		.cfi_offset 6, -12
  38              		.cfi_offset 7, -8
  39              		.cfi_offset 14, -4
  40 0002 83B0     		sub	sp, sp, #12
  41              		.cfi_def_cfa_offset 32
  42 0004 0446     		mov	r4, r0
  43 0006 0E46     		mov	r6, r1
  44              	.LVL1:
 257:uCOS-III\Source/os_pend_multi.c ****     OS_OBJ_QTY   i;
 258:uCOS-III\Source/os_pend_multi.c ****     OS_OBJ_QTY   nbr_obj_rdy;
 259:uCOS-III\Source/os_pend_multi.c **** #if OS_CFG_Q_EN > 0u
 260:uCOS-III\Source/os_pend_multi.c ****     OS_ERR       err;
 261:uCOS-III\Source/os_pend_multi.c ****     OS_MSG_SIZE  msg_size;
 262:uCOS-III\Source/os_pend_multi.c ****     OS_Q        *p_q;
 263:uCOS-III\Source/os_pend_multi.c ****     void        *p_void;
 264:uCOS-III\Source/os_pend_multi.c ****     CPU_TS       ts;
 265:uCOS-III\Source/os_pend_multi.c **** #endif
 266:uCOS-III\Source/os_pend_multi.c **** #if OS_CFG_SEM_EN  > 0u
 267:uCOS-III\Source/os_pend_multi.c ****     OS_SEM      *p_sem;
 268:uCOS-III\Source/os_pend_multi.c **** #endif
 269:uCOS-III\Source/os_pend_multi.c **** 
 270:uCOS-III\Source/os_pend_multi.c **** 
 271:uCOS-III\Source/os_pend_multi.c **** 
 272:uCOS-III\Source/os_pend_multi.c ****     nbr_obj_rdy = (OS_OBJ_QTY)0;
  45              		.loc 1 272 0
  46 0008 0027     		movs	r7, #0
 273:uCOS-III\Source/os_pend_multi.c ****     for (i = 0u; i < tbl_size; i++) {
  47              		.loc 1 273 0
  48 000a 3D46     		mov	r5, r7
  49 000c 32E0     		b	.L2
  50              	.LVL2:
  51              	.L5:
 274:uCOS-III\Source/os_pend_multi.c ****         p_pend_data_tbl->RdyObjPtr  = (OS_PEND_OBJ  *)0;         /* Clear all fields               
  52              		.loc 1 274 0
  53 000e 0023     		movs	r3, #0
  54 0010 2361     		str	r3, [r4, #16]
 275:uCOS-III\Source/os_pend_multi.c ****         p_pend_data_tbl->RdyMsgPtr  = (void         *)0;
  55              		.loc 1 275 0
  56 0012 6361     		str	r3, [r4, #20]
 276:uCOS-III\Source/os_pend_multi.c ****         p_pend_data_tbl->RdyMsgSize = (OS_MSG_SIZE   )0;
  57              		.loc 1 276 0
  58 0014 2383     		strh	r3, [r4, #24]	@ movhi
 277:uCOS-III\Source/os_pend_multi.c ****         p_pend_data_tbl->RdyTS      = (CPU_TS        )0;
  59              		.loc 1 277 0
  60 0016 E361     		str	r3, [r4, #28]
 278:uCOS-III\Source/os_pend_multi.c ****         p_pend_data_tbl->NextPtr    = (OS_PEND_DATA *)0;
  61              		.loc 1 278 0
  62 0018 6360     		str	r3, [r4, #4]
 279:uCOS-III\Source/os_pend_multi.c ****         p_pend_data_tbl->PrevPtr    = (OS_PEND_DATA *)0;
  63              		.loc 1 279 0
ARM GAS  C:\Users\jorti\AppData\Local\Temp\ccretXNg.s 			page 7


  64 001a 2360     		str	r3, [r4]
 280:uCOS-III\Source/os_pend_multi.c ****         p_pend_data_tbl->TCBPtr     = (OS_TCB       *)0;
  65              		.loc 1 280 0
  66 001c A360     		str	r3, [r4, #8]
 281:uCOS-III\Source/os_pend_multi.c **** #if OS_CFG_Q_EN > 0u
 282:uCOS-III\Source/os_pend_multi.c ****         p_q = (OS_Q *)((void *)p_pend_data_tbl->PendObjPtr);     /* Assume we are pointing to a mes
  67              		.loc 1 282 0
  68 001e E068     		ldr	r0, [r4, #12]
  69              	.LVL3:
 283:uCOS-III\Source/os_pend_multi.c ****         if (p_q->Type == OS_OBJ_TYPE_Q) {                        /* Is it a message queue?         
  70              		.loc 1 283 0
  71 0020 0268     		ldr	r2, [r0]
  72 0022 174B     		ldr	r3, .L7
  73 0024 9A42     		cmp	r2, r3
  74 0026 13D1     		bne	.L3
 284:uCOS-III\Source/os_pend_multi.c ****             p_void = OS_MsgQGet(&p_q->MsgQ,                      /* Yes, Any message waiting in the
  75              		.loc 1 284 0
  76 0028 0DF10603 		add	r3, sp, #6
  77 002c 6A46     		mov	r2, sp
  78 002e 01A9     		add	r1, sp, #4
  79 0030 2030     		adds	r0, r0, #32
  80              	.LVL4:
  81 0032 FFF7FEFF 		bl	OS_MsgQGet
  82              	.LVL5:
 285:uCOS-III\Source/os_pend_multi.c ****                                 &msg_size,
 286:uCOS-III\Source/os_pend_multi.c ****                                 &ts,
 287:uCOS-III\Source/os_pend_multi.c ****                                 &err);
 288:uCOS-III\Source/os_pend_multi.c ****             if (err == OS_ERR_NONE) {
  83              		.loc 1 288 0
  84 0036 BDF80630 		ldrh	r3, [sp, #6]
  85 003a 4BB9     		cbnz	r3, .L3
 289:uCOS-III\Source/os_pend_multi.c ****                 p_pend_data_tbl->RdyObjPtr  = p_pend_data_tbl->PendObjPtr;
  86              		.loc 1 289 0
  87 003c E368     		ldr	r3, [r4, #12]
  88 003e 2361     		str	r3, [r4, #16]
 290:uCOS-III\Source/os_pend_multi.c ****                 p_pend_data_tbl->RdyMsgPtr  = p_void;            /*      Yes, save the message rece
  89              		.loc 1 290 0
  90 0040 6061     		str	r0, [r4, #20]
 291:uCOS-III\Source/os_pend_multi.c ****                 p_pend_data_tbl->RdyMsgSize = msg_size;
  91              		.loc 1 291 0
  92 0042 BDF80430 		ldrh	r3, [sp, #4]
  93 0046 2383     		strh	r3, [r4, #24]	@ movhi
 292:uCOS-III\Source/os_pend_multi.c ****                 p_pend_data_tbl->RdyTS      = ts;
  94              		.loc 1 292 0
  95 0048 009B     		ldr	r3, [sp]
  96 004a E361     		str	r3, [r4, #28]
 293:uCOS-III\Source/os_pend_multi.c ****                 nbr_obj_rdy++;
  97              		.loc 1 293 0
  98 004c 0137     		adds	r7, r7, #1
  99              	.LVL6:
 100 004e BFB2     		uxth	r7, r7
 101              	.LVL7:
 102              	.L3:
 294:uCOS-III\Source/os_pend_multi.c ****             }
 295:uCOS-III\Source/os_pend_multi.c ****         }
 296:uCOS-III\Source/os_pend_multi.c **** #endif
 297:uCOS-III\Source/os_pend_multi.c **** 
ARM GAS  C:\Users\jorti\AppData\Local\Temp\ccretXNg.s 			page 8


 298:uCOS-III\Source/os_pend_multi.c **** #if OS_CFG_SEM_EN > 0u
 299:uCOS-III\Source/os_pend_multi.c ****         p_sem = (OS_SEM *)((void *)p_pend_data_tbl->PendObjPtr); /* Assume we are pointing to a sem
 103              		.loc 1 299 0
 104 0050 E368     		ldr	r3, [r4, #12]
 105              	.LVL8:
 300:uCOS-III\Source/os_pend_multi.c ****         if (p_sem->Type == OS_OBJ_TYPE_SEM) {                    /* Is it a semaphore?             
 106              		.loc 1 300 0
 107 0052 1968     		ldr	r1, [r3]
 108 0054 0B4A     		ldr	r2, .L7+4
 109 0056 9142     		cmp	r1, r2
 110 0058 09D1     		bne	.L4
 301:uCOS-III\Source/os_pend_multi.c ****             if (p_sem->Ctr > 0u) {                               /* Yes, Semaphore has been signale
 111              		.loc 1 301 0
 112 005a 1A6A     		ldr	r2, [r3, #32]
 113 005c 3AB1     		cbz	r2, .L4
 302:uCOS-III\Source/os_pend_multi.c ****                 p_sem->Ctr--;                                    /*      Yes, caller may proceed   
 114              		.loc 1 302 0
 115 005e 013A     		subs	r2, r2, #1
 116 0060 1A62     		str	r2, [r3, #32]
 303:uCOS-III\Source/os_pend_multi.c ****                 p_pend_data_tbl->RdyObjPtr  = p_pend_data_tbl->PendObjPtr;
 117              		.loc 1 303 0
 118 0062 E268     		ldr	r2, [r4, #12]
 119 0064 2261     		str	r2, [r4, #16]
 304:uCOS-III\Source/os_pend_multi.c ****                 p_pend_data_tbl->RdyTS      = p_sem->TS;
 120              		.loc 1 304 0
 121 0066 5B6A     		ldr	r3, [r3, #36]
 122              	.LVL9:
 123 0068 E361     		str	r3, [r4, #28]
 305:uCOS-III\Source/os_pend_multi.c ****                 nbr_obj_rdy++;
 124              		.loc 1 305 0
 125 006a 0137     		adds	r7, r7, #1
 126              	.LVL10:
 127 006c BFB2     		uxth	r7, r7
 128              	.LVL11:
 129              	.L4:
 306:uCOS-III\Source/os_pend_multi.c ****             }
 307:uCOS-III\Source/os_pend_multi.c ****         }
 308:uCOS-III\Source/os_pend_multi.c **** #endif
 309:uCOS-III\Source/os_pend_multi.c **** 
 310:uCOS-III\Source/os_pend_multi.c ****         p_pend_data_tbl++;
 130              		.loc 1 310 0 discriminator 2
 131 006e 2034     		adds	r4, r4, #32
 132              	.LVL12:
 273:uCOS-III\Source/os_pend_multi.c ****         p_pend_data_tbl->RdyObjPtr  = (OS_PEND_OBJ  *)0;         /* Clear all fields               
 133              		.loc 1 273 0 discriminator 2
 134 0070 0135     		adds	r5, r5, #1
 135              	.LVL13:
 136 0072 ADB2     		uxth	r5, r5
 137              	.LVL14:
 138              	.L2:
 273:uCOS-III\Source/os_pend_multi.c ****         p_pend_data_tbl->RdyObjPtr  = (OS_PEND_OBJ  *)0;         /* Clear all fields               
 139              		.loc 1 273 0 is_stmt 0 discriminator 1
 140 0074 B542     		cmp	r5, r6
 141 0076 CAD3     		bcc	.L5
 311:uCOS-III\Source/os_pend_multi.c ****     }
 312:uCOS-III\Source/os_pend_multi.c ****     return (nbr_obj_rdy);
 313:uCOS-III\Source/os_pend_multi.c **** }
ARM GAS  C:\Users\jorti\AppData\Local\Temp\ccretXNg.s 			page 9


 142              		.loc 1 313 0 is_stmt 1
 143 0078 3846     		mov	r0, r7
 144 007a 03B0     		add	sp, sp, #12
 145              		.cfi_def_cfa_offset 20
 146              		@ sp needed
 147 007c F0BD     		pop	{r4, r5, r6, r7, pc}
 148              	.LVL15:
 149              	.L8:
 150 007e 00BF     		.align	2
 151              	.L7:
 152 0080 51554555 		.word	1430607185
 153 0084 53454D41 		.word	1095583059
 154              		.cfi_endproc
 155              	.LFE2:
 156              		.size	OS_PendMultiGetRdy, .-OS_PendMultiGetRdy
 157              		.section	.text.OS_PendMultiValidate,"ax",%progbits
 158              		.align	2
 159              		.global	OS_PendMultiValidate
 160              		.thumb
 161              		.thumb_func
 162              		.type	OS_PendMultiValidate, %function
 163              	OS_PendMultiValidate:
 164              	.LFB3:
 314:uCOS-III\Source/os_pend_multi.c **** 
 315:uCOS-III\Source/os_pend_multi.c **** /*$PAGE*/
 316:uCOS-III\Source/os_pend_multi.c **** /*
 317:uCOS-III\Source/os_pend_multi.c **** ***************************************************************************************************
 318:uCOS-III\Source/os_pend_multi.c **** *                                 VERIFY THAT OBJECTS PENDED ON ARE EITHER SEMAPHORES or QUEUES
 319:uCOS-III\Source/os_pend_multi.c **** *
 320:uCOS-III\Source/os_pend_multi.c **** * Description: This function is called by OSPendMulti() to verify that we are multi-pending on eith
 321:uCOS-III\Source/os_pend_multi.c **** *              message queues.
 322:uCOS-III\Source/os_pend_multi.c **** *
 323:uCOS-III\Source/os_pend_multi.c **** * Arguments  : p_pend_data_tbl    is a pointer to an array of OS_PEND_DATA
 324:uCOS-III\Source/os_pend_multi.c **** *              ---------------
 325:uCOS-III\Source/os_pend_multi.c **** *
 326:uCOS-III\Source/os_pend_multi.c **** *              tbl_size           is the size of the array
 327:uCOS-III\Source/os_pend_multi.c **** *
 328:uCOS-III\Source/os_pend_multi.c **** * Returns    : TRUE               if all objects pended on are either semaphores of queues
 329:uCOS-III\Source/os_pend_multi.c **** *              FALSE              if at least one object is not a semaphore or queue.
 330:uCOS-III\Source/os_pend_multi.c **** *
 331:uCOS-III\Source/os_pend_multi.c **** * Note       : This function is INTERNAL to uC/OS-III and your application should not call it.
 332:uCOS-III\Source/os_pend_multi.c **** ***************************************************************************************************
 333:uCOS-III\Source/os_pend_multi.c **** */
 334:uCOS-III\Source/os_pend_multi.c **** 
 335:uCOS-III\Source/os_pend_multi.c **** CPU_BOOLEAN  OS_PendMultiValidate (OS_PEND_DATA  *p_pend_data_tbl,
 336:uCOS-III\Source/os_pend_multi.c ****                                    OS_OBJ_QTY     tbl_size)
 337:uCOS-III\Source/os_pend_multi.c **** {
 165              		.loc 1 337 0
 166              		.cfi_startproc
 167              		@ args = 0, pretend = 0, frame = 0
 168              		@ frame_needed = 0, uses_anonymous_args = 0
 169              		@ link register save eliminated.
 170              	.LVL16:
 171 0000 30B4     		push	{r4, r5}
 172              		.cfi_def_cfa_offset 8
 173              		.cfi_offset 4, -8
 174              		.cfi_offset 5, -4
ARM GAS  C:\Users\jorti\AppData\Local\Temp\ccretXNg.s 			page 10


 175              	.LVL17:
 338:uCOS-III\Source/os_pend_multi.c ****     OS_OBJ_QTY  i;
 339:uCOS-III\Source/os_pend_multi.c ****     OS_OBJ_QTY  ctr;
 340:uCOS-III\Source/os_pend_multi.c **** #if OS_CFG_SEM_EN  > 0u
 341:uCOS-III\Source/os_pend_multi.c ****     OS_SEM      *p_sem;
 342:uCOS-III\Source/os_pend_multi.c **** #endif
 343:uCOS-III\Source/os_pend_multi.c **** #if OS_CFG_Q_EN > 0u
 344:uCOS-III\Source/os_pend_multi.c ****     OS_Q        *p_q;
 345:uCOS-III\Source/os_pend_multi.c **** #endif
 346:uCOS-III\Source/os_pend_multi.c **** 
 347:uCOS-III\Source/os_pend_multi.c **** 
 348:uCOS-III\Source/os_pend_multi.c ****     for (i = 0u; i < tbl_size; i++) {
 176              		.loc 1 348 0
 177 0002 0023     		movs	r3, #0
 178 0004 11E0     		b	.L10
 179              	.LVL18:
 180              	.L14:
 349:uCOS-III\Source/os_pend_multi.c ****         if (p_pend_data_tbl->PendObjPtr == (OS_PEND_OBJ *)0) {   /* All .PendObjPtr in the table MU
 181              		.loc 1 349 0
 182 0006 C268     		ldr	r2, [r0, #12]
 183 0008 9AB1     		cbz	r2, .L15
 184              	.LVL19:
 350:uCOS-III\Source/os_pend_multi.c ****             return (DEF_FALSE);
 351:uCOS-III\Source/os_pend_multi.c ****         }
 352:uCOS-III\Source/os_pend_multi.c **** 
 353:uCOS-III\Source/os_pend_multi.c ****         ctr = 0u;
 354:uCOS-III\Source/os_pend_multi.c **** #if OS_CFG_SEM_EN  > 0u
 355:uCOS-III\Source/os_pend_multi.c ****         p_sem = (OS_SEM *)((void *)p_pend_data_tbl->PendObjPtr); /* All objects to pend on must be 
 356:uCOS-III\Source/os_pend_multi.c ****         if (p_sem->Type == OS_OBJ_TYPE_SEM) {
 185              		.loc 1 356 0
 186 000a 1468     		ldr	r4, [r2]
 187 000c 0B4A     		ldr	r2, .L19
 188              	.LVL20:
 189 000e 9442     		cmp	r4, r2
 190 0010 01D0     		beq	.L16
 353:uCOS-III\Source/os_pend_multi.c **** #if OS_CFG_SEM_EN  > 0u
 191              		.loc 1 353 0
 192 0012 0022     		movs	r2, #0
 193 0014 00E0     		b	.L12
 194              	.L16:
 357:uCOS-III\Source/os_pend_multi.c ****             ctr++;
 195              		.loc 1 357 0
 196 0016 0122     		movs	r2, #1
 197              	.L12:
 198              	.LVL21:
 358:uCOS-III\Source/os_pend_multi.c ****         }
 359:uCOS-III\Source/os_pend_multi.c **** #endif
 360:uCOS-III\Source/os_pend_multi.c **** 
 361:uCOS-III\Source/os_pend_multi.c **** #if OS_CFG_Q_EN > 0u
 362:uCOS-III\Source/os_pend_multi.c ****         p_q = (OS_Q *)((void *)p_pend_data_tbl->PendObjPtr);     /* ... or of type OS_Q            
 363:uCOS-III\Source/os_pend_multi.c ****         if (p_q->Type == OS_OBJ_TYPE_Q) {
 199              		.loc 1 363 0
 200 0018 094D     		ldr	r5, .L19+4
 201 001a AC42     		cmp	r4, r5
 202 001c 01D1     		bne	.L13
 364:uCOS-III\Source/os_pend_multi.c ****             ctr++;
 203              		.loc 1 364 0
ARM GAS  C:\Users\jorti\AppData\Local\Temp\ccretXNg.s 			page 11


 204 001e 0132     		adds	r2, r2, #1
 205              	.LVL22:
 206 0020 92B2     		uxth	r2, r2
 207              	.LVL23:
 208              	.L13:
 365:uCOS-III\Source/os_pend_multi.c ****         }
 366:uCOS-III\Source/os_pend_multi.c **** #endif
 367:uCOS-III\Source/os_pend_multi.c **** 
 368:uCOS-III\Source/os_pend_multi.c ****         if (ctr == (OS_OBJ_QTY)0) {
 209              		.loc 1 368 0
 210 0022 42B1     		cbz	r2, .L17
 369:uCOS-III\Source/os_pend_multi.c ****             return (DEF_FALSE);                                  /* Found at least one invalid obje
 370:uCOS-III\Source/os_pend_multi.c ****         }
 371:uCOS-III\Source/os_pend_multi.c ****         p_pend_data_tbl++;
 211              		.loc 1 371 0 discriminator 2
 212 0024 2030     		adds	r0, r0, #32
 213              	.LVL24:
 348:uCOS-III\Source/os_pend_multi.c ****         if (p_pend_data_tbl->PendObjPtr == (OS_PEND_OBJ *)0) {   /* All .PendObjPtr in the table MU
 214              		.loc 1 348 0 discriminator 2
 215 0026 0133     		adds	r3, r3, #1
 216              	.LVL25:
 217 0028 9BB2     		uxth	r3, r3
 218              	.LVL26:
 219              	.L10:
 348:uCOS-III\Source/os_pend_multi.c ****         if (p_pend_data_tbl->PendObjPtr == (OS_PEND_OBJ *)0) {   /* All .PendObjPtr in the table MU
 220              		.loc 1 348 0 is_stmt 0 discriminator 1
 221 002a 8B42     		cmp	r3, r1
 222 002c EBD3     		bcc	.L14
 372:uCOS-III\Source/os_pend_multi.c ****     }
 373:uCOS-III\Source/os_pend_multi.c ****     return (DEF_TRUE);
 223              		.loc 1 373 0 is_stmt 1
 224 002e 0120     		movs	r0, #1
 225              	.LVL27:
 226 0030 02E0     		b	.L11
 227              	.LVL28:
 228              	.L15:
 350:uCOS-III\Source/os_pend_multi.c ****         }
 229              		.loc 1 350 0
 230 0032 0020     		movs	r0, #0
 231              	.LVL29:
 232 0034 00E0     		b	.L11
 233              	.LVL30:
 234              	.L17:
 369:uCOS-III\Source/os_pend_multi.c ****         }
 235              		.loc 1 369 0
 236 0036 0020     		movs	r0, #0
 237              	.LVL31:
 238              	.L11:
 374:uCOS-III\Source/os_pend_multi.c **** }
 239              		.loc 1 374 0
 240 0038 30BC     		pop	{r4, r5}
 241              		.cfi_restore 5
 242              		.cfi_restore 4
 243              		.cfi_def_cfa_offset 0
 244 003a 7047     		bx	lr
 245              	.L20:
 246              		.align	2
ARM GAS  C:\Users\jorti\AppData\Local\Temp\ccretXNg.s 			page 12


 247              	.L19:
 248 003c 53454D41 		.word	1095583059
 249 0040 51554555 		.word	1430607185
 250              		.cfi_endproc
 251              	.LFE3:
 252              		.size	OS_PendMultiValidate, .-OS_PendMultiValidate
 253              		.section	.text.OS_PendMultiWait,"ax",%progbits
 254              		.align	2
 255              		.global	OS_PendMultiWait
 256              		.thumb
 257              		.thumb_func
 258              		.type	OS_PendMultiWait, %function
 259              	OS_PendMultiWait:
 260              	.LFB4:
 375:uCOS-III\Source/os_pend_multi.c **** 
 376:uCOS-III\Source/os_pend_multi.c **** /*$PAGE*/
 377:uCOS-III\Source/os_pend_multi.c **** /*
 378:uCOS-III\Source/os_pend_multi.c **** ***************************************************************************************************
 379:uCOS-III\Source/os_pend_multi.c **** *                                 MAKE TASK WAIT FOR ANY OF MULTIPLE EVENTS TO OCCUR
 380:uCOS-III\Source/os_pend_multi.c **** *
 381:uCOS-III\Source/os_pend_multi.c **** * Description: This function is called by OSPendMulti() to suspend a task because any one of multip
 382:uCOS-III\Source/os_pend_multi.c **** *              not been posted to.
 383:uCOS-III\Source/os_pend_multi.c **** *
 384:uCOS-III\Source/os_pend_multi.c **** * Arguments  : p_pend_data_tbl    is a pointer to an array of OS_PEND_DATA
 385:uCOS-III\Source/os_pend_multi.c **** *              ---------------
 386:uCOS-III\Source/os_pend_multi.c **** *
 387:uCOS-III\Source/os_pend_multi.c **** *              tbl_size           is the size of the array
 388:uCOS-III\Source/os_pend_multi.c **** *
 389:uCOS-III\Source/os_pend_multi.c **** *              timeout            is the timeout to wait in case none of the objects become ready
 390:uCOS-III\Source/os_pend_multi.c **** *
 391:uCOS-III\Source/os_pend_multi.c **** * Returns    : none
 392:uCOS-III\Source/os_pend_multi.c **** *
 393:uCOS-III\Source/os_pend_multi.c **** * Note       : This function is INTERNAL to uC/OS-III and your application should not call it.
 394:uCOS-III\Source/os_pend_multi.c **** ***************************************************************************************************
 395:uCOS-III\Source/os_pend_multi.c **** */
 396:uCOS-III\Source/os_pend_multi.c **** 
 397:uCOS-III\Source/os_pend_multi.c **** void  OS_PendMultiWait (OS_PEND_DATA  *p_pend_data_tbl,
 398:uCOS-III\Source/os_pend_multi.c ****                         OS_OBJ_QTY     tbl_size,
 399:uCOS-III\Source/os_pend_multi.c ****                         OS_TICK        timeout)
 400:uCOS-III\Source/os_pend_multi.c **** {
 261              		.loc 1 400 0
 262              		.cfi_startproc
 263              		@ args = 0, pretend = 0, frame = 0
 264              		@ frame_needed = 0, uses_anonymous_args = 0
 265              	.LVL32:
 266 0000 70B5     		push	{r4, r5, r6, lr}
 267              		.cfi_def_cfa_offset 16
 268              		.cfi_offset 4, -16
 269              		.cfi_offset 5, -12
 270              		.cfi_offset 6, -8
 271              		.cfi_offset 14, -4
 272 0002 0546     		mov	r5, r0
 273 0004 0E46     		mov	r6, r1
 401:uCOS-III\Source/os_pend_multi.c ****     OS_OBJ_QTY      i;
 402:uCOS-III\Source/os_pend_multi.c ****     OS_PEND_LIST   *p_pend_list;
 403:uCOS-III\Source/os_pend_multi.c **** 
 404:uCOS-III\Source/os_pend_multi.c **** #if OS_CFG_Q_EN > 0u
ARM GAS  C:\Users\jorti\AppData\Local\Temp\ccretXNg.s 			page 13


 405:uCOS-III\Source/os_pend_multi.c ****     OS_Q           *p_q;
 406:uCOS-III\Source/os_pend_multi.c **** #endif
 407:uCOS-III\Source/os_pend_multi.c **** 
 408:uCOS-III\Source/os_pend_multi.c **** #if OS_CFG_SEM_EN > 0u
 409:uCOS-III\Source/os_pend_multi.c ****     OS_SEM         *p_sem;
 410:uCOS-III\Source/os_pend_multi.c **** #endif
 411:uCOS-III\Source/os_pend_multi.c **** 
 412:uCOS-III\Source/os_pend_multi.c **** 
 413:uCOS-III\Source/os_pend_multi.c **** 
 414:uCOS-III\Source/os_pend_multi.c ****     OSTCBCurPtr->PendOn             = OS_TASK_PEND_ON_MULTI;   /* Resource not available, wait unti
 274              		.loc 1 414 0
 275 0006 144B     		ldr	r3, .L27
 276 0008 1868     		ldr	r0, [r3]
 277              	.LVL33:
 278 000a 0323     		movs	r3, #3
 279 000c 80F83430 		strb	r3, [r0, #52]
 415:uCOS-III\Source/os_pend_multi.c ****     OSTCBCurPtr->PendStatus         = OS_STATUS_PEND_OK;
 280              		.loc 1 415 0
 281 0010 0024     		movs	r4, #0
 282 0012 80F83540 		strb	r4, [r0, #53]
 416:uCOS-III\Source/os_pend_multi.c ****     OSTCBCurPtr->PendDataTblEntries = tbl_size;
 283              		.loc 1 416 0
 284 0016 C187     		strh	r1, [r0, #62]	@ movhi
 417:uCOS-III\Source/os_pend_multi.c ****     OSTCBCurPtr->PendDataTblPtr     = p_pend_data_tbl;
 285              		.loc 1 417 0
 286 0018 0563     		str	r5, [r0, #48]
 418:uCOS-III\Source/os_pend_multi.c **** 
 419:uCOS-III\Source/os_pend_multi.c ****     OS_TaskBlock(OSTCBCurPtr,                                  /* Block the task waiting for object
 287              		.loc 1 419 0
 288 001a 1146     		mov	r1, r2
 289              	.LVL34:
 290 001c FFF7FEFF 		bl	OS_TaskBlock
 291              	.LVL35:
 420:uCOS-III\Source/os_pend_multi.c ****                  timeout);                                     /* ... but with a timeout if not    
 421:uCOS-III\Source/os_pend_multi.c **** 
 422:uCOS-III\Source/os_pend_multi.c ****     for (i = 0u; i < tbl_size; i++) {
 292              		.loc 1 422 0
 293 0020 17E0     		b	.L22
 294              	.LVL36:
 295              	.L25:
 423:uCOS-III\Source/os_pend_multi.c ****         p_pend_data_tbl->TCBPtr = OSTCBCurPtr;                 /* Every entry points back to the TC
 296              		.loc 1 423 0
 297 0022 0D4B     		ldr	r3, .L27
 298 0024 1B68     		ldr	r3, [r3]
 299 0026 AB60     		str	r3, [r5, #8]
 424:uCOS-III\Source/os_pend_multi.c **** 
 425:uCOS-III\Source/os_pend_multi.c **** #if OS_CFG_SEM_EN > 0u
 426:uCOS-III\Source/os_pend_multi.c ****         p_sem = (OS_SEM *)((void *)p_pend_data_tbl->PendObjPtr);
 300              		.loc 1 426 0
 301 0028 E868     		ldr	r0, [r5, #12]
 302              	.LVL37:
 427:uCOS-III\Source/os_pend_multi.c ****         if (p_sem->Type == OS_OBJ_TYPE_SEM) {
 303              		.loc 1 427 0
 304 002a 0268     		ldr	r2, [r0]
 305 002c 0B4B     		ldr	r3, .L27+4
 306 002e 9A42     		cmp	r2, r3
 307 0030 03D1     		bne	.L23
ARM GAS  C:\Users\jorti\AppData\Local\Temp\ccretXNg.s 			page 14


 308              	.LVL38:
 428:uCOS-III\Source/os_pend_multi.c ****             p_pend_list = &p_sem->PendList;
 429:uCOS-III\Source/os_pend_multi.c ****             OS_PendListInsertPrio(p_pend_list,
 309              		.loc 1 429 0
 310 0032 2946     		mov	r1, r5
 311 0034 0830     		adds	r0, r0, #8
 312              	.LVL39:
 313 0036 FFF7FEFF 		bl	OS_PendListInsertPrio
 314              	.LVL40:
 315              	.L23:
 430:uCOS-III\Source/os_pend_multi.c ****                                   p_pend_data_tbl);
 431:uCOS-III\Source/os_pend_multi.c ****         }
 432:uCOS-III\Source/os_pend_multi.c **** #endif
 433:uCOS-III\Source/os_pend_multi.c **** 
 434:uCOS-III\Source/os_pend_multi.c **** #if OS_CFG_Q_EN > 0u
 435:uCOS-III\Source/os_pend_multi.c ****         p_q = (OS_Q *)((void *)p_pend_data_tbl->PendObjPtr);
 316              		.loc 1 435 0
 317 003a E868     		ldr	r0, [r5, #12]
 318              	.LVL41:
 436:uCOS-III\Source/os_pend_multi.c ****         if (p_q->Type == OS_OBJ_TYPE_Q) {
 319              		.loc 1 436 0
 320 003c 0268     		ldr	r2, [r0]
 321 003e 084B     		ldr	r3, .L27+8
 322 0040 9A42     		cmp	r2, r3
 323 0042 03D1     		bne	.L24
 324              	.LVL42:
 437:uCOS-III\Source/os_pend_multi.c ****             p_pend_list = &p_q->PendList;
 438:uCOS-III\Source/os_pend_multi.c ****             OS_PendListInsertPrio(p_pend_list,
 325              		.loc 1 438 0
 326 0044 2946     		mov	r1, r5
 327 0046 0830     		adds	r0, r0, #8
 328              	.LVL43:
 329 0048 FFF7FEFF 		bl	OS_PendListInsertPrio
 330              	.LVL44:
 331              	.L24:
 439:uCOS-III\Source/os_pend_multi.c ****                                   p_pend_data_tbl);
 440:uCOS-III\Source/os_pend_multi.c ****         }
 441:uCOS-III\Source/os_pend_multi.c **** #endif
 442:uCOS-III\Source/os_pend_multi.c **** 
 443:uCOS-III\Source/os_pend_multi.c ****         p_pend_data_tbl++;
 332              		.loc 1 443 0 discriminator 2
 333 004c 2035     		adds	r5, r5, #32
 334              	.LVL45:
 422:uCOS-III\Source/os_pend_multi.c ****         p_pend_data_tbl->TCBPtr = OSTCBCurPtr;                 /* Every entry points back to the TC
 335              		.loc 1 422 0 discriminator 2
 336 004e 0134     		adds	r4, r4, #1
 337              	.LVL46:
 338 0050 A4B2     		uxth	r4, r4
 339              	.LVL47:
 340              	.L22:
 422:uCOS-III\Source/os_pend_multi.c ****         p_pend_data_tbl->TCBPtr = OSTCBCurPtr;                 /* Every entry points back to the TC
 341              		.loc 1 422 0 is_stmt 0 discriminator 1
 342 0052 B442     		cmp	r4, r6
 343 0054 E5D3     		bcc	.L25
 444:uCOS-III\Source/os_pend_multi.c ****     }
 445:uCOS-III\Source/os_pend_multi.c **** }
 344              		.loc 1 445 0 is_stmt 1
ARM GAS  C:\Users\jorti\AppData\Local\Temp\ccretXNg.s 			page 15


 345 0056 70BD     		pop	{r4, r5, r6, pc}
 346              	.LVL48:
 347              	.L28:
 348              		.align	2
 349              	.L27:
 350 0058 00000000 		.word	OSTCBCurPtr
 351 005c 53454D41 		.word	1095583059
 352 0060 51554555 		.word	1430607185
 353              		.cfi_endproc
 354              	.LFE4:
 355              		.size	OS_PendMultiWait, .-OS_PendMultiWait
 356              		.section	.text.OSPendMulti,"ax",%progbits
 357              		.align	2
 358              		.global	OSPendMulti
 359              		.thumb
 360              		.thumb_func
 361              		.type	OSPendMulti, %function
 362              	OSPendMulti:
 363              	.LFB1:
 126:uCOS-III\Source/os_pend_multi.c ****     CPU_BOOLEAN   valid;
 364              		.loc 1 126 0
 365              		.cfi_startproc
 366              		@ args = 4, pretend = 0, frame = 0
 367              		@ frame_needed = 0, uses_anonymous_args = 0
 368              	.LVL49:
 369 0000 2DE9F843 		push	{r3, r4, r5, r6, r7, r8, r9, lr}
 370              		.cfi_def_cfa_offset 32
 371              		.cfi_offset 3, -32
 372              		.cfi_offset 4, -28
 373              		.cfi_offset 5, -24
 374              		.cfi_offset 6, -20
 375              		.cfi_offset 7, -16
 376              		.cfi_offset 8, -12
 377              		.cfi_offset 9, -8
 378              		.cfi_offset 14, -4
 379              	.LVL50:
 141:uCOS-III\Source/os_pend_multi.c ****        *p_err = OS_ERR_PEND_ISR;
 380              		.loc 1 141 0
 381 0004 494C     		ldr	r4, .L48
 382 0006 2478     		ldrb	r4, [r4]	@ zero_extendqisi2
 383 0008 34B1     		cbz	r4, .L30
 142:uCOS-III\Source/os_pend_multi.c ****         return ((OS_OBJ_QTY)0);
 384              		.loc 1 142 0
 385 000a 46F2AE13 		movw	r3, #25006
 386              	.LVL51:
 387 000e 089A     		ldr	r2, [sp, #32]
 388              	.LVL52:
 389 0010 1380     		strh	r3, [r2]	@ movhi
 143:uCOS-III\Source/os_pend_multi.c ****     }
 390              		.loc 1 143 0
 391 0012 0020     		movs	r0, #0
 392              	.LVL53:
 393 0014 BDE8F883 		pop	{r3, r4, r5, r6, r7, r8, r9, pc}
 394              	.LVL54:
 395              	.L30:
 148:uCOS-III\Source/os_pend_multi.c ****        *p_err = OS_ERR_PTR_INVALID;
 396              		.loc 1 148 0
ARM GAS  C:\Users\jorti\AppData\Local\Temp\ccretXNg.s 			page 16


 397 0018 28B9     		cbnz	r0, .L32
 149:uCOS-III\Source/os_pend_multi.c ****         return ((OS_OBJ_QTY)0);
 398              		.loc 1 149 0
 399 001a 46F2D523 		movw	r3, #25301
 400              	.LVL55:
 401 001e 089A     		ldr	r2, [sp, #32]
 402              	.LVL56:
 403 0020 1380     		strh	r3, [r2]	@ movhi
 150:uCOS-III\Source/os_pend_multi.c ****     }
 404              		.loc 1 150 0
 405 0022 BDE8F883 		pop	{r3, r4, r5, r6, r7, r8, r9, pc}
 406              	.LVL57:
 407              	.L32:
 152:uCOS-III\Source/os_pend_multi.c ****        *p_err = OS_ERR_PTR_INVALID;
 408              		.loc 1 152 0
 409 0026 31B9     		cbnz	r1, .L33
 153:uCOS-III\Source/os_pend_multi.c ****         return ((OS_OBJ_QTY)0);
 410              		.loc 1 153 0
 411 0028 46F2D523 		movw	r3, #25301
 412              	.LVL58:
 413 002c 089A     		ldr	r2, [sp, #32]
 414              	.LVL59:
 415 002e 1380     		strh	r3, [r2]	@ movhi
 154:uCOS-III\Source/os_pend_multi.c ****     }
 416              		.loc 1 154 0
 417 0030 0020     		movs	r0, #0
 418              	.LVL60:
 419 0032 BDE8F883 		pop	{r3, r4, r5, r6, r7, r8, r9, pc}
 420              	.LVL61:
 421              	.L33:
 156:uCOS-III\Source/os_pend_multi.c ****         case OS_OPT_PEND_BLOCKING:
 422              		.loc 1 156 0
 423 0036 4BB1     		cbz	r3, .L35
 424 0038 B3F5004F 		cmp	r3, #32768
 425 003c 06D0     		beq	.L35
 162:uCOS-III\Source/os_pend_multi.c ****              return ((OS_OBJ_QTY)0);
 426              		.loc 1 162 0
 427 003e 45F62563 		movw	r3, #24101
 428              	.LVL62:
 429 0042 089A     		ldr	r2, [sp, #32]
 430              	.LVL63:
 431 0044 1380     		strh	r3, [r2]	@ movhi
 163:uCOS-III\Source/os_pend_multi.c ****     }
 432              		.loc 1 163 0
 433 0046 0020     		movs	r0, #0
 434              	.LVL64:
 435 0048 BDE8F883 		pop	{r3, r4, r5, r6, r7, r8, r9, pc}
 436              	.LVL65:
 437              	.L35:
 438 004c 1F46     		mov	r7, r3
 439 004e 9046     		mov	r8, r2
 440 0050 0E46     		mov	r6, r1
 441 0052 0446     		mov	r4, r0
 167:uCOS-III\Source/os_pend_multi.c ****                                  tbl_size);
 442              		.loc 1 167 0
 443 0054 FFF7FEFF 		bl	OS_PendMultiValidate
 444              	.LVL66:
ARM GAS  C:\Users\jorti\AppData\Local\Temp\ccretXNg.s 			page 17


 169:uCOS-III\Source/os_pend_multi.c ****        *p_err = OS_ERR_OBJ_TYPE;                            /* Invalid, not OS_SEM or OS_Q         
 445              		.loc 1 169 0
 446 0058 28B9     		cbnz	r0, .L36
 170:uCOS-III\Source/os_pend_multi.c ****         return ((OS_OBJ_QTY)0);
 447              		.loc 1 170 0
 448 005a 45F6C453 		movw	r3, #24004
 449 005e 089A     		ldr	r2, [sp, #32]
 450 0060 1380     		strh	r3, [r2]	@ movhi
 171:uCOS-III\Source/os_pend_multi.c ****     }
 451              		.loc 1 171 0
 452 0062 BDE8F883 		pop	{r3, r4, r5, r6, r7, r8, r9, pc}
 453              	.LVL67:
 454              	.L36:
 175:uCOS-III\Source/os_pend_multi.c ****     nbr_obj_rdy = OS_PendMultiGetRdy(p_pend_data_tbl,       /* --------- SEE IF OBJECT(s) HAVE BEEN
 455              		.loc 1 175 0
 456 0066 FFF7FEFF 		bl	CPU_SR_Save
 457              	.LVL68:
 458 006a 8146     		mov	r9, r0
 459              	.LVL69:
 176:uCOS-III\Source/os_pend_multi.c ****                                      tbl_size);
 460              		.loc 1 176 0
 461 006c 3146     		mov	r1, r6
 462 006e 2046     		mov	r0, r4
 463              	.LVL70:
 464 0070 FFF7FEFF 		bl	OS_PendMultiGetRdy
 465              	.LVL71:
 178:uCOS-III\Source/os_pend_multi.c ****         CPU_CRITICAL_EXIT();
 466              		.loc 1 178 0
 467 0074 0546     		mov	r5, r0
 468 0076 40B1     		cbz	r0, .L37
 179:uCOS-III\Source/os_pend_multi.c ****        *p_err = OS_ERR_NONE;
 469              		.loc 1 179 0
 470 0078 4846     		mov	r0, r9
 471              	.LVL72:
 472 007a FFF7FEFF 		bl	CPU_SR_Restore
 473              	.LVL73:
 180:uCOS-III\Source/os_pend_multi.c ****         return ((OS_OBJ_QTY)nbr_obj_rdy);
 474              		.loc 1 180 0
 475 007e 0023     		movs	r3, #0
 476 0080 089A     		ldr	r2, [sp, #32]
 477 0082 1380     		strh	r3, [r2]	@ movhi
 181:uCOS-III\Source/os_pend_multi.c ****     }
 478              		.loc 1 181 0
 479 0084 2846     		mov	r0, r5
 480 0086 BDE8F883 		pop	{r3, r4, r5, r6, r7, r8, r9, pc}
 481              	.LVL74:
 482              	.L37:
 184:uCOS-III\Source/os_pend_multi.c ****         CPU_CRITICAL_EXIT();
 483              		.loc 1 184 0
 484 008a 17F4004F 		tst	r7, #32768
 485 008e 09D0     		beq	.L38
 185:uCOS-III\Source/os_pend_multi.c ****        *p_err = OS_ERR_PEND_WOULD_BLOCK;                    /* No                                  
 486              		.loc 1 185 0
 487 0090 4846     		mov	r0, r9
 488              	.LVL75:
 489 0092 FFF7FEFF 		bl	CPU_SR_Restore
 490              	.LVL76:
ARM GAS  C:\Users\jorti\AppData\Local\Temp\ccretXNg.s 			page 18


 186:uCOS-III\Source/os_pend_multi.c ****         return ((OS_OBJ_QTY)0);
 491              		.loc 1 186 0
 492 0096 46F2B013 		movw	r3, #25008
 493 009a 089A     		ldr	r2, [sp, #32]
 494 009c 1380     		strh	r3, [r2]	@ movhi
 187:uCOS-III\Source/os_pend_multi.c ****     } else {
 495              		.loc 1 187 0
 496 009e 0020     		movs	r0, #0
 497 00a0 BDE8F883 		pop	{r3, r4, r5, r6, r7, r8, r9, pc}
 498              	.LVL77:
 499              	.L38:
 189:uCOS-III\Source/os_pend_multi.c ****             CPU_CRITICAL_EXIT();
 500              		.loc 1 189 0
 501 00a4 224B     		ldr	r3, .L48+4
 502 00a6 1B78     		ldrb	r3, [r3]	@ zero_extendqisi2
 503 00a8 4BB1     		cbz	r3, .L39
 190:uCOS-III\Source/os_pend_multi.c ****            *p_err = OS_ERR_SCHED_LOCKED;
 504              		.loc 1 190 0
 505 00aa 4846     		mov	r0, r9
 506              	.LVL78:
 507 00ac FFF7FEFF 		bl	CPU_SR_Restore
 508              	.LVL79:
 191:uCOS-III\Source/os_pend_multi.c ****             return ((OS_OBJ_QTY)0);
 509              		.loc 1 191 0
 510 00b0 46F66353 		movw	r3, #28003
 511 00b4 089A     		ldr	r2, [sp, #32]
 512 00b6 1380     		strh	r3, [r2]	@ movhi
 192:uCOS-III\Source/os_pend_multi.c ****         }
 513              		.loc 1 192 0
 514 00b8 0020     		movs	r0, #0
 515 00ba BDE8F883 		pop	{r3, r4, r5, r6, r7, r8, r9, pc}
 516              	.LVL80:
 517              	.L39:
 198:uCOS-III\Source/os_pend_multi.c ****                      tbl_size,
 518              		.loc 1 198 0
 519 00be 4246     		mov	r2, r8
 520 00c0 3146     		mov	r1, r6
 521 00c2 2046     		mov	r0, r4
 522              	.LVL81:
 523 00c4 FFF7FEFF 		bl	OS_PendMultiWait
 524              	.LVL82:
 202:uCOS-III\Source/os_pend_multi.c **** 
 525              		.loc 1 202 0
 526 00c8 4846     		mov	r0, r9
 527 00ca FFF7FEFF 		bl	CPU_SR_Restore
 528              	.LVL83:
 204:uCOS-III\Source/os_pend_multi.c **** 
 529              		.loc 1 204 0
 530 00ce FFF7FEFF 		bl	OSSched
 531              	.LVL84:
 206:uCOS-III\Source/os_pend_multi.c ****     switch (OSTCBCurPtr->PendStatus) {
 532              		.loc 1 206 0
 533 00d2 FFF7FEFF 		bl	CPU_SR_Save
 534              	.LVL85:
 207:uCOS-III\Source/os_pend_multi.c ****         case OS_STATUS_PEND_OK:                             /* We got one of the objects posted to 
 535              		.loc 1 207 0
 536 00d6 174B     		ldr	r3, .L48+8
ARM GAS  C:\Users\jorti\AppData\Local\Temp\ccretXNg.s 			page 19


 537 00d8 1B68     		ldr	r3, [r3]
 538 00da 93F83530 		ldrb	r3, [r3, #53]	@ zero_extendqisi2
 539 00de 032B     		cmp	r3, #3
 540 00e0 16D8     		bhi	.L40
 541 00e2 DFE803F0 		tbb	[pc, r3]
 542              	.L42:
 543 00e6 02       		.byte	(.L41-.L42)/2
 544 00e7 06       		.byte	(.L43-.L42)/2
 545 00e8 10       		.byte	(.L44-.L42)/2
 546 00e9 0B       		.byte	(.L45-.L42)/2
 547              		.p2align 1
 548              	.L41:
 209:uCOS-III\Source/os_pend_multi.c ****              break;
 549              		.loc 1 209 0
 550 00ea 0023     		movs	r3, #0
 551 00ec 089A     		ldr	r2, [sp, #32]
 552 00ee 1380     		strh	r3, [r2]	@ movhi
 210:uCOS-III\Source/os_pend_multi.c **** 
 553              		.loc 1 210 0
 554 00f0 12E0     		b	.L46
 555              	.L43:
 213:uCOS-III\Source/os_pend_multi.c ****              break;
 556              		.loc 1 213 0
 557 00f2 46F2A913 		movw	r3, #25001
 558 00f6 089A     		ldr	r2, [sp, #32]
 559 00f8 1380     		strh	r3, [r2]	@ movhi
 214:uCOS-III\Source/os_pend_multi.c **** 
 560              		.loc 1 214 0
 561 00fa 0DE0     		b	.L46
 562              	.L45:
 217:uCOS-III\Source/os_pend_multi.c ****              break;
 563              		.loc 1 217 0
 564 00fc 47F2D923 		movw	r3, #29401
 565 0100 089A     		ldr	r2, [sp, #32]
 566 0102 1380     		strh	r3, [r2]	@ movhi
 218:uCOS-III\Source/os_pend_multi.c **** 
 567              		.loc 1 218 0
 568 0104 08E0     		b	.L46
 569              	.L44:
 221:uCOS-III\Source/os_pend_multi.c ****             break;
 570              		.loc 1 221 0
 571 0106 45F6C253 		movw	r3, #24002
 572 010a 089A     		ldr	r2, [sp, #32]
 573 010c 1380     		strh	r3, [r2]	@ movhi
 222:uCOS-III\Source/os_pend_multi.c **** 
 574              		.loc 1 222 0
 575 010e 03E0     		b	.L46
 576              	.L40:
 225:uCOS-III\Source/os_pend_multi.c ****              break;
 577              		.loc 1 225 0
 578 0110 46F62E63 		movw	r3, #28206
 579 0114 089A     		ldr	r2, [sp, #32]
 580 0116 1380     		strh	r3, [r2]	@ movhi
 581              	.L46:
 229:uCOS-III\Source/os_pend_multi.c ****     CPU_CRITICAL_EXIT();
 582              		.loc 1 229 0
 583 0118 064B     		ldr	r3, .L48+8
ARM GAS  C:\Users\jorti\AppData\Local\Temp\ccretXNg.s 			page 20


 584 011a 1B68     		ldr	r3, [r3]
 585 011c 0022     		movs	r2, #0
 586 011e 83F83520 		strb	r2, [r3, #53]
 230:uCOS-III\Source/os_pend_multi.c **** 
 587              		.loc 1 230 0
 588 0122 FFF7FEFF 		bl	CPU_SR_Restore
 589              	.LVL86:
 232:uCOS-III\Source/os_pend_multi.c **** }
 590              		.loc 1 232 0
 591 0126 0120     		movs	r0, #1
 233:uCOS-III\Source/os_pend_multi.c **** 
 592              		.loc 1 233 0
 593 0128 BDE8F883 		pop	{r3, r4, r5, r6, r7, r8, r9, pc}
 594              	.LVL87:
 595              	.L49:
 596              		.align	2
 597              	.L48:
 598 012c 00000000 		.word	OSIntNestingCtr
 599 0130 00000000 		.word	OSSchedLockNestingCtr
 600 0134 00000000 		.word	OSTCBCurPtr
 601              		.cfi_endproc
 602              	.LFE1:
 603              		.size	OSPendMulti, .-OSPendMulti
 604              		.text
 605              	.Letext0:
 606              		.file 2 ".\\uC-CPU\\ARM-Cortex-M3\\GNU/cpu.h"
 607              		.file 3 ".\\uC-CPU/cpu_core.h"
 608              		.file 4 ".\\uCOS-III\\Source/os_type.h"
 609              		.file 5 ".\\uCOS-III\\Source/os.h"