ARM GAS  C:\Users\jorti\AppData\Local\Temp\ccMy2oAr.s 			page 1


   1              		.syntax unified
   2              		.cpu cortex-m3
   3              		.fpu softvfp
   4              		.eabi_attribute 20, 1
   5              		.eabi_attribute 21, 1
   6              		.eabi_attribute 23, 3
   7              		.eabi_attribute 24, 1
   8              		.eabi_attribute 25, 1
   9              		.eabi_attribute 26, 1
  10              		.eabi_attribute 30, 1
  11              		.eabi_attribute 34, 1
  12              		.eabi_attribute 18, 4
  13              		.thumb
  14              		.syntax unified
  15              		.file	"os_sem.c"
  16              		.text
  17              	.Ltext0:
  18              		.cfi_sections	.debug_frame
  19              		.section	.text.OSSemPend,"ax",%progbits
  20              		.align	2
  21              		.global	OSSemPend
  22              		.thumb
  23              		.thumb_func
  24              		.type	OSSemPend, %function
  25              	OSSemPend:
  26              	.LFB3:
  27              		.file 1 "uCOS-III\\Source\\os_sem.c"
   1:uCOS-III\Source/os_sem.c **** /*
   2:uCOS-III\Source/os_sem.c **** ***************************************************************************************************
   3:uCOS-III\Source/os_sem.c **** *                                                      uC/OS-III
   4:uCOS-III\Source/os_sem.c **** *                                                 The Real-Time Kernel
   5:uCOS-III\Source/os_sem.c **** *
   6:uCOS-III\Source/os_sem.c **** *                                  (c) Copyright 2009-2012; Micrium, Inc.; Weston, FL
   7:uCOS-III\Source/os_sem.c **** *                           All rights reserved.  Protected by international copyright laws.
   8:uCOS-III\Source/os_sem.c **** *
   9:uCOS-III\Source/os_sem.c **** *                                                 SEMAPHORE MANAGEMENT
  10:uCOS-III\Source/os_sem.c **** *
  11:uCOS-III\Source/os_sem.c **** * File    : OS_SEM.C
  12:uCOS-III\Source/os_sem.c **** * By      : JJL
  13:uCOS-III\Source/os_sem.c **** * Version : V3.03.01
  14:uCOS-III\Source/os_sem.c **** *
  15:uCOS-III\Source/os_sem.c **** * LICENSING TERMS:
  16:uCOS-III\Source/os_sem.c **** * ---------------
  17:uCOS-III\Source/os_sem.c **** *           uC/OS-III is provided in source form for FREE short-term evaluation, for educational us
  18:uCOS-III\Source/os_sem.c **** *           for peaceful research.  If you plan or intend to use uC/OS-III in a commercial applicat
  19:uCOS-III\Source/os_sem.c **** *           product then, you need to contact Micrium to properly license uC/OS-III for its use in 
  20:uCOS-III\Source/os_sem.c **** *           application/product.   We provide ALL the source code for your convenience and to help 
  21:uCOS-III\Source/os_sem.c **** *           experience uC/OS-III.  The fact that the source is provided does NOT mean that you can 
  22:uCOS-III\Source/os_sem.c **** *           it commercially without paying a licensing fee.
  23:uCOS-III\Source/os_sem.c **** *
  24:uCOS-III\Source/os_sem.c **** *           Knowledge of the source code may NOT be used to develop a similar product.
  25:uCOS-III\Source/os_sem.c **** *
  26:uCOS-III\Source/os_sem.c **** *           Please help us continue to provide the embedded community with the finest software avai
  27:uCOS-III\Source/os_sem.c **** *           Your honesty is greatly appreciated.
  28:uCOS-III\Source/os_sem.c **** *
  29:uCOS-III\Source/os_sem.c **** *           You can contact us at www.micrium.com, or by phone at +1 (954) 217-2036.
  30:uCOS-III\Source/os_sem.c **** ***************************************************************************************************
ARM GAS  C:\Users\jorti\AppData\Local\Temp\ccMy2oAr.s 			page 2


  31:uCOS-III\Source/os_sem.c **** */
  32:uCOS-III\Source/os_sem.c **** 
  33:uCOS-III\Source/os_sem.c **** #define  MICRIUM_SOURCE
  34:uCOS-III\Source/os_sem.c **** #include <os.h>
  35:uCOS-III\Source/os_sem.c **** 
  36:uCOS-III\Source/os_sem.c **** #ifdef VSC_INCLUDE_SOURCE_FILE_NAMES
  37:uCOS-III\Source/os_sem.c **** const  CPU_CHAR  *os_sem__c = "$Id: $";
  38:uCOS-III\Source/os_sem.c **** #endif
  39:uCOS-III\Source/os_sem.c **** 
  40:uCOS-III\Source/os_sem.c **** 
  41:uCOS-III\Source/os_sem.c **** #if OS_CFG_SEM_EN > 0u
  42:uCOS-III\Source/os_sem.c **** /*
  43:uCOS-III\Source/os_sem.c **** ***************************************************************************************************
  44:uCOS-III\Source/os_sem.c **** *                                                  CREATE A SEMAPHORE
  45:uCOS-III\Source/os_sem.c **** *
  46:uCOS-III\Source/os_sem.c **** * Description: This function creates a semaphore.
  47:uCOS-III\Source/os_sem.c **** *
  48:uCOS-III\Source/os_sem.c **** * Arguments  : p_sem         is a pointer to the semaphore to initialize.  Your application is resp
  49:uCOS-III\Source/os_sem.c **** *                            allocating storage for the semaphore.
  50:uCOS-III\Source/os_sem.c **** *
  51:uCOS-III\Source/os_sem.c **** *              p_name        is a pointer to the name you would like to give the semaphore.
  52:uCOS-III\Source/os_sem.c **** *
  53:uCOS-III\Source/os_sem.c **** *              cnt           is the initial value for the semaphore.
  54:uCOS-III\Source/os_sem.c **** *                            If used to share resources, you should initialize to the number of res
  55:uCOS-III\Source/os_sem.c **** *                            If used to signal the occurrence of event(s) then you should initializ
  56:uCOS-III\Source/os_sem.c **** *
  57:uCOS-III\Source/os_sem.c **** *              p_err         is a pointer to a variable that will contain an error code returned by
  58:uCOS-III\Source/os_sem.c **** *
  59:uCOS-III\Source/os_sem.c **** *                                OS_ERR_NONE                    if the call was successful
  60:uCOS-III\Source/os_sem.c **** *                                OS_ERR_CREATE_ISR              if you called this function from an
  61:uCOS-III\Source/os_sem.c **** *                                OS_ERR_ILLEGAL_CREATE_RUN_TIME if you are trying to create the sem
  62:uCOS-III\Source/os_sem.c **** *                                                                 called OSSafetyCriticalStart().
  63:uCOS-III\Source/os_sem.c **** *                                OS_ERR_NAME                    if 'p_name' is a NULL pointer
  64:uCOS-III\Source/os_sem.c **** *                                OS_ERR_OBJ_CREATED             if the semaphore has already been c
  65:uCOS-III\Source/os_sem.c **** *                                OS_ERR_OBJ_PTR_NULL            if 'p_sem'  is a NULL pointer
  66:uCOS-III\Source/os_sem.c **** *                                OS_ERR_OBJ_TYPE                if 'p_sem' has already been initial
  67:uCOS-III\Source/os_sem.c **** *                                                               object type
  68:uCOS-III\Source/os_sem.c **** *
  69:uCOS-III\Source/os_sem.c **** * Returns    : none
  70:uCOS-III\Source/os_sem.c **** ***************************************************************************************************
  71:uCOS-III\Source/os_sem.c **** */
  72:uCOS-III\Source/os_sem.c **** 
  73:uCOS-III\Source/os_sem.c **** void  OSSemCreate (OS_SEM      *p_sem,
  74:uCOS-III\Source/os_sem.c ****                    CPU_CHAR    *p_name,
  75:uCOS-III\Source/os_sem.c ****                    OS_SEM_CTR   cnt,
  76:uCOS-III\Source/os_sem.c ****                    OS_ERR      *p_err)
  77:uCOS-III\Source/os_sem.c **** {
  78:uCOS-III\Source/os_sem.c ****     CPU_SR_ALLOC();
  79:uCOS-III\Source/os_sem.c **** 
  80:uCOS-III\Source/os_sem.c **** 
  81:uCOS-III\Source/os_sem.c **** 
  82:uCOS-III\Source/os_sem.c **** #ifdef OS_SAFETY_CRITICAL
  83:uCOS-III\Source/os_sem.c ****     if (p_err == (OS_ERR *)0) {
  84:uCOS-III\Source/os_sem.c ****         OS_SAFETY_CRITICAL_EXCEPTION();
  85:uCOS-III\Source/os_sem.c ****         return;
  86:uCOS-III\Source/os_sem.c ****     }
  87:uCOS-III\Source/os_sem.c **** #endif
ARM GAS  C:\Users\jorti\AppData\Local\Temp\ccMy2oAr.s 			page 3


  88:uCOS-III\Source/os_sem.c **** 
  89:uCOS-III\Source/os_sem.c **** #ifdef OS_SAFETY_CRITICAL_IEC61508
  90:uCOS-III\Source/os_sem.c ****     if (OSSafetyCriticalStartFlag == DEF_TRUE) {
  91:uCOS-III\Source/os_sem.c ****        *p_err = OS_ERR_ILLEGAL_CREATE_RUN_TIME;
  92:uCOS-III\Source/os_sem.c ****         return;
  93:uCOS-III\Source/os_sem.c ****     }
  94:uCOS-III\Source/os_sem.c **** #endif
  95:uCOS-III\Source/os_sem.c **** 
  96:uCOS-III\Source/os_sem.c **** #if OS_CFG_CALLED_FROM_ISR_CHK_EN > 0u
  97:uCOS-III\Source/os_sem.c ****     if (OSIntNestingCtr > (OS_NESTING_CTR)0) {              /* Not allowed to be called from an ISR
  98:uCOS-III\Source/os_sem.c ****        *p_err = OS_ERR_CREATE_ISR;
  99:uCOS-III\Source/os_sem.c ****         return;
 100:uCOS-III\Source/os_sem.c ****     }
 101:uCOS-III\Source/os_sem.c **** #endif
 102:uCOS-III\Source/os_sem.c **** 
 103:uCOS-III\Source/os_sem.c **** #if OS_CFG_ARG_CHK_EN > 0u
 104:uCOS-III\Source/os_sem.c ****     if (p_sem == (OS_SEM *)0) {                             /* Validate 'p_sem'                    
 105:uCOS-III\Source/os_sem.c ****        *p_err = OS_ERR_OBJ_PTR_NULL;
 106:uCOS-III\Source/os_sem.c ****         return;
 107:uCOS-III\Source/os_sem.c ****     }
 108:uCOS-III\Source/os_sem.c **** #endif
 109:uCOS-III\Source/os_sem.c **** 
 110:uCOS-III\Source/os_sem.c ****     OS_CRITICAL_ENTER();
 111:uCOS-III\Source/os_sem.c ****     p_sem->Type    = OS_OBJ_TYPE_SEM;                       /* Mark the data structure as a semapho
 112:uCOS-III\Source/os_sem.c ****     p_sem->Ctr     = cnt;                                   /* Set semaphore value                 
 113:uCOS-III\Source/os_sem.c ****     p_sem->TS      = (CPU_TS)0;
 114:uCOS-III\Source/os_sem.c ****     p_sem->NamePtr = p_name;                                /* Save the name of the semaphore      
 115:uCOS-III\Source/os_sem.c ****     OS_PendListInit(&p_sem->PendList);                      /* Initialize the waiting list         
 116:uCOS-III\Source/os_sem.c **** 
 117:uCOS-III\Source/os_sem.c **** #if OS_CFG_DBG_EN > 0u
 118:uCOS-III\Source/os_sem.c ****     OS_SemDbgListAdd(p_sem);
 119:uCOS-III\Source/os_sem.c **** #endif
 120:uCOS-III\Source/os_sem.c ****     OSSemQty++;
 121:uCOS-III\Source/os_sem.c **** 
 122:uCOS-III\Source/os_sem.c ****     OS_CRITICAL_EXIT_NO_SCHED();
 123:uCOS-III\Source/os_sem.c ****    *p_err = OS_ERR_NONE;
 124:uCOS-III\Source/os_sem.c **** }
 125:uCOS-III\Source/os_sem.c **** 
 126:uCOS-III\Source/os_sem.c **** /*$PAGE*/
 127:uCOS-III\Source/os_sem.c **** /*
 128:uCOS-III\Source/os_sem.c **** ***************************************************************************************************
 129:uCOS-III\Source/os_sem.c **** *                                                  DELETE A SEMAPHORE
 130:uCOS-III\Source/os_sem.c **** *
 131:uCOS-III\Source/os_sem.c **** * Description: This function deletes a semaphore.
 132:uCOS-III\Source/os_sem.c **** *
 133:uCOS-III\Source/os_sem.c **** * Arguments  : p_sem         is a pointer to the semaphore to delete
 134:uCOS-III\Source/os_sem.c **** *
 135:uCOS-III\Source/os_sem.c **** *              opt           determines delete options as follows:
 136:uCOS-III\Source/os_sem.c **** *
 137:uCOS-III\Source/os_sem.c **** *                                OS_OPT_DEL_NO_PEND          Delete semaphore ONLY if no task pendi
 138:uCOS-III\Source/os_sem.c **** *                                OS_OPT_DEL_ALWAYS           Deletes the semaphore even if tasks ar
 139:uCOS-III\Source/os_sem.c **** *                                                            In this case, all the tasks pending wi
 140:uCOS-III\Source/os_sem.c **** *
 141:uCOS-III\Source/os_sem.c **** *              p_err         is a pointer to a variable that will contain an error code returned by
 142:uCOS-III\Source/os_sem.c **** *
 143:uCOS-III\Source/os_sem.c **** *                                OS_ERR_NONE                 The call was successful and the semaph
 144:uCOS-III\Source/os_sem.c **** *                                OS_ERR_DEL_ISR              If you attempted to delete the semapho
ARM GAS  C:\Users\jorti\AppData\Local\Temp\ccMy2oAr.s 			page 4


 145:uCOS-III\Source/os_sem.c **** *                                OS_ERR_OBJ_PTR_NULL         If 'p_sem' is a NULL pointer.
 146:uCOS-III\Source/os_sem.c **** *                                OS_ERR_OBJ_TYPE             If 'p_sem' is not pointing at a semaph
 147:uCOS-III\Source/os_sem.c **** *                                OS_ERR_OPT_INVALID          An invalid option was specified
 148:uCOS-III\Source/os_sem.c **** *                                OS_ERR_TASK_WAITING         One or more tasks were waiting on the 
 149:uCOS-III\Source/os_sem.c **** *
 150:uCOS-III\Source/os_sem.c **** * Returns    : == 0          if no tasks were waiting on the semaphore, or upon error.
 151:uCOS-III\Source/os_sem.c **** *              >  0          if one or more tasks waiting on the semaphore are now readied and info
 152:uCOS-III\Source/os_sem.c **** *
 153:uCOS-III\Source/os_sem.c **** * Note(s)    : 1) This function must be used with care.  Tasks that would normally expect the prese
 154:uCOS-III\Source/os_sem.c **** *                 MUST check the return code of OSSemPend().
 155:uCOS-III\Source/os_sem.c **** *              2) OSSemAccept() callers will not know that the intended semaphore has been deleted.
 156:uCOS-III\Source/os_sem.c **** *              3) Because ALL tasks pending on the semaphore will be readied, you MUST be careful i
 157:uCOS-III\Source/os_sem.c **** *                 the semaphore is used for mutual exclusion because the resource(s) will no longer
 158:uCOS-III\Source/os_sem.c **** *                 semaphore.
 159:uCOS-III\Source/os_sem.c **** ***************************************************************************************************
 160:uCOS-III\Source/os_sem.c **** */
 161:uCOS-III\Source/os_sem.c **** 
 162:uCOS-III\Source/os_sem.c **** #if OS_CFG_SEM_DEL_EN > 0u
 163:uCOS-III\Source/os_sem.c **** OS_OBJ_QTY  OSSemDel (OS_SEM  *p_sem,
 164:uCOS-III\Source/os_sem.c ****                       OS_OPT   opt,
 165:uCOS-III\Source/os_sem.c ****                       OS_ERR  *p_err)
 166:uCOS-III\Source/os_sem.c **** {
 167:uCOS-III\Source/os_sem.c ****     OS_OBJ_QTY     cnt;
 168:uCOS-III\Source/os_sem.c ****     OS_OBJ_QTY     nbr_tasks;
 169:uCOS-III\Source/os_sem.c ****     OS_PEND_DATA  *p_pend_data;
 170:uCOS-III\Source/os_sem.c ****     OS_PEND_LIST  *p_pend_list;
 171:uCOS-III\Source/os_sem.c ****     OS_TCB        *p_tcb;
 172:uCOS-III\Source/os_sem.c ****     CPU_TS         ts;
 173:uCOS-III\Source/os_sem.c ****     CPU_SR_ALLOC();
 174:uCOS-III\Source/os_sem.c **** 
 175:uCOS-III\Source/os_sem.c **** 
 176:uCOS-III\Source/os_sem.c **** 
 177:uCOS-III\Source/os_sem.c **** #ifdef OS_SAFETY_CRITICAL
 178:uCOS-III\Source/os_sem.c ****     if (p_err == (OS_ERR *)0) {
 179:uCOS-III\Source/os_sem.c ****         OS_SAFETY_CRITICAL_EXCEPTION();
 180:uCOS-III\Source/os_sem.c ****         return ((OS_OBJ_QTY)0);
 181:uCOS-III\Source/os_sem.c ****     }
 182:uCOS-III\Source/os_sem.c **** #endif
 183:uCOS-III\Source/os_sem.c **** 
 184:uCOS-III\Source/os_sem.c **** #if OS_CFG_CALLED_FROM_ISR_CHK_EN > 0u
 185:uCOS-III\Source/os_sem.c ****     if (OSIntNestingCtr > (OS_NESTING_CTR)0) {              /* Not allowed to delete a semaphore fr
 186:uCOS-III\Source/os_sem.c ****        *p_err = OS_ERR_DEL_ISR;
 187:uCOS-III\Source/os_sem.c ****         return ((OS_OBJ_QTY)0);
 188:uCOS-III\Source/os_sem.c ****     }
 189:uCOS-III\Source/os_sem.c **** #endif
 190:uCOS-III\Source/os_sem.c **** 
 191:uCOS-III\Source/os_sem.c **** #if OS_CFG_ARG_CHK_EN > 0u
 192:uCOS-III\Source/os_sem.c ****     if (p_sem == (OS_SEM *)0) {                             /* Validate 'p_sem'                    
 193:uCOS-III\Source/os_sem.c ****        *p_err = OS_ERR_OBJ_PTR_NULL;
 194:uCOS-III\Source/os_sem.c ****         return ((OS_OBJ_QTY)0);
 195:uCOS-III\Source/os_sem.c ****     }
 196:uCOS-III\Source/os_sem.c ****     switch (opt) {                                          /* Validate 'opt'                      
 197:uCOS-III\Source/os_sem.c ****         case OS_OPT_DEL_NO_PEND:
 198:uCOS-III\Source/os_sem.c ****         case OS_OPT_DEL_ALWAYS:
 199:uCOS-III\Source/os_sem.c ****              break;
 200:uCOS-III\Source/os_sem.c **** 
 201:uCOS-III\Source/os_sem.c ****         default:
ARM GAS  C:\Users\jorti\AppData\Local\Temp\ccMy2oAr.s 			page 5


 202:uCOS-III\Source/os_sem.c ****             *p_err = OS_ERR_OPT_INVALID;
 203:uCOS-III\Source/os_sem.c ****              return ((OS_OBJ_QTY)0);
 204:uCOS-III\Source/os_sem.c ****     }
 205:uCOS-III\Source/os_sem.c **** #endif
 206:uCOS-III\Source/os_sem.c **** 
 207:uCOS-III\Source/os_sem.c **** #if OS_CFG_OBJ_TYPE_CHK_EN > 0u
 208:uCOS-III\Source/os_sem.c ****     if (p_sem->Type != OS_OBJ_TYPE_SEM) {                   /* Make sure semaphore was created     
 209:uCOS-III\Source/os_sem.c ****        *p_err = OS_ERR_OBJ_TYPE;
 210:uCOS-III\Source/os_sem.c ****         return ((OS_OBJ_QTY)0);
 211:uCOS-III\Source/os_sem.c ****     }
 212:uCOS-III\Source/os_sem.c **** #endif
 213:uCOS-III\Source/os_sem.c **** 
 214:uCOS-III\Source/os_sem.c ****     CPU_CRITICAL_ENTER();
 215:uCOS-III\Source/os_sem.c ****     p_pend_list = &p_sem->PendList;
 216:uCOS-III\Source/os_sem.c ****     cnt         = p_pend_list->NbrEntries;
 217:uCOS-III\Source/os_sem.c ****     nbr_tasks   = cnt;
 218:uCOS-III\Source/os_sem.c ****     switch (opt) {
 219:uCOS-III\Source/os_sem.c ****         case OS_OPT_DEL_NO_PEND:                            /* Delete semaphore only if no task wai
 220:uCOS-III\Source/os_sem.c ****              if (nbr_tasks == (OS_OBJ_QTY)0) {
 221:uCOS-III\Source/os_sem.c **** #if OS_CFG_DBG_EN > 0u
 222:uCOS-III\Source/os_sem.c ****                  OS_SemDbgListRemove(p_sem);
 223:uCOS-III\Source/os_sem.c **** #endif
 224:uCOS-III\Source/os_sem.c ****                  OSSemQty--;
 225:uCOS-III\Source/os_sem.c ****                  OS_SemClr(p_sem);
 226:uCOS-III\Source/os_sem.c ****                  CPU_CRITICAL_EXIT();
 227:uCOS-III\Source/os_sem.c ****                 *p_err = OS_ERR_NONE;
 228:uCOS-III\Source/os_sem.c ****              } else {
 229:uCOS-III\Source/os_sem.c ****                  CPU_CRITICAL_EXIT();
 230:uCOS-III\Source/os_sem.c ****                 *p_err = OS_ERR_TASK_WAITING;
 231:uCOS-III\Source/os_sem.c ****              }
 232:uCOS-III\Source/os_sem.c ****              break;
 233:uCOS-III\Source/os_sem.c **** 
 234:uCOS-III\Source/os_sem.c ****         case OS_OPT_DEL_ALWAYS:                             /* Always delete the semaphore         
 235:uCOS-III\Source/os_sem.c ****              OS_CRITICAL_ENTER_CPU_EXIT();
 236:uCOS-III\Source/os_sem.c ****              ts = OS_TS_GET();                              /* Get local time stamp so all tasks ge
 237:uCOS-III\Source/os_sem.c ****              while (cnt > 0u) {                             /* Remove all tasks on the pend list   
 238:uCOS-III\Source/os_sem.c ****                  p_pend_data = p_pend_list->HeadPtr;
 239:uCOS-III\Source/os_sem.c ****                  p_tcb       = p_pend_data->TCBPtr;
 240:uCOS-III\Source/os_sem.c ****                  OS_PendObjDel((OS_PEND_OBJ *)((void *)p_sem),
 241:uCOS-III\Source/os_sem.c ****                                p_tcb,
 242:uCOS-III\Source/os_sem.c ****                                ts);
 243:uCOS-III\Source/os_sem.c ****                  cnt--;
 244:uCOS-III\Source/os_sem.c ****              }
 245:uCOS-III\Source/os_sem.c **** #if OS_CFG_DBG_EN > 0u
 246:uCOS-III\Source/os_sem.c ****              OS_SemDbgListRemove(p_sem);
 247:uCOS-III\Source/os_sem.c **** #endif
 248:uCOS-III\Source/os_sem.c ****              OSSemQty--;
 249:uCOS-III\Source/os_sem.c ****              OS_SemClr(p_sem);
 250:uCOS-III\Source/os_sem.c ****              OS_CRITICAL_EXIT_NO_SCHED();
 251:uCOS-III\Source/os_sem.c ****              OSSched();                                     /* Find highest priority task ready to 
 252:uCOS-III\Source/os_sem.c ****             *p_err = OS_ERR_NONE;
 253:uCOS-III\Source/os_sem.c ****              break;
 254:uCOS-III\Source/os_sem.c **** 
 255:uCOS-III\Source/os_sem.c ****         default:
 256:uCOS-III\Source/os_sem.c ****              CPU_CRITICAL_EXIT();
 257:uCOS-III\Source/os_sem.c ****             *p_err = OS_ERR_OPT_INVALID;
 258:uCOS-III\Source/os_sem.c ****              break;
ARM GAS  C:\Users\jorti\AppData\Local\Temp\ccMy2oAr.s 			page 6


 259:uCOS-III\Source/os_sem.c ****     }
 260:uCOS-III\Source/os_sem.c ****     return ((OS_OBJ_QTY)nbr_tasks);
 261:uCOS-III\Source/os_sem.c **** }
 262:uCOS-III\Source/os_sem.c **** #endif
 263:uCOS-III\Source/os_sem.c **** 
 264:uCOS-III\Source/os_sem.c **** /*$PAGE*/
 265:uCOS-III\Source/os_sem.c **** /*
 266:uCOS-III\Source/os_sem.c **** ***************************************************************************************************
 267:uCOS-III\Source/os_sem.c **** *                                                  PEND ON SEMAPHORE
 268:uCOS-III\Source/os_sem.c **** *
 269:uCOS-III\Source/os_sem.c **** * Description: This function waits for a semaphore.
 270:uCOS-III\Source/os_sem.c **** *
 271:uCOS-III\Source/os_sem.c **** * Arguments  : p_sem         is a pointer to the semaphore
 272:uCOS-III\Source/os_sem.c **** *
 273:uCOS-III\Source/os_sem.c **** *              timeout       is an optional timeout period (in clock ticks).  If non-zero, your tas
 274:uCOS-III\Source/os_sem.c **** *                            resource up to the amount of time (in 'ticks') specified by this argum
 275:uCOS-III\Source/os_sem.c **** *                            0, however, your task will wait forever at the specified semaphore or,
 276:uCOS-III\Source/os_sem.c **** *                            becomes available (or the event occurs).
 277:uCOS-III\Source/os_sem.c **** *
 278:uCOS-III\Source/os_sem.c **** *              opt           determines whether the user wants to block if the semaphore is not ava
 279:uCOS-III\Source/os_sem.c **** *
 280:uCOS-III\Source/os_sem.c **** *                                OS_OPT_PEND_BLOCKING
 281:uCOS-III\Source/os_sem.c **** *                                OS_OPT_PEND_NON_BLOCKING
 282:uCOS-III\Source/os_sem.c **** *
 283:uCOS-III\Source/os_sem.c **** *              p_ts          is a pointer to a variable that will receive the timestamp of when the
 284:uCOS-III\Source/os_sem.c **** *                            or pend aborted or the semaphore deleted.  If you pass a NULL pointer 
 285:uCOS-III\Source/os_sem.c **** *                            then you will not get the timestamp.  In other words, passing a NULL p
 286:uCOS-III\Source/os_sem.c **** *                            and indicates that you don't need the timestamp.
 287:uCOS-III\Source/os_sem.c **** *
 288:uCOS-III\Source/os_sem.c **** *              p_err         is a pointer to a variable that will contain an error code returned by
 289:uCOS-III\Source/os_sem.c **** *
 290:uCOS-III\Source/os_sem.c **** *                                OS_ERR_NONE               The call was successful and your task ow
 291:uCOS-III\Source/os_sem.c **** *                                                          or, the event you are waiting for occurr
 292:uCOS-III\Source/os_sem.c **** *                                OS_ERR_OBJ_DEL            If 'p_sem' was deleted
 293:uCOS-III\Source/os_sem.c **** *                                OS_ERR_OBJ_PTR_NULL       If 'p_sem' is a NULL pointer.
 294:uCOS-III\Source/os_sem.c **** *                                OS_ERR_OBJ_TYPE           If 'p_sem' is not pointing at a semaphor
 295:uCOS-III\Source/os_sem.c **** *                                OS_ERR_OPT_INVALID        If you specified an invalid value for 'o
 296:uCOS-III\Source/os_sem.c **** *                                OS_ERR_PEND_ABORT         If the pend was aborted by another task
 297:uCOS-III\Source/os_sem.c **** *                                OS_ERR_PEND_ISR           If you called this function from an ISR 
 298:uCOS-III\Source/os_sem.c **** *                                                          would lead to a suspension.
 299:uCOS-III\Source/os_sem.c **** *                                OS_ERR_PEND_WOULD_BLOCK   If you specified non-blocking but the se
 300:uCOS-III\Source/os_sem.c **** *                                                          available.
 301:uCOS-III\Source/os_sem.c **** *                                OS_ERR_SCHED_LOCKED       If you called this function when the sch
 302:uCOS-III\Source/os_sem.c **** *                                OS_ERR_STATUS_INVALID     Pend status is invalid
 303:uCOS-III\Source/os_sem.c **** *                                OS_ERR_TIMEOUT            The semaphore was not received within th
 304:uCOS-III\Source/os_sem.c **** *                                                          timeout.
 305:uCOS-III\Source/os_sem.c **** *
 306:uCOS-III\Source/os_sem.c **** *
 307:uCOS-III\Source/os_sem.c **** * Returns    : The current value of the semaphore counter or 0 if not available.
 308:uCOS-III\Source/os_sem.c **** ***************************************************************************************************
 309:uCOS-III\Source/os_sem.c **** */
 310:uCOS-III\Source/os_sem.c **** 
 311:uCOS-III\Source/os_sem.c **** OS_SEM_CTR  OSSemPend (OS_SEM   *p_sem,
 312:uCOS-III\Source/os_sem.c ****                        OS_TICK   timeout,
 313:uCOS-III\Source/os_sem.c ****                        OS_OPT    opt,
 314:uCOS-III\Source/os_sem.c ****                        CPU_TS   *p_ts,
 315:uCOS-III\Source/os_sem.c ****                        OS_ERR   *p_err)
ARM GAS  C:\Users\jorti\AppData\Local\Temp\ccMy2oAr.s 			page 7


 316:uCOS-III\Source/os_sem.c **** {
  28              		.loc 1 316 0
  29              		.cfi_startproc
  30              		@ args = 4, pretend = 0, frame = 32
  31              		@ frame_needed = 0, uses_anonymous_args = 0
  32              	.LVL0:
  33 0000 2DE9F043 		push	{r4, r5, r6, r7, r8, r9, lr}
  34              		.cfi_def_cfa_offset 28
  35              		.cfi_offset 4, -28
  36              		.cfi_offset 5, -24
  37              		.cfi_offset 6, -20
  38              		.cfi_offset 7, -16
  39              		.cfi_offset 8, -12
  40              		.cfi_offset 9, -8
  41              		.cfi_offset 14, -4
  42 0004 89B0     		sub	sp, sp, #36
  43              		.cfi_def_cfa_offset 64
  44              	.LVL1:
 317:uCOS-III\Source/os_sem.c ****     OS_SEM_CTR    ctr;
 318:uCOS-III\Source/os_sem.c ****     OS_PEND_DATA  pend_data;
 319:uCOS-III\Source/os_sem.c ****     CPU_SR_ALLOC();
 320:uCOS-III\Source/os_sem.c **** 
 321:uCOS-III\Source/os_sem.c **** 
 322:uCOS-III\Source/os_sem.c **** 
 323:uCOS-III\Source/os_sem.c **** #ifdef OS_SAFETY_CRITICAL
 324:uCOS-III\Source/os_sem.c ****     if (p_err == (OS_ERR *)0) {
 325:uCOS-III\Source/os_sem.c ****         OS_SAFETY_CRITICAL_EXCEPTION();
 326:uCOS-III\Source/os_sem.c ****         return ((OS_SEM_CTR)0);
 327:uCOS-III\Source/os_sem.c ****     }
 328:uCOS-III\Source/os_sem.c **** #endif
 329:uCOS-III\Source/os_sem.c **** 
 330:uCOS-III\Source/os_sem.c **** #if OS_CFG_CALLED_FROM_ISR_CHK_EN > 0u
 331:uCOS-III\Source/os_sem.c ****     if (OSIntNestingCtr > (OS_NESTING_CTR)0) {              /* Not allowed to call from an ISR     
  45              		.loc 1 331 0
  46 0006 454C     		ldr	r4, .L24
  47 0008 2478     		ldrb	r4, [r4]	@ zero_extendqisi2
  48 000a 2CB1     		cbz	r4, .L2
 332:uCOS-III\Source/os_sem.c ****        *p_err = OS_ERR_PEND_ISR;
  49              		.loc 1 332 0
  50 000c 46F2AE13 		movw	r3, #25006
  51              	.LVL2:
  52 0010 109A     		ldr	r2, [sp, #64]
  53              	.LVL3:
  54 0012 1380     		strh	r3, [r2]	@ movhi
 333:uCOS-III\Source/os_sem.c ****         return ((OS_SEM_CTR)0);
  55              		.loc 1 333 0
  56 0014 0024     		movs	r4, #0
  57 0016 7DE0     		b	.L3
  58              	.LVL4:
  59              	.L2:
 334:uCOS-III\Source/os_sem.c ****     }
 335:uCOS-III\Source/os_sem.c **** #endif
 336:uCOS-III\Source/os_sem.c **** 
 337:uCOS-III\Source/os_sem.c **** #if OS_CFG_ARG_CHK_EN > 0u
 338:uCOS-III\Source/os_sem.c ****     if (p_sem == (OS_SEM *)0) {                             /* Validate 'p_sem'                    
  60              		.loc 1 338 0
  61 0018 28B9     		cbnz	r0, .L4
ARM GAS  C:\Users\jorti\AppData\Local\Temp\ccMy2oAr.s 			page 8


 339:uCOS-III\Source/os_sem.c ****        *p_err = OS_ERR_OBJ_PTR_NULL;
  62              		.loc 1 339 0
  63 001a 45F6C353 		movw	r3, #24003
  64              	.LVL5:
  65 001e 109A     		ldr	r2, [sp, #64]
  66              	.LVL6:
  67 0020 1380     		strh	r3, [r2]	@ movhi
 340:uCOS-III\Source/os_sem.c ****         return ((OS_SEM_CTR)0);
  68              		.loc 1 340 0
  69 0022 0024     		movs	r4, #0
  70 0024 76E0     		b	.L3
  71              	.LVL7:
  72              	.L4:
 341:uCOS-III\Source/os_sem.c ****     }
 342:uCOS-III\Source/os_sem.c ****     switch (opt) {                                          /* Validate 'opt'                      
  73              		.loc 1 342 0
  74 0026 42B1     		cbz	r2, .L6
  75 0028 B2F5004F 		cmp	r2, #32768
  76 002c 05D0     		beq	.L6
 343:uCOS-III\Source/os_sem.c ****         case OS_OPT_PEND_BLOCKING:
 344:uCOS-III\Source/os_sem.c ****         case OS_OPT_PEND_NON_BLOCKING:
 345:uCOS-III\Source/os_sem.c ****              break;
 346:uCOS-III\Source/os_sem.c **** 
 347:uCOS-III\Source/os_sem.c ****         default:
 348:uCOS-III\Source/os_sem.c ****             *p_err = OS_ERR_OPT_INVALID;
  77              		.loc 1 348 0
  78 002e 45F62563 		movw	r3, #24101
  79              	.LVL8:
  80 0032 109A     		ldr	r2, [sp, #64]
  81              	.LVL9:
  82 0034 1380     		strh	r3, [r2]	@ movhi
 349:uCOS-III\Source/os_sem.c ****              return ((OS_SEM_CTR)0);
  83              		.loc 1 349 0
  84 0036 0024     		movs	r4, #0
  85 0038 6CE0     		b	.L3
  86              	.LVL10:
  87              	.L6:
 350:uCOS-III\Source/os_sem.c ****     }
 351:uCOS-III\Source/os_sem.c **** #endif
 352:uCOS-III\Source/os_sem.c **** 
 353:uCOS-III\Source/os_sem.c **** #if OS_CFG_OBJ_TYPE_CHK_EN > 0u
 354:uCOS-III\Source/os_sem.c ****     if (p_sem->Type != OS_OBJ_TYPE_SEM) {                   /* Make sure semaphore was created     
 355:uCOS-III\Source/os_sem.c ****        *p_err = OS_ERR_OBJ_TYPE;
 356:uCOS-III\Source/os_sem.c ****         return ((OS_SEM_CTR)0);
 357:uCOS-III\Source/os_sem.c ****     }
 358:uCOS-III\Source/os_sem.c **** #endif
 359:uCOS-III\Source/os_sem.c **** 
 360:uCOS-III\Source/os_sem.c ****     if (p_ts != (CPU_TS *)0) {
  88              		.loc 1 360 0
  89 003a 0BB1     		cbz	r3, .L7
 361:uCOS-III\Source/os_sem.c ****        *p_ts  = (CPU_TS)0;                                  /* Initialize the returned timestamp   
  90              		.loc 1 361 0
  91 003c 0024     		movs	r4, #0
  92 003e 1C60     		str	r4, [r3]
  93              	.L7:
  94 0040 1F46     		mov	r7, r3
  95 0042 1546     		mov	r5, r2
ARM GAS  C:\Users\jorti\AppData\Local\Temp\ccMy2oAr.s 			page 9


  96 0044 8846     		mov	r8, r1
  97 0046 0646     		mov	r6, r0
 362:uCOS-III\Source/os_sem.c ****     }
 363:uCOS-III\Source/os_sem.c ****     CPU_CRITICAL_ENTER();
  98              		.loc 1 363 0
  99 0048 FFF7FEFF 		bl	CPU_SR_Save
 100              	.LVL11:
 101 004c 8146     		mov	r9, r0
 102              	.LVL12:
 364:uCOS-III\Source/os_sem.c ****     if (p_sem->Ctr > (OS_SEM_CTR)0) {                       /* Resource available?                 
 103              		.loc 1 364 0
 104 004e 346A     		ldr	r4, [r6, #32]
 105 0050 64B1     		cbz	r4, .L8
 365:uCOS-III\Source/os_sem.c ****         p_sem->Ctr--;                                       /* Yes, caller may proceed             
 106              		.loc 1 365 0
 107 0052 013C     		subs	r4, r4, #1
 108 0054 3462     		str	r4, [r6, #32]
 366:uCOS-III\Source/os_sem.c ****         if (p_ts != (CPU_TS *)0) {
 109              		.loc 1 366 0
 110 0056 0FB1     		cbz	r7, .L9
 367:uCOS-III\Source/os_sem.c ****            *p_ts  = p_sem->TS;                              /*      get timestamp of last post     
 111              		.loc 1 367 0
 112 0058 736A     		ldr	r3, [r6, #36]
 113 005a 3B60     		str	r3, [r7]
 114              	.L9:
 368:uCOS-III\Source/os_sem.c ****         }
 369:uCOS-III\Source/os_sem.c ****         ctr   = p_sem->Ctr;
 115              		.loc 1 369 0
 116 005c 346A     		ldr	r4, [r6, #32]
 117              	.LVL13:
 370:uCOS-III\Source/os_sem.c ****         CPU_CRITICAL_EXIT();
 118              		.loc 1 370 0
 119 005e 4846     		mov	r0, r9
 120              	.LVL14:
 121 0060 FFF7FEFF 		bl	CPU_SR_Restore
 122              	.LVL15:
 371:uCOS-III\Source/os_sem.c ****        *p_err = OS_ERR_NONE;
 123              		.loc 1 371 0
 124 0064 0023     		movs	r3, #0
 125 0066 109A     		ldr	r2, [sp, #64]
 126 0068 1380     		strh	r3, [r2]	@ movhi
 372:uCOS-III\Source/os_sem.c ****         return (ctr);
 127              		.loc 1 372 0
 128 006a 53E0     		b	.L3
 129              	.LVL16:
 130              	.L8:
 373:uCOS-III\Source/os_sem.c ****     }
 374:uCOS-III\Source/os_sem.c **** 
 375:uCOS-III\Source/os_sem.c ****     if ((opt & OS_OPT_PEND_NON_BLOCKING) != (OS_OPT)0) {    /* Caller wants to block if not availab
 131              		.loc 1 375 0
 132 006c 15F4004F 		tst	r5, #32768
 133 0070 06D0     		beq	.L10
 134              	.LVL17:
 376:uCOS-III\Source/os_sem.c ****         ctr   = p_sem->Ctr;                                 /* No                                  
 377:uCOS-III\Source/os_sem.c ****         CPU_CRITICAL_EXIT();
 135              		.loc 1 377 0
 136 0072 FFF7FEFF 		bl	CPU_SR_Restore
ARM GAS  C:\Users\jorti\AppData\Local\Temp\ccMy2oAr.s 			page 10


 137              	.LVL18:
 378:uCOS-III\Source/os_sem.c ****        *p_err = OS_ERR_PEND_WOULD_BLOCK;
 138              		.loc 1 378 0
 139 0076 46F2B013 		movw	r3, #25008
 140 007a 109A     		ldr	r2, [sp, #64]
 141 007c 1380     		strh	r3, [r2]	@ movhi
 379:uCOS-III\Source/os_sem.c ****         return (ctr);
 142              		.loc 1 379 0
 143 007e 49E0     		b	.L3
 144              	.LVL19:
 145              	.L10:
 380:uCOS-III\Source/os_sem.c ****     } else {                                                /* Yes                                 
 381:uCOS-III\Source/os_sem.c ****         if (OSSchedLockNestingCtr > (OS_NESTING_CTR)0) {    /* Can't pend when the scheduler is loc
 146              		.loc 1 381 0
 147 0080 274B     		ldr	r3, .L24+4
 148 0082 1B78     		ldrb	r3, [r3]	@ zero_extendqisi2
 149 0084 33B1     		cbz	r3, .L11
 382:uCOS-III\Source/os_sem.c ****             CPU_CRITICAL_EXIT();
 150              		.loc 1 382 0
 151 0086 FFF7FEFF 		bl	CPU_SR_Restore
 152              	.LVL20:
 383:uCOS-III\Source/os_sem.c ****            *p_err = OS_ERR_SCHED_LOCKED;
 153              		.loc 1 383 0
 154 008a 46F66353 		movw	r3, #28003
 155 008e 109A     		ldr	r2, [sp, #64]
 156 0090 1380     		strh	r3, [r2]	@ movhi
 384:uCOS-III\Source/os_sem.c ****             return ((OS_SEM_CTR)0);
 157              		.loc 1 384 0
 158 0092 3FE0     		b	.L3
 159              	.LVL21:
 160              	.L11:
 385:uCOS-III\Source/os_sem.c ****         }
 386:uCOS-III\Source/os_sem.c ****     }
 387:uCOS-III\Source/os_sem.c ****                                                             /* Lock the scheduler/re-enable interru
 388:uCOS-III\Source/os_sem.c ****     OS_CRITICAL_ENTER_CPU_EXIT();
 389:uCOS-III\Source/os_sem.c ****     OS_Pend(&pend_data,                                     /* Block task pending on Semaphore     
 161              		.loc 1 389 0
 162 0094 4346     		mov	r3, r8
 163 0096 0622     		movs	r2, #6
 164 0098 3146     		mov	r1, r6
 165 009a 6846     		mov	r0, sp
 166              	.LVL22:
 167 009c FFF7FEFF 		bl	OS_Pend
 168              	.LVL23:
 390:uCOS-III\Source/os_sem.c ****             (OS_PEND_OBJ *)((void *)p_sem),
 391:uCOS-III\Source/os_sem.c ****             OS_TASK_PEND_ON_SEM,
 392:uCOS-III\Source/os_sem.c ****             timeout);
 393:uCOS-III\Source/os_sem.c **** 
 394:uCOS-III\Source/os_sem.c ****     OS_CRITICAL_EXIT_NO_SCHED();
 169              		.loc 1 394 0
 170 00a0 4846     		mov	r0, r9
 171 00a2 FFF7FEFF 		bl	CPU_SR_Restore
 172              	.LVL24:
 395:uCOS-III\Source/os_sem.c **** 
 396:uCOS-III\Source/os_sem.c ****     OSSched();                                              /* Find the next highest priority task 
 173              		.loc 1 396 0
 174 00a6 FFF7FEFF 		bl	OSSched
ARM GAS  C:\Users\jorti\AppData\Local\Temp\ccMy2oAr.s 			page 11


 175              	.LVL25:
 397:uCOS-III\Source/os_sem.c **** 
 398:uCOS-III\Source/os_sem.c ****     CPU_CRITICAL_ENTER();
 176              		.loc 1 398 0
 177 00aa FFF7FEFF 		bl	CPU_SR_Save
 178              	.LVL26:
 399:uCOS-III\Source/os_sem.c ****     switch (OSTCBCurPtr->PendStatus) {
 179              		.loc 1 399 0
 180 00ae 1D4B     		ldr	r3, .L24+8
 181 00b0 1A68     		ldr	r2, [r3]
 182 00b2 92F83530 		ldrb	r3, [r2, #53]	@ zero_extendqisi2
 183 00b6 032B     		cmp	r3, #3
 184 00b8 22D8     		bhi	.L12
 185 00ba DFE803F0 		tbb	[pc, r3]
 186              	.L14:
 187 00be 02       		.byte	(.L13-.L14)/2
 188 00bf 09       		.byte	(.L15-.L14)/2
 189 00c0 19       		.byte	(.L16-.L14)/2
 190 00c1 11       		.byte	(.L17-.L14)/2
 191              		.p2align 1
 192              	.L13:
 400:uCOS-III\Source/os_sem.c ****         case OS_STATUS_PEND_OK:                             /* We got the semaphore                
 401:uCOS-III\Source/os_sem.c ****              if (p_ts != (CPU_TS *)0) {
 193              		.loc 1 401 0
 194 00c2 0FB1     		cbz	r7, .L18
 402:uCOS-III\Source/os_sem.c ****                 *p_ts  =  OSTCBCurPtr->TS;
 195              		.loc 1 402 0
 196 00c4 136C     		ldr	r3, [r2, #64]
 197 00c6 3B60     		str	r3, [r7]
 198              	.L18:
 403:uCOS-III\Source/os_sem.c ****              }
 404:uCOS-III\Source/os_sem.c ****             *p_err = OS_ERR_NONE;
 199              		.loc 1 404 0
 200 00c8 0023     		movs	r3, #0
 201 00ca 109A     		ldr	r2, [sp, #64]
 202 00cc 1380     		strh	r3, [r2]	@ movhi
 405:uCOS-III\Source/os_sem.c ****              break;
 203              		.loc 1 405 0
 204 00ce 1EE0     		b	.L19
 205              	.L15:
 406:uCOS-III\Source/os_sem.c **** 
 407:uCOS-III\Source/os_sem.c ****         case OS_STATUS_PEND_ABORT:                          /* Indicate that we aborted            
 408:uCOS-III\Source/os_sem.c ****              if (p_ts != (CPU_TS *)0) {
 206              		.loc 1 408 0
 207 00d0 0FB1     		cbz	r7, .L20
 409:uCOS-III\Source/os_sem.c ****                 *p_ts  =  OSTCBCurPtr->TS;
 208              		.loc 1 409 0
 209 00d2 136C     		ldr	r3, [r2, #64]
 210 00d4 3B60     		str	r3, [r7]
 211              	.L20:
 410:uCOS-III\Source/os_sem.c ****              }
 411:uCOS-III\Source/os_sem.c ****             *p_err = OS_ERR_PEND_ABORT;
 212              		.loc 1 411 0
 213 00d6 46F2A913 		movw	r3, #25001
 214 00da 109A     		ldr	r2, [sp, #64]
 215 00dc 1380     		strh	r3, [r2]	@ movhi
 412:uCOS-III\Source/os_sem.c ****              break;
ARM GAS  C:\Users\jorti\AppData\Local\Temp\ccMy2oAr.s 			page 12


 216              		.loc 1 412 0
 217 00de 16E0     		b	.L19
 218              	.L17:
 413:uCOS-III\Source/os_sem.c **** 
 414:uCOS-III\Source/os_sem.c ****         case OS_STATUS_PEND_TIMEOUT:                        /* Indicate that we didn't get semaphor
 415:uCOS-III\Source/os_sem.c ****              if (p_ts != (CPU_TS *)0) {
 219              		.loc 1 415 0
 220 00e0 0FB1     		cbz	r7, .L21
 416:uCOS-III\Source/os_sem.c ****                 *p_ts  = (CPU_TS  )0;
 221              		.loc 1 416 0
 222 00e2 0023     		movs	r3, #0
 223 00e4 3B60     		str	r3, [r7]
 224              	.L21:
 417:uCOS-III\Source/os_sem.c ****              }
 418:uCOS-III\Source/os_sem.c ****             *p_err = OS_ERR_TIMEOUT;
 225              		.loc 1 418 0
 226 00e6 47F2D923 		movw	r3, #29401
 227 00ea 109A     		ldr	r2, [sp, #64]
 228 00ec 1380     		strh	r3, [r2]	@ movhi
 419:uCOS-III\Source/os_sem.c ****              break;
 229              		.loc 1 419 0
 230 00ee 0EE0     		b	.L19
 231              	.L16:
 420:uCOS-III\Source/os_sem.c **** 
 421:uCOS-III\Source/os_sem.c ****         case OS_STATUS_PEND_DEL:                            /* Indicate that object pended on has b
 422:uCOS-III\Source/os_sem.c ****              if (p_ts != (CPU_TS *)0) {
 232              		.loc 1 422 0
 233 00f0 0FB1     		cbz	r7, .L22
 423:uCOS-III\Source/os_sem.c ****                 *p_ts  =  OSTCBCurPtr->TS;
 234              		.loc 1 423 0
 235 00f2 136C     		ldr	r3, [r2, #64]
 236 00f4 3B60     		str	r3, [r7]
 237              	.L22:
 424:uCOS-III\Source/os_sem.c ****              }
 425:uCOS-III\Source/os_sem.c ****             *p_err = OS_ERR_OBJ_DEL;
 238              		.loc 1 425 0
 239 00f6 45F6C253 		movw	r3, #24002
 240 00fa 109A     		ldr	r2, [sp, #64]
 241 00fc 1380     		strh	r3, [r2]	@ movhi
 426:uCOS-III\Source/os_sem.c ****              break;
 242              		.loc 1 426 0
 243 00fe 06E0     		b	.L19
 244              	.L12:
 427:uCOS-III\Source/os_sem.c **** 
 428:uCOS-III\Source/os_sem.c ****         default:
 429:uCOS-III\Source/os_sem.c ****             *p_err = OS_ERR_STATUS_INVALID;
 245              		.loc 1 429 0
 246 0100 46F62E63 		movw	r3, #28206
 247 0104 109A     		ldr	r2, [sp, #64]
 248 0106 1380     		strh	r3, [r2]	@ movhi
 430:uCOS-III\Source/os_sem.c ****              CPU_CRITICAL_EXIT();
 249              		.loc 1 430 0
 250 0108 FFF7FEFF 		bl	CPU_SR_Restore
 251              	.LVL27:
 431:uCOS-III\Source/os_sem.c ****              return ((OS_SEM_CTR)0);
 252              		.loc 1 431 0
 253 010c 02E0     		b	.L3
ARM GAS  C:\Users\jorti\AppData\Local\Temp\ccMy2oAr.s 			page 13


 254              	.LVL28:
 255              	.L19:
 432:uCOS-III\Source/os_sem.c ****     }
 433:uCOS-III\Source/os_sem.c ****     ctr = p_sem->Ctr;
 256              		.loc 1 433 0
 257 010e 346A     		ldr	r4, [r6, #32]
 258              	.LVL29:
 434:uCOS-III\Source/os_sem.c ****     CPU_CRITICAL_EXIT();
 259              		.loc 1 434 0
 260 0110 FFF7FEFF 		bl	CPU_SR_Restore
 261              	.LVL30:
 262              	.L3:
 435:uCOS-III\Source/os_sem.c ****     return (ctr);
 436:uCOS-III\Source/os_sem.c **** }
 263              		.loc 1 436 0
 264 0114 2046     		mov	r0, r4
 265 0116 09B0     		add	sp, sp, #36
 266              		.cfi_def_cfa_offset 28
 267              		@ sp needed
 268 0118 BDE8F083 		pop	{r4, r5, r6, r7, r8, r9, pc}
 269              	.LVL31:
 270              	.L25:
 271              		.align	2
 272              	.L24:
 273 011c 00000000 		.word	OSIntNestingCtr
 274 0120 00000000 		.word	OSSchedLockNestingCtr
 275 0124 00000000 		.word	OSTCBCurPtr
 276              		.cfi_endproc
 277              	.LFE3:
 278              		.size	OSSemPend, .-OSSemPend
 279              		.section	.text.OSSemPendAbort,"ax",%progbits
 280              		.align	2
 281              		.global	OSSemPendAbort
 282              		.thumb
 283              		.thumb_func
 284              		.type	OSSemPendAbort, %function
 285              	OSSemPendAbort:
 286              	.LFB4:
 437:uCOS-III\Source/os_sem.c **** 
 438:uCOS-III\Source/os_sem.c **** /*$PAGE*/
 439:uCOS-III\Source/os_sem.c **** /*
 440:uCOS-III\Source/os_sem.c **** ***************************************************************************************************
 441:uCOS-III\Source/os_sem.c **** *                                             ABORT WAITING ON A SEMAPHORE
 442:uCOS-III\Source/os_sem.c **** *
 443:uCOS-III\Source/os_sem.c **** * Description: This function aborts & readies any tasks currently waiting on a semaphore.  This fun
 444:uCOS-III\Source/os_sem.c **** *              to fault-abort the wait on the semaphore, rather than to normally signal the semapho
 445:uCOS-III\Source/os_sem.c **** *
 446:uCOS-III\Source/os_sem.c **** * Arguments  : p_sem     is a pointer to the semaphore
 447:uCOS-III\Source/os_sem.c **** *
 448:uCOS-III\Source/os_sem.c **** *              opt       determines the type of ABORT performed:
 449:uCOS-III\Source/os_sem.c **** *
 450:uCOS-III\Source/os_sem.c **** *                            OS_OPT_PEND_ABORT_1          ABORT wait for a single task (HPT) waitin
 451:uCOS-III\Source/os_sem.c **** *                            OS_OPT_PEND_ABORT_ALL        ABORT wait for ALL tasks that are  waitin
 452:uCOS-III\Source/os_sem.c **** *                            OS_OPT_POST_NO_SCHED         Do not call the scheduler
 453:uCOS-III\Source/os_sem.c **** *
 454:uCOS-III\Source/os_sem.c **** *              p_err     is a pointer to a variable that will contain an error code returned by thi
 455:uCOS-III\Source/os_sem.c **** *
ARM GAS  C:\Users\jorti\AppData\Local\Temp\ccMy2oAr.s 			page 14


 456:uCOS-III\Source/os_sem.c **** *                            OS_ERR_NONE                  At least one task waiting on the semaphor
 457:uCOS-III\Source/os_sem.c **** *                                                         informed of the aborted wait; check retur
 458:uCOS-III\Source/os_sem.c **** *                                                         number of tasks whose wait on the semapho
 459:uCOS-III\Source/os_sem.c **** *                            OS_ERR_OBJ_PTR_NULL          If 'p_sem' is a NULL pointer.
 460:uCOS-III\Source/os_sem.c **** *                            OS_ERR_OBJ_TYPE              If 'p_sem' is not pointing at a semaphore
 461:uCOS-III\Source/os_sem.c **** *                            OS_ERR_OPT_INVALID           If you specified an invalid option
 462:uCOS-III\Source/os_sem.c **** *                            OS_ERR_PEND_ABORT_ISR        If you called this function from an ISR
 463:uCOS-III\Source/os_sem.c **** *                            OS_ERR_PEND_ABORT_NONE       No task were pending
 464:uCOS-III\Source/os_sem.c **** *
 465:uCOS-III\Source/os_sem.c **** * Returns    : == 0          if no tasks were waiting on the semaphore, or upon error.
 466:uCOS-III\Source/os_sem.c **** *              >  0          if one or more tasks waiting on the semaphore are now readied and info
 467:uCOS-III\Source/os_sem.c **** ***************************************************************************************************
 468:uCOS-III\Source/os_sem.c **** */
 469:uCOS-III\Source/os_sem.c **** 
 470:uCOS-III\Source/os_sem.c **** #if OS_CFG_SEM_PEND_ABORT_EN > 0u
 471:uCOS-III\Source/os_sem.c **** OS_OBJ_QTY  OSSemPendAbort (OS_SEM  *p_sem,
 472:uCOS-III\Source/os_sem.c ****                             OS_OPT   opt,
 473:uCOS-III\Source/os_sem.c ****                             OS_ERR  *p_err)
 474:uCOS-III\Source/os_sem.c **** {
 287              		.loc 1 474 0
 288              		.cfi_startproc
 289              		@ args = 0, pretend = 0, frame = 0
 290              		@ frame_needed = 0, uses_anonymous_args = 0
 291              	.LVL32:
 292 0000 2DE9F843 		push	{r3, r4, r5, r6, r7, r8, r9, lr}
 293              		.cfi_def_cfa_offset 32
 294              		.cfi_offset 3, -32
 295              		.cfi_offset 4, -28
 296              		.cfi_offset 5, -24
 297              		.cfi_offset 6, -20
 298              		.cfi_offset 7, -16
 299              		.cfi_offset 8, -12
 300              		.cfi_offset 9, -8
 301              		.cfi_offset 14, -4
 302              	.LVL33:
 475:uCOS-III\Source/os_sem.c ****     OS_PEND_LIST  *p_pend_list;
 476:uCOS-III\Source/os_sem.c ****     OS_TCB        *p_tcb;
 477:uCOS-III\Source/os_sem.c ****     CPU_TS         ts;
 478:uCOS-III\Source/os_sem.c ****     OS_OBJ_QTY     nbr_tasks;
 479:uCOS-III\Source/os_sem.c ****     CPU_SR_ALLOC();
 480:uCOS-III\Source/os_sem.c **** 
 481:uCOS-III\Source/os_sem.c **** 
 482:uCOS-III\Source/os_sem.c **** 
 483:uCOS-III\Source/os_sem.c **** #ifdef OS_SAFETY_CRITICAL
 484:uCOS-III\Source/os_sem.c ****     if (p_err == (OS_ERR *)0) {
 485:uCOS-III\Source/os_sem.c ****         OS_SAFETY_CRITICAL_EXCEPTION();
 486:uCOS-III\Source/os_sem.c ****         return ((OS_OBJ_QTY)0u);
 487:uCOS-III\Source/os_sem.c ****     }
 488:uCOS-III\Source/os_sem.c **** #endif
 489:uCOS-III\Source/os_sem.c **** 
 490:uCOS-III\Source/os_sem.c **** #if OS_CFG_CALLED_FROM_ISR_CHK_EN > 0u
 491:uCOS-III\Source/os_sem.c ****     if (OSIntNestingCtr > (OS_NESTING_CTR)0u) {             /* Not allowed to Pend Abort from an IS
 303              		.loc 1 491 0
 304 0004 264B     		ldr	r3, .L39
 305 0006 1B78     		ldrb	r3, [r3]	@ zero_extendqisi2
 306 0008 23B1     		cbz	r3, .L27
 492:uCOS-III\Source/os_sem.c ****        *p_err =  OS_ERR_PEND_ABORT_ISR;
ARM GAS  C:\Users\jorti\AppData\Local\Temp\ccMy2oAr.s 			page 15


 307              		.loc 1 492 0
 308 000a 46F2AA13 		movw	r3, #25002
 309 000e 1380     		strh	r3, [r2]	@ movhi
 493:uCOS-III\Source/os_sem.c ****         return ((OS_OBJ_QTY)0u);
 310              		.loc 1 493 0
 311 0010 0024     		movs	r4, #0
 312 0012 41E0     		b	.L28
 313              	.L27:
 494:uCOS-III\Source/os_sem.c ****     }
 495:uCOS-III\Source/os_sem.c **** #endif
 496:uCOS-III\Source/os_sem.c **** 
 497:uCOS-III\Source/os_sem.c **** #if OS_CFG_ARG_CHK_EN > 0u
 498:uCOS-III\Source/os_sem.c ****     if (p_sem == (OS_SEM *)0) {                             /* Validate 'p_sem'                    
 314              		.loc 1 498 0
 315 0014 20B9     		cbnz	r0, .L29
 499:uCOS-III\Source/os_sem.c ****        *p_err =  OS_ERR_OBJ_PTR_NULL;
 316              		.loc 1 499 0
 317 0016 45F6C353 		movw	r3, #24003
 318 001a 1380     		strh	r3, [r2]	@ movhi
 500:uCOS-III\Source/os_sem.c ****         return ((OS_OBJ_QTY)0u);
 319              		.loc 1 500 0
 320 001c 0024     		movs	r4, #0
 321 001e 3BE0     		b	.L28
 322              	.L29:
 501:uCOS-III\Source/os_sem.c ****     }
 502:uCOS-III\Source/os_sem.c ****     switch (opt) {                                          /* Validate 'opt'                      
 323              		.loc 1 502 0
 324 0020 B1F5807F 		cmp	r1, #256
 325 0024 0DD0     		beq	.L31
 326 0026 01D8     		bhi	.L32
 327 0028 31B9     		cbnz	r1, .L30
 328 002a 0AE0     		b	.L31
 329              	.L32:
 330 002c B1F5004F 		cmp	r1, #32768
 331 0030 07D0     		beq	.L31
 332 0032 B1F5014F 		cmp	r1, #33024
 333 0036 04D0     		beq	.L31
 334              	.L30:
 503:uCOS-III\Source/os_sem.c ****         case OS_OPT_PEND_ABORT_1:
 504:uCOS-III\Source/os_sem.c ****         case OS_OPT_PEND_ABORT_ALL:
 505:uCOS-III\Source/os_sem.c ****         case OS_OPT_PEND_ABORT_1   | OS_OPT_POST_NO_SCHED:
 506:uCOS-III\Source/os_sem.c ****         case OS_OPT_PEND_ABORT_ALL | OS_OPT_POST_NO_SCHED:
 507:uCOS-III\Source/os_sem.c ****              break;
 508:uCOS-III\Source/os_sem.c **** 
 509:uCOS-III\Source/os_sem.c ****         default:
 510:uCOS-III\Source/os_sem.c ****             *p_err =  OS_ERR_OPT_INVALID;
 335              		.loc 1 510 0
 336 0038 45F62563 		movw	r3, #24101
 337 003c 1380     		strh	r3, [r2]	@ movhi
 511:uCOS-III\Source/os_sem.c ****              return ((OS_OBJ_QTY)0u);
 338              		.loc 1 511 0
 339 003e 0024     		movs	r4, #0
 340 0040 2AE0     		b	.L28
 341              	.L31:
 342 0042 1746     		mov	r7, r2
 343 0044 0E46     		mov	r6, r1
 344 0046 0546     		mov	r5, r0
ARM GAS  C:\Users\jorti\AppData\Local\Temp\ccMy2oAr.s 			page 16


 512:uCOS-III\Source/os_sem.c ****     }
 513:uCOS-III\Source/os_sem.c **** #endif
 514:uCOS-III\Source/os_sem.c **** 
 515:uCOS-III\Source/os_sem.c **** #if OS_CFG_OBJ_TYPE_CHK_EN > 0u
 516:uCOS-III\Source/os_sem.c ****     if (p_sem->Type != OS_OBJ_TYPE_SEM) {                   /* Make sure semaphore was created     
 517:uCOS-III\Source/os_sem.c ****        *p_err =  OS_ERR_OBJ_TYPE;
 518:uCOS-III\Source/os_sem.c ****         return ((OS_OBJ_QTY)0u);
 519:uCOS-III\Source/os_sem.c ****     }
 520:uCOS-III\Source/os_sem.c **** #endif
 521:uCOS-III\Source/os_sem.c **** 
 522:uCOS-III\Source/os_sem.c ****     CPU_CRITICAL_ENTER();
 345              		.loc 1 522 0
 346 0048 FFF7FEFF 		bl	CPU_SR_Save
 347              	.LVL34:
 348 004c 8046     		mov	r8, r0
 349              	.LVL35:
 523:uCOS-III\Source/os_sem.c ****     p_pend_list = &p_sem->PendList;
 524:uCOS-III\Source/os_sem.c ****     if (p_pend_list->NbrEntries == (OS_OBJ_QTY)0u) {        /* Any task waiting on semaphore?      
 350              		.loc 1 524 0
 351 004e 2C8A     		ldrh	r4, [r5, #16]
 352 0050 2CB9     		cbnz	r4, .L33
 525:uCOS-III\Source/os_sem.c ****         CPU_CRITICAL_EXIT();                                /* No                                  
 353              		.loc 1 525 0
 354 0052 FFF7FEFF 		bl	CPU_SR_Restore
 355              	.LVL36:
 526:uCOS-III\Source/os_sem.c ****        *p_err =  OS_ERR_PEND_ABORT_NONE;
 356              		.loc 1 526 0
 357 0056 46F2AB13 		movw	r3, #25003
 358 005a 3B80     		strh	r3, [r7]	@ movhi
 527:uCOS-III\Source/os_sem.c ****         return ((OS_OBJ_QTY)0u);
 359              		.loc 1 527 0
 360 005c 1CE0     		b	.L28
 361              	.LVL37:
 362              	.L33:
 528:uCOS-III\Source/os_sem.c ****     }
 529:uCOS-III\Source/os_sem.c **** 
 530:uCOS-III\Source/os_sem.c ****     OS_CRITICAL_ENTER_CPU_EXIT();
 531:uCOS-III\Source/os_sem.c ****     nbr_tasks = 0u;
 532:uCOS-III\Source/os_sem.c ****     ts        = OS_TS_GET();                                /* Get local time stamp so all tasks ge
 363              		.loc 1 532 0
 364 005e FFF7FEFF 		bl	CPU_TS_TmrRd
 365              	.LVL38:
 366 0062 8146     		mov	r9, r0
 367              	.LVL39:
 531:uCOS-III\Source/os_sem.c ****     ts        = OS_TS_GET();                                /* Get local time stamp so all tasks ge
 368              		.loc 1 531 0
 369 0064 0024     		movs	r4, #0
 533:uCOS-III\Source/os_sem.c ****     while (p_pend_list->NbrEntries > (OS_OBJ_QTY)0u) {
 370              		.loc 1 533 0
 371 0066 0AE0     		b	.L34
 372              	.LVL40:
 373              	.L36:
 534:uCOS-III\Source/os_sem.c ****         p_tcb = p_pend_list->HeadPtr->TCBPtr;
 374              		.loc 1 534 0
 375 0068 AB68     		ldr	r3, [r5, #8]
 376              	.LVL41:
 535:uCOS-III\Source/os_sem.c ****         OS_PendAbort((OS_PEND_OBJ *)((void *)p_sem),
ARM GAS  C:\Users\jorti\AppData\Local\Temp\ccMy2oAr.s 			page 17


 377              		.loc 1 535 0
 378 006a 4A46     		mov	r2, r9
 379 006c 9968     		ldr	r1, [r3, #8]
 380 006e 2846     		mov	r0, r5
 381 0070 FFF7FEFF 		bl	OS_PendAbort
 382              	.LVL42:
 536:uCOS-III\Source/os_sem.c ****                      p_tcb,
 537:uCOS-III\Source/os_sem.c ****                      ts);
 538:uCOS-III\Source/os_sem.c ****         nbr_tasks++;
 383              		.loc 1 538 0
 384 0074 0134     		adds	r4, r4, #1
 385              	.LVL43:
 386 0076 A4B2     		uxth	r4, r4
 387              	.LVL44:
 539:uCOS-III\Source/os_sem.c ****         if (opt != OS_OPT_PEND_ABORT_ALL) {                 /* Pend abort all tasks waiting?       
 388              		.loc 1 539 0
 389 0078 B6F5807F 		cmp	r6, #256
 390 007c 02D1     		bne	.L35
 391              	.LVL45:
 392              	.L34:
 533:uCOS-III\Source/os_sem.c ****         p_tcb = p_pend_list->HeadPtr->TCBPtr;
 393              		.loc 1 533 0
 394 007e 2B8A     		ldrh	r3, [r5, #16]
 395 0080 002B     		cmp	r3, #0
 396 0082 F1D1     		bne	.L36
 397              	.L35:
 540:uCOS-III\Source/os_sem.c ****             break;                                          /* No                                  
 541:uCOS-III\Source/os_sem.c ****         }
 542:uCOS-III\Source/os_sem.c ****     }
 543:uCOS-III\Source/os_sem.c ****     OS_CRITICAL_EXIT_NO_SCHED();
 398              		.loc 1 543 0
 399 0084 4046     		mov	r0, r8
 400 0086 FFF7FEFF 		bl	CPU_SR_Restore
 401              	.LVL46:
 544:uCOS-III\Source/os_sem.c **** 
 545:uCOS-III\Source/os_sem.c ****     if ((opt & OS_OPT_POST_NO_SCHED) == (OS_OPT)0u) {
 402              		.loc 1 545 0
 403 008a 16F4004F 		tst	r6, #32768
 404 008e 01D1     		bne	.L37
 546:uCOS-III\Source/os_sem.c ****         OSSched();                                          /* Run the scheduler                   
 405              		.loc 1 546 0
 406 0090 FFF7FEFF 		bl	OSSched
 407              	.LVL47:
 408              	.L37:
 547:uCOS-III\Source/os_sem.c ****     }
 548:uCOS-III\Source/os_sem.c **** 
 549:uCOS-III\Source/os_sem.c ****    *p_err = OS_ERR_NONE;
 409              		.loc 1 549 0
 410 0094 0023     		movs	r3, #0
 411 0096 3B80     		strh	r3, [r7]	@ movhi
 412              	.LVL48:
 413              	.L28:
 550:uCOS-III\Source/os_sem.c ****     return (nbr_tasks);
 551:uCOS-III\Source/os_sem.c **** }
 414              		.loc 1 551 0
 415 0098 2046     		mov	r0, r4
 416 009a BDE8F883 		pop	{r3, r4, r5, r6, r7, r8, r9, pc}
ARM GAS  C:\Users\jorti\AppData\Local\Temp\ccMy2oAr.s 			page 18


 417              	.L40:
 418 009e 00BF     		.align	2
 419              	.L39:
 420 00a0 00000000 		.word	OSIntNestingCtr
 421              		.cfi_endproc
 422              	.LFE4:
 423              		.size	OSSemPendAbort, .-OSSemPendAbort
 424              		.section	.text.OSSemSet,"ax",%progbits
 425              		.align	2
 426              		.global	OSSemSet
 427              		.thumb
 428              		.thumb_func
 429              		.type	OSSemSet, %function
 430              	OSSemSet:
 431              	.LFB6:
 552:uCOS-III\Source/os_sem.c **** #endif
 553:uCOS-III\Source/os_sem.c **** 
 554:uCOS-III\Source/os_sem.c **** /*$PAGE*/
 555:uCOS-III\Source/os_sem.c **** /*
 556:uCOS-III\Source/os_sem.c **** ***************************************************************************************************
 557:uCOS-III\Source/os_sem.c **** *                                                 POST TO A SEMAPHORE
 558:uCOS-III\Source/os_sem.c **** *
 559:uCOS-III\Source/os_sem.c **** * Description: This function signals a semaphore
 560:uCOS-III\Source/os_sem.c **** *
 561:uCOS-III\Source/os_sem.c **** * Arguments  : p_sem    is a pointer to the semaphore
 562:uCOS-III\Source/os_sem.c **** *
 563:uCOS-III\Source/os_sem.c **** *              opt      determines the type of POST performed:
 564:uCOS-III\Source/os_sem.c **** *
 565:uCOS-III\Source/os_sem.c **** *                           OS_OPT_POST_1            POST and ready only the highest priority task 
 566:uCOS-III\Source/os_sem.c **** *                                                    (if tasks are waiting).
 567:uCOS-III\Source/os_sem.c **** *                           OS_OPT_POST_ALL          POST to ALL tasks that are waiting on the sema
 568:uCOS-III\Source/os_sem.c **** *
 569:uCOS-III\Source/os_sem.c **** *                           OS_OPT_POST_NO_SCHED     Do not call the scheduler
 570:uCOS-III\Source/os_sem.c **** *
 571:uCOS-III\Source/os_sem.c **** *                           Note(s): 1) OS_OPT_POST_NO_SCHED can be added with one of the other opt
 572:uCOS-III\Source/os_sem.c **** *
 573:uCOS-III\Source/os_sem.c **** *              p_err    is a pointer to a variable that will contain an error code returned by this
 574:uCOS-III\Source/os_sem.c **** *
 575:uCOS-III\Source/os_sem.c **** *                           OS_ERR_NONE          The call was successful and the semaphore was sign
 576:uCOS-III\Source/os_sem.c **** *                           OS_ERR_OBJ_PTR_NULL  If 'p_sem' is a NULL pointer.
 577:uCOS-III\Source/os_sem.c **** *                           OS_ERR_OBJ_TYPE      If 'p_sem' is not pointing at a semaphore
 578:uCOS-III\Source/os_sem.c **** *                           OS_ERR_SEM_OVF       If the post would cause the semaphore count to ove
 579:uCOS-III\Source/os_sem.c **** *
 580:uCOS-III\Source/os_sem.c **** * Returns    : The current value of the semaphore counter or 0 upon error.
 581:uCOS-III\Source/os_sem.c **** ***************************************************************************************************
 582:uCOS-III\Source/os_sem.c **** */
 583:uCOS-III\Source/os_sem.c **** 
 584:uCOS-III\Source/os_sem.c **** OS_SEM_CTR  OSSemPost (OS_SEM  *p_sem,
 585:uCOS-III\Source/os_sem.c ****                        OS_OPT   opt,
 586:uCOS-III\Source/os_sem.c ****                        OS_ERR  *p_err)
 587:uCOS-III\Source/os_sem.c **** {
 588:uCOS-III\Source/os_sem.c ****     OS_SEM_CTR  ctr;
 589:uCOS-III\Source/os_sem.c ****     CPU_TS      ts;
 590:uCOS-III\Source/os_sem.c **** 
 591:uCOS-III\Source/os_sem.c **** 
 592:uCOS-III\Source/os_sem.c **** 
 593:uCOS-III\Source/os_sem.c **** #ifdef OS_SAFETY_CRITICAL
ARM GAS  C:\Users\jorti\AppData\Local\Temp\ccMy2oAr.s 			page 19


 594:uCOS-III\Source/os_sem.c ****     if (p_err == (OS_ERR *)0) {
 595:uCOS-III\Source/os_sem.c ****         OS_SAFETY_CRITICAL_EXCEPTION();
 596:uCOS-III\Source/os_sem.c ****         return ((OS_SEM_CTR)0);
 597:uCOS-III\Source/os_sem.c ****     }
 598:uCOS-III\Source/os_sem.c **** #endif
 599:uCOS-III\Source/os_sem.c **** 
 600:uCOS-III\Source/os_sem.c **** #if OS_CFG_ARG_CHK_EN > 0u
 601:uCOS-III\Source/os_sem.c ****     if (p_sem == (OS_SEM *)0) {                             /* Validate 'p_sem'                    
 602:uCOS-III\Source/os_sem.c ****        *p_err  = OS_ERR_OBJ_PTR_NULL;
 603:uCOS-III\Source/os_sem.c ****         return ((OS_SEM_CTR)0);
 604:uCOS-III\Source/os_sem.c ****     }
 605:uCOS-III\Source/os_sem.c ****     switch (opt) {                                          /* Validate 'opt'                      
 606:uCOS-III\Source/os_sem.c ****         case OS_OPT_POST_1:
 607:uCOS-III\Source/os_sem.c ****         case OS_OPT_POST_ALL:
 608:uCOS-III\Source/os_sem.c ****         case OS_OPT_POST_1   | OS_OPT_POST_NO_SCHED:
 609:uCOS-III\Source/os_sem.c ****         case OS_OPT_POST_ALL | OS_OPT_POST_NO_SCHED:
 610:uCOS-III\Source/os_sem.c ****              break;
 611:uCOS-III\Source/os_sem.c **** 
 612:uCOS-III\Source/os_sem.c ****         default:
 613:uCOS-III\Source/os_sem.c ****             *p_err =  OS_ERR_OPT_INVALID;
 614:uCOS-III\Source/os_sem.c ****              return ((OS_SEM_CTR)0u);
 615:uCOS-III\Source/os_sem.c ****     }
 616:uCOS-III\Source/os_sem.c **** #endif
 617:uCOS-III\Source/os_sem.c **** 
 618:uCOS-III\Source/os_sem.c **** #if OS_CFG_OBJ_TYPE_CHK_EN > 0u
 619:uCOS-III\Source/os_sem.c ****     if (p_sem->Type != OS_OBJ_TYPE_SEM) {                   /* Make sure semaphore was created     
 620:uCOS-III\Source/os_sem.c ****        *p_err = OS_ERR_OBJ_TYPE;
 621:uCOS-III\Source/os_sem.c ****         return ((OS_SEM_CTR)0);
 622:uCOS-III\Source/os_sem.c ****     }
 623:uCOS-III\Source/os_sem.c **** #endif
 624:uCOS-III\Source/os_sem.c **** 
 625:uCOS-III\Source/os_sem.c ****     ts = OS_TS_GET();                                       /* Get timestamp                       
 626:uCOS-III\Source/os_sem.c **** 
 627:uCOS-III\Source/os_sem.c **** #if OS_CFG_ISR_POST_DEFERRED_EN > 0u
 628:uCOS-III\Source/os_sem.c ****     if (OSIntNestingCtr > (OS_NESTING_CTR)0) {              /* See if called from an ISR           
 629:uCOS-III\Source/os_sem.c ****         OS_IntQPost((OS_OBJ_TYPE)OS_OBJ_TYPE_SEM,           /* Post to ISR queue                   
 630:uCOS-III\Source/os_sem.c ****                     (void      *)p_sem,
 631:uCOS-III\Source/os_sem.c ****                     (void      *)0,
 632:uCOS-III\Source/os_sem.c ****                     (OS_MSG_SIZE)0,
 633:uCOS-III\Source/os_sem.c ****                     (OS_FLAGS   )0,
 634:uCOS-III\Source/os_sem.c ****                     (OS_OPT     )opt,
 635:uCOS-III\Source/os_sem.c ****                     (CPU_TS     )ts,
 636:uCOS-III\Source/os_sem.c ****                     (OS_ERR    *)p_err);
 637:uCOS-III\Source/os_sem.c ****         return ((OS_SEM_CTR)0);
 638:uCOS-III\Source/os_sem.c ****     }
 639:uCOS-III\Source/os_sem.c **** #endif
 640:uCOS-III\Source/os_sem.c **** 
 641:uCOS-III\Source/os_sem.c ****     ctr = OS_SemPost(p_sem,                                 /* Post to semaphore                   
 642:uCOS-III\Source/os_sem.c ****                      opt,
 643:uCOS-III\Source/os_sem.c ****                      ts,
 644:uCOS-III\Source/os_sem.c ****                      p_err);
 645:uCOS-III\Source/os_sem.c **** 
 646:uCOS-III\Source/os_sem.c ****     return (ctr);
 647:uCOS-III\Source/os_sem.c **** }
 648:uCOS-III\Source/os_sem.c **** 
 649:uCOS-III\Source/os_sem.c **** /*$PAGE*/
 650:uCOS-III\Source/os_sem.c **** /*
ARM GAS  C:\Users\jorti\AppData\Local\Temp\ccMy2oAr.s 			page 20


 651:uCOS-III\Source/os_sem.c **** ***************************************************************************************************
 652:uCOS-III\Source/os_sem.c **** *                                                    SET SEMAPHORE
 653:uCOS-III\Source/os_sem.c **** *
 654:uCOS-III\Source/os_sem.c **** * Description: This function sets the semaphore count to the value specified as an argument.  Typic
 655:uCOS-III\Source/os_sem.c **** *              would be 0 but of course, we can set the semaphore to any value.
 656:uCOS-III\Source/os_sem.c **** *
 657:uCOS-III\Source/os_sem.c **** *              You would typically use this function when a semaphore is used as a signaling mechan
 658:uCOS-III\Source/os_sem.c **** *              and, you want to reset the count value.
 659:uCOS-III\Source/os_sem.c **** *
 660:uCOS-III\Source/os_sem.c **** * Arguments  : p_sem     is a pointer to the semaphore
 661:uCOS-III\Source/os_sem.c **** *
 662:uCOS-III\Source/os_sem.c **** *              cnt       is the new value for the semaphore count.  You would pass 0 to reset the s
 663:uCOS-III\Source/os_sem.c **** *
 664:uCOS-III\Source/os_sem.c **** *              p_err     is a pointer to a variable that will contain an error code returned by thi
 665:uCOS-III\Source/os_sem.c **** *
 666:uCOS-III\Source/os_sem.c **** *                            OS_ERR_NONE           The call was successful and the semaphore value 
 667:uCOS-III\Source/os_sem.c **** *                            OS_ERR_OBJ_PTR_NULL   If 'p_sem' is a NULL pointer.
 668:uCOS-III\Source/os_sem.c **** *                            OS_ERR_OBJ_TYPE       If 'p_sem' is not pointing to a semaphore.
 669:uCOS-III\Source/os_sem.c **** *                            OS_ERR_TASK_WAITING   If tasks are waiting on the semaphore.
 670:uCOS-III\Source/os_sem.c **** *
 671:uCOS-III\Source/os_sem.c **** * Returns    : None
 672:uCOS-III\Source/os_sem.c **** ***************************************************************************************************
 673:uCOS-III\Source/os_sem.c **** */
 674:uCOS-III\Source/os_sem.c **** 
 675:uCOS-III\Source/os_sem.c **** #if OS_CFG_SEM_SET_EN > 0u
 676:uCOS-III\Source/os_sem.c **** void  OSSemSet (OS_SEM      *p_sem,
 677:uCOS-III\Source/os_sem.c ****                 OS_SEM_CTR   cnt,
 678:uCOS-III\Source/os_sem.c ****                 OS_ERR      *p_err)
 679:uCOS-III\Source/os_sem.c **** {
 432              		.loc 1 679 0
 433              		.cfi_startproc
 434              		@ args = 0, pretend = 0, frame = 0
 435              		@ frame_needed = 0, uses_anonymous_args = 0
 436              	.LVL49:
 680:uCOS-III\Source/os_sem.c ****     OS_PEND_LIST  *p_pend_list;
 681:uCOS-III\Source/os_sem.c ****     CPU_SR_ALLOC();
 682:uCOS-III\Source/os_sem.c **** 
 683:uCOS-III\Source/os_sem.c **** 
 684:uCOS-III\Source/os_sem.c **** 
 685:uCOS-III\Source/os_sem.c **** #ifdef OS_SAFETY_CRITICAL
 686:uCOS-III\Source/os_sem.c ****     if (p_err == (OS_ERR *)0) {
 687:uCOS-III\Source/os_sem.c ****         OS_SAFETY_CRITICAL_EXCEPTION();
 688:uCOS-III\Source/os_sem.c ****         return;
 689:uCOS-III\Source/os_sem.c ****     }
 690:uCOS-III\Source/os_sem.c **** #endif
 691:uCOS-III\Source/os_sem.c **** 
 692:uCOS-III\Source/os_sem.c **** #if OS_CFG_CALLED_FROM_ISR_CHK_EN > 0u
 693:uCOS-III\Source/os_sem.c ****     if (OSIntNestingCtr > (OS_NESTING_CTR)0) {              /* Can't call this function from an ISR
 437              		.loc 1 693 0
 438 0000 104B     		ldr	r3, .L50
 439 0002 1B78     		ldrb	r3, [r3]	@ zero_extendqisi2
 440 0004 1BB1     		cbz	r3, .L42
 694:uCOS-III\Source/os_sem.c ****        *p_err = OS_ERR_SET_ISR;
 441              		.loc 1 694 0
 442 0006 46F6C653 		movw	r3, #28102
 443 000a 1380     		strh	r3, [r2]	@ movhi
 444 000c 7047     		bx	lr
ARM GAS  C:\Users\jorti\AppData\Local\Temp\ccMy2oAr.s 			page 21


 445              	.L42:
 695:uCOS-III\Source/os_sem.c ****         return;
 696:uCOS-III\Source/os_sem.c ****     }
 697:uCOS-III\Source/os_sem.c **** #endif
 698:uCOS-III\Source/os_sem.c **** 
 699:uCOS-III\Source/os_sem.c **** #if OS_CFG_ARG_CHK_EN > 0u
 700:uCOS-III\Source/os_sem.c ****     if (p_sem == (OS_SEM *)0) {                             /* Validate 'p_sem'                    
 446              		.loc 1 700 0
 447 000e 18B9     		cbnz	r0, .L44
 701:uCOS-III\Source/os_sem.c ****        *p_err = OS_ERR_OBJ_PTR_NULL;
 448              		.loc 1 701 0
 449 0010 45F6C353 		movw	r3, #24003
 450 0014 1380     		strh	r3, [r2]	@ movhi
 702:uCOS-III\Source/os_sem.c ****         return;
 451              		.loc 1 702 0
 452 0016 7047     		bx	lr
 453              	.L44:
 679:uCOS-III\Source/os_sem.c ****     OS_PEND_LIST  *p_pend_list;
 454              		.loc 1 679 0
 455 0018 70B5     		push	{r4, r5, r6, lr}
 456              		.cfi_def_cfa_offset 16
 457              		.cfi_offset 4, -16
 458              		.cfi_offset 5, -12
 459              		.cfi_offset 6, -8
 460              		.cfi_offset 14, -4
 461 001a 1646     		mov	r6, r2
 462 001c 0D46     		mov	r5, r1
 463 001e 0446     		mov	r4, r0
 703:uCOS-III\Source/os_sem.c ****     }
 704:uCOS-III\Source/os_sem.c **** #endif
 705:uCOS-III\Source/os_sem.c **** 
 706:uCOS-III\Source/os_sem.c **** #if OS_CFG_OBJ_TYPE_CHK_EN > 0u
 707:uCOS-III\Source/os_sem.c ****     if (p_sem->Type != OS_OBJ_TYPE_SEM) {                   /* Make sure semaphore was created     
 708:uCOS-III\Source/os_sem.c ****        *p_err = OS_ERR_OBJ_TYPE;
 709:uCOS-III\Source/os_sem.c ****         return;
 710:uCOS-III\Source/os_sem.c ****     }
 711:uCOS-III\Source/os_sem.c **** #endif
 712:uCOS-III\Source/os_sem.c **** 
 713:uCOS-III\Source/os_sem.c ****    *p_err = OS_ERR_NONE;
 464              		.loc 1 713 0
 465 0020 0023     		movs	r3, #0
 466 0022 1380     		strh	r3, [r2]	@ movhi
 714:uCOS-III\Source/os_sem.c ****     CPU_CRITICAL_ENTER();
 467              		.loc 1 714 0
 468 0024 FFF7FEFF 		bl	CPU_SR_Save
 469              	.LVL50:
 715:uCOS-III\Source/os_sem.c ****     if (p_sem->Ctr > (OS_SEM_CTR)0) {                       /* See if semaphore already has a count
 470              		.loc 1 715 0
 471 0028 236A     		ldr	r3, [r4, #32]
 472 002a 0BB1     		cbz	r3, .L45
 716:uCOS-III\Source/os_sem.c ****         p_sem->Ctr = cnt;                                   /* Yes, set it to the new value specifi
 473              		.loc 1 716 0
 474 002c 2562     		str	r5, [r4, #32]
 475 002e 06E0     		b	.L46
 476              	.L45:
 477              	.LVL51:
 717:uCOS-III\Source/os_sem.c ****     } else {
ARM GAS  C:\Users\jorti\AppData\Local\Temp\ccMy2oAr.s 			page 22


 718:uCOS-III\Source/os_sem.c ****         p_pend_list = &p_sem->PendList;                     /* No                                  
 719:uCOS-III\Source/os_sem.c ****         if (p_pend_list->NbrEntries == (OS_OBJ_QTY)0) {     /*      See if task(s) waiting?        
 478              		.loc 1 719 0
 479 0030 238A     		ldrh	r3, [r4, #16]
 480 0032 0BB9     		cbnz	r3, .L47
 720:uCOS-III\Source/os_sem.c ****             p_sem->Ctr = cnt;                               /*      No, OK to set the value        
 481              		.loc 1 720 0
 482 0034 2562     		str	r5, [r4, #32]
 483 0036 02E0     		b	.L46
 484              	.L47:
 721:uCOS-III\Source/os_sem.c ****         } else {
 722:uCOS-III\Source/os_sem.c ****            *p_err      = OS_ERR_TASK_WAITING;
 485              		.loc 1 722 0
 486 0038 47F25F13 		movw	r3, #29023
 487 003c 3380     		strh	r3, [r6]	@ movhi
 488              	.LVL52:
 489              	.L46:
 723:uCOS-III\Source/os_sem.c ****         }
 724:uCOS-III\Source/os_sem.c ****     }
 725:uCOS-III\Source/os_sem.c ****     CPU_CRITICAL_EXIT();
 490              		.loc 1 725 0
 491 003e FFF7FEFF 		bl	CPU_SR_Restore
 492              	.LVL53:
 493 0042 70BD     		pop	{r4, r5, r6, pc}
 494              	.LVL54:
 495              	.L51:
 496              		.align	2
 497              	.L50:
 498 0044 00000000 		.word	OSIntNestingCtr
 499              		.cfi_endproc
 500              	.LFE6:
 501              		.size	OSSemSet, .-OSSemSet
 502              		.section	.text.OS_SemClr,"ax",%progbits
 503              		.align	2
 504              		.global	OS_SemClr
 505              		.thumb
 506              		.thumb_func
 507              		.type	OS_SemClr, %function
 508              	OS_SemClr:
 509              	.LFB7:
 726:uCOS-III\Source/os_sem.c **** }
 727:uCOS-III\Source/os_sem.c **** #endif
 728:uCOS-III\Source/os_sem.c **** 
 729:uCOS-III\Source/os_sem.c **** /*$PAGE*/
 730:uCOS-III\Source/os_sem.c **** /*
 731:uCOS-III\Source/os_sem.c **** ***************************************************************************************************
 732:uCOS-III\Source/os_sem.c **** *                                           CLEAR THE CONTENTS OF A SEMAPHORE
 733:uCOS-III\Source/os_sem.c **** *
 734:uCOS-III\Source/os_sem.c **** * Description: This function is called by OSSemDel() to clear the contents of a semaphore
 735:uCOS-III\Source/os_sem.c **** *
 736:uCOS-III\Source/os_sem.c **** 
 737:uCOS-III\Source/os_sem.c **** * Argument(s): p_sem      is a pointer to the semaphore to clear
 738:uCOS-III\Source/os_sem.c **** *              -----
 739:uCOS-III\Source/os_sem.c **** *
 740:uCOS-III\Source/os_sem.c **** * Returns    : none
 741:uCOS-III\Source/os_sem.c **** *
 742:uCOS-III\Source/os_sem.c **** * Note(s)    : 1) This function is INTERNAL to uC/OS-III and your application MUST NOT call it.
ARM GAS  C:\Users\jorti\AppData\Local\Temp\ccMy2oAr.s 			page 23


 743:uCOS-III\Source/os_sem.c **** ***************************************************************************************************
 744:uCOS-III\Source/os_sem.c **** */
 745:uCOS-III\Source/os_sem.c **** 
 746:uCOS-III\Source/os_sem.c **** void  OS_SemClr (OS_SEM  *p_sem)
 747:uCOS-III\Source/os_sem.c **** {
 510              		.loc 1 747 0
 511              		.cfi_startproc
 512              		@ args = 0, pretend = 0, frame = 0
 513              		@ frame_needed = 0, uses_anonymous_args = 0
 514              	.LVL55:
 515 0000 08B5     		push	{r3, lr}
 516              		.cfi_def_cfa_offset 8
 517              		.cfi_offset 3, -8
 518              		.cfi_offset 14, -4
 748:uCOS-III\Source/os_sem.c ****     p_sem->Type    = OS_OBJ_TYPE_NONE;                      /* Mark the data structure as a NONE   
 519              		.loc 1 748 0
 520 0002 054B     		ldr	r3, .L54
 521 0004 0360     		str	r3, [r0]
 749:uCOS-III\Source/os_sem.c ****     p_sem->Ctr     = (OS_SEM_CTR)0;                         /* Set semaphore value                 
 522              		.loc 1 749 0
 523 0006 0023     		movs	r3, #0
 524 0008 0362     		str	r3, [r0, #32]
 750:uCOS-III\Source/os_sem.c ****     p_sem->TS      = (CPU_TS    )0;                         /* Clear the time stamp                
 525              		.loc 1 750 0
 526 000a 4362     		str	r3, [r0, #36]
 751:uCOS-III\Source/os_sem.c ****     p_sem->NamePtr = (CPU_CHAR *)((void *)"?SEM");
 527              		.loc 1 751 0
 528 000c 034B     		ldr	r3, .L54+4
 529 000e 4360     		str	r3, [r0, #4]
 752:uCOS-III\Source/os_sem.c ****     OS_PendListInit(&p_sem->PendList);                      /* Initialize the waiting list         
 530              		.loc 1 752 0
 531 0010 0830     		adds	r0, r0, #8
 532              	.LVL56:
 533 0012 FFF7FEFF 		bl	OS_PendListInit
 534              	.LVL57:
 535 0016 08BD     		pop	{r3, pc}
 536              	.L55:
 537              		.align	2
 538              	.L54:
 539 0018 4E4F4E45 		.word	1162760014
 540 001c 00000000 		.word	.LC0
 541              		.cfi_endproc
 542              	.LFE7:
 543              		.size	OS_SemClr, .-OS_SemClr
 544              		.section	.text.OS_SemDbgListAdd,"ax",%progbits
 545              		.align	2
 546              		.global	OS_SemDbgListAdd
 547              		.thumb
 548              		.thumb_func
 549              		.type	OS_SemDbgListAdd, %function
 550              	OS_SemDbgListAdd:
 551              	.LFB8:
 753:uCOS-III\Source/os_sem.c **** }
 754:uCOS-III\Source/os_sem.c **** 
 755:uCOS-III\Source/os_sem.c **** /*$PAGE*/
 756:uCOS-III\Source/os_sem.c **** /*
 757:uCOS-III\Source/os_sem.c **** ***************************************************************************************************
ARM GAS  C:\Users\jorti\AppData\Local\Temp\ccMy2oAr.s 			page 24


 758:uCOS-III\Source/os_sem.c **** *                                        ADD/REMOVE SEMAPHORE TO/FROM DEBUG LIST
 759:uCOS-III\Source/os_sem.c **** *
 760:uCOS-III\Source/os_sem.c **** * Description: These functions are called by uC/OS-III to add or remove a semaphore to/from the deb
 761:uCOS-III\Source/os_sem.c **** *
 762:uCOS-III\Source/os_sem.c **** * Arguments  : p_sem     is a pointer to the semaphore to add/remove
 763:uCOS-III\Source/os_sem.c **** *
 764:uCOS-III\Source/os_sem.c **** * Returns    : none
 765:uCOS-III\Source/os_sem.c **** *
 766:uCOS-III\Source/os_sem.c **** * Note(s)    : These functions are INTERNAL to uC/OS-III and your application should not call it.
 767:uCOS-III\Source/os_sem.c **** ***************************************************************************************************
 768:uCOS-III\Source/os_sem.c **** */
 769:uCOS-III\Source/os_sem.c **** 
 770:uCOS-III\Source/os_sem.c **** 
 771:uCOS-III\Source/os_sem.c **** #if OS_CFG_DBG_EN > 0u
 772:uCOS-III\Source/os_sem.c **** void  OS_SemDbgListAdd (OS_SEM  *p_sem)
 773:uCOS-III\Source/os_sem.c **** {
 552              		.loc 1 773 0
 553              		.cfi_startproc
 554              		@ args = 0, pretend = 0, frame = 0
 555              		@ frame_needed = 0, uses_anonymous_args = 0
 556              		@ link register save eliminated.
 557              	.LVL58:
 774:uCOS-III\Source/os_sem.c ****     p_sem->DbgNamePtr               = (CPU_CHAR *)((void *)" ");
 558              		.loc 1 774 0
 559 0000 064B     		ldr	r3, .L59
 560 0002 C361     		str	r3, [r0, #28]
 775:uCOS-III\Source/os_sem.c ****     p_sem->DbgPrevPtr               = (OS_SEM   *)0;
 561              		.loc 1 775 0
 562 0004 0023     		movs	r3, #0
 563 0006 4361     		str	r3, [r0, #20]
 776:uCOS-III\Source/os_sem.c ****     if (OSSemDbgListPtr == (OS_SEM *)0) {
 564              		.loc 1 776 0
 565 0008 054B     		ldr	r3, .L59+4
 566 000a 1B68     		ldr	r3, [r3]
 567 000c 0BB9     		cbnz	r3, .L57
 777:uCOS-III\Source/os_sem.c ****         p_sem->DbgNextPtr           = (OS_SEM   *)0;
 568              		.loc 1 777 0
 569 000e 8361     		str	r3, [r0, #24]
 570 0010 01E0     		b	.L58
 571              	.L57:
 778:uCOS-III\Source/os_sem.c ****     } else {
 779:uCOS-III\Source/os_sem.c ****         p_sem->DbgNextPtr           =  OSSemDbgListPtr;
 572              		.loc 1 779 0
 573 0012 8361     		str	r3, [r0, #24]
 780:uCOS-III\Source/os_sem.c ****         OSSemDbgListPtr->DbgPrevPtr =  p_sem;
 574              		.loc 1 780 0
 575 0014 5861     		str	r0, [r3, #20]
 576              	.L58:
 781:uCOS-III\Source/os_sem.c ****     }
 782:uCOS-III\Source/os_sem.c ****     OSSemDbgListPtr                 =  p_sem;
 577              		.loc 1 782 0
 578 0016 024B     		ldr	r3, .L59+4
 579 0018 1860     		str	r0, [r3]
 580 001a 7047     		bx	lr
 581              	.L60:
 582              		.align	2
 583              	.L59:
ARM GAS  C:\Users\jorti\AppData\Local\Temp\ccMy2oAr.s 			page 25


 584 001c 08000000 		.word	.LC1
 585 0020 00000000 		.word	OSSemDbgListPtr
 586              		.cfi_endproc
 587              	.LFE8:
 588              		.size	OS_SemDbgListAdd, .-OS_SemDbgListAdd
 589              		.section	.text.OSSemCreate,"ax",%progbits
 590              		.align	2
 591              		.global	OSSemCreate
 592              		.thumb
 593              		.thumb_func
 594              		.type	OSSemCreate, %function
 595              	OSSemCreate:
 596              	.LFB1:
  77:uCOS-III\Source/os_sem.c ****     CPU_SR_ALLOC();
 597              		.loc 1 77 0
 598              		.cfi_startproc
 599              		@ args = 0, pretend = 0, frame = 0
 600              		@ frame_needed = 0, uses_anonymous_args = 0
 601              	.LVL59:
 602 0000 2DE9F041 		push	{r4, r5, r6, r7, r8, lr}
 603              		.cfi_def_cfa_offset 24
 604              		.cfi_offset 4, -24
 605              		.cfi_offset 5, -20
 606              		.cfi_offset 6, -16
 607              		.cfi_offset 7, -12
 608              		.cfi_offset 8, -8
 609              		.cfi_offset 14, -4
 610              	.LVL60:
  97:uCOS-III\Source/os_sem.c ****        *p_err = OS_ERR_CREATE_ISR;
 611              		.loc 1 97 0
 612 0004 154C     		ldr	r4, .L66
 613 0006 2478     		ldrb	r4, [r4]	@ zero_extendqisi2
 614 0008 24B1     		cbz	r4, .L62
  98:uCOS-III\Source/os_sem.c ****         return;
 615              		.loc 1 98 0
 616 000a 42F6E162 		movw	r2, #12001
 617              	.LVL61:
 618 000e 1A80     		strh	r2, [r3]	@ movhi
  99:uCOS-III\Source/os_sem.c ****     }
 619              		.loc 1 99 0
 620 0010 BDE8F081 		pop	{r4, r5, r6, r7, r8, pc}
 621              	.LVL62:
 622              	.L62:
 104:uCOS-III\Source/os_sem.c ****        *p_err = OS_ERR_OBJ_PTR_NULL;
 623              		.loc 1 104 0
 624 0014 20B9     		cbnz	r0, .L64
 105:uCOS-III\Source/os_sem.c ****         return;
 625              		.loc 1 105 0
 626 0016 45F6C352 		movw	r2, #24003
 627              	.LVL63:
 628 001a 1A80     		strh	r2, [r3]	@ movhi
 106:uCOS-III\Source/os_sem.c ****     }
 629              		.loc 1 106 0
 630 001c BDE8F081 		pop	{r4, r5, r6, r7, r8, pc}
 631              	.LVL64:
 632              	.L64:
 633 0020 1F46     		mov	r7, r3
ARM GAS  C:\Users\jorti\AppData\Local\Temp\ccMy2oAr.s 			page 26


 634 0022 1646     		mov	r6, r2
 635 0024 0D46     		mov	r5, r1
 636 0026 0446     		mov	r4, r0
 110:uCOS-III\Source/os_sem.c ****     p_sem->Type    = OS_OBJ_TYPE_SEM;                       /* Mark the data structure as a semapho
 637              		.loc 1 110 0
 638 0028 FFF7FEFF 		bl	CPU_SR_Save
 639              	.LVL65:
 640 002c 8046     		mov	r8, r0
 641              	.LVL66:
 111:uCOS-III\Source/os_sem.c ****     p_sem->Ctr     = cnt;                                   /* Set semaphore value                 
 642              		.loc 1 111 0
 643 002e 0C4B     		ldr	r3, .L66+4
 644 0030 2360     		str	r3, [r4]
 112:uCOS-III\Source/os_sem.c ****     p_sem->TS      = (CPU_TS)0;
 645              		.loc 1 112 0
 646 0032 2662     		str	r6, [r4, #32]
 113:uCOS-III\Source/os_sem.c ****     p_sem->NamePtr = p_name;                                /* Save the name of the semaphore      
 647              		.loc 1 113 0
 648 0034 0026     		movs	r6, #0
 649              	.LVL67:
 650 0036 6662     		str	r6, [r4, #36]
 114:uCOS-III\Source/os_sem.c ****     OS_PendListInit(&p_sem->PendList);                      /* Initialize the waiting list         
 651              		.loc 1 114 0
 652 0038 6560     		str	r5, [r4, #4]
 115:uCOS-III\Source/os_sem.c **** 
 653              		.loc 1 115 0
 654 003a 04F10800 		add	r0, r4, #8
 655              	.LVL68:
 656 003e FFF7FEFF 		bl	OS_PendListInit
 657              	.LVL69:
 118:uCOS-III\Source/os_sem.c **** #endif
 658              		.loc 1 118 0
 659 0042 2046     		mov	r0, r4
 660 0044 FFF7FEFF 		bl	OS_SemDbgListAdd
 661              	.LVL70:
 120:uCOS-III\Source/os_sem.c **** 
 662              		.loc 1 120 0
 663 0048 064A     		ldr	r2, .L66+8
 664 004a 1388     		ldrh	r3, [r2]
 665 004c 0133     		adds	r3, r3, #1
 666 004e 1380     		strh	r3, [r2]	@ movhi
 122:uCOS-III\Source/os_sem.c ****    *p_err = OS_ERR_NONE;
 667              		.loc 1 122 0
 668 0050 4046     		mov	r0, r8
 669 0052 FFF7FEFF 		bl	CPU_SR_Restore
 670              	.LVL71:
 123:uCOS-III\Source/os_sem.c **** }
 671              		.loc 1 123 0
 672 0056 3E80     		strh	r6, [r7]	@ movhi
 673 0058 BDE8F081 		pop	{r4, r5, r6, r7, r8, pc}
 674              	.LVL72:
 675              	.L67:
 676              		.align	2
 677              	.L66:
 678 005c 00000000 		.word	OSIntNestingCtr
 679 0060 53454D41 		.word	1095583059
 680 0064 00000000 		.word	OSSemQty
ARM GAS  C:\Users\jorti\AppData\Local\Temp\ccMy2oAr.s 			page 27


 681              		.cfi_endproc
 682              	.LFE1:
 683              		.size	OSSemCreate, .-OSSemCreate
 684              		.section	.text.OS_SemDbgListRemove,"ax",%progbits
 685              		.align	2
 686              		.global	OS_SemDbgListRemove
 687              		.thumb
 688              		.thumb_func
 689              		.type	OS_SemDbgListRemove, %function
 690              	OS_SemDbgListRemove:
 691              	.LFB9:
 783:uCOS-III\Source/os_sem.c **** }
 784:uCOS-III\Source/os_sem.c **** 
 785:uCOS-III\Source/os_sem.c **** 
 786:uCOS-III\Source/os_sem.c **** 
 787:uCOS-III\Source/os_sem.c **** void  OS_SemDbgListRemove (OS_SEM  *p_sem)
 788:uCOS-III\Source/os_sem.c **** {
 692              		.loc 1 788 0
 693              		.cfi_startproc
 694              		@ args = 0, pretend = 0, frame = 0
 695              		@ frame_needed = 0, uses_anonymous_args = 0
 696              		@ link register save eliminated.
 697              	.LVL73:
 789:uCOS-III\Source/os_sem.c ****     OS_SEM  *p_sem_next;
 790:uCOS-III\Source/os_sem.c ****     OS_SEM  *p_sem_prev;
 791:uCOS-III\Source/os_sem.c **** 
 792:uCOS-III\Source/os_sem.c **** 
 793:uCOS-III\Source/os_sem.c ****     p_sem_prev = p_sem->DbgPrevPtr;
 698              		.loc 1 793 0
 699 0000 4269     		ldr	r2, [r0, #20]
 700              	.LVL74:
 794:uCOS-III\Source/os_sem.c ****     p_sem_next = p_sem->DbgNextPtr;
 701              		.loc 1 794 0
 702 0002 8369     		ldr	r3, [r0, #24]
 703              	.LVL75:
 795:uCOS-III\Source/os_sem.c **** 
 796:uCOS-III\Source/os_sem.c ****     if (p_sem_prev == (OS_SEM *)0) {
 704              		.loc 1 796 0
 705 0004 3AB9     		cbnz	r2, .L69
 797:uCOS-III\Source/os_sem.c ****         OSSemDbgListPtr = p_sem_next;
 706              		.loc 1 797 0
 707 0006 094A     		ldr	r2, .L73
 708              	.LVL76:
 709 0008 1360     		str	r3, [r2]
 798:uCOS-III\Source/os_sem.c ****         if (p_sem_next != (OS_SEM *)0) {
 710              		.loc 1 798 0
 711 000a 0BB1     		cbz	r3, .L70
 799:uCOS-III\Source/os_sem.c ****             p_sem_next->DbgPrevPtr = (OS_SEM *)0;
 712              		.loc 1 799 0
 713 000c 0022     		movs	r2, #0
 714 000e 5A61     		str	r2, [r3, #20]
 715              	.LVL77:
 716              	.L70:
 800:uCOS-III\Source/os_sem.c ****         }
 801:uCOS-III\Source/os_sem.c ****         p_sem->DbgNextPtr = (OS_SEM *)0;
 717              		.loc 1 801 0
 718 0010 0023     		movs	r3, #0
ARM GAS  C:\Users\jorti\AppData\Local\Temp\ccMy2oAr.s 			page 28


 719              	.LVL78:
 720 0012 8361     		str	r3, [r0, #24]
 721 0014 7047     		bx	lr
 722              	.LVL79:
 723              	.L69:
 802:uCOS-III\Source/os_sem.c **** 
 803:uCOS-III\Source/os_sem.c ****     } else if (p_sem_next == (OS_SEM *)0) {
 724              		.loc 1 803 0
 725 0016 13B9     		cbnz	r3, .L72
 804:uCOS-III\Source/os_sem.c ****         p_sem_prev->DbgNextPtr = (OS_SEM *)0;
 726              		.loc 1 804 0
 727 0018 9361     		str	r3, [r2, #24]
 805:uCOS-III\Source/os_sem.c ****         p_sem->DbgPrevPtr      = (OS_SEM *)0;
 728              		.loc 1 805 0
 729 001a 4361     		str	r3, [r0, #20]
 730 001c 7047     		bx	lr
 731              	.L72:
 806:uCOS-III\Source/os_sem.c **** 
 807:uCOS-III\Source/os_sem.c ****     } else {
 808:uCOS-III\Source/os_sem.c ****         p_sem_prev->DbgNextPtr =  p_sem_next;
 732              		.loc 1 808 0
 733 001e 9361     		str	r3, [r2, #24]
 809:uCOS-III\Source/os_sem.c ****         p_sem_next->DbgPrevPtr =  p_sem_prev;
 734              		.loc 1 809 0
 735 0020 5A61     		str	r2, [r3, #20]
 810:uCOS-III\Source/os_sem.c ****         p_sem->DbgNextPtr      = (OS_SEM *)0;
 736              		.loc 1 810 0
 737 0022 0023     		movs	r3, #0
 738              	.LVL80:
 739 0024 8361     		str	r3, [r0, #24]
 811:uCOS-III\Source/os_sem.c ****         p_sem->DbgPrevPtr      = (OS_SEM *)0;
 740              		.loc 1 811 0
 741 0026 4361     		str	r3, [r0, #20]
 742 0028 7047     		bx	lr
 743              	.L74:
 744 002a 00BF     		.align	2
 745              	.L73:
 746 002c 00000000 		.word	OSSemDbgListPtr
 747              		.cfi_endproc
 748              	.LFE9:
 749              		.size	OS_SemDbgListRemove, .-OS_SemDbgListRemove
 750              		.section	.text.OSSemDel,"ax",%progbits
 751              		.align	2
 752              		.global	OSSemDel
 753              		.thumb
 754              		.thumb_func
 755              		.type	OSSemDel, %function
 756              	OSSemDel:
 757              	.LFB2:
 166:uCOS-III\Source/os_sem.c ****     OS_OBJ_QTY     cnt;
 758              		.loc 1 166 0
 759              		.cfi_startproc
 760              		@ args = 0, pretend = 0, frame = 0
 761              		@ frame_needed = 0, uses_anonymous_args = 0
 762              	.LVL81:
 763 0000 2DE9F843 		push	{r3, r4, r5, r6, r7, r8, r9, lr}
 764              		.cfi_def_cfa_offset 32
ARM GAS  C:\Users\jorti\AppData\Local\Temp\ccMy2oAr.s 			page 29


 765              		.cfi_offset 3, -32
 766              		.cfi_offset 4, -28
 767              		.cfi_offset 5, -24
 768              		.cfi_offset 6, -20
 769              		.cfi_offset 7, -16
 770              		.cfi_offset 8, -12
 771              		.cfi_offset 9, -8
 772              		.cfi_offset 14, -4
 773              	.LVL82:
 185:uCOS-III\Source/os_sem.c ****        *p_err = OS_ERR_DEL_ISR;
 774              		.loc 1 185 0
 775 0004 334B     		ldr	r3, .L90
 776 0006 1B78     		ldrb	r3, [r3]	@ zero_extendqisi2
 777 0008 2BB1     		cbz	r3, .L76
 186:uCOS-III\Source/os_sem.c ****         return ((OS_OBJ_QTY)0);
 778              		.loc 1 186 0
 779 000a 43F2C923 		movw	r3, #13001
 780 000e 1380     		strh	r3, [r2]	@ movhi
 187:uCOS-III\Source/os_sem.c ****     }
 781              		.loc 1 187 0
 782 0010 0020     		movs	r0, #0
 783              	.LVL83:
 784 0012 BDE8F883 		pop	{r3, r4, r5, r6, r7, r8, r9, pc}
 785              	.LVL84:
 786              	.L76:
 192:uCOS-III\Source/os_sem.c ****        *p_err = OS_ERR_OBJ_PTR_NULL;
 787              		.loc 1 192 0
 788 0016 20B9     		cbnz	r0, .L78
 193:uCOS-III\Source/os_sem.c ****         return ((OS_OBJ_QTY)0);
 789              		.loc 1 193 0
 790 0018 45F6C353 		movw	r3, #24003
 791 001c 1380     		strh	r3, [r2]	@ movhi
 194:uCOS-III\Source/os_sem.c ****     }
 792              		.loc 1 194 0
 793 001e BDE8F883 		pop	{r3, r4, r5, r6, r7, r8, r9, pc}
 794              	.L78:
 196:uCOS-III\Source/os_sem.c ****         case OS_OPT_DEL_NO_PEND:
 795              		.loc 1 196 0
 796 0022 0129     		cmp	r1, #1
 797 0024 05D9     		bls	.L87
 202:uCOS-III\Source/os_sem.c ****              return ((OS_OBJ_QTY)0);
 798              		.loc 1 202 0
 799 0026 45F62563 		movw	r3, #24101
 800 002a 1380     		strh	r3, [r2]	@ movhi
 203:uCOS-III\Source/os_sem.c ****     }
 801              		.loc 1 203 0
 802 002c 0020     		movs	r0, #0
 803              	.LVL85:
 804 002e BDE8F883 		pop	{r3, r4, r5, r6, r7, r8, r9, pc}
 805              	.LVL86:
 806              	.L87:
 807 0032 1746     		mov	r7, r2
 808 0034 0D46     		mov	r5, r1
 809 0036 0446     		mov	r4, r0
 214:uCOS-III\Source/os_sem.c ****     p_pend_list = &p_sem->PendList;
 810              		.loc 1 214 0
 811 0038 FFF7FEFF 		bl	CPU_SR_Save
ARM GAS  C:\Users\jorti\AppData\Local\Temp\ccMy2oAr.s 			page 30


 812              	.LVL87:
 813 003c 8046     		mov	r8, r0
 814              	.LVL88:
 216:uCOS-III\Source/os_sem.c ****     nbr_tasks   = cnt;
 815              		.loc 1 216 0
 816 003e 268A     		ldrh	r6, [r4, #16]
 817              	.LVL89:
 218:uCOS-III\Source/os_sem.c ****         case OS_OPT_DEL_NO_PEND:                            /* Delete semaphore only if no task wai
 818              		.loc 1 218 0
 819 0040 15B1     		cbz	r5, .L82
 820 0042 012D     		cmp	r5, #1
 821 0044 1BD0     		beq	.L83
 822 0046 3DE0     		b	.L88
 823              	.L82:
 220:uCOS-III\Source/os_sem.c **** #if OS_CFG_DBG_EN > 0u
 824              		.loc 1 220 0
 825 0048 8EB9     		cbnz	r6, .L84
 222:uCOS-III\Source/os_sem.c **** #endif
 826              		.loc 1 222 0
 827 004a 2046     		mov	r0, r4
 828              	.LVL90:
 829 004c FFF7FEFF 		bl	OS_SemDbgListRemove
 830              	.LVL91:
 224:uCOS-III\Source/os_sem.c ****                  OS_SemClr(p_sem);
 831              		.loc 1 224 0
 832 0050 214A     		ldr	r2, .L90+4
 833 0052 1388     		ldrh	r3, [r2]
 834 0054 013B     		subs	r3, r3, #1
 835 0056 1380     		strh	r3, [r2]	@ movhi
 225:uCOS-III\Source/os_sem.c ****                  CPU_CRITICAL_EXIT();
 836              		.loc 1 225 0
 837 0058 2046     		mov	r0, r4
 838 005a FFF7FEFF 		bl	OS_SemClr
 839              	.LVL92:
 226:uCOS-III\Source/os_sem.c ****                 *p_err = OS_ERR_NONE;
 840              		.loc 1 226 0
 841 005e 4046     		mov	r0, r8
 842 0060 FFF7FEFF 		bl	CPU_SR_Restore
 843              	.LVL93:
 227:uCOS-III\Source/os_sem.c ****              } else {
 844              		.loc 1 227 0
 845 0064 0023     		movs	r3, #0
 846 0066 3B80     		strh	r3, [r7]	@ movhi
 260:uCOS-III\Source/os_sem.c **** }
 847              		.loc 1 260 0
 848 0068 3046     		mov	r0, r6
 849 006a BDE8F883 		pop	{r3, r4, r5, r6, r7, r8, r9, pc}
 850              	.LVL94:
 851              	.L84:
 229:uCOS-III\Source/os_sem.c ****                 *p_err = OS_ERR_TASK_WAITING;
 852              		.loc 1 229 0
 853 006e FFF7FEFF 		bl	CPU_SR_Restore
 854              	.LVL95:
 230:uCOS-III\Source/os_sem.c ****              }
 855              		.loc 1 230 0
 856 0072 47F25F13 		movw	r3, #29023
 857 0076 3B80     		strh	r3, [r7]	@ movhi
ARM GAS  C:\Users\jorti\AppData\Local\Temp\ccMy2oAr.s 			page 31


 260:uCOS-III\Source/os_sem.c **** }
 858              		.loc 1 260 0
 859 0078 3046     		mov	r0, r6
 860 007a BDE8F883 		pop	{r3, r4, r5, r6, r7, r8, r9, pc}
 861              	.LVL96:
 862              	.L83:
 236:uCOS-III\Source/os_sem.c ****              while (cnt > 0u) {                             /* Remove all tasks on the pend list   
 863              		.loc 1 236 0
 864 007e FFF7FEFF 		bl	CPU_TS_TmrRd
 865              	.LVL97:
 866 0082 8146     		mov	r9, r0
 867              	.LVL98:
 216:uCOS-III\Source/os_sem.c ****     nbr_tasks   = cnt;
 868              		.loc 1 216 0
 869 0084 3546     		mov	r5, r6
 237:uCOS-III\Source/os_sem.c ****                  p_pend_data = p_pend_list->HeadPtr;
 870              		.loc 1 237 0
 871 0086 07E0     		b	.L85
 872              	.LVL99:
 873              	.L86:
 238:uCOS-III\Source/os_sem.c ****                  p_tcb       = p_pend_data->TCBPtr;
 874              		.loc 1 238 0
 875 0088 A368     		ldr	r3, [r4, #8]
 876              	.LVL100:
 240:uCOS-III\Source/os_sem.c ****                                p_tcb,
 877              		.loc 1 240 0
 878 008a 4A46     		mov	r2, r9
 879 008c 9968     		ldr	r1, [r3, #8]
 880 008e 2046     		mov	r0, r4
 881 0090 FFF7FEFF 		bl	OS_PendObjDel
 882              	.LVL101:
 243:uCOS-III\Source/os_sem.c ****              }
 883              		.loc 1 243 0
 884 0094 013D     		subs	r5, r5, #1
 885              	.LVL102:
 886 0096 ADB2     		uxth	r5, r5
 887              	.LVL103:
 888              	.L85:
 237:uCOS-III\Source/os_sem.c ****                  p_pend_data = p_pend_list->HeadPtr;
 889              		.loc 1 237 0
 890 0098 002D     		cmp	r5, #0
 891 009a F5D1     		bne	.L86
 246:uCOS-III\Source/os_sem.c **** #endif
 892              		.loc 1 246 0
 893 009c 2046     		mov	r0, r4
 894 009e FFF7FEFF 		bl	OS_SemDbgListRemove
 895              	.LVL104:
 248:uCOS-III\Source/os_sem.c ****              OS_SemClr(p_sem);
 896              		.loc 1 248 0
 897 00a2 0D4A     		ldr	r2, .L90+4
 898 00a4 1388     		ldrh	r3, [r2]
 899 00a6 013B     		subs	r3, r3, #1
 900 00a8 1380     		strh	r3, [r2]	@ movhi
 249:uCOS-III\Source/os_sem.c ****              OS_CRITICAL_EXIT_NO_SCHED();
 901              		.loc 1 249 0
 902 00aa 2046     		mov	r0, r4
 903 00ac FFF7FEFF 		bl	OS_SemClr
ARM GAS  C:\Users\jorti\AppData\Local\Temp\ccMy2oAr.s 			page 32


 904              	.LVL105:
 250:uCOS-III\Source/os_sem.c ****              OSSched();                                     /* Find highest priority task ready to 
 905              		.loc 1 250 0
 906 00b0 4046     		mov	r0, r8
 907 00b2 FFF7FEFF 		bl	CPU_SR_Restore
 908              	.LVL106:
 251:uCOS-III\Source/os_sem.c ****             *p_err = OS_ERR_NONE;
 909              		.loc 1 251 0
 910 00b6 FFF7FEFF 		bl	OSSched
 911              	.LVL107:
 252:uCOS-III\Source/os_sem.c ****              break;
 912              		.loc 1 252 0
 913 00ba 0023     		movs	r3, #0
 914 00bc 3B80     		strh	r3, [r7]	@ movhi
 260:uCOS-III\Source/os_sem.c **** }
 915              		.loc 1 260 0
 916 00be 3046     		mov	r0, r6
 253:uCOS-III\Source/os_sem.c **** 
 917              		.loc 1 253 0
 918 00c0 BDE8F883 		pop	{r3, r4, r5, r6, r7, r8, r9, pc}
 919              	.LVL108:
 920              	.L88:
 256:uCOS-III\Source/os_sem.c ****             *p_err = OS_ERR_OPT_INVALID;
 921              		.loc 1 256 0
 922 00c4 FFF7FEFF 		bl	CPU_SR_Restore
 923              	.LVL109:
 257:uCOS-III\Source/os_sem.c ****              break;
 924              		.loc 1 257 0
 925 00c8 45F62563 		movw	r3, #24101
 926 00cc 3B80     		strh	r3, [r7]	@ movhi
 260:uCOS-III\Source/os_sem.c **** }
 927              		.loc 1 260 0
 928 00ce 3046     		mov	r0, r6
 261:uCOS-III\Source/os_sem.c **** #endif
 929              		.loc 1 261 0
 930 00d0 BDE8F883 		pop	{r3, r4, r5, r6, r7, r8, r9, pc}
 931              	.LVL110:
 932              	.L91:
 933              		.align	2
 934              	.L90:
 935 00d4 00000000 		.word	OSIntNestingCtr
 936 00d8 00000000 		.word	OSSemQty
 937              		.cfi_endproc
 938              	.LFE2:
 939              		.size	OSSemDel, .-OSSemDel
 940              		.section	.text.OS_SemInit,"ax",%progbits
 941              		.align	2
 942              		.global	OS_SemInit
 943              		.thumb
 944              		.thumb_func
 945              		.type	OS_SemInit, %function
 946              	OS_SemInit:
 947              	.LFB10:
 812:uCOS-III\Source/os_sem.c ****     }
 813:uCOS-III\Source/os_sem.c **** }
 814:uCOS-III\Source/os_sem.c **** #endif
 815:uCOS-III\Source/os_sem.c **** 
ARM GAS  C:\Users\jorti\AppData\Local\Temp\ccMy2oAr.s 			page 33


 816:uCOS-III\Source/os_sem.c **** /*$PAGE*/
 817:uCOS-III\Source/os_sem.c **** /*
 818:uCOS-III\Source/os_sem.c **** ***************************************************************************************************
 819:uCOS-III\Source/os_sem.c **** *                                                SEMAPHORE INITIALIZATION
 820:uCOS-III\Source/os_sem.c **** *
 821:uCOS-III\Source/os_sem.c **** * Description: This function is called by OSInit() to initialize the semaphore management.
 822:uCOS-III\Source/os_sem.c **** *
 823:uCOS-III\Source/os_sem.c **** 
 824:uCOS-III\Source/os_sem.c **** * Argument(s): p_err        is a pointer to a variable that will contain an error code returned by 
 825:uCOS-III\Source/os_sem.c **** *
 826:uCOS-III\Source/os_sem.c **** *                                OS_ERR_NONE     the call was successful
 827:uCOS-III\Source/os_sem.c **** *
 828:uCOS-III\Source/os_sem.c **** * Returns    : none
 829:uCOS-III\Source/os_sem.c **** *
 830:uCOS-III\Source/os_sem.c **** * Note(s)    : 1) This function is INTERNAL to uC/OS-III and your application MUST NOT call it.
 831:uCOS-III\Source/os_sem.c **** ***************************************************************************************************
 832:uCOS-III\Source/os_sem.c **** */
 833:uCOS-III\Source/os_sem.c **** 
 834:uCOS-III\Source/os_sem.c **** void  OS_SemInit (OS_ERR  *p_err)
 835:uCOS-III\Source/os_sem.c **** {
 948              		.loc 1 835 0
 949              		.cfi_startproc
 950              		@ args = 0, pretend = 0, frame = 0
 951              		@ frame_needed = 0, uses_anonymous_args = 0
 952              		@ link register save eliminated.
 953              	.LVL111:
 836:uCOS-III\Source/os_sem.c **** #ifdef OS_SAFETY_CRITICAL
 837:uCOS-III\Source/os_sem.c ****     if (p_err == (OS_ERR *)0) {
 838:uCOS-III\Source/os_sem.c ****         OS_SAFETY_CRITICAL_EXCEPTION();
 839:uCOS-III\Source/os_sem.c ****         return;
 840:uCOS-III\Source/os_sem.c ****     }
 841:uCOS-III\Source/os_sem.c **** #endif
 842:uCOS-III\Source/os_sem.c **** 
 843:uCOS-III\Source/os_sem.c **** #if OS_CFG_DBG_EN > 0u
 844:uCOS-III\Source/os_sem.c ****     OSSemDbgListPtr = (OS_SEM *)0;
 954              		.loc 1 844 0
 955 0000 0023     		movs	r3, #0
 956 0002 034A     		ldr	r2, .L93
 957 0004 1360     		str	r3, [r2]
 845:uCOS-III\Source/os_sem.c **** #endif
 846:uCOS-III\Source/os_sem.c **** 
 847:uCOS-III\Source/os_sem.c ****     OSSemQty        = (OS_OBJ_QTY)0;
 958              		.loc 1 847 0
 959 0006 034A     		ldr	r2, .L93+4
 960 0008 1380     		strh	r3, [r2]	@ movhi
 848:uCOS-III\Source/os_sem.c ****    *p_err           = OS_ERR_NONE;
 961              		.loc 1 848 0
 962 000a 0380     		strh	r3, [r0]	@ movhi
 963 000c 7047     		bx	lr
 964              	.L94:
 965 000e 00BF     		.align	2
 966              	.L93:
 967 0010 00000000 		.word	OSSemDbgListPtr
 968 0014 00000000 		.word	OSSemQty
 969              		.cfi_endproc
 970              	.LFE10:
 971              		.size	OS_SemInit, .-OS_SemInit
ARM GAS  C:\Users\jorti\AppData\Local\Temp\ccMy2oAr.s 			page 34


 972              		.section	.text.OS_SemPost,"ax",%progbits
 973              		.align	2
 974              		.global	OS_SemPost
 975              		.thumb
 976              		.thumb_func
 977              		.type	OS_SemPost, %function
 978              	OS_SemPost:
 979              	.LFB11:
 849:uCOS-III\Source/os_sem.c **** }
 850:uCOS-III\Source/os_sem.c **** 
 851:uCOS-III\Source/os_sem.c **** /*$PAGE*/
 852:uCOS-III\Source/os_sem.c **** /*
 853:uCOS-III\Source/os_sem.c **** ***************************************************************************************************
 854:uCOS-III\Source/os_sem.c **** *                                                 POST TO A SEMAPHORE
 855:uCOS-III\Source/os_sem.c **** *
 856:uCOS-III\Source/os_sem.c **** * Description: This function signals a semaphore
 857:uCOS-III\Source/os_sem.c **** *
 858:uCOS-III\Source/os_sem.c **** * Arguments  : p_sem    is a pointer to the semaphore
 859:uCOS-III\Source/os_sem.c **** *
 860:uCOS-III\Source/os_sem.c **** *              opt      determines the type of POST performed:
 861:uCOS-III\Source/os_sem.c **** *
 862:uCOS-III\Source/os_sem.c **** *                           OS_OPT_POST_1            POST to a single waiting task
 863:uCOS-III\Source/os_sem.c **** *                           OS_OPT_POST_ALL          POST to ALL tasks that are waiting on the sema
 864:uCOS-III\Source/os_sem.c **** *
 865:uCOS-III\Source/os_sem.c **** *                           OS_OPT_POST_NO_SCHED     Do not call the scheduler
 866:uCOS-III\Source/os_sem.c **** *
 867:uCOS-III\Source/os_sem.c **** *                           Note(s): 1) OS_OPT_POST_NO_SCHED can be added with one of the other opt
 868:uCOS-III\Source/os_sem.c **** *
 869:uCOS-III\Source/os_sem.c **** *              ts       is a timestamp indicating when the post occurred.
 870:uCOS-III\Source/os_sem.c **** *
 871:uCOS-III\Source/os_sem.c **** *              p_err    is a pointer to a variable that will contain an error code returned by this
 872:uCOS-III\Source/os_sem.c **** *
 873:uCOS-III\Source/os_sem.c **** *                           OS_ERR_NONE          The call was successful and the semaphore was sign
 874:uCOS-III\Source/os_sem.c **** *                           OS_ERR_OBJ_PTR_NULL  If 'p_sem' is a NULL pointer.
 875:uCOS-III\Source/os_sem.c **** *                           OS_ERR_OBJ_TYPE      If 'p_sem' is not pointing at a semaphore
 876:uCOS-III\Source/os_sem.c **** *                           OS_ERR_SEM_OVF       If the post would cause the semaphore count to ove
 877:uCOS-III\Source/os_sem.c **** *
 878:uCOS-III\Source/os_sem.c **** * Returns    : The current value of the semaphore counter or 0 upon error.
 879:uCOS-III\Source/os_sem.c **** *
 880:uCOS-III\Source/os_sem.c **** * Note(s)    : This function is INTERNAL to uC/OS-III and your application should not call it.
 881:uCOS-III\Source/os_sem.c **** ***************************************************************************************************
 882:uCOS-III\Source/os_sem.c **** */
 883:uCOS-III\Source/os_sem.c **** 
 884:uCOS-III\Source/os_sem.c **** OS_SEM_CTR  OS_SemPost (OS_SEM  *p_sem,
 885:uCOS-III\Source/os_sem.c ****                         OS_OPT   opt,
 886:uCOS-III\Source/os_sem.c ****                         CPU_TS   ts,
 887:uCOS-III\Source/os_sem.c ****                         OS_ERR  *p_err)
 888:uCOS-III\Source/os_sem.c **** {
 980              		.loc 1 888 0
 981              		.cfi_startproc
 982              		@ args = 0, pretend = 0, frame = 0
 983              		@ frame_needed = 0, uses_anonymous_args = 0
 984              	.LVL112:
 985 0000 2DE9F047 		push	{r4, r5, r6, r7, r8, r9, r10, lr}
 986              		.cfi_def_cfa_offset 32
 987              		.cfi_offset 4, -32
 988              		.cfi_offset 5, -28
ARM GAS  C:\Users\jorti\AppData\Local\Temp\ccMy2oAr.s 			page 35


 989              		.cfi_offset 6, -24
 990              		.cfi_offset 7, -20
 991              		.cfi_offset 8, -16
 992              		.cfi_offset 9, -12
 993              		.cfi_offset 10, -8
 994              		.cfi_offset 14, -4
 995 0004 82B0     		sub	sp, sp, #8
 996              		.cfi_def_cfa_offset 40
 997 0006 0646     		mov	r6, r0
 998 0008 8846     		mov	r8, r1
 999 000a 1746     		mov	r7, r2
 1000 000c 9946     		mov	r9, r3
 1001              	.LVL113:
 889:uCOS-III\Source/os_sem.c ****     OS_OBJ_QTY     cnt;
 890:uCOS-III\Source/os_sem.c ****     OS_SEM_CTR     ctr;
 891:uCOS-III\Source/os_sem.c ****     OS_PEND_LIST  *p_pend_list;
 892:uCOS-III\Source/os_sem.c ****     OS_PEND_DATA  *p_pend_data;
 893:uCOS-III\Source/os_sem.c ****     OS_PEND_DATA  *p_pend_data_next;
 894:uCOS-III\Source/os_sem.c ****     OS_TCB        *p_tcb;
 895:uCOS-III\Source/os_sem.c ****     CPU_SR_ALLOC();
 896:uCOS-III\Source/os_sem.c **** 
 897:uCOS-III\Source/os_sem.c **** 
 898:uCOS-III\Source/os_sem.c **** 
 899:uCOS-III\Source/os_sem.c ****     CPU_CRITICAL_ENTER();
 1002              		.loc 1 899 0
 1003 000e FFF7FEFF 		bl	CPU_SR_Save
 1004              	.LVL114:
 1005 0012 8246     		mov	r10, r0
 1006              	.LVL115:
 900:uCOS-III\Source/os_sem.c ****     p_pend_list = &p_sem->PendList;
 901:uCOS-III\Source/os_sem.c ****     if (p_pend_list->NbrEntries == (OS_OBJ_QTY)0) {         /* Any task waiting on semaphore?      
 1007              		.loc 1 901 0
 1008 0014 348A     		ldrh	r4, [r6, #16]
 1009 0016 A4B9     		cbnz	r4, .L96
 902:uCOS-III\Source/os_sem.c ****         switch (sizeof(OS_SEM_CTR)) {
 903:uCOS-III\Source/os_sem.c ****             case 1u:
 904:uCOS-III\Source/os_sem.c ****                  if (p_sem->Ctr == DEF_INT_08U_MAX_VAL) {
 905:uCOS-III\Source/os_sem.c ****                      CPU_CRITICAL_EXIT();
 906:uCOS-III\Source/os_sem.c ****                     *p_err = OS_ERR_SEM_OVF;
 907:uCOS-III\Source/os_sem.c ****                      return ((OS_SEM_CTR)0);
 908:uCOS-III\Source/os_sem.c ****                  }
 909:uCOS-III\Source/os_sem.c ****                  break;
 910:uCOS-III\Source/os_sem.c **** 
 911:uCOS-III\Source/os_sem.c ****             case 2u:
 912:uCOS-III\Source/os_sem.c ****                  if (p_sem->Ctr == DEF_INT_16U_MAX_VAL) {
 913:uCOS-III\Source/os_sem.c ****                      CPU_CRITICAL_EXIT();
 914:uCOS-III\Source/os_sem.c ****                     *p_err = OS_ERR_SEM_OVF;
 915:uCOS-III\Source/os_sem.c ****                      return ((OS_SEM_CTR)0);
 916:uCOS-III\Source/os_sem.c ****                  }
 917:uCOS-III\Source/os_sem.c ****                  break;
 918:uCOS-III\Source/os_sem.c **** 
 919:uCOS-III\Source/os_sem.c ****             case 4u:
 920:uCOS-III\Source/os_sem.c ****                  if (p_sem->Ctr == DEF_INT_32U_MAX_VAL) {
 1010              		.loc 1 920 0
 1011 0018 346A     		ldr	r4, [r6, #32]
 1012 001a B4F1FF3F 		cmp	r4, #-1
 1013 001e 07D1     		bne	.L97
ARM GAS  C:\Users\jorti\AppData\Local\Temp\ccMy2oAr.s 			page 36


 921:uCOS-III\Source/os_sem.c ****                      CPU_CRITICAL_EXIT();
 1014              		.loc 1 921 0
 1015 0020 FFF7FEFF 		bl	CPU_SR_Restore
 1016              	.LVL116:
 922:uCOS-III\Source/os_sem.c ****                     *p_err = OS_ERR_SEM_OVF;
 1017              		.loc 1 922 0
 1018 0024 46F6C553 		movw	r3, #28101
 1019 0028 A9F80030 		strh	r3, [r9]	@ movhi
 923:uCOS-III\Source/os_sem.c ****                      return ((OS_SEM_CTR)0);
 1020              		.loc 1 923 0
 1021 002c 0024     		movs	r4, #0
 1022 002e 27E0     		b	.L98
 1023              	.LVL117:
 1024              	.L97:
 924:uCOS-III\Source/os_sem.c ****                  }
 925:uCOS-III\Source/os_sem.c ****                  break;
 926:uCOS-III\Source/os_sem.c **** 
 927:uCOS-III\Source/os_sem.c ****             default:
 928:uCOS-III\Source/os_sem.c ****                  break;
 929:uCOS-III\Source/os_sem.c ****         }
 930:uCOS-III\Source/os_sem.c ****         p_sem->Ctr++;                                       /* No                                  
 1025              		.loc 1 930 0
 1026 0030 0134     		adds	r4, r4, #1
 1027 0032 3462     		str	r4, [r6, #32]
 1028              	.LVL118:
 931:uCOS-III\Source/os_sem.c ****         ctr       = p_sem->Ctr;
 932:uCOS-III\Source/os_sem.c ****         p_sem->TS = ts;                                     /* Save timestamp in semaphore control 
 1029              		.loc 1 932 0
 1030 0034 7762     		str	r7, [r6, #36]
 933:uCOS-III\Source/os_sem.c ****         CPU_CRITICAL_EXIT();
 1031              		.loc 1 933 0
 1032 0036 FFF7FEFF 		bl	CPU_SR_Restore
 1033              	.LVL119:
 934:uCOS-III\Source/os_sem.c ****        *p_err     = OS_ERR_NONE;
 1034              		.loc 1 934 0
 1035 003a 0023     		movs	r3, #0
 1036 003c A9F80030 		strh	r3, [r9]	@ movhi
 935:uCOS-III\Source/os_sem.c ****         return (ctr);
 1037              		.loc 1 935 0
 1038 0040 1EE0     		b	.L98
 1039              	.LVL120:
 1040              	.L96:
 936:uCOS-III\Source/os_sem.c ****     }
 937:uCOS-III\Source/os_sem.c **** 
 938:uCOS-III\Source/os_sem.c ****     OS_CRITICAL_ENTER_CPU_EXIT();
 939:uCOS-III\Source/os_sem.c ****     if ((opt & OS_OPT_POST_ALL) != (OS_OPT)0) {             /* Post message to all tasks waiting?  
 1041              		.loc 1 939 0
 1042 0042 08F40073 		and	r3, r8, #512
 1043 0046 9BB2     		uxth	r3, r3
 1044 0048 03B9     		cbnz	r3, .L99
 940:uCOS-III\Source/os_sem.c ****         cnt = p_pend_list->NbrEntries;                      /* Yes                                 
 941:uCOS-III\Source/os_sem.c ****     } else {
 942:uCOS-III\Source/os_sem.c ****         cnt = (OS_OBJ_QTY)1;                                /* No                                  
 1045              		.loc 1 942 0
 1046 004a 0124     		movs	r4, #1
 1047              	.L99:
 1048              	.LVL121:
ARM GAS  C:\Users\jorti\AppData\Local\Temp\ccMy2oAr.s 			page 37


 943:uCOS-III\Source/os_sem.c ****     }
 944:uCOS-III\Source/os_sem.c ****     p_pend_data = p_pend_list->HeadPtr;
 1049              		.loc 1 944 0
 1050 004c B568     		ldr	r5, [r6, #8]
 1051              	.LVL122:
 945:uCOS-III\Source/os_sem.c ****     while (cnt > 0u) {
 1052              		.loc 1 945 0
 1053 004e 09E0     		b	.L100
 1054              	.LVL123:
 1055              	.L101:
 946:uCOS-III\Source/os_sem.c ****         p_tcb            = p_pend_data->TCBPtr;
 1056              		.loc 1 946 0
 1057 0050 A968     		ldr	r1, [r5, #8]
 1058              	.LVL124:
 947:uCOS-III\Source/os_sem.c ****         p_pend_data_next = p_pend_data->NextPtr;
 1059              		.loc 1 947 0
 1060 0052 6D68     		ldr	r5, [r5, #4]
 1061              	.LVL125:
 948:uCOS-III\Source/os_sem.c ****         OS_Post((OS_PEND_OBJ *)((void *)p_sem),
 1062              		.loc 1 948 0
 1063 0054 0097     		str	r7, [sp]
 1064 0056 0023     		movs	r3, #0
 1065 0058 1A46     		mov	r2, r3
 1066 005a 3046     		mov	r0, r6
 1067 005c FFF7FEFF 		bl	OS_Post
 1068              	.LVL126:
 949:uCOS-III\Source/os_sem.c ****                 p_tcb,
 950:uCOS-III\Source/os_sem.c ****                 (void      *)0,
 951:uCOS-III\Source/os_sem.c ****                 (OS_MSG_SIZE)0,
 952:uCOS-III\Source/os_sem.c ****                 ts);
 953:uCOS-III\Source/os_sem.c ****         p_pend_data = p_pend_data_next;
 954:uCOS-III\Source/os_sem.c ****         cnt--;
 1069              		.loc 1 954 0
 1070 0060 013C     		subs	r4, r4, #1
 1071              	.LVL127:
 1072 0062 A4B2     		uxth	r4, r4
 1073              	.LVL128:
 1074              	.L100:
 945:uCOS-III\Source/os_sem.c ****         p_tcb            = p_pend_data->TCBPtr;
 1075              		.loc 1 945 0
 1076 0064 002C     		cmp	r4, #0
 1077 0066 F3D1     		bne	.L101
 955:uCOS-III\Source/os_sem.c ****     }
 956:uCOS-III\Source/os_sem.c ****     ctr = p_sem->Ctr;
 1078              		.loc 1 956 0
 1079 0068 346A     		ldr	r4, [r6, #32]
 1080              	.LVL129:
 957:uCOS-III\Source/os_sem.c ****     OS_CRITICAL_EXIT_NO_SCHED();
 1081              		.loc 1 957 0
 1082 006a 5046     		mov	r0, r10
 1083 006c FFF7FEFF 		bl	CPU_SR_Restore
 1084              	.LVL130:
 958:uCOS-III\Source/os_sem.c ****     if ((opt & OS_OPT_POST_NO_SCHED) == (OS_OPT)0) {
 1085              		.loc 1 958 0
 1086 0070 18F4004F 		tst	r8, #32768
 1087 0074 01D1     		bne	.L102
 959:uCOS-III\Source/os_sem.c ****         OSSched();                                          /* Run the scheduler                   
ARM GAS  C:\Users\jorti\AppData\Local\Temp\ccMy2oAr.s 			page 38


 1088              		.loc 1 959 0
 1089 0076 FFF7FEFF 		bl	OSSched
 1090              	.LVL131:
 1091              	.L102:
 960:uCOS-III\Source/os_sem.c ****     }
 961:uCOS-III\Source/os_sem.c ****    *p_err = OS_ERR_NONE;
 1092              		.loc 1 961 0
 1093 007a 0023     		movs	r3, #0
 1094 007c A9F80030 		strh	r3, [r9]	@ movhi
 1095              	.LVL132:
 1096              	.L98:
 962:uCOS-III\Source/os_sem.c ****     return (ctr);
 963:uCOS-III\Source/os_sem.c **** }
 1097              		.loc 1 963 0
 1098 0080 2046     		mov	r0, r4
 1099 0082 02B0     		add	sp, sp, #8
 1100              		.cfi_def_cfa_offset 32
 1101              		@ sp needed
 1102 0084 BDE8F087 		pop	{r4, r5, r6, r7, r8, r9, r10, pc}
 1103              		.cfi_endproc
 1104              	.LFE11:
 1105              		.size	OS_SemPost, .-OS_SemPost
 1106              		.section	.text.OSSemPost,"ax",%progbits
 1107              		.align	2
 1108              		.global	OSSemPost
 1109              		.thumb
 1110              		.thumb_func
 1111              		.type	OSSemPost, %function
 1112              	OSSemPost:
 1113              	.LFB5:
 587:uCOS-III\Source/os_sem.c ****     OS_SEM_CTR  ctr;
 1114              		.loc 1 587 0
 1115              		.cfi_startproc
 1116              		@ args = 0, pretend = 0, frame = 0
 1117              		@ frame_needed = 0, uses_anonymous_args = 0
 1118              	.LVL133:
 1119 0000 70B5     		push	{r4, r5, r6, lr}
 1120              		.cfi_def_cfa_offset 16
 1121              		.cfi_offset 4, -16
 1122              		.cfi_offset 5, -12
 1123              		.cfi_offset 6, -8
 1124              		.cfi_offset 14, -4
 601:uCOS-III\Source/os_sem.c ****        *p_err  = OS_ERR_OBJ_PTR_NULL;
 1125              		.loc 1 601 0
 1126 0002 18B9     		cbnz	r0, .L105
 602:uCOS-III\Source/os_sem.c ****         return ((OS_SEM_CTR)0);
 1127              		.loc 1 602 0
 1128 0004 45F6C353 		movw	r3, #24003
 1129 0008 1380     		strh	r3, [r2]	@ movhi
 603:uCOS-III\Source/os_sem.c ****     }
 1130              		.loc 1 603 0
 1131 000a 70BD     		pop	{r4, r5, r6, pc}
 1132              	.L105:
 1133 000c 0346     		mov	r3, r0
 605:uCOS-III\Source/os_sem.c ****         case OS_OPT_POST_1:
 1134              		.loc 1 605 0
 1135 000e B1F5007F 		cmp	r1, #512
ARM GAS  C:\Users\jorti\AppData\Local\Temp\ccMy2oAr.s 			page 39


 1136 0012 0DD0     		beq	.L108
 1137 0014 01D8     		bhi	.L109
 1138 0016 31B9     		cbnz	r1, .L107
 1139 0018 0AE0     		b	.L108
 1140              	.L109:
 1141 001a B1F5004F 		cmp	r1, #32768
 1142 001e 07D0     		beq	.L108
 1143 0020 B1F5024F 		cmp	r1, #33280
 1144 0024 04D0     		beq	.L108
 1145              	.L107:
 613:uCOS-III\Source/os_sem.c ****              return ((OS_SEM_CTR)0u);
 1146              		.loc 1 613 0
 1147 0026 45F62563 		movw	r3, #24101
 1148 002a 1380     		strh	r3, [r2]	@ movhi
 614:uCOS-III\Source/os_sem.c ****     }
 1149              		.loc 1 614 0
 1150 002c 0020     		movs	r0, #0
 1151              	.LVL134:
 1152 002e 70BD     		pop	{r4, r5, r6, pc}
 1153              	.LVL135:
 1154              	.L108:
 1155 0030 1E46     		mov	r6, r3
 1156 0032 1546     		mov	r5, r2
 1157 0034 0C46     		mov	r4, r1
 625:uCOS-III\Source/os_sem.c **** 
 1158              		.loc 1 625 0
 1159 0036 FFF7FEFF 		bl	CPU_TS_TmrRd
 1160              	.LVL136:
 641:uCOS-III\Source/os_sem.c ****                      opt,
 1161              		.loc 1 641 0
 1162 003a 2B46     		mov	r3, r5
 1163 003c 0246     		mov	r2, r0
 1164 003e 2146     		mov	r1, r4
 1165 0040 3046     		mov	r0, r6
 1166              	.LVL137:
 1167 0042 FFF7FEFF 		bl	OS_SemPost
 1168              	.LVL138:
 647:uCOS-III\Source/os_sem.c **** 
 1169              		.loc 1 647 0
 1170 0046 70BD     		pop	{r4, r5, r6, pc}
 1171              		.cfi_endproc
 1172              	.LFE5:
 1173              		.size	OSSemPost, .-OSSemPost
 1174              		.section	.rodata.str1.4,"aMS",%progbits,1
 1175              		.align	2
 1176              	.LC0:
 1177 0000 3F53454D 		.ascii	"?SEM\000"
 1177      00
 1178 0005 000000   		.space	3
 1179              	.LC1:
 1180 0008 2000     		.ascii	" \000"
 1181              		.text
 1182              	.Letext0:
 1183              		.file 2 ".\\uC-CPU\\ARM-Cortex-M3\\GNU/cpu.h"
 1184              		.file 3 ".\\uC-CPU/cpu_core.h"
 1185              		.file 4 ".\\uCOS-III\\Source/os_type.h"
 1186              		.file 5 ".\\uCOS-III\\Source/os.h"
ARM GAS  C:\Users\jorti\AppData\Local\Temp\ccMy2oAr.s 			page 40

