ARM GAS  C:\Users\jorti\AppData\Local\Temp\ccUF5ZRb.s 			page 1


   1              		.syntax unified
   2              		.cpu cortex-m3
   3              		.fpu softvfp
   4              		.eabi_attribute 20, 1
   5              		.eabi_attribute 21, 1
   6              		.eabi_attribute 23, 3
   7              		.eabi_attribute 24, 1
   8              		.eabi_attribute 25, 1
   9              		.eabi_attribute 26, 1
  10              		.eabi_attribute 30, 1
  11              		.eabi_attribute 34, 1
  12              		.eabi_attribute 18, 4
  13              		.thumb
  14              		.syntax unified
  15              		.file	"os_stat.c"
  16              		.text
  17              	.Ltext0:
  18              		.cfi_sections	.debug_frame
  19              		.section	.text.OSStatReset,"ax",%progbits
  20              		.align	2
  21              		.global	OSStatReset
  22              		.thumb
  23              		.thumb_func
  24              		.type	OSStatReset, %function
  25              	OSStatReset:
  26              	.LFB1:
  27              		.file 1 "uCOS-III\\Source\\os_stat.c"
   1:uCOS-III\Source/os_stat.c **** /*
   2:uCOS-III\Source/os_stat.c **** ***************************************************************************************************
   3:uCOS-III\Source/os_stat.c **** *                                                      uC/OS-III
   4:uCOS-III\Source/os_stat.c **** *                                                 The Real-Time Kernel
   5:uCOS-III\Source/os_stat.c **** *
   6:uCOS-III\Source/os_stat.c **** *                                  (c) Copyright 2009-2012; Micrium, Inc.; Weston, FL
   7:uCOS-III\Source/os_stat.c **** *                           All rights reserved.  Protected by international copyright laws.
   8:uCOS-III\Source/os_stat.c **** *
   9:uCOS-III\Source/os_stat.c **** *                                                  STATISTICS MODULE
  10:uCOS-III\Source/os_stat.c **** *
  11:uCOS-III\Source/os_stat.c **** * File    : OS_STAT.C
  12:uCOS-III\Source/os_stat.c **** * By      : JJL
  13:uCOS-III\Source/os_stat.c **** * Version : V3.03.01
  14:uCOS-III\Source/os_stat.c **** *
  15:uCOS-III\Source/os_stat.c **** * LICENSING TERMS:
  16:uCOS-III\Source/os_stat.c **** * ---------------
  17:uCOS-III\Source/os_stat.c **** *           uC/OS-III is provided in source form for FREE short-term evaluation, for educational us
  18:uCOS-III\Source/os_stat.c **** *           for peaceful research.  If you plan or intend to use uC/OS-III in a commercial applicat
  19:uCOS-III\Source/os_stat.c **** *           product then, you need to contact Micrium to properly license uC/OS-III for its use in 
  20:uCOS-III\Source/os_stat.c **** *           application/product.   We provide ALL the source code for your convenience and to help 
  21:uCOS-III\Source/os_stat.c **** *           experience uC/OS-III.  The fact that the source is provided does NOT mean that you can 
  22:uCOS-III\Source/os_stat.c **** *           it commercially without paying a licensing fee.
  23:uCOS-III\Source/os_stat.c **** *
  24:uCOS-III\Source/os_stat.c **** *           Knowledge of the source code may NOT be used to develop a similar product.
  25:uCOS-III\Source/os_stat.c **** *
  26:uCOS-III\Source/os_stat.c **** *           Please help us continue to provide the embedded community with the finest software avai
  27:uCOS-III\Source/os_stat.c **** *           Your honesty is greatly appreciated.
  28:uCOS-III\Source/os_stat.c **** *
  29:uCOS-III\Source/os_stat.c **** *           You can contact us at www.micrium.com, or by phone at +1 (954) 217-2036.
  30:uCOS-III\Source/os_stat.c **** ***************************************************************************************************
ARM GAS  C:\Users\jorti\AppData\Local\Temp\ccUF5ZRb.s 			page 2


  31:uCOS-III\Source/os_stat.c **** */
  32:uCOS-III\Source/os_stat.c **** 
  33:uCOS-III\Source/os_stat.c **** #define  MICRIUM_SOURCE
  34:uCOS-III\Source/os_stat.c **** #include <os.h>
  35:uCOS-III\Source/os_stat.c **** 
  36:uCOS-III\Source/os_stat.c **** #ifdef VSC_INCLUDE_SOURCE_FILE_NAMES
  37:uCOS-III\Source/os_stat.c **** const  CPU_CHAR  *os_stat__c = "$Id: $";
  38:uCOS-III\Source/os_stat.c **** #endif
  39:uCOS-III\Source/os_stat.c **** 
  40:uCOS-III\Source/os_stat.c **** 
  41:uCOS-III\Source/os_stat.c **** #if OS_CFG_STAT_TASK_EN > 0u
  42:uCOS-III\Source/os_stat.c **** 
  43:uCOS-III\Source/os_stat.c **** /*
  44:uCOS-III\Source/os_stat.c **** ***************************************************************************************************
  45:uCOS-III\Source/os_stat.c **** *                                                   RESET STATISTICS
  46:uCOS-III\Source/os_stat.c **** *
  47:uCOS-III\Source/os_stat.c **** * Description: This function is called by your application to reset the statistics.
  48:uCOS-III\Source/os_stat.c **** *
  49:uCOS-III\Source/os_stat.c **** * Argument(s): p_err      is a pointer to a variable that will contain an error code returned by th
  50:uCOS-III\Source/os_stat.c **** *
  51:uCOS-III\Source/os_stat.c **** *                             OS_ERR_NONE
  52:uCOS-III\Source/os_stat.c **** *
  53:uCOS-III\Source/os_stat.c **** * Returns    : none
  54:uCOS-III\Source/os_stat.c **** ***************************************************************************************************
  55:uCOS-III\Source/os_stat.c **** */
  56:uCOS-III\Source/os_stat.c **** 
  57:uCOS-III\Source/os_stat.c **** void  OSStatReset (OS_ERR  *p_err)
  58:uCOS-III\Source/os_stat.c **** {
  28              		.loc 1 58 0
  29              		.cfi_startproc
  30              		@ args = 0, pretend = 0, frame = 0
  31              		@ frame_needed = 0, uses_anonymous_args = 0
  32              	.LVL0:
  33 0000 F8B5     		push	{r3, r4, r5, r6, r7, lr}
  34              		.cfi_def_cfa_offset 24
  35              		.cfi_offset 3, -24
  36              		.cfi_offset 4, -20
  37              		.cfi_offset 5, -16
  38              		.cfi_offset 6, -12
  39              		.cfi_offset 7, -8
  40              		.cfi_offset 14, -4
  41 0002 0746     		mov	r7, r0
  42              	.LVL1:
  59:uCOS-III\Source/os_stat.c **** #if (OS_CFG_DBG_EN > 0u)
  60:uCOS-III\Source/os_stat.c ****     OS_TCB      *p_tcb;
  61:uCOS-III\Source/os_stat.c **** #if (OS_MSG_EN > 0u)
  62:uCOS-III\Source/os_stat.c ****     OS_MSG_Q    *p_msg_q;
  63:uCOS-III\Source/os_stat.c **** #endif
  64:uCOS-III\Source/os_stat.c **** #if (OS_CFG_Q_EN > 0u)
  65:uCOS-III\Source/os_stat.c ****     OS_Q        *p_q;
  66:uCOS-III\Source/os_stat.c **** #endif
  67:uCOS-III\Source/os_stat.c **** #endif
  68:uCOS-III\Source/os_stat.c ****     CPU_SR_ALLOC();
  69:uCOS-III\Source/os_stat.c **** 
  70:uCOS-III\Source/os_stat.c **** 
  71:uCOS-III\Source/os_stat.c **** 
  72:uCOS-III\Source/os_stat.c **** #ifdef OS_SAFETY_CRITICAL
ARM GAS  C:\Users\jorti\AppData\Local\Temp\ccUF5ZRb.s 			page 3


  73:uCOS-III\Source/os_stat.c ****     if (p_err == (OS_ERR *)0) {
  74:uCOS-III\Source/os_stat.c ****         OS_SAFETY_CRITICAL_EXCEPTION();
  75:uCOS-III\Source/os_stat.c ****         return;
  76:uCOS-III\Source/os_stat.c ****     }
  77:uCOS-III\Source/os_stat.c **** #endif
  78:uCOS-III\Source/os_stat.c **** 
  79:uCOS-III\Source/os_stat.c ****     CPU_CRITICAL_ENTER();
  43              		.loc 1 79 0
  44 0004 FFF7FEFF 		bl	CPU_SR_Save
  45              	.LVL2:
  80:uCOS-III\Source/os_stat.c **** #if OS_CFG_ISR_POST_DEFERRED_EN > 0u
  81:uCOS-III\Source/os_stat.c ****     OSIntQTaskTimeMax     = (CPU_TS    )0;                  /* Reset the task execution times      
  82:uCOS-III\Source/os_stat.c ****     OSIntQNbrEntriesMax   = (OS_OBJ_QTY)0;                  /* Reset the queue maximum number of en
  83:uCOS-III\Source/os_stat.c **** #endif
  84:uCOS-III\Source/os_stat.c **** 
  85:uCOS-III\Source/os_stat.c **** #if OS_CFG_STAT_TASK_EN > 0u
  86:uCOS-III\Source/os_stat.c ****     OSStatTaskCPUUsageMax = 0u;
  46              		.loc 1 86 0
  47 0008 0023     		movs	r3, #0
  48 000a 244A     		ldr	r2, .L7
  49 000c 1380     		strh	r3, [r2]	@ movhi
  87:uCOS-III\Source/os_stat.c ****     OSStatTaskTimeMax     = (CPU_TS)0;
  50              		.loc 1 87 0
  51 000e 244A     		ldr	r2, .L7+4
  52 0010 1360     		str	r3, [r2]
  88:uCOS-III\Source/os_stat.c **** #endif
  89:uCOS-III\Source/os_stat.c **** 
  90:uCOS-III\Source/os_stat.c ****     OSTickTaskTimeMax     = (CPU_TS)0;
  53              		.loc 1 90 0
  54 0012 244A     		ldr	r2, .L7+8
  55 0014 1360     		str	r3, [r2]
  91:uCOS-III\Source/os_stat.c **** 
  92:uCOS-III\Source/os_stat.c **** #if OS_CFG_TMR_EN > 0u
  93:uCOS-III\Source/os_stat.c ****     OSTmrTaskTimeMax      = (CPU_TS)0;
  56              		.loc 1 93 0
  57 0016 244A     		ldr	r2, .L7+12
  58 0018 1360     		str	r3, [r2]
  94:uCOS-III\Source/os_stat.c **** #endif
  95:uCOS-III\Source/os_stat.c **** 
  96:uCOS-III\Source/os_stat.c **** #ifdef CPU_CFG_INT_DIS_MEAS_EN
  97:uCOS-III\Source/os_stat.c ****     OSIntDisTimeMax       = (CPU_TS)0;                      /* Reset the maximum interrupt disable 
  98:uCOS-III\Source/os_stat.c **** #endif
  99:uCOS-III\Source/os_stat.c **** 
 100:uCOS-III\Source/os_stat.c **** #if OS_CFG_SCHED_LOCK_TIME_MEAS_EN > 0u
 101:uCOS-III\Source/os_stat.c ****     OSSchedLockTimeMax    = (CPU_TS)0;                      /* Reset the maximum scheduler lock tim
 102:uCOS-III\Source/os_stat.c **** #endif
 103:uCOS-III\Source/os_stat.c **** 
 104:uCOS-III\Source/os_stat.c **** #if OS_MSG_EN > 0u
 105:uCOS-III\Source/os_stat.c ****     OSMsgPool.NbrUsedMax  = 0u;
  59              		.loc 1 105 0
  60 001a 244A     		ldr	r2, .L7+16
  61 001c 1381     		strh	r3, [r2, #8]	@ movhi
 106:uCOS-III\Source/os_stat.c **** #endif
 107:uCOS-III\Source/os_stat.c ****     CPU_CRITICAL_EXIT();
  62              		.loc 1 107 0
  63 001e FFF7FEFF 		bl	CPU_SR_Restore
  64              	.LVL3:
ARM GAS  C:\Users\jorti\AppData\Local\Temp\ccUF5ZRb.s 			page 4


 108:uCOS-III\Source/os_stat.c **** 
 109:uCOS-III\Source/os_stat.c **** #if OS_CFG_DBG_EN > 0u
 110:uCOS-III\Source/os_stat.c ****     CPU_CRITICAL_ENTER();
  65              		.loc 1 110 0
  66 0022 FFF7FEFF 		bl	CPU_SR_Save
  67              	.LVL4:
 111:uCOS-III\Source/os_stat.c ****     p_tcb = OSTaskDbgListPtr;
  68              		.loc 1 111 0
  69 0026 224B     		ldr	r3, .L7+20
  70 0028 1C68     		ldr	r4, [r3]
  71              	.LVL5:
 112:uCOS-III\Source/os_stat.c ****     CPU_CRITICAL_EXIT();
  72              		.loc 1 112 0
  73 002a FFF7FEFF 		bl	CPU_SR_Restore
  74              	.LVL6:
 113:uCOS-III\Source/os_stat.c ****     while (p_tcb != (OS_TCB *)0) {                          /* Reset per-Task statistics           
  75              		.loc 1 113 0
  76 002e 1BE0     		b	.L2
  77              	.L3:
 114:uCOS-III\Source/os_stat.c ****         CPU_CRITICAL_ENTER();
  78              		.loc 1 114 0
  79 0030 FFF7FEFF 		bl	CPU_SR_Save
  80              	.LVL7:
  81 0034 0646     		mov	r6, r0
  82              	.LVL8:
 115:uCOS-III\Source/os_stat.c **** 
 116:uCOS-III\Source/os_stat.c **** #ifdef CPU_CFG_INT_DIS_MEAS_EN
 117:uCOS-III\Source/os_stat.c ****         p_tcb->IntDisTimeMax    = (CPU_TS      )0;
 118:uCOS-III\Source/os_stat.c **** #endif
 119:uCOS-III\Source/os_stat.c **** 
 120:uCOS-III\Source/os_stat.c **** #if OS_CFG_SCHED_LOCK_TIME_MEAS_EN > 0u
 121:uCOS-III\Source/os_stat.c ****         p_tcb->SchedLockTimeMax = (CPU_TS      )0;
 122:uCOS-III\Source/os_stat.c **** #endif
 123:uCOS-III\Source/os_stat.c **** 
 124:uCOS-III\Source/os_stat.c **** #if OS_CFG_TASK_PROFILE_EN > 0u
 125:uCOS-III\Source/os_stat.c **** #if OS_CFG_TASK_Q_EN > 0u
 126:uCOS-III\Source/os_stat.c ****         p_tcb->MsgQPendTimeMax  = (CPU_TS      )0;
  83              		.loc 1 126 0
  84 0036 0025     		movs	r5, #0
  85 0038 A567     		str	r5, [r4, #120]
 127:uCOS-III\Source/os_stat.c **** #endif
 128:uCOS-III\Source/os_stat.c ****         p_tcb->SemPendTimeMax   = (CPU_TS      )0;
  86              		.loc 1 128 0
  87 003a C4F8A850 		str	r5, [r4, #168]
 129:uCOS-III\Source/os_stat.c ****         p_tcb->CtxSwCtr         = (OS_CTR      )0;
  88              		.loc 1 129 0
  89 003e C4F89050 		str	r5, [r4, #144]
 130:uCOS-III\Source/os_stat.c ****         p_tcb->CPUUsage         = (OS_CPU_USAGE)0;
  90              		.loc 1 130 0
  91 0042 A4F88C50 		strh	r5, [r4, #140]	@ movhi
 131:uCOS-III\Source/os_stat.c ****         p_tcb->CPUUsageMax      = (OS_CPU_USAGE)0;
  92              		.loc 1 131 0
  93 0046 A4F88E50 		strh	r5, [r4, #142]	@ movhi
 132:uCOS-III\Source/os_stat.c ****         p_tcb->CyclesTotal      = (OS_CYCLES   )0;
  94              		.loc 1 132 0
  95 004a C4F89C50 		str	r5, [r4, #156]
 133:uCOS-III\Source/os_stat.c ****         p_tcb->CyclesTotalPrev  = (OS_CYCLES   )0;
ARM GAS  C:\Users\jorti\AppData\Local\Temp\ccUF5ZRb.s 			page 5


  96              		.loc 1 133 0
  97 004e C4F8A050 		str	r5, [r4, #160]
 134:uCOS-III\Source/os_stat.c ****         p_tcb->CyclesStart      =  OS_TS_GET();
  98              		.loc 1 134 0
  99 0052 FFF7FEFF 		bl	CPU_TS_TmrRd
 100              	.LVL9:
 101 0056 C4F89800 		str	r0, [r4, #152]
 102              	.LVL10:
 135:uCOS-III\Source/os_stat.c **** #endif
 136:uCOS-III\Source/os_stat.c **** 
 137:uCOS-III\Source/os_stat.c **** #if OS_CFG_TASK_Q_EN > 0u
 138:uCOS-III\Source/os_stat.c ****         p_msg_q                 = &p_tcb->MsgQ;
 139:uCOS-III\Source/os_stat.c ****         p_msg_q->NbrEntriesMax  = (OS_MSG_QTY  )0;
 103              		.loc 1 139 0
 104 005a A4F87050 		strh	r5, [r4, #112]	@ movhi
 140:uCOS-III\Source/os_stat.c **** #endif
 141:uCOS-III\Source/os_stat.c ****         p_tcb                   = p_tcb->DbgNextPtr;
 105              		.loc 1 141 0
 106 005e D4F8B840 		ldr	r4, [r4, #184]
 107              	.LVL11:
 142:uCOS-III\Source/os_stat.c ****         CPU_CRITICAL_EXIT();
 108              		.loc 1 142 0
 109 0062 3046     		mov	r0, r6
 110 0064 FFF7FEFF 		bl	CPU_SR_Restore
 111              	.LVL12:
 112              	.L2:
 113:uCOS-III\Source/os_stat.c ****         CPU_CRITICAL_ENTER();
 113              		.loc 1 113 0
 114 0068 002C     		cmp	r4, #0
 115 006a E1D1     		bne	.L3
 143:uCOS-III\Source/os_stat.c ****     }
 144:uCOS-III\Source/os_stat.c **** #endif
 145:uCOS-III\Source/os_stat.c **** 
 146:uCOS-III\Source/os_stat.c **** #if (OS_CFG_Q_EN > 0u) && (OS_CFG_DBG_EN > 0u)
 147:uCOS-III\Source/os_stat.c ****     CPU_CRITICAL_ENTER();
 116              		.loc 1 147 0
 117 006c FFF7FEFF 		bl	CPU_SR_Save
 118              	.LVL13:
 148:uCOS-III\Source/os_stat.c ****     p_q = OSQDbgListPtr;
 119              		.loc 1 148 0
 120 0070 104B     		ldr	r3, .L7+24
 121 0072 1C68     		ldr	r4, [r3]
 122              	.LVL14:
 149:uCOS-III\Source/os_stat.c ****     CPU_CRITICAL_EXIT();
 123              		.loc 1 149 0
 124 0074 FFF7FEFF 		bl	CPU_SR_Restore
 125              	.LVL15:
 150:uCOS-III\Source/os_stat.c ****     while (p_q != (OS_Q *)0) {                              /* Reset message queues statistics     
 126              		.loc 1 150 0
 127 0078 06E0     		b	.L4
 128              	.L5:
 151:uCOS-III\Source/os_stat.c ****         CPU_CRITICAL_ENTER();
 129              		.loc 1 151 0
 130 007a FFF7FEFF 		bl	CPU_SR_Save
 131              	.LVL16:
 152:uCOS-III\Source/os_stat.c ****         p_msg_q                = &p_q->MsgQ;
 153:uCOS-III\Source/os_stat.c ****         p_msg_q->NbrEntriesMax = (OS_MSG_QTY)0;
ARM GAS  C:\Users\jorti\AppData\Local\Temp\ccUF5ZRb.s 			page 6


 132              		.loc 1 153 0
 133 007e 0023     		movs	r3, #0
 134 0080 A385     		strh	r3, [r4, #44]	@ movhi
 154:uCOS-III\Source/os_stat.c ****         p_q                    = p_q->DbgNextPtr;
 135              		.loc 1 154 0
 136 0082 A469     		ldr	r4, [r4, #24]
 137              	.LVL17:
 155:uCOS-III\Source/os_stat.c ****         CPU_CRITICAL_EXIT();
 138              		.loc 1 155 0
 139 0084 FFF7FEFF 		bl	CPU_SR_Restore
 140              	.LVL18:
 141              	.L4:
 150:uCOS-III\Source/os_stat.c ****         CPU_CRITICAL_ENTER();
 142              		.loc 1 150 0
 143 0088 002C     		cmp	r4, #0
 144 008a F6D1     		bne	.L5
 156:uCOS-III\Source/os_stat.c ****     }
 157:uCOS-III\Source/os_stat.c **** #endif
 158:uCOS-III\Source/os_stat.c **** 
 159:uCOS-III\Source/os_stat.c ****     OS_TickListResetPeak();                                 /* Reset tick wheel statistics         
 145              		.loc 1 159 0
 146 008c FFF7FEFF 		bl	OS_TickListResetPeak
 147              	.LVL19:
 160:uCOS-III\Source/os_stat.c **** 
 161:uCOS-III\Source/os_stat.c **** #if OS_CFG_TMR_EN > 0u
 162:uCOS-III\Source/os_stat.c ****     OS_TmrResetPeak();
 148              		.loc 1 162 0
 149 0090 FFF7FEFF 		bl	OS_TmrResetPeak
 150              	.LVL20:
 163:uCOS-III\Source/os_stat.c **** #endif
 164:uCOS-III\Source/os_stat.c **** 
 165:uCOS-III\Source/os_stat.c **** 
 166:uCOS-III\Source/os_stat.c ****    *p_err = OS_ERR_NONE;
 151              		.loc 1 166 0
 152 0094 0023     		movs	r3, #0
 153 0096 3B80     		strh	r3, [r7]	@ movhi
 154 0098 F8BD     		pop	{r3, r4, r5, r6, r7, pc}
 155              	.LVL21:
 156              	.L8:
 157 009a 00BF     		.align	2
 158              	.L7:
 159 009c 00000000 		.word	OSStatTaskCPUUsageMax
 160 00a0 00000000 		.word	OSStatTaskTimeMax
 161 00a4 00000000 		.word	OSTickTaskTimeMax
 162 00a8 00000000 		.word	OSTmrTaskTimeMax
 163 00ac 00000000 		.word	OSMsgPool
 164 00b0 00000000 		.word	OSTaskDbgListPtr
 165 00b4 00000000 		.word	OSQDbgListPtr
 166              		.cfi_endproc
 167              	.LFE1:
 168              		.size	OSStatReset, .-OSStatReset
 169              		.section	.text.OS_StatTask,"ax",%progbits
 170              		.align	2
 171              		.global	OS_StatTask
 172              		.thumb
 173              		.thumb_func
 174              		.type	OS_StatTask, %function
ARM GAS  C:\Users\jorti\AppData\Local\Temp\ccUF5ZRb.s 			page 7


 175              	OS_StatTask:
 176              	.LFB3:
 167:uCOS-III\Source/os_stat.c **** }
 168:uCOS-III\Source/os_stat.c **** 
 169:uCOS-III\Source/os_stat.c **** /*$PAGE*/
 170:uCOS-III\Source/os_stat.c **** /*
 171:uCOS-III\Source/os_stat.c **** ***************************************************************************************************
 172:uCOS-III\Source/os_stat.c **** *                                                DETERMINE THE CPU CAPACITY
 173:uCOS-III\Source/os_stat.c **** *
 174:uCOS-III\Source/os_stat.c **** * Description: This function is called by your application to establish CPU usage by first determin
 175:uCOS-III\Source/os_stat.c **** *              counter would count to in 1/10 second if no other tasks were to execute during that 
 176:uCOS-III\Source/os_stat.c **** *              then determined by a low priority task which keeps track of this 32-bit counter ever
 177:uCOS-III\Source/os_stat.c **** *              time, with other tasks running.  CPU usage is determined by:
 178:uCOS-III\Source/os_stat.c **** *
 179:uCOS-III\Source/os_stat.c **** *                                             OS_Stat_IdleCtr
 180:uCOS-III\Source/os_stat.c **** *                 CPU Usage (%) = 100 * (1 - ------------------)
 181:uCOS-III\Source/os_stat.c **** *                                            OS_Stat_IdleCtrMax
 182:uCOS-III\Source/os_stat.c **** *
 183:uCOS-III\Source/os_stat.c **** * Argument(s): p_err      is a pointer to a variable that will contain an error code returned by th
 184:uCOS-III\Source/os_stat.c **** *
 185:uCOS-III\Source/os_stat.c **** *                             OS_ERR_NONE
 186:uCOS-III\Source/os_stat.c **** *
 187:uCOS-III\Source/os_stat.c **** * Returns    : none
 188:uCOS-III\Source/os_stat.c **** ***************************************************************************************************
 189:uCOS-III\Source/os_stat.c **** */
 190:uCOS-III\Source/os_stat.c **** 
 191:uCOS-III\Source/os_stat.c **** void  OSStatTaskCPUUsageInit (OS_ERR  *p_err)
 192:uCOS-III\Source/os_stat.c **** {
 193:uCOS-III\Source/os_stat.c ****     OS_ERR   err;
 194:uCOS-III\Source/os_stat.c ****     OS_TICK  dly;
 195:uCOS-III\Source/os_stat.c ****     CPU_SR_ALLOC();
 196:uCOS-III\Source/os_stat.c **** 
 197:uCOS-III\Source/os_stat.c **** 
 198:uCOS-III\Source/os_stat.c **** 
 199:uCOS-III\Source/os_stat.c **** #ifdef OS_SAFETY_CRITICAL
 200:uCOS-III\Source/os_stat.c ****     if (p_err == (OS_ERR *)0) {
 201:uCOS-III\Source/os_stat.c ****         OS_SAFETY_CRITICAL_EXCEPTION();
 202:uCOS-III\Source/os_stat.c ****         return;
 203:uCOS-III\Source/os_stat.c ****     }
 204:uCOS-III\Source/os_stat.c **** #endif
 205:uCOS-III\Source/os_stat.c **** 
 206:uCOS-III\Source/os_stat.c **** #if (OS_CFG_TMR_EN > 0u)
 207:uCOS-III\Source/os_stat.c ****     OSTaskSuspend(&OSTmrTaskTCB, &err);
 208:uCOS-III\Source/os_stat.c ****     if (err != OS_ERR_NONE) {
 209:uCOS-III\Source/os_stat.c ****        *p_err = err;
 210:uCOS-III\Source/os_stat.c ****         return;
 211:uCOS-III\Source/os_stat.c ****     }
 212:uCOS-III\Source/os_stat.c **** #endif
 213:uCOS-III\Source/os_stat.c **** 
 214:uCOS-III\Source/os_stat.c ****     OSTimeDly((OS_TICK )2,                                  /* Synchronize with clock tick         
 215:uCOS-III\Source/os_stat.c ****               (OS_OPT  )OS_OPT_TIME_DLY,
 216:uCOS-III\Source/os_stat.c ****               (OS_ERR *)&err);
 217:uCOS-III\Source/os_stat.c ****     if (err != OS_ERR_NONE) {
 218:uCOS-III\Source/os_stat.c ****        *p_err = err;
 219:uCOS-III\Source/os_stat.c ****         return;
 220:uCOS-III\Source/os_stat.c ****     }
 221:uCOS-III\Source/os_stat.c ****     CPU_CRITICAL_ENTER();
ARM GAS  C:\Users\jorti\AppData\Local\Temp\ccUF5ZRb.s 			page 8


 222:uCOS-III\Source/os_stat.c ****     OSStatTaskCtr = (OS_TICK)0;                             /* Clear idle counter                  
 223:uCOS-III\Source/os_stat.c ****     CPU_CRITICAL_EXIT();
 224:uCOS-III\Source/os_stat.c **** 
 225:uCOS-III\Source/os_stat.c ****     dly = (OS_TICK)0;
 226:uCOS-III\Source/os_stat.c ****     if (OSCfg_TickRate_Hz > OSCfg_StatTaskRate_Hz) {
 227:uCOS-III\Source/os_stat.c ****         dly = (OS_TICK)(OSCfg_TickRate_Hz / OSCfg_StatTaskRate_Hz);
 228:uCOS-III\Source/os_stat.c ****     }
 229:uCOS-III\Source/os_stat.c ****     if (dly == (OS_TICK)0) {
 230:uCOS-III\Source/os_stat.c ****         dly =  (OS_TICK)(OSCfg_TickRate_Hz / (OS_RATE_HZ)10);
 231:uCOS-III\Source/os_stat.c ****     }
 232:uCOS-III\Source/os_stat.c **** 
 233:uCOS-III\Source/os_stat.c ****     OSTimeDly(dly,                                          /* Determine MAX. idle counter value   
 234:uCOS-III\Source/os_stat.c ****               OS_OPT_TIME_DLY,
 235:uCOS-III\Source/os_stat.c ****               &err);
 236:uCOS-III\Source/os_stat.c **** 
 237:uCOS-III\Source/os_stat.c **** #if (OS_CFG_TMR_EN > 0u)
 238:uCOS-III\Source/os_stat.c ****     OSTaskResume(&OSTmrTaskTCB, &err);
 239:uCOS-III\Source/os_stat.c ****     if (err != OS_ERR_NONE) {
 240:uCOS-III\Source/os_stat.c ****        *p_err = err;
 241:uCOS-III\Source/os_stat.c ****         return;
 242:uCOS-III\Source/os_stat.c ****     }
 243:uCOS-III\Source/os_stat.c **** #endif
 244:uCOS-III\Source/os_stat.c **** 
 245:uCOS-III\Source/os_stat.c ****     CPU_CRITICAL_ENTER();
 246:uCOS-III\Source/os_stat.c ****     OSStatTaskTimeMax = (CPU_TS)0;
 247:uCOS-III\Source/os_stat.c **** 
 248:uCOS-III\Source/os_stat.c ****     OSStatTaskCtrMax  = OSStatTaskCtr;                      /* Store maximum idle counter count    
 249:uCOS-III\Source/os_stat.c ****     OSStatTaskRdy     = OS_STATE_RDY;
 250:uCOS-III\Source/os_stat.c ****     CPU_CRITICAL_EXIT();
 251:uCOS-III\Source/os_stat.c ****    *p_err             = OS_ERR_NONE;
 252:uCOS-III\Source/os_stat.c **** }
 253:uCOS-III\Source/os_stat.c **** 
 254:uCOS-III\Source/os_stat.c **** /*$PAGE*/
 255:uCOS-III\Source/os_stat.c **** /*
 256:uCOS-III\Source/os_stat.c **** ***************************************************************************************************
 257:uCOS-III\Source/os_stat.c **** *                                                    STATISTICS TASK
 258:uCOS-III\Source/os_stat.c **** *
 259:uCOS-III\Source/os_stat.c **** * Description: This task is internal to uC/OS-III and is used to compute some statistics about the 
 260:uCOS-III\Source/os_stat.c **** *              environment.  Specifically, OS_StatTask() computes the CPU usage.  CPU usage is dete
 261:uCOS-III\Source/os_stat.c **** *
 262:uCOS-III\Source/os_stat.c **** *                                                   OSStatTaskCtr
 263:uCOS-III\Source/os_stat.c **** *                 OSStatTaskCPUUsage = 100 * (1 - ------------------)     (units are in %)
 264:uCOS-III\Source/os_stat.c **** *                                                  OSStatTaskCtrMax
 265:uCOS-III\Source/os_stat.c **** *
 266:uCOS-III\Source/os_stat.c **** * Arguments  : p_arg     this pointer is not used at this time.
 267:uCOS-III\Source/os_stat.c **** *
 268:uCOS-III\Source/os_stat.c **** * Returns    : none
 269:uCOS-III\Source/os_stat.c **** *
 270:uCOS-III\Source/os_stat.c **** * Note(s)    : 1) This task runs at a priority level higher than the idle task.
 271:uCOS-III\Source/os_stat.c **** *
 272:uCOS-III\Source/os_stat.c **** *              2) You can disable this task by setting the configuration #define OS_CFG_STAT_TASK_E
 273:uCOS-III\Source/os_stat.c **** *
 274:uCOS-III\Source/os_stat.c **** *              3) You MUST have at least a delay of 2/10 seconds to allow for the system to establi
 275:uCOS-III\Source/os_stat.c **** *                 for the idle counter.
 276:uCOS-III\Source/os_stat.c **** *
 277:uCOS-III\Source/os_stat.c **** *              4) This function is INTERNAL to uC/OS-III and your application should not call it.
 278:uCOS-III\Source/os_stat.c **** ***************************************************************************************************
ARM GAS  C:\Users\jorti\AppData\Local\Temp\ccUF5ZRb.s 			page 9


 279:uCOS-III\Source/os_stat.c **** */
 280:uCOS-III\Source/os_stat.c **** 
 281:uCOS-III\Source/os_stat.c **** void  OS_StatTask (void  *p_arg)
 282:uCOS-III\Source/os_stat.c **** {
 177              		.loc 1 282 0
 178              		.cfi_startproc
 179              		@ args = 0, pretend = 0, frame = 8
 180              		@ frame_needed = 0, uses_anonymous_args = 0
 181              	.LVL22:
 182 0000 2DE9F041 		push	{r4, r5, r6, r7, r8, lr}
 183              		.cfi_def_cfa_offset 24
 184              		.cfi_offset 4, -24
 185              		.cfi_offset 5, -20
 186              		.cfi_offset 6, -16
 187              		.cfi_offset 7, -12
 188              		.cfi_offset 8, -8
 189              		.cfi_offset 14, -4
 190 0004 82B0     		sub	sp, sp, #8
 191              		.cfi_def_cfa_offset 32
 192              	.LVL23:
 283:uCOS-III\Source/os_stat.c **** #if OS_CFG_DBG_EN > 0u
 284:uCOS-III\Source/os_stat.c **** #if OS_CFG_TASK_PROFILE_EN > 0u
 285:uCOS-III\Source/os_stat.c ****     OS_CPU_USAGE usage;
 286:uCOS-III\Source/os_stat.c ****     OS_CYCLES    cycles_total;
 287:uCOS-III\Source/os_stat.c ****     OS_CYCLES    cycles_div;
 288:uCOS-III\Source/os_stat.c ****     OS_CYCLES    cycles_mult;
 289:uCOS-III\Source/os_stat.c ****     OS_CYCLES    cycles_max;
 290:uCOS-III\Source/os_stat.c **** #endif
 291:uCOS-III\Source/os_stat.c ****     OS_TCB      *p_tcb;
 292:uCOS-III\Source/os_stat.c **** #endif
 293:uCOS-III\Source/os_stat.c ****     OS_TICK      ctr_max;
 294:uCOS-III\Source/os_stat.c ****     OS_TICK      ctr_mult;
 295:uCOS-III\Source/os_stat.c ****     OS_TICK      ctr_div;
 296:uCOS-III\Source/os_stat.c ****     OS_ERR       err;
 297:uCOS-III\Source/os_stat.c ****     OS_TICK      dly;
 298:uCOS-III\Source/os_stat.c ****     CPU_TS       ts_start;
 299:uCOS-III\Source/os_stat.c ****     CPU_TS       ts_end;
 300:uCOS-III\Source/os_stat.c ****     CPU_SR_ALLOC();
 301:uCOS-III\Source/os_stat.c **** 
 302:uCOS-III\Source/os_stat.c **** 
 303:uCOS-III\Source/os_stat.c **** 
 304:uCOS-III\Source/os_stat.c ****     p_arg = p_arg;                                          /* Prevent compiler warning for not usi
 305:uCOS-III\Source/os_stat.c ****     while (OSStatTaskRdy != DEF_TRUE) {
 193              		.loc 1 305 0
 194 0006 07E0     		b	.L10
 195              	.LVL24:
 196              	.L11:
 306:uCOS-III\Source/os_stat.c ****         OSTimeDly(2u * OSCfg_StatTaskRate_Hz,               /* Wait until statistic task is ready  
 197              		.loc 1 306 0
 198 0008 7A4B     		ldr	r3, .L40
 199 000a 1868     		ldr	r0, [r3]
 200 000c 0DF10602 		add	r2, sp, #6
 201 0010 0021     		movs	r1, #0
 202 0012 4000     		lsls	r0, r0, #1
 203 0014 FFF7FEFF 		bl	OSTimeDly
 204              	.LVL25:
 205              	.L10:
ARM GAS  C:\Users\jorti\AppData\Local\Temp\ccUF5ZRb.s 			page 10


 305:uCOS-III\Source/os_stat.c ****         OSTimeDly(2u * OSCfg_StatTaskRate_Hz,               /* Wait until statistic task is ready  
 206              		.loc 1 305 0
 207 0018 774B     		ldr	r3, .L40+4
 208 001a 1B78     		ldrb	r3, [r3]	@ zero_extendqisi2
 209 001c 012B     		cmp	r3, #1
 210 001e F3D1     		bne	.L11
 307:uCOS-III\Source/os_stat.c ****                   OS_OPT_TIME_DLY,
 308:uCOS-III\Source/os_stat.c ****                   &err);
 309:uCOS-III\Source/os_stat.c ****     }
 310:uCOS-III\Source/os_stat.c ****     OSStatReset(&err);                                      /* Reset statistics                    
 211              		.loc 1 310 0
 212 0020 0DF10600 		add	r0, sp, #6
 213 0024 FFF7FEFF 		bl	OSStatReset
 214              	.LVL26:
 311:uCOS-III\Source/os_stat.c **** 
 312:uCOS-III\Source/os_stat.c ****     dly = (OS_TICK)0;                                       /* Compute statistic task sleep delay  
 313:uCOS-III\Source/os_stat.c ****     if (OSCfg_TickRate_Hz > OSCfg_StatTaskRate_Hz) {
 215              		.loc 1 313 0
 216 0028 744B     		ldr	r3, .L40+8
 217 002a 1B68     		ldr	r3, [r3]
 218 002c 714A     		ldr	r2, .L40
 219 002e 1768     		ldr	r7, [r2]
 220 0030 BB42     		cmp	r3, r7
 221 0032 02D9     		bls	.L28
 314:uCOS-III\Source/os_stat.c ****         dly = (OS_TICK)(OSCfg_TickRate_Hz / OSCfg_StatTaskRate_Hz);
 222              		.loc 1 314 0
 223 0034 B3FBF7F7 		udiv	r7, r3, r7
 224              	.LVL27:
 225 0038 00E0     		b	.L12
 226              	.LVL28:
 227              	.L28:
 312:uCOS-III\Source/os_stat.c ****     if (OSCfg_TickRate_Hz > OSCfg_StatTaskRate_Hz) {
 228              		.loc 1 312 0
 229 003a 0027     		movs	r7, #0
 230              	.LVL29:
 231              	.L12:
 315:uCOS-III\Source/os_stat.c ****     }
 316:uCOS-III\Source/os_stat.c ****     if (dly == (OS_TICK)0) {
 232              		.loc 1 316 0
 233 003c 27B9     		cbnz	r7, .L27
 317:uCOS-III\Source/os_stat.c ****         dly =  (OS_TICK)(OSCfg_TickRate_Hz / (OS_RATE_HZ)10);
 234              		.loc 1 317 0
 235 003e A7F13337 		sub	r7, r7, #858993459
 236              	.LVL30:
 237 0042 A7FB0323 		umull	r2, r3, r7, r3
 238 0046 DF08     		lsrs	r7, r3, #3
 239              	.LVL31:
 240              	.L27:
 318:uCOS-III\Source/os_stat.c ****     }
 319:uCOS-III\Source/os_stat.c **** 
 320:uCOS-III\Source/os_stat.c ****     while (DEF_ON) {
 321:uCOS-III\Source/os_stat.c ****         ts_start        = OS_TS_GET();
 241              		.loc 1 321 0
 242 0048 FFF7FEFF 		bl	CPU_TS_TmrRd
 243              	.LVL32:
 244 004c 0646     		mov	r6, r0
 245              	.LVL33:
ARM GAS  C:\Users\jorti\AppData\Local\Temp\ccUF5ZRb.s 			page 11


 322:uCOS-III\Source/os_stat.c **** #ifdef  CPU_CFG_INT_DIS_MEAS_EN
 323:uCOS-III\Source/os_stat.c ****         OSIntDisTimeMax = CPU_IntDisMeasMaxGet();
 324:uCOS-III\Source/os_stat.c **** #endif
 325:uCOS-III\Source/os_stat.c **** 
 326:uCOS-III\Source/os_stat.c ****         CPU_CRITICAL_ENTER();                               /* ----------------- OVERALL CPU USAGE 
 246              		.loc 1 326 0
 247 004e FFF7FEFF 		bl	CPU_SR_Save
 248              	.LVL34:
 327:uCOS-III\Source/os_stat.c ****         OSStatTaskCtrRun   = OSStatTaskCtr;                 /* Obtain the of the stat counter for t
 249              		.loc 1 327 0
 250 0052 6B4C     		ldr	r4, .L40+12
 251 0054 6B4B     		ldr	r3, .L40+16
 252 0056 1A68     		ldr	r2, [r3]
 253 0058 2260     		str	r2, [r4]
 328:uCOS-III\Source/os_stat.c ****         OSStatTaskCtr      = (OS_TICK)0;                    /* Reset the stat counter for the next 
 254              		.loc 1 328 0
 255 005a 0022     		movs	r2, #0
 256 005c 1A60     		str	r2, [r3]
 329:uCOS-III\Source/os_stat.c ****         CPU_CRITICAL_EXIT();
 257              		.loc 1 329 0
 258 005e FFF7FEFF 		bl	CPU_SR_Restore
 259              	.LVL35:
 330:uCOS-III\Source/os_stat.c **** 
 331:uCOS-III\Source/os_stat.c ****         if (OSStatTaskCtrMax > OSStatTaskCtrRun) {          /* Compute CPU Usage with best resoluti
 260              		.loc 1 331 0
 261 0062 694B     		ldr	r3, .L40+20
 262 0064 1A68     		ldr	r2, [r3]
 263 0066 2368     		ldr	r3, [r4]
 264 0068 9A42     		cmp	r2, r3
 265 006a 30D9     		bls	.L14
 332:uCOS-III\Source/os_stat.c ****             if (OSStatTaskCtrMax < 400000u) {                                        /*            
 266              		.loc 1 332 0
 267 006c 6749     		ldr	r1, .L40+24
 268 006e 8A42     		cmp	r2, r1
 269 0070 0CD9     		bls	.L29
 333:uCOS-III\Source/os_stat.c ****                 ctr_mult = 10000u;
 334:uCOS-III\Source/os_stat.c ****                 ctr_div  =     1u;
 335:uCOS-III\Source/os_stat.c ****             } else if (OSStatTaskCtrMax <   4000000u) {                              /*      400,00
 270              		.loc 1 335 0
 271 0072 6749     		ldr	r1, .L40+28
 272 0074 8A42     		cmp	r2, r1
 273 0076 0DD9     		bls	.L30
 336:uCOS-III\Source/os_stat.c ****                 ctr_mult =  1000u;
 337:uCOS-III\Source/os_stat.c ****                 ctr_div  =    10u;
 338:uCOS-III\Source/os_stat.c ****             } else if (OSStatTaskCtrMax <  40000000u) {                              /*    4,000,00
 274              		.loc 1 338 0
 275 0078 6649     		ldr	r1, .L40+32
 276 007a 8A42     		cmp	r2, r1
 277 007c 0ED9     		bls	.L31
 339:uCOS-III\Source/os_stat.c ****                 ctr_mult =   100u;
 340:uCOS-III\Source/os_stat.c ****                 ctr_div  =   100u;
 341:uCOS-III\Source/os_stat.c ****             } else if (OSStatTaskCtrMax < 400000000u) {                              /*   40,000,00
 278              		.loc 1 341 0
 279 007e 6649     		ldr	r1, .L40+36
 280 0080 8A42     		cmp	r2, r1
 281 0082 0ED8     		bhi	.L32
 342:uCOS-III\Source/os_stat.c ****                 ctr_mult =    10u;
ARM GAS  C:\Users\jorti\AppData\Local\Temp\ccUF5ZRb.s 			page 12


 343:uCOS-III\Source/os_stat.c ****                 ctr_div  =  1000u;
 282              		.loc 1 343 0
 283 0084 4FF47A71 		mov	r1, #1000
 342:uCOS-III\Source/os_stat.c ****                 ctr_mult =    10u;
 284              		.loc 1 342 0
 285 0088 0A20     		movs	r0, #10
 286 008a 0DE0     		b	.L15
 287              	.L29:
 334:uCOS-III\Source/os_stat.c ****             } else if (OSStatTaskCtrMax <   4000000u) {                              /*      400,00
 288              		.loc 1 334 0
 289 008c 0121     		movs	r1, #1
 333:uCOS-III\Source/os_stat.c ****                 ctr_div  =     1u;
 290              		.loc 1 333 0
 291 008e 42F21070 		movw	r0, #10000
 292 0092 09E0     		b	.L15
 293              	.L30:
 337:uCOS-III\Source/os_stat.c ****             } else if (OSStatTaskCtrMax <  40000000u) {                              /*    4,000,00
 294              		.loc 1 337 0
 295 0094 0A21     		movs	r1, #10
 336:uCOS-III\Source/os_stat.c ****                 ctr_div  =    10u;
 296              		.loc 1 336 0
 297 0096 4FF47A70 		mov	r0, #1000
 298 009a 05E0     		b	.L15
 299              	.L31:
 340:uCOS-III\Source/os_stat.c ****             } else if (OSStatTaskCtrMax < 400000000u) {                              /*   40,000,00
 300              		.loc 1 340 0
 301 009c 6421     		movs	r1, #100
 339:uCOS-III\Source/os_stat.c ****                 ctr_div  =   100u;
 302              		.loc 1 339 0
 303 009e 0846     		mov	r0, r1
 304 00a0 02E0     		b	.L15
 305              	.L32:
 344:uCOS-III\Source/os_stat.c ****             } else {                                                                 /*  400,000,00
 345:uCOS-III\Source/os_stat.c ****                 ctr_mult =     1u;
 346:uCOS-III\Source/os_stat.c ****                 ctr_div  = 10000u;
 306              		.loc 1 346 0
 307 00a2 42F21071 		movw	r1, #10000
 345:uCOS-III\Source/os_stat.c ****                 ctr_div  = 10000u;
 308              		.loc 1 345 0
 309 00a6 0120     		movs	r0, #1
 310              	.L15:
 311              	.LVL36:
 347:uCOS-III\Source/os_stat.c ****             }
 348:uCOS-III\Source/os_stat.c ****             ctr_max            = OSStatTaskCtrMax / ctr_div;
 312              		.loc 1 348 0
 313 00a8 B2FBF1F2 		udiv	r2, r2, r1
 314              	.LVL37:
 349:uCOS-III\Source/os_stat.c ****             OSStatTaskCPUUsage = (OS_CPU_USAGE)((OS_TICK)10000u - ctr_mult * OSStatTaskCtrRun / ctr
 315              		.loc 1 349 0
 316 00ac 03FB00F3 		mul	r3, r3, r0
 317 00b0 B3FBF2F3 		udiv	r3, r3, r2
 318 00b4 C3F51C53 		rsb	r3, r3, #9984
 319 00b8 1033     		adds	r3, r3, #16
 320 00ba 9BB2     		uxth	r3, r3
 321 00bc 574A     		ldr	r2, .L40+40
 322              	.LVL38:
 323 00be 1380     		strh	r3, [r2]	@ movhi
ARM GAS  C:\Users\jorti\AppData\Local\Temp\ccUF5ZRb.s 			page 13


 350:uCOS-III\Source/os_stat.c ****             if (OSStatTaskCPUUsageMax < OSStatTaskCPUUsage) {
 324              		.loc 1 350 0
 325 00c0 574A     		ldr	r2, .L40+44
 326 00c2 1288     		ldrh	r2, [r2]
 327 00c4 9342     		cmp	r3, r2
 328 00c6 06D9     		bls	.L16
 351:uCOS-III\Source/os_stat.c ****                 OSStatTaskCPUUsageMax = OSStatTaskCPUUsage;
 329              		.loc 1 351 0
 330 00c8 554A     		ldr	r2, .L40+44
 331 00ca 1380     		strh	r3, [r2]	@ movhi
 332 00cc 03E0     		b	.L16
 333              	.LVL39:
 334              	.L14:
 352:uCOS-III\Source/os_stat.c ****             }
 353:uCOS-III\Source/os_stat.c ****         } else {
 354:uCOS-III\Source/os_stat.c ****             OSStatTaskCPUUsage = (OS_CPU_USAGE)10000u;
 335              		.loc 1 354 0
 336 00ce 42F21072 		movw	r2, #10000
 337 00d2 524B     		ldr	r3, .L40+40
 338 00d4 1A80     		strh	r2, [r3]	@ movhi
 339              	.L16:
 355:uCOS-III\Source/os_stat.c ****         }
 356:uCOS-III\Source/os_stat.c **** 
 357:uCOS-III\Source/os_stat.c ****         OSStatTaskHook();                                   /* Invoke user definable hook          
 340              		.loc 1 357 0
 341 00d6 FFF7FEFF 		bl	OSStatTaskHook
 342              	.LVL40:
 358:uCOS-III\Source/os_stat.c **** 
 359:uCOS-III\Source/os_stat.c **** 
 360:uCOS-III\Source/os_stat.c **** #if OS_CFG_DBG_EN > 0u
 361:uCOS-III\Source/os_stat.c **** #if OS_CFG_TASK_PROFILE_EN > 0u
 362:uCOS-III\Source/os_stat.c ****         cycles_total = (OS_CYCLES)0;
 363:uCOS-III\Source/os_stat.c **** 
 364:uCOS-III\Source/os_stat.c ****         CPU_CRITICAL_ENTER();
 343              		.loc 1 364 0
 344 00da FFF7FEFF 		bl	CPU_SR_Save
 345              	.LVL41:
 365:uCOS-III\Source/os_stat.c ****         p_tcb = OSTaskDbgListPtr;
 346              		.loc 1 365 0
 347 00de 514B     		ldr	r3, .L40+48
 348 00e0 1C68     		ldr	r4, [r3]
 349              	.LVL42:
 366:uCOS-III\Source/os_stat.c ****         CPU_CRITICAL_EXIT();
 350              		.loc 1 366 0
 351 00e2 FFF7FEFF 		bl	CPU_SR_Restore
 352              	.LVL43:
 362:uCOS-III\Source/os_stat.c **** 
 353              		.loc 1 362 0
 354 00e6 0025     		movs	r5, #0
 367:uCOS-III\Source/os_stat.c ****         while (p_tcb != (OS_TCB *)0) {                      /* ----------------- TOTAL CYCLES COUNT
 355              		.loc 1 367 0
 356 00e8 13E0     		b	.L17
 357              	.LVL44:
 358              	.L18:
 368:uCOS-III\Source/os_stat.c ****             OS_CRITICAL_ENTER();
 359              		.loc 1 368 0
 360 00ea FFF7FEFF 		bl	CPU_SR_Save
ARM GAS  C:\Users\jorti\AppData\Local\Temp\ccUF5ZRb.s 			page 14


 361              	.LVL45:
 369:uCOS-III\Source/os_stat.c ****             p_tcb->CyclesTotalPrev =  p_tcb->CyclesTotal;   /* Save accumulated # cycles into a tem
 362              		.loc 1 369 0
 363 00ee D4F89C30 		ldr	r3, [r4, #156]
 364 00f2 C4F8A030 		str	r3, [r4, #160]
 370:uCOS-III\Source/os_stat.c ****             p_tcb->CyclesTotal     = (OS_CYCLES)0;          /* Reset total cycles for task for next
 365              		.loc 1 370 0
 366 00f6 0023     		movs	r3, #0
 367 00f8 C4F89C30 		str	r3, [r4, #156]
 371:uCOS-III\Source/os_stat.c ****             OS_CRITICAL_EXIT();
 368              		.loc 1 371 0
 369 00fc FFF7FEFF 		bl	CPU_SR_Restore
 370              	.LVL46:
 372:uCOS-III\Source/os_stat.c **** 
 373:uCOS-III\Source/os_stat.c ****             cycles_total          += p_tcb->CyclesTotalPrev;/* Perform sum of all task # cycles    
 371              		.loc 1 373 0
 372 0100 D4F8A030 		ldr	r3, [r4, #160]
 373 0104 1D44     		add	r5, r5, r3
 374              	.LVL47:
 374:uCOS-III\Source/os_stat.c **** 
 375:uCOS-III\Source/os_stat.c ****             CPU_CRITICAL_ENTER();
 375              		.loc 1 375 0
 376 0106 FFF7FEFF 		bl	CPU_SR_Save
 377              	.LVL48:
 376:uCOS-III\Source/os_stat.c ****             p_tcb                  = p_tcb->DbgNextPtr;
 378              		.loc 1 376 0
 379 010a D4F8B840 		ldr	r4, [r4, #184]
 380              	.LVL49:
 377:uCOS-III\Source/os_stat.c ****             CPU_CRITICAL_EXIT();
 381              		.loc 1 377 0
 382 010e FFF7FEFF 		bl	CPU_SR_Restore
 383              	.LVL50:
 384              	.L17:
 367:uCOS-III\Source/os_stat.c ****             OS_CRITICAL_ENTER();
 385              		.loc 1 367 0
 386 0112 002C     		cmp	r4, #0
 387 0114 E9D1     		bne	.L18
 378:uCOS-III\Source/os_stat.c ****         }
 379:uCOS-III\Source/os_stat.c **** #endif
 380:uCOS-III\Source/os_stat.c **** 
 381:uCOS-III\Source/os_stat.c **** 
 382:uCOS-III\Source/os_stat.c **** #if OS_CFG_TASK_PROFILE_EN > 0u
 383:uCOS-III\Source/os_stat.c ****                                                             /* ------------- INDIVIDUAL TASK CPU US
 384:uCOS-III\Source/os_stat.c ****         if (cycles_total > (OS_CYCLES)0u) {                                          /* 'cycles_tot
 388              		.loc 1 384 0
 389 0116 1DB3     		cbz	r5, .L33
 385:uCOS-III\Source/os_stat.c ****             if (cycles_total < 400000u) {                                            /*            
 390              		.loc 1 385 0
 391 0118 3C4B     		ldr	r3, .L40+24
 392 011a 9D42     		cmp	r5, r3
 393 011c 0DD9     		bls	.L34
 386:uCOS-III\Source/os_stat.c ****                 cycles_mult = 10000u;
 387:uCOS-III\Source/os_stat.c ****                 cycles_div  =     1u;
 388:uCOS-III\Source/os_stat.c ****             } else if (cycles_total <   4000000u) {                                  /*      400,00
 394              		.loc 1 388 0
 395 011e 3C4B     		ldr	r3, .L40+28
 396 0120 9D42     		cmp	r5, r3
ARM GAS  C:\Users\jorti\AppData\Local\Temp\ccUF5ZRb.s 			page 15


 397 0122 0ED9     		bls	.L35
 389:uCOS-III\Source/os_stat.c ****                 cycles_mult =  1000u;
 390:uCOS-III\Source/os_stat.c ****                 cycles_div  =    10u;
 391:uCOS-III\Source/os_stat.c ****             } else if (cycles_total <  40000000u) {                                  /*    4,000,00
 398              		.loc 1 391 0
 399 0124 3B4B     		ldr	r3, .L40+32
 400 0126 9D42     		cmp	r5, r3
 401 0128 0FD9     		bls	.L36
 392:uCOS-III\Source/os_stat.c ****                 cycles_mult =   100u;
 393:uCOS-III\Source/os_stat.c ****                 cycles_div  =   100u;
 394:uCOS-III\Source/os_stat.c ****             } else if (cycles_total < 400000000u) {                                  /*   40,000,00
 402              		.loc 1 394 0
 403 012a 3B4B     		ldr	r3, .L40+36
 404 012c 9D42     		cmp	r5, r3
 405 012e 10D8     		bhi	.L37
 395:uCOS-III\Source/os_stat.c ****                 cycles_mult =    10u;
 406              		.loc 1 395 0
 407 0130 4FF00A08 		mov	r8, #10
 396:uCOS-III\Source/os_stat.c ****                 cycles_div  =  1000u;
 408              		.loc 1 396 0
 409 0134 4FF47A73 		mov	r3, #1000
 410 0138 0FE0     		b	.L20
 411              	.L34:
 386:uCOS-III\Source/os_stat.c ****                 cycles_div  =     1u;
 412              		.loc 1 386 0
 413 013a 42F21078 		movw	r8, #10000
 387:uCOS-III\Source/os_stat.c ****             } else if (cycles_total <   4000000u) {                                  /*      400,00
 414              		.loc 1 387 0
 415 013e 0123     		movs	r3, #1
 416 0140 0BE0     		b	.L20
 417              	.L35:
 389:uCOS-III\Source/os_stat.c ****                 cycles_div  =    10u;
 418              		.loc 1 389 0
 419 0142 4FF47A78 		mov	r8, #1000
 390:uCOS-III\Source/os_stat.c ****             } else if (cycles_total <  40000000u) {                                  /*    4,000,00
 420              		.loc 1 390 0
 421 0146 0A23     		movs	r3, #10
 422 0148 07E0     		b	.L20
 423              	.L36:
 392:uCOS-III\Source/os_stat.c ****                 cycles_div  =   100u;
 424              		.loc 1 392 0
 425 014a 4FF06408 		mov	r8, #100
 393:uCOS-III\Source/os_stat.c ****             } else if (cycles_total < 400000000u) {                                  /*   40,000,00
 426              		.loc 1 393 0
 427 014e 4346     		mov	r3, r8
 428 0150 03E0     		b	.L20
 429              	.L37:
 397:uCOS-III\Source/os_stat.c ****             } else {                                                                 /*  400,000,00
 398:uCOS-III\Source/os_stat.c ****                 cycles_mult =     1u;
 430              		.loc 1 398 0
 431 0152 4FF00108 		mov	r8, #1
 399:uCOS-III\Source/os_stat.c ****                 cycles_div  = 10000u;
 432              		.loc 1 399 0
 433 0156 42F21073 		movw	r3, #10000
 434              	.L20:
 435              	.LVL51:
 400:uCOS-III\Source/os_stat.c ****             }
ARM GAS  C:\Users\jorti\AppData\Local\Temp\ccUF5ZRb.s 			page 16


 401:uCOS-III\Source/os_stat.c ****             cycles_max  = cycles_total / cycles_div;
 436              		.loc 1 401 0
 437 015a B5FBF3F5 		udiv	r5, r5, r3
 438              	.LVL52:
 439 015e 02E0     		b	.L19
 440              	.LVL53:
 441              	.L33:
 402:uCOS-III\Source/os_stat.c ****         } else {
 403:uCOS-III\Source/os_stat.c ****             cycles_mult = 0u;
 404:uCOS-III\Source/os_stat.c ****             cycles_max  = 1u;
 442              		.loc 1 404 0
 443 0160 0125     		movs	r5, #1
 444              	.LVL54:
 403:uCOS-III\Source/os_stat.c ****             cycles_max  = 1u;
 445              		.loc 1 403 0
 446 0162 4FF00008 		mov	r8, #0
 447              	.L19:
 448              	.LVL55:
 405:uCOS-III\Source/os_stat.c ****         }
 406:uCOS-III\Source/os_stat.c **** #endif
 407:uCOS-III\Source/os_stat.c ****         CPU_CRITICAL_ENTER();
 449              		.loc 1 407 0
 450 0166 FFF7FEFF 		bl	CPU_SR_Save
 451              	.LVL56:
 408:uCOS-III\Source/os_stat.c ****         p_tcb = OSTaskDbgListPtr;
 452              		.loc 1 408 0
 453 016a 2E4B     		ldr	r3, .L40+48
 454 016c 1C68     		ldr	r4, [r3]
 455              	.LVL57:
 409:uCOS-III\Source/os_stat.c ****         CPU_CRITICAL_EXIT();
 456              		.loc 1 409 0
 457 016e FFF7FEFF 		bl	CPU_SR_Restore
 458              	.LVL58:
 410:uCOS-III\Source/os_stat.c ****         while (p_tcb != (OS_TCB *)0) {
 459              		.loc 1 410 0
 460 0172 22E0     		b	.L21
 461              	.L24:
 411:uCOS-III\Source/os_stat.c **** #if OS_CFG_TASK_PROFILE_EN > 0u                             /* Compute execution time of each task 
 412:uCOS-III\Source/os_stat.c ****             usage = (OS_CPU_USAGE)(cycles_mult * p_tcb->CyclesTotalPrev / cycles_max);
 462              		.loc 1 412 0
 463 0174 D4F8A030 		ldr	r3, [r4, #160]
 464 0178 03FB08F3 		mul	r3, r3, r8
 465 017c B3FBF5F3 		udiv	r3, r3, r5
 466 0180 9BB2     		uxth	r3, r3
 467              	.LVL59:
 413:uCOS-III\Source/os_stat.c ****             if (usage > 10000u) {
 468              		.loc 1 413 0
 469 0182 42F21072 		movw	r2, #10000
 470 0186 9342     		cmp	r3, r2
 471 0188 00D9     		bls	.L22
 414:uCOS-III\Source/os_stat.c ****                 usage = 10000u;
 472              		.loc 1 414 0
 473 018a 1346     		mov	r3, r2
 474              	.LVL60:
 475              	.L22:
 415:uCOS-III\Source/os_stat.c ****             }
 416:uCOS-III\Source/os_stat.c ****             p_tcb->CPUUsage = usage;
ARM GAS  C:\Users\jorti\AppData\Local\Temp\ccUF5ZRb.s 			page 17


 476              		.loc 1 416 0
 477 018c A4F88C30 		strh	r3, [r4, #140]	@ movhi
 417:uCOS-III\Source/os_stat.c ****             if (p_tcb->CPUUsageMax < usage) {               /* Detect peak CPU usage               
 478              		.loc 1 417 0
 479 0190 B4F88E20 		ldrh	r2, [r4, #142]
 480 0194 9342     		cmp	r3, r2
 481 0196 01D9     		bls	.L23
 418:uCOS-III\Source/os_stat.c ****                 p_tcb->CPUUsageMax = usage;
 482              		.loc 1 418 0
 483 0198 A4F88E30 		strh	r3, [r4, #142]	@ movhi
 484              	.L23:
 419:uCOS-III\Source/os_stat.c ****             }
 420:uCOS-III\Source/os_stat.c **** #endif
 421:uCOS-III\Source/os_stat.c **** 
 422:uCOS-III\Source/os_stat.c **** #if OS_CFG_STAT_TASK_STK_CHK_EN > 0u
 423:uCOS-III\Source/os_stat.c ****             OSTaskStkChk( p_tcb,                            /* Compute stack usage of active tasks 
 485              		.loc 1 423 0
 486 019c 0DF10603 		add	r3, sp, #6
 487              	.LVL61:
 488 01a0 04F1AC02 		add	r2, r4, #172
 489 01a4 04F1B001 		add	r1, r4, #176
 490 01a8 2046     		mov	r0, r4
 491 01aa FFF7FEFF 		bl	OSTaskStkChk
 492              	.LVL62:
 424:uCOS-III\Source/os_stat.c ****                          &p_tcb->StkFree,
 425:uCOS-III\Source/os_stat.c ****                          &p_tcb->StkUsed,
 426:uCOS-III\Source/os_stat.c ****                          &err);
 427:uCOS-III\Source/os_stat.c **** #endif
 428:uCOS-III\Source/os_stat.c **** 
 429:uCOS-III\Source/os_stat.c ****             CPU_CRITICAL_ENTER();
 493              		.loc 1 429 0
 494 01ae FFF7FEFF 		bl	CPU_SR_Save
 495              	.LVL63:
 430:uCOS-III\Source/os_stat.c ****             p_tcb = p_tcb->DbgNextPtr;
 496              		.loc 1 430 0
 497 01b2 D4F8B840 		ldr	r4, [r4, #184]
 498              	.LVL64:
 431:uCOS-III\Source/os_stat.c ****             CPU_CRITICAL_EXIT();
 499              		.loc 1 431 0
 500 01b6 FFF7FEFF 		bl	CPU_SR_Restore
 501              	.LVL65:
 502              	.L21:
 410:uCOS-III\Source/os_stat.c **** #if OS_CFG_TASK_PROFILE_EN > 0u                             /* Compute execution time of each task 
 503              		.loc 1 410 0
 504 01ba 002C     		cmp	r4, #0
 505 01bc DAD1     		bne	.L24
 432:uCOS-III\Source/os_stat.c ****         }
 433:uCOS-III\Source/os_stat.c **** #endif
 434:uCOS-III\Source/os_stat.c **** 
 435:uCOS-III\Source/os_stat.c ****         if (OSStatResetFlag == DEF_TRUE) {                  /* Check if need to reset statistics   
 506              		.loc 1 435 0
 507 01be 1A4B     		ldr	r3, .L40+52
 508 01c0 1B78     		ldrb	r3, [r3]	@ zero_extendqisi2
 509 01c2 012B     		cmp	r3, #1
 510 01c4 06D1     		bne	.L25
 436:uCOS-III\Source/os_stat.c ****             OSStatResetFlag  = DEF_FALSE;
 511              		.loc 1 436 0
ARM GAS  C:\Users\jorti\AppData\Local\Temp\ccUF5ZRb.s 			page 18


 512 01c6 0022     		movs	r2, #0
 513 01c8 174B     		ldr	r3, .L40+52
 514 01ca 1A70     		strb	r2, [r3]
 437:uCOS-III\Source/os_stat.c ****             OSStatReset(&err);
 515              		.loc 1 437 0
 516 01cc 0DF10600 		add	r0, sp, #6
 517 01d0 FFF7FEFF 		bl	OSStatReset
 518              	.LVL66:
 519              	.L25:
 438:uCOS-III\Source/os_stat.c ****         }
 439:uCOS-III\Source/os_stat.c **** 
 440:uCOS-III\Source/os_stat.c ****         ts_end = OS_TS_GET() - ts_start;                    /* Measure execution time of statistic 
 520              		.loc 1 440 0
 521 01d4 FFF7FEFF 		bl	CPU_TS_TmrRd
 522              	.LVL67:
 523 01d8 801B     		subs	r0, r0, r6
 524              	.LVL68:
 441:uCOS-III\Source/os_stat.c ****         if (OSStatTaskTimeMax < ts_end) {
 525              		.loc 1 441 0
 526 01da 144B     		ldr	r3, .L40+56
 527 01dc 1B68     		ldr	r3, [r3]
 528 01de 9842     		cmp	r0, r3
 529 01e0 01D9     		bls	.L26
 442:uCOS-III\Source/os_stat.c ****             OSStatTaskTimeMax = ts_end;
 530              		.loc 1 442 0
 531 01e2 124B     		ldr	r3, .L40+56
 532 01e4 1860     		str	r0, [r3]
 533              	.L26:
 443:uCOS-III\Source/os_stat.c ****         }
 444:uCOS-III\Source/os_stat.c **** 
 445:uCOS-III\Source/os_stat.c ****         OSTimeDly(dly,
 534              		.loc 1 445 0
 535 01e6 0DF10602 		add	r2, sp, #6
 536 01ea 0021     		movs	r1, #0
 537 01ec 3846     		mov	r0, r7
 538              	.LVL69:
 539 01ee FFF7FEFF 		bl	OSTimeDly
 540              	.LVL70:
 446:uCOS-III\Source/os_stat.c ****                   OS_OPT_TIME_DLY,
 447:uCOS-III\Source/os_stat.c ****                   &err);
 448:uCOS-III\Source/os_stat.c ****     }
 541              		.loc 1 448 0
 542 01f2 29E7     		b	.L27
 543              	.L41:
 544              		.align	2
 545              	.L40:
 546 01f4 00000000 		.word	OSCfg_StatTaskRate_Hz
 547 01f8 00000000 		.word	OSStatTaskRdy
 548 01fc 00000000 		.word	OSCfg_TickRate_Hz
 549 0200 00000000 		.word	OSStatTaskCtrRun
 550 0204 00000000 		.word	OSStatTaskCtr
 551 0208 00000000 		.word	OSStatTaskCtrMax
 552 020c 7F1A0600 		.word	399999
 553 0210 FF083D00 		.word	3999999
 554 0214 FF596202 		.word	39999999
 555 0218 FF83D717 		.word	399999999
 556 021c 00000000 		.word	OSStatTaskCPUUsage
ARM GAS  C:\Users\jorti\AppData\Local\Temp\ccUF5ZRb.s 			page 19


 557 0220 00000000 		.word	OSStatTaskCPUUsageMax
 558 0224 00000000 		.word	OSTaskDbgListPtr
 559 0228 00000000 		.word	OSStatResetFlag
 560 022c 00000000 		.word	OSStatTaskTimeMax
 561              		.cfi_endproc
 562              	.LFE3:
 563              		.size	OS_StatTask, .-OS_StatTask
 564              		.section	.text.OSStatTaskCPUUsageInit,"ax",%progbits
 565              		.align	2
 566              		.global	OSStatTaskCPUUsageInit
 567              		.thumb
 568              		.thumb_func
 569              		.type	OSStatTaskCPUUsageInit, %function
 570              	OSStatTaskCPUUsageInit:
 571              	.LFB2:
 192:uCOS-III\Source/os_stat.c ****     OS_ERR   err;
 572              		.loc 1 192 0
 573              		.cfi_startproc
 574              		@ args = 0, pretend = 0, frame = 8
 575              		@ frame_needed = 0, uses_anonymous_args = 0
 576              	.LVL71:
 577 0000 30B5     		push	{r4, r5, lr}
 578              		.cfi_def_cfa_offset 12
 579              		.cfi_offset 4, -12
 580              		.cfi_offset 5, -8
 581              		.cfi_offset 14, -4
 582 0002 83B0     		sub	sp, sp, #12
 583              		.cfi_def_cfa_offset 24
 584 0004 0446     		mov	r4, r0
 585              	.LVL72:
 207:uCOS-III\Source/os_stat.c ****     if (err != OS_ERR_NONE) {
 586              		.loc 1 207 0
 587 0006 0DF10601 		add	r1, sp, #6
 588 000a 2548     		ldr	r0, .L52
 589              	.LVL73:
 590 000c FFF7FEFF 		bl	OSTaskSuspend
 591              	.LVL74:
 208:uCOS-III\Source/os_stat.c ****        *p_err = err;
 592              		.loc 1 208 0
 593 0010 BDF80630 		ldrh	r3, [sp, #6]
 594 0014 0BB1     		cbz	r3, .L43
 209:uCOS-III\Source/os_stat.c ****         return;
 595              		.loc 1 209 0
 596 0016 2380     		strh	r3, [r4]	@ movhi
 210:uCOS-III\Source/os_stat.c ****     }
 597              		.loc 1 210 0
 598 0018 3FE0     		b	.L42
 599              	.L43:
 214:uCOS-III\Source/os_stat.c ****               (OS_OPT  )OS_OPT_TIME_DLY,
 600              		.loc 1 214 0
 601 001a 0DF10602 		add	r2, sp, #6
 602 001e 0021     		movs	r1, #0
 603 0020 0220     		movs	r0, #2
 604 0022 FFF7FEFF 		bl	OSTimeDly
 605              	.LVL75:
 217:uCOS-III\Source/os_stat.c ****        *p_err = err;
 606              		.loc 1 217 0
ARM GAS  C:\Users\jorti\AppData\Local\Temp\ccUF5ZRb.s 			page 20


 607 0026 BDF80630 		ldrh	r3, [sp, #6]
 608 002a 0BB1     		cbz	r3, .L45
 218:uCOS-III\Source/os_stat.c ****         return;
 609              		.loc 1 218 0
 610 002c 2380     		strh	r3, [r4]	@ movhi
 219:uCOS-III\Source/os_stat.c ****     }
 611              		.loc 1 219 0
 612 002e 34E0     		b	.L42
 613              	.L45:
 221:uCOS-III\Source/os_stat.c ****     OSStatTaskCtr = (OS_TICK)0;                             /* Clear idle counter                  
 614              		.loc 1 221 0
 615 0030 FFF7FEFF 		bl	CPU_SR_Save
 616              	.LVL76:
 222:uCOS-III\Source/os_stat.c ****     CPU_CRITICAL_EXIT();
 617              		.loc 1 222 0
 618 0034 0022     		movs	r2, #0
 619 0036 1B4B     		ldr	r3, .L52+4
 620 0038 1A60     		str	r2, [r3]
 223:uCOS-III\Source/os_stat.c **** 
 621              		.loc 1 223 0
 622 003a FFF7FEFF 		bl	CPU_SR_Restore
 623              	.LVL77:
 226:uCOS-III\Source/os_stat.c ****         dly = (OS_TICK)(OSCfg_TickRate_Hz / OSCfg_StatTaskRate_Hz);
 624              		.loc 1 226 0
 625 003e 1A4B     		ldr	r3, .L52+8
 626 0040 1B68     		ldr	r3, [r3]
 627 0042 1A4A     		ldr	r2, .L52+12
 628 0044 1068     		ldr	r0, [r2]
 629 0046 8342     		cmp	r3, r0
 630 0048 02D9     		bls	.L50
 227:uCOS-III\Source/os_stat.c ****     }
 631              		.loc 1 227 0
 632 004a B3FBF0F0 		udiv	r0, r3, r0
 633              	.LVL78:
 634 004e 00E0     		b	.L46
 635              	.LVL79:
 636              	.L50:
 225:uCOS-III\Source/os_stat.c ****     if (OSCfg_TickRate_Hz > OSCfg_StatTaskRate_Hz) {
 637              		.loc 1 225 0
 638 0050 0020     		movs	r0, #0
 639              	.LVL80:
 640              	.L46:
 229:uCOS-III\Source/os_stat.c ****         dly =  (OS_TICK)(OSCfg_TickRate_Hz / (OS_RATE_HZ)10);
 641              		.loc 1 229 0
 642 0052 20B9     		cbnz	r0, .L47
 230:uCOS-III\Source/os_stat.c ****     }
 643              		.loc 1 230 0
 644 0054 A0F13330 		sub	r0, r0, #858993459
 645              	.LVL81:
 646 0058 A0FB0330 		umull	r3, r0, r0, r3
 647              	.LVL82:
 648 005c C008     		lsrs	r0, r0, #3
 649              	.LVL83:
 650              	.L47:
 233:uCOS-III\Source/os_stat.c ****               OS_OPT_TIME_DLY,
 651              		.loc 1 233 0
 652 005e 0DF10602 		add	r2, sp, #6
ARM GAS  C:\Users\jorti\AppData\Local\Temp\ccUF5ZRb.s 			page 21


 653 0062 0021     		movs	r1, #0
 654 0064 FFF7FEFF 		bl	OSTimeDly
 655              	.LVL84:
 238:uCOS-III\Source/os_stat.c ****     if (err != OS_ERR_NONE) {
 656              		.loc 1 238 0
 657 0068 0DF10601 		add	r1, sp, #6
 658 006c 0C48     		ldr	r0, .L52
 659 006e FFF7FEFF 		bl	OSTaskResume
 660              	.LVL85:
 239:uCOS-III\Source/os_stat.c ****        *p_err = err;
 661              		.loc 1 239 0
 662 0072 BDF80630 		ldrh	r3, [sp, #6]
 663 0076 0BB1     		cbz	r3, .L48
 240:uCOS-III\Source/os_stat.c ****         return;
 664              		.loc 1 240 0
 665 0078 2380     		strh	r3, [r4]	@ movhi
 241:uCOS-III\Source/os_stat.c ****     }
 666              		.loc 1 241 0
 667 007a 0EE0     		b	.L42
 668              	.L48:
 245:uCOS-III\Source/os_stat.c ****     OSStatTaskTimeMax = (CPU_TS)0;
 669              		.loc 1 245 0
 670 007c FFF7FEFF 		bl	CPU_SR_Save
 671              	.LVL86:
 246:uCOS-III\Source/os_stat.c **** 
 672              		.loc 1 246 0
 673 0080 0025     		movs	r5, #0
 674 0082 0B4B     		ldr	r3, .L52+16
 675 0084 1D60     		str	r5, [r3]
 248:uCOS-III\Source/os_stat.c ****     OSStatTaskRdy     = OS_STATE_RDY;
 676              		.loc 1 248 0
 677 0086 074B     		ldr	r3, .L52+4
 678 0088 1A68     		ldr	r2, [r3]
 679 008a 0A4B     		ldr	r3, .L52+20
 680 008c 1A60     		str	r2, [r3]
 249:uCOS-III\Source/os_stat.c ****     CPU_CRITICAL_EXIT();
 681              		.loc 1 249 0
 682 008e 0122     		movs	r2, #1
 683 0090 094B     		ldr	r3, .L52+24
 684 0092 1A70     		strb	r2, [r3]
 250:uCOS-III\Source/os_stat.c ****    *p_err             = OS_ERR_NONE;
 685              		.loc 1 250 0
 686 0094 FFF7FEFF 		bl	CPU_SR_Restore
 687              	.LVL87:
 251:uCOS-III\Source/os_stat.c **** }
 688              		.loc 1 251 0
 689 0098 2580     		strh	r5, [r4]	@ movhi
 690              	.L42:
 252:uCOS-III\Source/os_stat.c **** 
 691              		.loc 1 252 0
 692 009a 03B0     		add	sp, sp, #12
 693              		.cfi_def_cfa_offset 12
 694              		@ sp needed
 695 009c 30BD     		pop	{r4, r5, pc}
 696              	.LVL88:
 697              	.L53:
 698 009e 00BF     		.align	2
ARM GAS  C:\Users\jorti\AppData\Local\Temp\ccUF5ZRb.s 			page 22


 699              	.L52:
 700 00a0 00000000 		.word	OSTmrTaskTCB
 701 00a4 00000000 		.word	OSStatTaskCtr
 702 00a8 00000000 		.word	OSCfg_TickRate_Hz
 703 00ac 00000000 		.word	OSCfg_StatTaskRate_Hz
 704 00b0 00000000 		.word	OSStatTaskTimeMax
 705 00b4 00000000 		.word	OSStatTaskCtrMax
 706 00b8 00000000 		.word	OSStatTaskRdy
 707              		.cfi_endproc
 708              	.LFE2:
 709              		.size	OSStatTaskCPUUsageInit, .-OSStatTaskCPUUsageInit
 710              		.section	.text.OS_StatTaskInit,"ax",%progbits
 711              		.align	2
 712              		.global	OS_StatTaskInit
 713              		.thumb
 714              		.thumb_func
 715              		.type	OS_StatTaskInit, %function
 716              	OS_StatTaskInit:
 717              	.LFB4:
 449:uCOS-III\Source/os_stat.c **** }
 450:uCOS-III\Source/os_stat.c **** 
 451:uCOS-III\Source/os_stat.c **** /*$PAGE*/
 452:uCOS-III\Source/os_stat.c **** /*
 453:uCOS-III\Source/os_stat.c **** ***************************************************************************************************
 454:uCOS-III\Source/os_stat.c **** *                                              INITIALIZE THE STATISTICS
 455:uCOS-III\Source/os_stat.c **** *
 456:uCOS-III\Source/os_stat.c **** * Description: This function is called by OSInit() to initialize the statistic task.
 457:uCOS-III\Source/os_stat.c **** *
 458:uCOS-III\Source/os_stat.c **** * Argument(s): p_err     is a pointer to a variable that will contain an error code returned by thi
 459:uCOS-III\Source/os_stat.c **** *
 460:uCOS-III\Source/os_stat.c **** *                            OS_ERR_STK_INVALID       If you specified a NULL stack pointer during 
 461:uCOS-III\Source/os_stat.c **** *                            OS_ERR_STK_SIZE_INVALID  If you didn't specify a large enough stack.
 462:uCOS-III\Source/os_stat.c **** *                            OS_ERR_PRIO_INVALID      If you specified a priority for the statistic
 463:uCOS-III\Source/os_stat.c **** *                                                     lower (i.e. higher number) than the idle task
 464:uCOS-III\Source/os_stat.c **** *                            OS_ERR_xxx               An error code returned by OSTaskCreate()
 465:uCOS-III\Source/os_stat.c **** *
 466:uCOS-III\Source/os_stat.c **** * Returns    : none
 467:uCOS-III\Source/os_stat.c **** *
 468:uCOS-III\Source/os_stat.c **** * Note(s)    : This function is INTERNAL to uC/OS-III and your application should not call it.
 469:uCOS-III\Source/os_stat.c **** ***************************************************************************************************
 470:uCOS-III\Source/os_stat.c **** */
 471:uCOS-III\Source/os_stat.c **** 
 472:uCOS-III\Source/os_stat.c **** void  OS_StatTaskInit (OS_ERR  *p_err)
 473:uCOS-III\Source/os_stat.c **** {
 718              		.loc 1 473 0
 719              		.cfi_startproc
 720              		@ args = 0, pretend = 0, frame = 0
 721              		@ frame_needed = 0, uses_anonymous_args = 0
 722              	.LVL89:
 474:uCOS-III\Source/os_stat.c **** #ifdef OS_SAFETY_CRITICAL
 475:uCOS-III\Source/os_stat.c ****     if (p_err == (OS_ERR *)0) {
 476:uCOS-III\Source/os_stat.c ****         OS_SAFETY_CRITICAL_EXCEPTION();
 477:uCOS-III\Source/os_stat.c ****         return;
 478:uCOS-III\Source/os_stat.c ****     }
 479:uCOS-III\Source/os_stat.c **** #endif
 480:uCOS-III\Source/os_stat.c **** 
 481:uCOS-III\Source/os_stat.c ****     OSStatTaskCtr    = (OS_TICK)0;
ARM GAS  C:\Users\jorti\AppData\Local\Temp\ccUF5ZRb.s 			page 23


 723              		.loc 1 481 0
 724 0000 0023     		movs	r3, #0
 725 0002 1C4A     		ldr	r2, .L61
 726 0004 1360     		str	r3, [r2]
 482:uCOS-III\Source/os_stat.c ****     OSStatTaskCtrRun = (OS_TICK)0;
 727              		.loc 1 482 0
 728 0006 1C4A     		ldr	r2, .L61+4
 729 0008 1360     		str	r3, [r2]
 483:uCOS-III\Source/os_stat.c ****     OSStatTaskCtrMax = (OS_TICK)0;
 730              		.loc 1 483 0
 731 000a 1C4A     		ldr	r2, .L61+8
 732 000c 1360     		str	r3, [r2]
 484:uCOS-III\Source/os_stat.c ****     OSStatTaskRdy    = OS_STATE_NOT_RDY;                    /* Statistic task is not ready         
 733              		.loc 1 484 0
 734 000e 1C4A     		ldr	r2, .L61+12
 735 0010 1370     		strb	r3, [r2]
 485:uCOS-III\Source/os_stat.c ****     OSStatResetFlag  = DEF_FALSE;
 736              		.loc 1 485 0
 737 0012 1C4A     		ldr	r2, .L61+16
 738 0014 1370     		strb	r3, [r2]
 486:uCOS-III\Source/os_stat.c **** 
 487:uCOS-III\Source/os_stat.c ****                                                             /* ---------------- CREATE THE STAT TAS
 488:uCOS-III\Source/os_stat.c ****     if (OSCfg_StatTaskStkBasePtr == (CPU_STK *)0) {
 739              		.loc 1 488 0
 740 0016 1C4B     		ldr	r3, .L61+20
 741 0018 1A68     		ldr	r2, [r3]
 742 001a 1AB9     		cbnz	r2, .L55
 489:uCOS-III\Source/os_stat.c ****        *p_err = OS_ERR_STAT_STK_INVALID;
 743              		.loc 1 489 0
 744 001c 46F62B63 		movw	r3, #28203
 745 0020 0380     		strh	r3, [r0]	@ movhi
 490:uCOS-III\Source/os_stat.c ****         return;
 746              		.loc 1 490 0
 747 0022 7047     		bx	lr
 748              	.L55:
 491:uCOS-III\Source/os_stat.c ****     }
 492:uCOS-III\Source/os_stat.c **** 
 493:uCOS-III\Source/os_stat.c ****     if (OSCfg_StatTaskStkSize < OSCfg_StkSizeMin) {
 749              		.loc 1 493 0
 750 0024 194B     		ldr	r3, .L61+24
 751 0026 1968     		ldr	r1, [r3]
 752 0028 194B     		ldr	r3, .L61+28
 753 002a 1B68     		ldr	r3, [r3]
 754 002c 9942     		cmp	r1, r3
 755 002e 03D2     		bcs	.L57
 494:uCOS-III\Source/os_stat.c ****        *p_err = OS_ERR_STAT_STK_SIZE_INVALID;
 756              		.loc 1 494 0
 757 0030 46F62C63 		movw	r3, #28204
 758 0034 0380     		strh	r3, [r0]	@ movhi
 759 0036 7047     		bx	lr
 760              	.L57:
 473:uCOS-III\Source/os_stat.c **** #ifdef OS_SAFETY_CRITICAL
 761              		.loc 1 473 0
 762 0038 10B5     		push	{r4, lr}
 763              		.cfi_def_cfa_offset 8
 764              		.cfi_offset 4, -8
 765              		.cfi_offset 14, -4
ARM GAS  C:\Users\jorti\AppData\Local\Temp\ccUF5ZRb.s 			page 24


 766 003a 8AB0     		sub	sp, sp, #40
 767              		.cfi_def_cfa_offset 48
 495:uCOS-III\Source/os_stat.c ****         return;
 496:uCOS-III\Source/os_stat.c ****     }
 497:uCOS-III\Source/os_stat.c **** 
 498:uCOS-III\Source/os_stat.c ****     if (OSCfg_StatTaskPrio >= (OS_CFG_PRIO_MAX - 1u)) {
 768              		.loc 1 498 0
 769 003c 154B     		ldr	r3, .L61+32
 770 003e 1C78     		ldrb	r4, [r3]	@ zero_extendqisi2
 771 0040 062C     		cmp	r4, #6
 772 0042 03D9     		bls	.L58
 499:uCOS-III\Source/os_stat.c ****        *p_err = OS_ERR_STAT_PRIO_INVALID;
 773              		.loc 1 499 0
 774 0044 46F62A63 		movw	r3, #28202
 775 0048 0380     		strh	r3, [r0]	@ movhi
 500:uCOS-III\Source/os_stat.c ****         return;
 776              		.loc 1 500 0
 777 004a 11E0     		b	.L54
 778              	.L58:
 501:uCOS-III\Source/os_stat.c ****     }
 502:uCOS-III\Source/os_stat.c **** 
 503:uCOS-III\Source/os_stat.c ****     OSTaskCreate((OS_TCB     *)&OSStatTaskTCB,
 779              		.loc 1 503 0
 780 004c 0890     		str	r0, [sp, #32]
 781 004e 0323     		movs	r3, #3
 782 0050 0793     		str	r3, [sp, #28]
 783 0052 0023     		movs	r3, #0
 784 0054 0693     		str	r3, [sp, #24]
 785 0056 0593     		str	r3, [sp, #20]
 786 0058 0493     		str	r3, [sp, #16]
 787 005a 0391     		str	r1, [sp, #12]
 788 005c 0E49     		ldr	r1, .L61+36
 789 005e 0968     		ldr	r1, [r1]
 790 0060 0291     		str	r1, [sp, #8]
 791 0062 0192     		str	r2, [sp, #4]
 792 0064 0094     		str	r4, [sp]
 793 0066 0D4A     		ldr	r2, .L61+40
 794 0068 0D49     		ldr	r1, .L61+44
 795 006a 0E48     		ldr	r0, .L61+48
 796              	.LVL90:
 797 006c FFF7FEFF 		bl	OSTaskCreate
 798              	.LVL91:
 799              	.L54:
 504:uCOS-III\Source/os_stat.c ****                  (CPU_CHAR   *)((void *)"uC/OS-III Stat Task"),
 505:uCOS-III\Source/os_stat.c ****                  (OS_TASK_PTR )OS_StatTask,
 506:uCOS-III\Source/os_stat.c ****                  (void       *)0,
 507:uCOS-III\Source/os_stat.c ****                  (OS_PRIO     )OSCfg_StatTaskPrio,
 508:uCOS-III\Source/os_stat.c ****                  (CPU_STK    *)OSCfg_StatTaskStkBasePtr,
 509:uCOS-III\Source/os_stat.c ****                  (CPU_STK_SIZE)OSCfg_StatTaskStkLimit,
 510:uCOS-III\Source/os_stat.c ****                  (CPU_STK_SIZE)OSCfg_StatTaskStkSize,
 511:uCOS-III\Source/os_stat.c ****                  (OS_MSG_QTY  )0,
 512:uCOS-III\Source/os_stat.c ****                  (OS_TICK     )0,
 513:uCOS-III\Source/os_stat.c ****                  (void       *)0,
 514:uCOS-III\Source/os_stat.c ****                  (OS_OPT      )(OS_OPT_TASK_STK_CHK | OS_OPT_TASK_STK_CLR),
 515:uCOS-III\Source/os_stat.c ****                  (OS_ERR     *)p_err);
 516:uCOS-III\Source/os_stat.c **** }
 800              		.loc 1 516 0
ARM GAS  C:\Users\jorti\AppData\Local\Temp\ccUF5ZRb.s 			page 25


 801 0070 0AB0     		add	sp, sp, #40
 802              		.cfi_def_cfa_offset 8
 803              		@ sp needed
 804 0072 10BD     		pop	{r4, pc}
 805              	.L62:
 806              		.align	2
 807              	.L61:
 808 0074 00000000 		.word	OSStatTaskCtr
 809 0078 00000000 		.word	OSStatTaskCtrRun
 810 007c 00000000 		.word	OSStatTaskCtrMax
 811 0080 00000000 		.word	OSStatTaskRdy
 812 0084 00000000 		.word	OSStatResetFlag
 813 0088 00000000 		.word	OSCfg_StatTaskStkBasePtr
 814 008c 00000000 		.word	OSCfg_StatTaskStkSize
 815 0090 00000000 		.word	OSCfg_StkSizeMin
 816 0094 00000000 		.word	OSCfg_StatTaskPrio
 817 0098 00000000 		.word	OSCfg_StatTaskStkLimit
 818 009c 00000000 		.word	OS_StatTask
 819 00a0 00000000 		.word	.LC0
 820 00a4 00000000 		.word	OSStatTaskTCB
 821              		.cfi_endproc
 822              	.LFE4:
 823              		.size	OS_StatTaskInit, .-OS_StatTaskInit
 824              		.section	.rodata.str1.4,"aMS",%progbits,1
 825              		.align	2
 826              	.LC0:
 827 0000 75432F4F 		.ascii	"uC/OS-III Stat Task\000"
 827      532D4949 
 827      49205374 
 827      61742054 
 827      61736B00 
 828              		.text
 829              	.Letext0:
 830              		.file 2 ".\\uC-CPU\\ARM-Cortex-M3\\GNU/cpu.h"
 831              		.file 3 ".\\uC-CPU/cpu_core.h"
 832              		.file 4 ".\\uCOS-III\\Source/os_type.h"
 833              		.file 5 ".\\uCOS-III\\Source/os.h"