ARM GAS  C:\Users\jorti\AppData\Local\Temp\ccmiXXpF.s 			page 1


   1              		.syntax unified
   2              		.cpu cortex-m3
   3              		.fpu softvfp
   4              		.eabi_attribute 20, 1
   5              		.eabi_attribute 21, 1
   6              		.eabi_attribute 23, 3
   7              		.eabi_attribute 24, 1
   8              		.eabi_attribute 25, 1
   9              		.eabi_attribute 26, 1
  10              		.eabi_attribute 30, 1
  11              		.eabi_attribute 34, 1
  12              		.eabi_attribute 18, 4
  13              		.thumb
  14              		.syntax unified
  15              		.file	"os_tmr.c"
  16              		.text
  17              	.Ltext0:
  18              		.cfi_sections	.debug_frame
  19              		.section	.text.OSTmrRemainGet,"ax",%progbits
  20              		.align	2
  21              		.global	OSTmrRemainGet
  22              		.thumb
  23              		.thumb_func
  24              		.type	OSTmrRemainGet, %function
  25              	OSTmrRemainGet:
  26              	.LFB3:
  27              		.file 1 "uCOS-III\\Source\\os_tmr.c"
   1:uCOS-III\Source/os_tmr.c **** /*
   2:uCOS-III\Source/os_tmr.c **** ***************************************************************************************************
   3:uCOS-III\Source/os_tmr.c **** *                                                      uC/OS-III
   4:uCOS-III\Source/os_tmr.c **** *                                                 The Real-Time Kernel
   5:uCOS-III\Source/os_tmr.c **** *
   6:uCOS-III\Source/os_tmr.c **** *                                  (c) Copyright 2009-2012; Micrium, Inc.; Weston, FL
   7:uCOS-III\Source/os_tmr.c **** *                           All rights reserved.  Protected by international copyright laws.
   8:uCOS-III\Source/os_tmr.c **** *
   9:uCOS-III\Source/os_tmr.c **** *                                                   TIMER MANAGEMENT
  10:uCOS-III\Source/os_tmr.c **** *
  11:uCOS-III\Source/os_tmr.c **** * File    : OS_TMR.C
  12:uCOS-III\Source/os_tmr.c **** * By      : JJL
  13:uCOS-III\Source/os_tmr.c **** * Version : V3.03.01
  14:uCOS-III\Source/os_tmr.c **** *
  15:uCOS-III\Source/os_tmr.c **** * LICENSING TERMS:
  16:uCOS-III\Source/os_tmr.c **** * ---------------
  17:uCOS-III\Source/os_tmr.c **** *           uC/OS-III is provided in source form for FREE short-term evaluation, for educational us
  18:uCOS-III\Source/os_tmr.c **** *           for peaceful research.  If you plan or intend to use uC/OS-III in a commercial applicat
  19:uCOS-III\Source/os_tmr.c **** *           product then, you need to contact Micrium to properly license uC/OS-III for its use in 
  20:uCOS-III\Source/os_tmr.c **** *           application/product.   We provide ALL the source code for your convenience and to help 
  21:uCOS-III\Source/os_tmr.c **** *           experience uC/OS-III.  The fact that the source is provided does NOT mean that you can 
  22:uCOS-III\Source/os_tmr.c **** *           it commercially without paying a licensing fee.
  23:uCOS-III\Source/os_tmr.c **** *
  24:uCOS-III\Source/os_tmr.c **** *           Knowledge of the source code may NOT be used to develop a similar product.
  25:uCOS-III\Source/os_tmr.c **** *
  26:uCOS-III\Source/os_tmr.c **** *           Please help us continue to provide the embedded community with the finest software avai
  27:uCOS-III\Source/os_tmr.c **** *           Your honesty is greatly appreciated.
  28:uCOS-III\Source/os_tmr.c **** *
  29:uCOS-III\Source/os_tmr.c **** *           You can contact us at www.micrium.com, or by phone at +1 (954) 217-2036.
  30:uCOS-III\Source/os_tmr.c **** ***************************************************************************************************
ARM GAS  C:\Users\jorti\AppData\Local\Temp\ccmiXXpF.s 			page 2


  31:uCOS-III\Source/os_tmr.c **** */
  32:uCOS-III\Source/os_tmr.c **** 
  33:uCOS-III\Source/os_tmr.c **** #define  MICRIUM_SOURCE
  34:uCOS-III\Source/os_tmr.c **** #include <os.h>
  35:uCOS-III\Source/os_tmr.c **** 
  36:uCOS-III\Source/os_tmr.c **** #ifdef VSC_INCLUDE_SOURCE_FILE_NAMES
  37:uCOS-III\Source/os_tmr.c **** const  CPU_CHAR  *os_tmr__c = "$Id: $";
  38:uCOS-III\Source/os_tmr.c **** #endif
  39:uCOS-III\Source/os_tmr.c **** 
  40:uCOS-III\Source/os_tmr.c **** 
  41:uCOS-III\Source/os_tmr.c **** #if OS_CFG_TMR_EN > 0u
  42:uCOS-III\Source/os_tmr.c **** /*
  43:uCOS-III\Source/os_tmr.c **** ***************************************************************************************************
  44:uCOS-III\Source/os_tmr.c **** *                                                     CONSTANTS
  45:uCOS-III\Source/os_tmr.c **** ***************************************************************************************************
  46:uCOS-III\Source/os_tmr.c **** */
  47:uCOS-III\Source/os_tmr.c **** 
  48:uCOS-III\Source/os_tmr.c **** #define  OS_OPT_LINK_DLY       (OS_OPT)(0u)
  49:uCOS-III\Source/os_tmr.c **** #define  OS_OPT_LINK_PERIODIC  (OS_OPT)(1u)
  50:uCOS-III\Source/os_tmr.c **** 
  51:uCOS-III\Source/os_tmr.c **** /*$PAGE*/
  52:uCOS-III\Source/os_tmr.c **** /*
  53:uCOS-III\Source/os_tmr.c **** ***************************************************************************************************
  54:uCOS-III\Source/os_tmr.c **** *                                                   CREATE A TIMER
  55:uCOS-III\Source/os_tmr.c **** *
  56:uCOS-III\Source/os_tmr.c **** * Description: This function is called by your application code to create a timer.
  57:uCOS-III\Source/os_tmr.c **** *
  58:uCOS-III\Source/os_tmr.c **** * Arguments  : p_tmr           Is a pointer to a timer control block
  59:uCOS-III\Source/os_tmr.c **** *
  60:uCOS-III\Source/os_tmr.c **** *              p_name          Is a pointer to an ASCII string that is used to name the timer.  Nam
  61:uCOS-III\Source/os_tmr.c **** *                              debugging.
  62:uCOS-III\Source/os_tmr.c **** *
  63:uCOS-III\Source/os_tmr.c **** *              dly             Initial delay.
  64:uCOS-III\Source/os_tmr.c **** *                              If the timer is configured for ONE-SHOT mode, this is the timeout us
  65:uCOS-III\Source/os_tmr.c **** *                              If the timer is configured for PERIODIC mode, this is the first time
  66:uCOS-III\Source/os_tmr.c **** *                              before the timer starts entering periodic mode
  67:uCOS-III\Source/os_tmr.c **** *
  68:uCOS-III\Source/os_tmr.c **** *              period          The 'period' being repeated for the timer.
  69:uCOS-III\Source/os_tmr.c **** *                              If you specified 'OS_OPT_TMR_PERIODIC' as an option, when the timer 
  70:uCOS-III\Source/os_tmr.c **** *                              automatically restart with the same period.
  71:uCOS-III\Source/os_tmr.c **** *
  72:uCOS-III\Source/os_tmr.c **** *              opt             Specifies either:
  73:uCOS-III\Source/os_tmr.c **** *
  74:uCOS-III\Source/os_tmr.c **** *                                  OS_OPT_TMR_ONE_SHOT       The timer counts down only once
  75:uCOS-III\Source/os_tmr.c **** *                                  OS_OPT_TMR_PERIODIC       The timer counts down and then reloads
  76:uCOS-III\Source/os_tmr.c **** *
  77:uCOS-III\Source/os_tmr.c **** *              p_callback      Is a pointer to a callback function that will be called when the tim
  78:uCOS-III\Source/os_tmr.c **** *                              callback function must be declared as follows:
  79:uCOS-III\Source/os_tmr.c **** *
  80:uCOS-III\Source/os_tmr.c **** *                                  void  MyCallback (OS_TMR *p_tmr, void *p_arg);
  81:uCOS-III\Source/os_tmr.c **** *
  82:uCOS-III\Source/os_tmr.c **** *              p_callback_arg  Is an argument (a pointer) that is passed to the callback function w
  83:uCOS-III\Source/os_tmr.c **** *
  84:uCOS-III\Source/os_tmr.c **** *              p_err           Is a pointer to an error code.  '*p_err' will contain one of the fol
  85:uCOS-III\Source/os_tmr.c **** *
  86:uCOS-III\Source/os_tmr.c **** *                                 OS_ERR_NONE
  87:uCOS-III\Source/os_tmr.c **** *                                 OS_ERR_ILLEGAL_CREATE_RUN_TIME if you are trying to create the ti
ARM GAS  C:\Users\jorti\AppData\Local\Temp\ccmiXXpF.s 			page 3


  88:uCOS-III\Source/os_tmr.c **** *                                                                  OSSafetyCriticalStart().
  89:uCOS-III\Source/os_tmr.c **** *                                 OS_ERR_OBJ_CREATED             if the timer has already been crea
  90:uCOS-III\Source/os_tmr.c **** *                                 OS_ERR_OBJ_PTR_NULL            is 'p_tmr' is a NULL pointer
  91:uCOS-III\Source/os_tmr.c **** *                                 OS_ERR_OBJ_TYPE                if the object type is invalid
  92:uCOS-III\Source/os_tmr.c **** *                                 OS_ERR_OPT_INVALID             you specified an invalid option
  93:uCOS-III\Source/os_tmr.c **** *                                 OS_ERR_TMR_INVALID_DLY         you specified an invalid delay
  94:uCOS-III\Source/os_tmr.c **** *                                 OS_ERR_TMR_INVALID_PERIOD      you specified an invalid period
  95:uCOS-III\Source/os_tmr.c **** *                                 OS_ERR_TMR_ISR                 if the call was made from an ISR
  96:uCOS-III\Source/os_tmr.c **** *
  97:uCOS-III\Source/os_tmr.c **** * Returns    : none
  98:uCOS-III\Source/os_tmr.c **** *
  99:uCOS-III\Source/os_tmr.c **** * Note(s)    : 1) This function only creates the timer.  In other words, the timer is not started w
 100:uCOS-III\Source/os_tmr.c **** *                 start the timer, call OSTmrStart().
 101:uCOS-III\Source/os_tmr.c **** ***************************************************************************************************
 102:uCOS-III\Source/os_tmr.c **** */
 103:uCOS-III\Source/os_tmr.c **** 
 104:uCOS-III\Source/os_tmr.c **** void  OSTmrCreate (OS_TMR               *p_tmr,
 105:uCOS-III\Source/os_tmr.c ****                    CPU_CHAR             *p_name,
 106:uCOS-III\Source/os_tmr.c ****                    OS_TICK               dly,
 107:uCOS-III\Source/os_tmr.c ****                    OS_TICK               period,
 108:uCOS-III\Source/os_tmr.c ****                    OS_OPT                opt,
 109:uCOS-III\Source/os_tmr.c ****                    OS_TMR_CALLBACK_PTR   p_callback,
 110:uCOS-III\Source/os_tmr.c ****                    void                 *p_callback_arg,
 111:uCOS-III\Source/os_tmr.c ****                    OS_ERR               *p_err)
 112:uCOS-III\Source/os_tmr.c **** {
 113:uCOS-III\Source/os_tmr.c ****     CPU_SR_ALLOC();
 114:uCOS-III\Source/os_tmr.c **** 
 115:uCOS-III\Source/os_tmr.c **** 
 116:uCOS-III\Source/os_tmr.c **** 
 117:uCOS-III\Source/os_tmr.c **** #ifdef OS_SAFETY_CRITICAL
 118:uCOS-III\Source/os_tmr.c ****     if (p_err == (OS_ERR *)0) {
 119:uCOS-III\Source/os_tmr.c ****         OS_SAFETY_CRITICAL_EXCEPTION();
 120:uCOS-III\Source/os_tmr.c ****         return;
 121:uCOS-III\Source/os_tmr.c ****     }
 122:uCOS-III\Source/os_tmr.c **** #endif
 123:uCOS-III\Source/os_tmr.c **** 
 124:uCOS-III\Source/os_tmr.c **** #ifdef OS_SAFETY_CRITICAL_IEC61508
 125:uCOS-III\Source/os_tmr.c ****     if (OSSafetyCriticalStartFlag == DEF_TRUE) {
 126:uCOS-III\Source/os_tmr.c ****        *p_err = OS_ERR_ILLEGAL_CREATE_RUN_TIME;
 127:uCOS-III\Source/os_tmr.c ****         return;
 128:uCOS-III\Source/os_tmr.c ****     }
 129:uCOS-III\Source/os_tmr.c **** #endif
 130:uCOS-III\Source/os_tmr.c **** 
 131:uCOS-III\Source/os_tmr.c **** #if OS_CFG_CALLED_FROM_ISR_CHK_EN > 0u
 132:uCOS-III\Source/os_tmr.c ****     if (OSIntNestingCtr > (OS_NESTING_CTR)0) {              /* See if trying to call from an ISR   
 133:uCOS-III\Source/os_tmr.c ****        *p_err = OS_ERR_TMR_ISR;
 134:uCOS-III\Source/os_tmr.c ****         return;
 135:uCOS-III\Source/os_tmr.c ****     }
 136:uCOS-III\Source/os_tmr.c **** #endif
 137:uCOS-III\Source/os_tmr.c **** 
 138:uCOS-III\Source/os_tmr.c **** #if OS_CFG_ARG_CHK_EN > 0u
 139:uCOS-III\Source/os_tmr.c ****     if (p_tmr == (OS_TMR *)0) {                             /* Validate 'p_tmr'                    
 140:uCOS-III\Source/os_tmr.c ****        *p_err = OS_ERR_OBJ_PTR_NULL;
 141:uCOS-III\Source/os_tmr.c ****         return;
 142:uCOS-III\Source/os_tmr.c ****     }
 143:uCOS-III\Source/os_tmr.c **** 
 144:uCOS-III\Source/os_tmr.c ****     switch (opt) {
ARM GAS  C:\Users\jorti\AppData\Local\Temp\ccmiXXpF.s 			page 4


 145:uCOS-III\Source/os_tmr.c ****         case OS_OPT_TMR_PERIODIC:
 146:uCOS-III\Source/os_tmr.c ****              if (period == (OS_TICK)0) {
 147:uCOS-III\Source/os_tmr.c ****                 *p_err = OS_ERR_TMR_INVALID_PERIOD;
 148:uCOS-III\Source/os_tmr.c ****                  return;
 149:uCOS-III\Source/os_tmr.c ****              }
 150:uCOS-III\Source/os_tmr.c ****              break;
 151:uCOS-III\Source/os_tmr.c **** 
 152:uCOS-III\Source/os_tmr.c ****         case OS_OPT_TMR_ONE_SHOT:
 153:uCOS-III\Source/os_tmr.c ****              if (dly == (OS_TICK)0) {
 154:uCOS-III\Source/os_tmr.c ****                 *p_err = OS_ERR_TMR_INVALID_DLY;
 155:uCOS-III\Source/os_tmr.c ****                  return;
 156:uCOS-III\Source/os_tmr.c ****              }
 157:uCOS-III\Source/os_tmr.c ****              break;
 158:uCOS-III\Source/os_tmr.c **** 
 159:uCOS-III\Source/os_tmr.c ****         default:
 160:uCOS-III\Source/os_tmr.c ****             *p_err = OS_ERR_OPT_INVALID;
 161:uCOS-III\Source/os_tmr.c ****              return;
 162:uCOS-III\Source/os_tmr.c ****     }
 163:uCOS-III\Source/os_tmr.c **** #endif
 164:uCOS-III\Source/os_tmr.c **** 
 165:uCOS-III\Source/os_tmr.c ****     OS_CRITICAL_ENTER();
 166:uCOS-III\Source/os_tmr.c ****     p_tmr->State          = (OS_STATE           )OS_TMR_STATE_STOPPED;     /* Initialize the timer 
 167:uCOS-III\Source/os_tmr.c ****     p_tmr->Type           = (OS_OBJ_TYPE        )OS_OBJ_TYPE_TMR;
 168:uCOS-III\Source/os_tmr.c ****     p_tmr->NamePtr        = (CPU_CHAR          *)p_name;
 169:uCOS-III\Source/os_tmr.c ****     p_tmr->Dly            = (OS_TICK            )dly;
 170:uCOS-III\Source/os_tmr.c ****     p_tmr->Match          = (OS_TICK            )0;
 171:uCOS-III\Source/os_tmr.c ****     p_tmr->Remain         = (OS_TICK            )0;
 172:uCOS-III\Source/os_tmr.c ****     p_tmr->Period         = (OS_TICK            )period;
 173:uCOS-III\Source/os_tmr.c ****     p_tmr->Opt            = (OS_OPT             )opt;
 174:uCOS-III\Source/os_tmr.c ****     p_tmr->CallbackPtr    = (OS_TMR_CALLBACK_PTR)p_callback;
 175:uCOS-III\Source/os_tmr.c ****     p_tmr->CallbackPtrArg = (void              *)p_callback_arg;
 176:uCOS-III\Source/os_tmr.c ****     p_tmr->NextPtr        = (OS_TMR            *)0;
 177:uCOS-III\Source/os_tmr.c ****     p_tmr->PrevPtr        = (OS_TMR            *)0;
 178:uCOS-III\Source/os_tmr.c **** 
 179:uCOS-III\Source/os_tmr.c **** #if OS_CFG_DBG_EN > 0u
 180:uCOS-III\Source/os_tmr.c ****     OS_TmrDbgListAdd(p_tmr);
 181:uCOS-III\Source/os_tmr.c **** #endif
 182:uCOS-III\Source/os_tmr.c ****     OSTmrQty++;                                             /* Keep track of the number of timers c
 183:uCOS-III\Source/os_tmr.c **** 
 184:uCOS-III\Source/os_tmr.c ****     OS_CRITICAL_EXIT_NO_SCHED();
 185:uCOS-III\Source/os_tmr.c ****    *p_err = OS_ERR_NONE;
 186:uCOS-III\Source/os_tmr.c **** }
 187:uCOS-III\Source/os_tmr.c **** 
 188:uCOS-III\Source/os_tmr.c **** /*$PAGE*/
 189:uCOS-III\Source/os_tmr.c **** /*
 190:uCOS-III\Source/os_tmr.c **** ***************************************************************************************************
 191:uCOS-III\Source/os_tmr.c **** *                                                   DELETE A TIMER
 192:uCOS-III\Source/os_tmr.c **** *
 193:uCOS-III\Source/os_tmr.c **** * Description: This function is called by your application code to delete a timer.
 194:uCOS-III\Source/os_tmr.c **** *
 195:uCOS-III\Source/os_tmr.c **** * Arguments  : p_tmr          Is a pointer to the timer to stop and delete.
 196:uCOS-III\Source/os_tmr.c **** *
 197:uCOS-III\Source/os_tmr.c **** *              p_err          Is a pointer to an error code.  '*p_err' will contain one of the foll
 198:uCOS-III\Source/os_tmr.c **** *
 199:uCOS-III\Source/os_tmr.c **** *                                 OS_ERR_NONE
 200:uCOS-III\Source/os_tmr.c **** *                                 OS_ERR_OBJ_TYPE             'p_tmr' is not pointing to a timer
 201:uCOS-III\Source/os_tmr.c **** *                                 OS_ERR_TMR_INVALID          'p_tmr' is a NULL pointer
ARM GAS  C:\Users\jorti\AppData\Local\Temp\ccmiXXpF.s 			page 5


 202:uCOS-III\Source/os_tmr.c **** *                                 OS_ERR_TMR_ISR              if the function was called from an IS
 203:uCOS-III\Source/os_tmr.c **** *                                 OS_ERR_TMR_INACTIVE         if the timer was not created
 204:uCOS-III\Source/os_tmr.c **** *                                 OS_ERR_TMR_INVALID_STATE    the timer is in an invalid state
 205:uCOS-III\Source/os_tmr.c **** *
 206:uCOS-III\Source/os_tmr.c **** * Returns    : DEF_TRUE   if the timer was deleted
 207:uCOS-III\Source/os_tmr.c **** *              DEF_FALSE  if not or upon an error
 208:uCOS-III\Source/os_tmr.c **** ***************************************************************************************************
 209:uCOS-III\Source/os_tmr.c **** */
 210:uCOS-III\Source/os_tmr.c **** 
 211:uCOS-III\Source/os_tmr.c **** #if OS_CFG_TMR_DEL_EN > 0u
 212:uCOS-III\Source/os_tmr.c **** CPU_BOOLEAN  OSTmrDel (OS_TMR  *p_tmr,
 213:uCOS-III\Source/os_tmr.c ****                        OS_ERR  *p_err)
 214:uCOS-III\Source/os_tmr.c **** {
 215:uCOS-III\Source/os_tmr.c ****     OS_ERR       err;
 216:uCOS-III\Source/os_tmr.c ****     CPU_BOOLEAN  success;
 217:uCOS-III\Source/os_tmr.c **** 
 218:uCOS-III\Source/os_tmr.c **** 
 219:uCOS-III\Source/os_tmr.c **** 
 220:uCOS-III\Source/os_tmr.c **** #ifdef OS_SAFETY_CRITICAL
 221:uCOS-III\Source/os_tmr.c ****     if (p_err == (OS_ERR *)0) {
 222:uCOS-III\Source/os_tmr.c ****         OS_SAFETY_CRITICAL_EXCEPTION();
 223:uCOS-III\Source/os_tmr.c ****         return (DEF_FALSE);
 224:uCOS-III\Source/os_tmr.c ****     }
 225:uCOS-III\Source/os_tmr.c **** #endif
 226:uCOS-III\Source/os_tmr.c **** 
 227:uCOS-III\Source/os_tmr.c **** #if OS_CFG_CALLED_FROM_ISR_CHK_EN > 0u
 228:uCOS-III\Source/os_tmr.c ****     if (OSIntNestingCtr > (OS_NESTING_CTR)0) {              /* See if trying to call from an ISR   
 229:uCOS-III\Source/os_tmr.c ****        *p_err  = OS_ERR_TMR_ISR;
 230:uCOS-III\Source/os_tmr.c ****         return (DEF_FALSE);
 231:uCOS-III\Source/os_tmr.c ****     }
 232:uCOS-III\Source/os_tmr.c **** #endif
 233:uCOS-III\Source/os_tmr.c **** 
 234:uCOS-III\Source/os_tmr.c **** #if OS_CFG_ARG_CHK_EN > 0u
 235:uCOS-III\Source/os_tmr.c ****     if (p_tmr == (OS_TMR *)0) {
 236:uCOS-III\Source/os_tmr.c ****        *p_err = OS_ERR_TMR_INVALID;
 237:uCOS-III\Source/os_tmr.c ****         return (DEF_FALSE);
 238:uCOS-III\Source/os_tmr.c ****     }
 239:uCOS-III\Source/os_tmr.c **** #endif
 240:uCOS-III\Source/os_tmr.c **** 
 241:uCOS-III\Source/os_tmr.c **** #if OS_CFG_OBJ_TYPE_CHK_EN > 0u
 242:uCOS-III\Source/os_tmr.c ****     if (p_tmr->Type != OS_OBJ_TYPE_TMR) {                   /* Make sure timer was created         
 243:uCOS-III\Source/os_tmr.c ****        *p_err = OS_ERR_OBJ_TYPE;
 244:uCOS-III\Source/os_tmr.c ****         return (DEF_FALSE);
 245:uCOS-III\Source/os_tmr.c ****     }
 246:uCOS-III\Source/os_tmr.c **** #endif
 247:uCOS-III\Source/os_tmr.c **** 
 248:uCOS-III\Source/os_tmr.c ****     OSSchedLock(&err);
 249:uCOS-III\Source/os_tmr.c **** #if OS_CFG_DBG_EN > 0u
 250:uCOS-III\Source/os_tmr.c ****     OS_TmrDbgListRemove(p_tmr);
 251:uCOS-III\Source/os_tmr.c **** #endif
 252:uCOS-III\Source/os_tmr.c ****     OSTmrQty--;                                             /* One less timer                      
 253:uCOS-III\Source/os_tmr.c **** 
 254:uCOS-III\Source/os_tmr.c ****     switch (p_tmr->State) {
 255:uCOS-III\Source/os_tmr.c ****         case OS_TMR_STATE_RUNNING:
 256:uCOS-III\Source/os_tmr.c ****              OS_TmrUnlink(p_tmr);                           /* Remove from current wheel spoke     
 257:uCOS-III\Source/os_tmr.c ****              OS_TmrClr(p_tmr);
 258:uCOS-III\Source/os_tmr.c ****              OSSchedUnlock(&err);
ARM GAS  C:\Users\jorti\AppData\Local\Temp\ccmiXXpF.s 			page 6


 259:uCOS-III\Source/os_tmr.c ****             *p_err   = OS_ERR_NONE;
 260:uCOS-III\Source/os_tmr.c ****              success = DEF_TRUE;
 261:uCOS-III\Source/os_tmr.c ****              break;
 262:uCOS-III\Source/os_tmr.c **** 
 263:uCOS-III\Source/os_tmr.c ****         case OS_TMR_STATE_STOPPED:                          /* Timer has not started or ...        
 264:uCOS-III\Source/os_tmr.c ****         case OS_TMR_STATE_COMPLETED:                        /* ... timer has completed the ONE-SHOT
 265:uCOS-III\Source/os_tmr.c ****              OS_TmrClr(p_tmr);                              /* Clear timer fields                  
 266:uCOS-III\Source/os_tmr.c ****              OSSchedUnlock(&err);
 267:uCOS-III\Source/os_tmr.c ****             *p_err   = OS_ERR_NONE;
 268:uCOS-III\Source/os_tmr.c ****              success = DEF_TRUE;
 269:uCOS-III\Source/os_tmr.c ****              break;
 270:uCOS-III\Source/os_tmr.c ****              
 271:uCOS-III\Source/os_tmr.c ****         case OS_TMR_STATE_UNUSED:                           /* Already deleted                     
 272:uCOS-III\Source/os_tmr.c ****              OSSchedUnlock(&err);
 273:uCOS-III\Source/os_tmr.c ****             *p_err   = OS_ERR_TMR_INACTIVE;
 274:uCOS-III\Source/os_tmr.c ****              success = DEF_FALSE;
 275:uCOS-III\Source/os_tmr.c ****              break;
 276:uCOS-III\Source/os_tmr.c **** 
 277:uCOS-III\Source/os_tmr.c ****         default:
 278:uCOS-III\Source/os_tmr.c ****              OSSchedUnlock(&err);
 279:uCOS-III\Source/os_tmr.c ****             *p_err   = OS_ERR_TMR_INVALID_STATE;
 280:uCOS-III\Source/os_tmr.c ****              success = DEF_FALSE;
 281:uCOS-III\Source/os_tmr.c ****              break;
 282:uCOS-III\Source/os_tmr.c ****     }
 283:uCOS-III\Source/os_tmr.c ****     return (success);
 284:uCOS-III\Source/os_tmr.c **** }
 285:uCOS-III\Source/os_tmr.c **** #endif
 286:uCOS-III\Source/os_tmr.c **** 
 287:uCOS-III\Source/os_tmr.c **** /*$PAGE*/
 288:uCOS-III\Source/os_tmr.c **** /*
 289:uCOS-III\Source/os_tmr.c **** ***************************************************************************************************
 290:uCOS-III\Source/os_tmr.c **** *                                    GET HOW MUCH TIME IS LEFT BEFORE A TIMER EXPIRES
 291:uCOS-III\Source/os_tmr.c **** *
 292:uCOS-III\Source/os_tmr.c **** * Description: This function is called to get the number of ticks before a timer times out.
 293:uCOS-III\Source/os_tmr.c **** *
 294:uCOS-III\Source/os_tmr.c **** * Arguments  : p_tmr    Is a pointer to the timer to obtain the remaining time from.
 295:uCOS-III\Source/os_tmr.c **** *
 296:uCOS-III\Source/os_tmr.c **** *              p_err    Is a pointer to an error code.  '*p_err' will contain one of the following:
 297:uCOS-III\Source/os_tmr.c **** *
 298:uCOS-III\Source/os_tmr.c **** *                           OS_ERR_NONE
 299:uCOS-III\Source/os_tmr.c **** *                           OS_ERR_OBJ_TYPE           'p_tmr' is not pointing to a timer
 300:uCOS-III\Source/os_tmr.c **** *                           OS_ERR_TMR_INVALID        'p_tmr' is a NULL pointer
 301:uCOS-III\Source/os_tmr.c **** *                           OS_ERR_TMR_ISR            if the call was made from an ISR
 302:uCOS-III\Source/os_tmr.c **** *                           OS_ERR_TMR_INACTIVE       'p_tmr' points to a timer that is not active
 303:uCOS-III\Source/os_tmr.c **** *                           OS_ERR_TMR_INVALID_STATE  the timer is in an invalid state
 304:uCOS-III\Source/os_tmr.c **** *
 305:uCOS-III\Source/os_tmr.c **** * Returns    : The time remaining for the timer to expire.  The time represents 'timer' increments.
 306:uCOS-III\Source/os_tmr.c **** *              OS_TmrTask() is signaled every 1/10 of a second then the returned value represents t
 307:uCOS-III\Source/os_tmr.c **** *              a second remaining before the timer expires.
 308:uCOS-III\Source/os_tmr.c **** ***************************************************************************************************
 309:uCOS-III\Source/os_tmr.c **** */
 310:uCOS-III\Source/os_tmr.c **** 
 311:uCOS-III\Source/os_tmr.c **** OS_TICK  OSTmrRemainGet (OS_TMR  *p_tmr,
 312:uCOS-III\Source/os_tmr.c ****                          OS_ERR  *p_err)
 313:uCOS-III\Source/os_tmr.c **** {
  28              		.loc 1 313 0
  29              		.cfi_startproc
ARM GAS  C:\Users\jorti\AppData\Local\Temp\ccmiXXpF.s 			page 7


  30              		@ args = 0, pretend = 0, frame = 8
  31              		@ frame_needed = 0, uses_anonymous_args = 0
  32              	.LVL0:
 314:uCOS-III\Source/os_tmr.c ****     OS_TICK  remain;
 315:uCOS-III\Source/os_tmr.c ****     OS_ERR   err;
 316:uCOS-III\Source/os_tmr.c **** 
 317:uCOS-III\Source/os_tmr.c **** 
 318:uCOS-III\Source/os_tmr.c **** 
 319:uCOS-III\Source/os_tmr.c **** #ifdef OS_SAFETY_CRITICAL
 320:uCOS-III\Source/os_tmr.c ****     if (p_err == (OS_ERR *)0) {
 321:uCOS-III\Source/os_tmr.c ****         OS_SAFETY_CRITICAL_EXCEPTION();
 322:uCOS-III\Source/os_tmr.c ****         return ((OS_TICK)0);
 323:uCOS-III\Source/os_tmr.c ****     }
 324:uCOS-III\Source/os_tmr.c **** #endif
 325:uCOS-III\Source/os_tmr.c **** 
 326:uCOS-III\Source/os_tmr.c **** #if OS_CFG_CALLED_FROM_ISR_CHK_EN > 0u
 327:uCOS-III\Source/os_tmr.c ****     if (OSIntNestingCtr > (OS_NESTING_CTR)0) {              /* See if trying to call from an ISR   
  33              		.loc 1 327 0
  34 0000 2A4B     		ldr	r3, .L15
  35 0002 1B78     		ldrb	r3, [r3]	@ zero_extendqisi2
  36 0004 23B1     		cbz	r3, .L2
 328:uCOS-III\Source/os_tmr.c ****        *p_err = OS_ERR_TMR_ISR;
  37              		.loc 1 328 0
  38 0006 47F24333 		movw	r3, #29507
  39 000a 0B80     		strh	r3, [r1]	@ movhi
 329:uCOS-III\Source/os_tmr.c ****         return ((OS_TICK)0);
  40              		.loc 1 329 0
  41 000c 0020     		movs	r0, #0
  42              	.LVL1:
 330:uCOS-III\Source/os_tmr.c ****     }
 331:uCOS-III\Source/os_tmr.c **** #endif
 332:uCOS-III\Source/os_tmr.c **** 
 333:uCOS-III\Source/os_tmr.c **** #if OS_CFG_ARG_CHK_EN > 0u
 334:uCOS-III\Source/os_tmr.c ****     if (p_tmr == (OS_TMR *)0) {
 335:uCOS-III\Source/os_tmr.c ****        *p_err = OS_ERR_TMR_INVALID;
 336:uCOS-III\Source/os_tmr.c ****         return ((OS_TICK)0);
 337:uCOS-III\Source/os_tmr.c ****     }
 338:uCOS-III\Source/os_tmr.c **** #endif
 339:uCOS-III\Source/os_tmr.c **** 
 340:uCOS-III\Source/os_tmr.c **** #if OS_CFG_OBJ_TYPE_CHK_EN > 0u
 341:uCOS-III\Source/os_tmr.c ****     if (p_tmr->Type != OS_OBJ_TYPE_TMR) {                   /* Make sure timer was created         
 342:uCOS-III\Source/os_tmr.c ****        *p_err = OS_ERR_OBJ_TYPE;
 343:uCOS-III\Source/os_tmr.c ****         return ((OS_TICK)0);
 344:uCOS-III\Source/os_tmr.c ****     }
 345:uCOS-III\Source/os_tmr.c **** #endif
 346:uCOS-III\Source/os_tmr.c **** 
 347:uCOS-III\Source/os_tmr.c ****     OSSchedLock(&err);
 348:uCOS-III\Source/os_tmr.c ****     switch (p_tmr->State) {
 349:uCOS-III\Source/os_tmr.c ****         case OS_TMR_STATE_RUNNING:
 350:uCOS-III\Source/os_tmr.c ****              remain        = p_tmr->Match                   /* Determine how much time is left to t
 351:uCOS-III\Source/os_tmr.c ****                            - OSTmrTickCtr;
 352:uCOS-III\Source/os_tmr.c ****              p_tmr->Remain = remain;
 353:uCOS-III\Source/os_tmr.c ****              OSSchedUnlock(&err);
 354:uCOS-III\Source/os_tmr.c ****             *p_err         = OS_ERR_NONE;
 355:uCOS-III\Source/os_tmr.c ****              break;
 356:uCOS-III\Source/os_tmr.c **** 
 357:uCOS-III\Source/os_tmr.c ****         case OS_TMR_STATE_STOPPED:                          /* It's assumed that the timer has not 
ARM GAS  C:\Users\jorti\AppData\Local\Temp\ccmiXXpF.s 			page 8


 358:uCOS-III\Source/os_tmr.c ****              if (p_tmr->Opt == OS_OPT_TMR_PERIODIC) {
 359:uCOS-III\Source/os_tmr.c ****                  if (p_tmr->Dly == 0u) {
 360:uCOS-III\Source/os_tmr.c ****                      remain = p_tmr->Period;
 361:uCOS-III\Source/os_tmr.c ****                  } else {
 362:uCOS-III\Source/os_tmr.c ****                      remain = p_tmr->Dly;
 363:uCOS-III\Source/os_tmr.c ****                  }
 364:uCOS-III\Source/os_tmr.c ****              } else {
 365:uCOS-III\Source/os_tmr.c ****                  remain = p_tmr->Dly;
 366:uCOS-III\Source/os_tmr.c ****              }
 367:uCOS-III\Source/os_tmr.c ****              p_tmr->Remain = remain;
 368:uCOS-III\Source/os_tmr.c ****              OSSchedUnlock(&err);
 369:uCOS-III\Source/os_tmr.c ****             *p_err         = OS_ERR_NONE;
 370:uCOS-III\Source/os_tmr.c ****              break;
 371:uCOS-III\Source/os_tmr.c **** 
 372:uCOS-III\Source/os_tmr.c ****         case OS_TMR_STATE_COMPLETED:                        /* Only ONE-SHOT that timed out can be 
 373:uCOS-III\Source/os_tmr.c ****              OSSchedUnlock(&err);
 374:uCOS-III\Source/os_tmr.c ****             *p_err  = OS_ERR_NONE;
 375:uCOS-III\Source/os_tmr.c ****              remain = (OS_TICK)0;
 376:uCOS-III\Source/os_tmr.c ****              break;
 377:uCOS-III\Source/os_tmr.c **** 
 378:uCOS-III\Source/os_tmr.c ****         case OS_TMR_STATE_UNUSED:
 379:uCOS-III\Source/os_tmr.c ****              OSSchedUnlock(&err);
 380:uCOS-III\Source/os_tmr.c ****             *p_err  = OS_ERR_TMR_INACTIVE;
 381:uCOS-III\Source/os_tmr.c ****              remain = (OS_TICK)0;
 382:uCOS-III\Source/os_tmr.c ****              break;
 383:uCOS-III\Source/os_tmr.c **** 
 384:uCOS-III\Source/os_tmr.c ****         default:
 385:uCOS-III\Source/os_tmr.c ****              OSSchedUnlock(&err);
 386:uCOS-III\Source/os_tmr.c ****             *p_err = OS_ERR_TMR_INVALID_STATE;
 387:uCOS-III\Source/os_tmr.c ****              remain = (OS_TICK)0;
 388:uCOS-III\Source/os_tmr.c ****              break;
 389:uCOS-III\Source/os_tmr.c ****     }
 390:uCOS-III\Source/os_tmr.c ****     return (remain);
 391:uCOS-III\Source/os_tmr.c **** }
  43              		.loc 1 391 0
  44 000e 7047     		bx	lr
  45              	.LVL2:
  46              	.L2:
 334:uCOS-III\Source/os_tmr.c ****        *p_err = OS_ERR_TMR_INVALID;
  47              		.loc 1 334 0
  48 0010 18B9     		cbnz	r0, .L4
 335:uCOS-III\Source/os_tmr.c ****         return ((OS_TICK)0);
  49              		.loc 1 335 0
  50 0012 47F24233 		movw	r3, #29506
  51 0016 0B80     		strh	r3, [r1]	@ movhi
 336:uCOS-III\Source/os_tmr.c ****     }
  52              		.loc 1 336 0
  53 0018 7047     		bx	lr
  54              	.L4:
 313:uCOS-III\Source/os_tmr.c ****     OS_TICK  remain;
  55              		.loc 1 313 0
  56 001a 70B5     		push	{r4, r5, r6, lr}
  57              		.cfi_def_cfa_offset 16
  58              		.cfi_offset 4, -16
  59              		.cfi_offset 5, -12
  60              		.cfi_offset 6, -8
  61              		.cfi_offset 14, -4
ARM GAS  C:\Users\jorti\AppData\Local\Temp\ccmiXXpF.s 			page 9


  62 001c 82B0     		sub	sp, sp, #8
  63              		.cfi_def_cfa_offset 24
  64 001e 0E46     		mov	r6, r1
  65 0020 0546     		mov	r5, r0
 347:uCOS-III\Source/os_tmr.c ****     switch (p_tmr->State) {
  66              		.loc 1 347 0
  67 0022 0DF10600 		add	r0, sp, #6
  68              	.LVL3:
  69 0026 FFF7FEFF 		bl	OSSchedLock
  70              	.LVL4:
 348:uCOS-III\Source/os_tmr.c ****         case OS_TMR_STATE_RUNNING:
  71              		.loc 1 348 0
  72 002a 95F82A30 		ldrb	r3, [r5, #42]	@ zero_extendqisi2
  73 002e 032B     		cmp	r3, #3
  74 0030 31D8     		bhi	.L5
  75 0032 DFE803F0 		tbb	[pc, r3]
  76              	.L7:
  77 0036 27       		.byte	(.L6-.L7)/2
  78 0037 0F       		.byte	(.L8-.L7)/2
  79 0038 02       		.byte	(.L9-.L7)/2
  80 0039 20       		.byte	(.L10-.L7)/2
  81              		.p2align 1
  82              	.L9:
 350:uCOS-III\Source/os_tmr.c ****                            - OSTmrTickCtr;
  83              		.loc 1 350 0
  84 003a AB69     		ldr	r3, [r5, #24]
 351:uCOS-III\Source/os_tmr.c ****              p_tmr->Remain = remain;
  85              		.loc 1 351 0
  86 003c 1C4A     		ldr	r2, .L15+4
  87 003e 1068     		ldr	r0, [r2]
 350:uCOS-III\Source/os_tmr.c ****                            - OSTmrTickCtr;
  88              		.loc 1 350 0
  89 0040 1C1A     		subs	r4, r3, r0
  90              	.LVL5:
 352:uCOS-III\Source/os_tmr.c ****              OSSchedUnlock(&err);
  91              		.loc 1 352 0
  92 0042 EC61     		str	r4, [r5, #28]
 353:uCOS-III\Source/os_tmr.c ****             *p_err         = OS_ERR_NONE;
  93              		.loc 1 353 0
  94 0044 0DF10600 		add	r0, sp, #6
  95 0048 FFF7FEFF 		bl	OSSchedUnlock
  96              	.LVL6:
 354:uCOS-III\Source/os_tmr.c ****              break;
  97              		.loc 1 354 0
  98 004c 0023     		movs	r3, #0
  99 004e 3380     		strh	r3, [r6]	@ movhi
 350:uCOS-III\Source/os_tmr.c ****                            - OSTmrTickCtr;
 100              		.loc 1 350 0
 101 0050 2046     		mov	r0, r4
 355:uCOS-III\Source/os_tmr.c **** 
 102              		.loc 1 355 0
 103 0052 28E0     		b	.L3
 104              	.LVL7:
 105              	.L8:
 358:uCOS-III\Source/os_tmr.c ****                  if (p_tmr->Dly == 0u) {
 106              		.loc 1 358 0
 107 0054 2B8D     		ldrh	r3, [r5, #40]
ARM GAS  C:\Users\jorti\AppData\Local\Temp\ccmiXXpF.s 			page 10


 108 0056 022B     		cmp	r3, #2
 109 0058 03D1     		bne	.L11
 359:uCOS-III\Source/os_tmr.c ****                      remain = p_tmr->Period;
 110              		.loc 1 359 0
 111 005a 2C6A     		ldr	r4, [r5, #32]
 112 005c 14B9     		cbnz	r4, .L12
 360:uCOS-III\Source/os_tmr.c ****                  } else {
 113              		.loc 1 360 0
 114 005e 6C6A     		ldr	r4, [r5, #36]
 115              	.LVL8:
 116 0060 00E0     		b	.L12
 117              	.LVL9:
 118              	.L11:
 365:uCOS-III\Source/os_tmr.c ****              }
 119              		.loc 1 365 0
 120 0062 2C6A     		ldr	r4, [r5, #32]
 121              	.LVL10:
 122              	.L12:
 367:uCOS-III\Source/os_tmr.c ****              OSSchedUnlock(&err);
 123              		.loc 1 367 0
 124 0064 EC61     		str	r4, [r5, #28]
 368:uCOS-III\Source/os_tmr.c ****             *p_err         = OS_ERR_NONE;
 125              		.loc 1 368 0
 126 0066 0DF10600 		add	r0, sp, #6
 127 006a FFF7FEFF 		bl	OSSchedUnlock
 128              	.LVL11:
 369:uCOS-III\Source/os_tmr.c ****              break;
 129              		.loc 1 369 0
 130 006e 0023     		movs	r3, #0
 131 0070 3380     		strh	r3, [r6]	@ movhi
 370:uCOS-III\Source/os_tmr.c **** 
 132              		.loc 1 370 0
 133 0072 2046     		mov	r0, r4
 134 0074 17E0     		b	.L3
 135              	.LVL12:
 136              	.L10:
 373:uCOS-III\Source/os_tmr.c ****             *p_err  = OS_ERR_NONE;
 137              		.loc 1 373 0
 138 0076 0DF10600 		add	r0, sp, #6
 139 007a FFF7FEFF 		bl	OSSchedUnlock
 140              	.LVL13:
 374:uCOS-III\Source/os_tmr.c ****              remain = (OS_TICK)0;
 141              		.loc 1 374 0
 142 007e 0020     		movs	r0, #0
 143 0080 3080     		strh	r0, [r6]	@ movhi
 144              	.LVL14:
 376:uCOS-III\Source/os_tmr.c **** 
 145              		.loc 1 376 0
 146 0082 10E0     		b	.L3
 147              	.LVL15:
 148              	.L6:
 379:uCOS-III\Source/os_tmr.c ****             *p_err  = OS_ERR_TMR_INACTIVE;
 149              		.loc 1 379 0
 150 0084 0DF10600 		add	r0, sp, #6
 151 0088 FFF7FEFF 		bl	OSSchedUnlock
 152              	.LVL16:
 380:uCOS-III\Source/os_tmr.c ****              remain = (OS_TICK)0;
ARM GAS  C:\Users\jorti\AppData\Local\Temp\ccmiXXpF.s 			page 11


 153              		.loc 1 380 0
 154 008c 47F23D33 		movw	r3, #29501
 155 0090 3380     		strh	r3, [r6]	@ movhi
 156              	.LVL17:
 381:uCOS-III\Source/os_tmr.c ****              break;
 157              		.loc 1 381 0
 158 0092 0020     		movs	r0, #0
 382:uCOS-III\Source/os_tmr.c **** 
 159              		.loc 1 382 0
 160 0094 07E0     		b	.L3
 161              	.LVL18:
 162              	.L5:
 385:uCOS-III\Source/os_tmr.c ****             *p_err = OS_ERR_TMR_INVALID_STATE;
 163              		.loc 1 385 0
 164 0096 0DF10600 		add	r0, sp, #6
 165 009a FFF7FEFF 		bl	OSSchedUnlock
 166              	.LVL19:
 386:uCOS-III\Source/os_tmr.c ****              remain = (OS_TICK)0;
 167              		.loc 1 386 0
 168 009e 47F24133 		movw	r3, #29505
 169 00a2 3380     		strh	r3, [r6]	@ movhi
 170              	.LVL20:
 387:uCOS-III\Source/os_tmr.c ****              break;
 171              		.loc 1 387 0
 172 00a4 0020     		movs	r0, #0
 173              	.LVL21:
 174              	.L3:
 175              		.loc 1 391 0
 176 00a6 02B0     		add	sp, sp, #8
 177              		.cfi_def_cfa_offset 16
 178              		@ sp needed
 179 00a8 70BD     		pop	{r4, r5, r6, pc}
 180              	.LVL22:
 181              	.L16:
 182 00aa 00BF     		.align	2
 183              	.L15:
 184 00ac 00000000 		.word	OSIntNestingCtr
 185 00b0 00000000 		.word	OSTmrTickCtr
 186              		.cfi_endproc
 187              	.LFE3:
 188              		.size	OSTmrRemainGet, .-OSTmrRemainGet
 189              		.section	.text.OSTmrStateGet,"ax",%progbits
 190              		.align	2
 191              		.global	OSTmrStateGet
 192              		.thumb
 193              		.thumb_func
 194              		.type	OSTmrStateGet, %function
 195              	OSTmrStateGet:
 196              	.LFB5:
 392:uCOS-III\Source/os_tmr.c **** 
 393:uCOS-III\Source/os_tmr.c **** /*$PAGE*/
 394:uCOS-III\Source/os_tmr.c **** /*
 395:uCOS-III\Source/os_tmr.c **** ***************************************************************************************************
 396:uCOS-III\Source/os_tmr.c **** *                                                   START A TIMER
 397:uCOS-III\Source/os_tmr.c **** *
 398:uCOS-III\Source/os_tmr.c **** * Description: This function is called by your application code to start a timer.
 399:uCOS-III\Source/os_tmr.c **** *
ARM GAS  C:\Users\jorti\AppData\Local\Temp\ccmiXXpF.s 			page 12


 400:uCOS-III\Source/os_tmr.c **** * Arguments  : p_tmr    Is a pointer to an OS_TMR
 401:uCOS-III\Source/os_tmr.c **** *
 402:uCOS-III\Source/os_tmr.c **** *              p_err    Is a pointer to an error code.  '*p_err' will contain one of the following:
 403:uCOS-III\Source/os_tmr.c **** *
 404:uCOS-III\Source/os_tmr.c **** *                           OS_ERR_NONE
 405:uCOS-III\Source/os_tmr.c **** *                           OS_ERR_OBJ_TYPE            if 'p_tmr' is not pointing to a timer
 406:uCOS-III\Source/os_tmr.c **** *                           OS_ERR_TMR_INVALID
 407:uCOS-III\Source/os_tmr.c **** *                           OS_ERR_TMR_INACTIVE        if the timer was not created
 408:uCOS-III\Source/os_tmr.c **** *                           OS_ERR_TMR_INVALID_STATE   the timer is in an invalid state
 409:uCOS-III\Source/os_tmr.c **** *                           OS_ERR_TMR_ISR             if the call was made from an ISR
 410:uCOS-III\Source/os_tmr.c **** *
 411:uCOS-III\Source/os_tmr.c **** * Returns    : DEF_TRUE      is the timer was started
 412:uCOS-III\Source/os_tmr.c **** *              DEF_FALSE     if not or upon an error
 413:uCOS-III\Source/os_tmr.c **** *
 414:uCOS-III\Source/os_tmr.c **** * Note(s)    : 1) When starting/restarting a timer, regardless if it is in PERIODIC or ONE-SHOT mod
 415:uCOS-III\Source/os_tmr.c **** *                 linked to the timer wheel with the OS_OPT_LINK_DLY option. This option sets the i
 416:uCOS-III\Source/os_tmr.c **** *                 time for the timer. For timers in PERIODIC mode, subsequent expiration times are 
 417:uCOS-III\Source/os_tmr.c **** *                 the OS_TmrTask().
 418:uCOS-III\Source/os_tmr.c **** ***************************************************************************************************
 419:uCOS-III\Source/os_tmr.c **** */
 420:uCOS-III\Source/os_tmr.c **** 
 421:uCOS-III\Source/os_tmr.c **** CPU_BOOLEAN  OSTmrStart (OS_TMR  *p_tmr,
 422:uCOS-III\Source/os_tmr.c ****                          OS_ERR  *p_err)
 423:uCOS-III\Source/os_tmr.c **** {
 424:uCOS-III\Source/os_tmr.c ****     OS_ERR       err;
 425:uCOS-III\Source/os_tmr.c ****     CPU_BOOLEAN  success;
 426:uCOS-III\Source/os_tmr.c **** 
 427:uCOS-III\Source/os_tmr.c **** 
 428:uCOS-III\Source/os_tmr.c **** 
 429:uCOS-III\Source/os_tmr.c **** #ifdef OS_SAFETY_CRITICAL
 430:uCOS-III\Source/os_tmr.c ****     if (p_err == (OS_ERR *)0) {
 431:uCOS-III\Source/os_tmr.c ****         OS_SAFETY_CRITICAL_EXCEPTION();
 432:uCOS-III\Source/os_tmr.c ****         return (DEF_FALSE);
 433:uCOS-III\Source/os_tmr.c ****     }
 434:uCOS-III\Source/os_tmr.c **** #endif
 435:uCOS-III\Source/os_tmr.c **** 
 436:uCOS-III\Source/os_tmr.c **** #if OS_CFG_CALLED_FROM_ISR_CHK_EN > 0u
 437:uCOS-III\Source/os_tmr.c ****     if (OSIntNestingCtr > (OS_NESTING_CTR)0) {              /* See if trying to call from an ISR   
 438:uCOS-III\Source/os_tmr.c ****        *p_err = OS_ERR_TMR_ISR;
 439:uCOS-III\Source/os_tmr.c ****         return (DEF_FALSE);
 440:uCOS-III\Source/os_tmr.c ****     }
 441:uCOS-III\Source/os_tmr.c **** #endif
 442:uCOS-III\Source/os_tmr.c **** 
 443:uCOS-III\Source/os_tmr.c **** #if OS_CFG_ARG_CHK_EN > 0u
 444:uCOS-III\Source/os_tmr.c ****     if (p_tmr == (OS_TMR *)0) {
 445:uCOS-III\Source/os_tmr.c ****        *p_err = OS_ERR_TMR_INVALID;
 446:uCOS-III\Source/os_tmr.c ****         return (DEF_FALSE);
 447:uCOS-III\Source/os_tmr.c ****     }
 448:uCOS-III\Source/os_tmr.c **** #endif
 449:uCOS-III\Source/os_tmr.c **** 
 450:uCOS-III\Source/os_tmr.c **** #if OS_CFG_OBJ_TYPE_CHK_EN > 0u
 451:uCOS-III\Source/os_tmr.c ****     if (p_tmr->Type != OS_OBJ_TYPE_TMR) {                   /* Make sure timer was created         
 452:uCOS-III\Source/os_tmr.c ****        *p_err = OS_ERR_OBJ_TYPE;
 453:uCOS-III\Source/os_tmr.c ****         return (DEF_FALSE);
 454:uCOS-III\Source/os_tmr.c ****     }
 455:uCOS-III\Source/os_tmr.c **** #endif
 456:uCOS-III\Source/os_tmr.c **** 
ARM GAS  C:\Users\jorti\AppData\Local\Temp\ccmiXXpF.s 			page 13


 457:uCOS-III\Source/os_tmr.c ****     OSSchedLock(&err);
 458:uCOS-III\Source/os_tmr.c ****     switch (p_tmr->State) {
 459:uCOS-III\Source/os_tmr.c ****         case OS_TMR_STATE_RUNNING:                          /* Restart the timer                   
 460:uCOS-III\Source/os_tmr.c ****              OS_TmrUnlink(p_tmr);                           /* ... Stop the timer                  
 461:uCOS-III\Source/os_tmr.c ****              OS_TmrLink(p_tmr, OS_OPT_LINK_DLY);            /* ... Link timer to timer wheel (see N
 462:uCOS-III\Source/os_tmr.c ****              OSSchedUnlock(&err);
 463:uCOS-III\Source/os_tmr.c ****             *p_err   = OS_ERR_NONE;
 464:uCOS-III\Source/os_tmr.c ****              success = DEF_TRUE;
 465:uCOS-III\Source/os_tmr.c ****              break;
 466:uCOS-III\Source/os_tmr.c **** 
 467:uCOS-III\Source/os_tmr.c ****         case OS_TMR_STATE_STOPPED:                          /* Start the timer                     
 468:uCOS-III\Source/os_tmr.c ****         case OS_TMR_STATE_COMPLETED:
 469:uCOS-III\Source/os_tmr.c ****              OS_TmrLink(p_tmr, OS_OPT_LINK_DLY);            /* ... Link timer to timer wheel (see N
 470:uCOS-III\Source/os_tmr.c ****              OSSchedUnlock(&err);
 471:uCOS-III\Source/os_tmr.c ****             *p_err   = OS_ERR_NONE;
 472:uCOS-III\Source/os_tmr.c ****              success = DEF_TRUE;
 473:uCOS-III\Source/os_tmr.c ****              break;
 474:uCOS-III\Source/os_tmr.c **** 
 475:uCOS-III\Source/os_tmr.c ****         case OS_TMR_STATE_UNUSED:                           /* Timer not created                   
 476:uCOS-III\Source/os_tmr.c ****              OSSchedUnlock(&err);
 477:uCOS-III\Source/os_tmr.c ****             *p_err   = OS_ERR_TMR_INACTIVE;
 478:uCOS-III\Source/os_tmr.c ****              success = DEF_FALSE;
 479:uCOS-III\Source/os_tmr.c ****              break;
 480:uCOS-III\Source/os_tmr.c **** 
 481:uCOS-III\Source/os_tmr.c ****         default:
 482:uCOS-III\Source/os_tmr.c ****              OSSchedUnlock(&err);
 483:uCOS-III\Source/os_tmr.c ****             *p_err = OS_ERR_TMR_INVALID_STATE;
 484:uCOS-III\Source/os_tmr.c ****              success = DEF_FALSE;
 485:uCOS-III\Source/os_tmr.c ****              break;
 486:uCOS-III\Source/os_tmr.c ****     }
 487:uCOS-III\Source/os_tmr.c ****     return (success);
 488:uCOS-III\Source/os_tmr.c **** }
 489:uCOS-III\Source/os_tmr.c **** 
 490:uCOS-III\Source/os_tmr.c **** /*$PAGE*/
 491:uCOS-III\Source/os_tmr.c **** /*
 492:uCOS-III\Source/os_tmr.c **** ***************************************************************************************************
 493:uCOS-III\Source/os_tmr.c **** *                                           FIND OUT WHAT STATE A TIMER IS IN
 494:uCOS-III\Source/os_tmr.c **** *
 495:uCOS-III\Source/os_tmr.c **** * Description: This function is called to determine what state the timer is in:
 496:uCOS-III\Source/os_tmr.c **** *
 497:uCOS-III\Source/os_tmr.c **** *                  OS_TMR_STATE_UNUSED     the timer has not been created
 498:uCOS-III\Source/os_tmr.c **** *                  OS_TMR_STATE_STOPPED    the timer has been created but has not been started or h
 499:uCOS-III\Source/os_tmr.c **** *                  OS_TMR_COMPLETED        the timer is in ONE-SHOT mode and has completed it's tim
 500:uCOS-III\Source/os_tmr.c **** *                  OS_TMR_RUNNING          the timer is currently running
 501:uCOS-III\Source/os_tmr.c **** *
 502:uCOS-III\Source/os_tmr.c **** * Arguments  : p_tmr    Is a pointer to the desired timer
 503:uCOS-III\Source/os_tmr.c **** *
 504:uCOS-III\Source/os_tmr.c **** *              p_err    Is a pointer to an error code.  '*p_err' will contain one of the following:
 505:uCOS-III\Source/os_tmr.c **** *
 506:uCOS-III\Source/os_tmr.c **** *                           OS_ERR_NONE
 507:uCOS-III\Source/os_tmr.c **** *                           OS_ERR_OBJ_TYPE            if 'p_tmr' is not pointing to a timer
 508:uCOS-III\Source/os_tmr.c **** *                           OS_ERR_TMR_INVALID        'p_tmr' is a NULL pointer
 509:uCOS-III\Source/os_tmr.c **** *                           OS_ERR_TMR_INVALID_STATE  if the timer is not in a valid state
 510:uCOS-III\Source/os_tmr.c **** *                           OS_ERR_TMR_ISR            if the call was made from an ISR
 511:uCOS-III\Source/os_tmr.c **** *
 512:uCOS-III\Source/os_tmr.c **** * Returns    : The current state of the timer (see description).
 513:uCOS-III\Source/os_tmr.c **** ***************************************************************************************************
ARM GAS  C:\Users\jorti\AppData\Local\Temp\ccmiXXpF.s 			page 14


 514:uCOS-III\Source/os_tmr.c **** */
 515:uCOS-III\Source/os_tmr.c **** 
 516:uCOS-III\Source/os_tmr.c **** OS_STATE  OSTmrStateGet (OS_TMR  *p_tmr,
 517:uCOS-III\Source/os_tmr.c ****                          OS_ERR  *p_err)
 518:uCOS-III\Source/os_tmr.c **** {
 197              		.loc 1 518 0
 198              		.cfi_startproc
 199              		@ args = 0, pretend = 0, frame = 0
 200              		@ frame_needed = 0, uses_anonymous_args = 0
 201              	.LVL23:
 202 0000 38B5     		push	{r3, r4, r5, lr}
 203              		.cfi_def_cfa_offset 16
 204              		.cfi_offset 3, -16
 205              		.cfi_offset 4, -12
 206              		.cfi_offset 5, -8
 207              		.cfi_offset 14, -4
 208              	.LVL24:
 519:uCOS-III\Source/os_tmr.c ****     OS_STATE  state;
 520:uCOS-III\Source/os_tmr.c ****     CPU_SR_ALLOC();
 521:uCOS-III\Source/os_tmr.c **** 
 522:uCOS-III\Source/os_tmr.c **** 
 523:uCOS-III\Source/os_tmr.c **** 
 524:uCOS-III\Source/os_tmr.c **** #ifdef OS_SAFETY_CRITICAL
 525:uCOS-III\Source/os_tmr.c ****     if (p_err == (OS_ERR *)0) {
 526:uCOS-III\Source/os_tmr.c ****         OS_SAFETY_CRITICAL_EXCEPTION();
 527:uCOS-III\Source/os_tmr.c ****         return (OS_TMR_STATE_UNUSED);
 528:uCOS-III\Source/os_tmr.c ****     }
 529:uCOS-III\Source/os_tmr.c **** #endif
 530:uCOS-III\Source/os_tmr.c **** 
 531:uCOS-III\Source/os_tmr.c **** #if OS_CFG_CALLED_FROM_ISR_CHK_EN > 0u
 532:uCOS-III\Source/os_tmr.c ****     if (OSIntNestingCtr > (OS_NESTING_CTR)0) {              /* See if trying to call from an ISR   
 209              		.loc 1 532 0
 210 0002 104B     		ldr	r3, .L25
 211 0004 1B78     		ldrb	r3, [r3]	@ zero_extendqisi2
 212 0006 23B1     		cbz	r3, .L18
 533:uCOS-III\Source/os_tmr.c ****        *p_err = OS_ERR_TMR_ISR;
 213              		.loc 1 533 0
 214 0008 47F24333 		movw	r3, #29507
 215 000c 0B80     		strh	r3, [r1]	@ movhi
 534:uCOS-III\Source/os_tmr.c ****         return (OS_TMR_STATE_UNUSED);
 216              		.loc 1 534 0
 217 000e 0023     		movs	r3, #0
 218 0010 15E0     		b	.L19
 219              	.L18:
 535:uCOS-III\Source/os_tmr.c ****     }
 536:uCOS-III\Source/os_tmr.c **** #endif
 537:uCOS-III\Source/os_tmr.c **** 
 538:uCOS-III\Source/os_tmr.c **** #if OS_CFG_ARG_CHK_EN > 0u
 539:uCOS-III\Source/os_tmr.c ****     if (p_tmr == (OS_TMR *)0) {
 220              		.loc 1 539 0
 221 0012 18B9     		cbnz	r0, .L20
 540:uCOS-III\Source/os_tmr.c ****        *p_err = OS_ERR_TMR_INVALID;
 222              		.loc 1 540 0
 223 0014 47F24232 		movw	r2, #29506
 224 0018 0A80     		strh	r2, [r1]	@ movhi
 541:uCOS-III\Source/os_tmr.c ****         return (OS_TMR_STATE_UNUSED);
 225              		.loc 1 541 0
ARM GAS  C:\Users\jorti\AppData\Local\Temp\ccmiXXpF.s 			page 15


 226 001a 10E0     		b	.L19
 227              	.L20:
 228 001c 0D46     		mov	r5, r1
 229 001e 0446     		mov	r4, r0
 542:uCOS-III\Source/os_tmr.c ****     }
 543:uCOS-III\Source/os_tmr.c **** #endif
 544:uCOS-III\Source/os_tmr.c **** 
 545:uCOS-III\Source/os_tmr.c **** #if OS_CFG_OBJ_TYPE_CHK_EN > 0u
 546:uCOS-III\Source/os_tmr.c ****     if (p_tmr->Type != OS_OBJ_TYPE_TMR) {                   /* Make sure timer was created         
 547:uCOS-III\Source/os_tmr.c ****        *p_err = OS_ERR_OBJ_TYPE;
 548:uCOS-III\Source/os_tmr.c ****         return (OS_TMR_STATE_UNUSED);
 549:uCOS-III\Source/os_tmr.c ****     }
 550:uCOS-III\Source/os_tmr.c **** #endif
 551:uCOS-III\Source/os_tmr.c **** 
 552:uCOS-III\Source/os_tmr.c ****     CPU_CRITICAL_ENTER();
 230              		.loc 1 552 0
 231 0020 FFF7FEFF 		bl	CPU_SR_Save
 232              	.LVL25:
 553:uCOS-III\Source/os_tmr.c ****     state = p_tmr->State;
 233              		.loc 1 553 0
 234 0024 94F82A40 		ldrb	r4, [r4, #42]	@ zero_extendqisi2
 235              	.LVL26:
 554:uCOS-III\Source/os_tmr.c ****     switch (state) {
 236              		.loc 1 554 0
 237 0028 032C     		cmp	r4, #3
 238 002a 02D8     		bhi	.L21
 555:uCOS-III\Source/os_tmr.c ****         case OS_TMR_STATE_UNUSED:
 556:uCOS-III\Source/os_tmr.c ****         case OS_TMR_STATE_STOPPED:
 557:uCOS-III\Source/os_tmr.c ****         case OS_TMR_STATE_COMPLETED:
 558:uCOS-III\Source/os_tmr.c ****         case OS_TMR_STATE_RUNNING:
 559:uCOS-III\Source/os_tmr.c ****             *p_err = OS_ERR_NONE;
 239              		.loc 1 559 0
 240 002c 0023     		movs	r3, #0
 241 002e 2B80     		strh	r3, [r5]	@ movhi
 560:uCOS-III\Source/os_tmr.c ****              break;
 242              		.loc 1 560 0
 243 0030 02E0     		b	.L23
 244              	.L21:
 561:uCOS-III\Source/os_tmr.c **** 
 562:uCOS-III\Source/os_tmr.c ****         default:
 563:uCOS-III\Source/os_tmr.c ****             *p_err = OS_ERR_TMR_INVALID_STATE;
 245              		.loc 1 563 0
 246 0032 47F24133 		movw	r3, #29505
 247 0036 2B80     		strh	r3, [r5]	@ movhi
 248              	.L23:
 564:uCOS-III\Source/os_tmr.c ****              break;
 565:uCOS-III\Source/os_tmr.c ****     }
 566:uCOS-III\Source/os_tmr.c ****     CPU_CRITICAL_EXIT();
 249              		.loc 1 566 0
 250 0038 FFF7FEFF 		bl	CPU_SR_Restore
 251              	.LVL27:
 567:uCOS-III\Source/os_tmr.c ****     return (state);
 252              		.loc 1 567 0
 253 003c 2346     		mov	r3, r4
 254              	.LVL28:
 255              	.L19:
 568:uCOS-III\Source/os_tmr.c **** }
ARM GAS  C:\Users\jorti\AppData\Local\Temp\ccmiXXpF.s 			page 16


 256              		.loc 1 568 0
 257 003e 1846     		mov	r0, r3
 258 0040 38BD     		pop	{r3, r4, r5, pc}
 259              	.L26:
 260 0042 00BF     		.align	2
 261              	.L25:
 262 0044 00000000 		.word	OSIntNestingCtr
 263              		.cfi_endproc
 264              	.LFE5:
 265              		.size	OSTmrStateGet, .-OSTmrStateGet
 266              		.section	.text.OS_TmrClr,"ax",%progbits
 267              		.align	2
 268              		.global	OS_TmrClr
 269              		.thumb
 270              		.thumb_func
 271              		.type	OS_TmrClr, %function
 272              	OS_TmrClr:
 273              	.LFB7:
 569:uCOS-III\Source/os_tmr.c **** 
 570:uCOS-III\Source/os_tmr.c **** /*$PAGE*/
 571:uCOS-III\Source/os_tmr.c **** /*
 572:uCOS-III\Source/os_tmr.c **** ***************************************************************************************************
 573:uCOS-III\Source/os_tmr.c **** *                                                    STOP A TIMER
 574:uCOS-III\Source/os_tmr.c **** *
 575:uCOS-III\Source/os_tmr.c **** * Description: This function is called by your application code to stop a timer.
 576:uCOS-III\Source/os_tmr.c **** *
 577:uCOS-III\Source/os_tmr.c **** * Arguments  : p_tmr          Is a pointer to the timer to stop.
 578:uCOS-III\Source/os_tmr.c **** *
 579:uCOS-III\Source/os_tmr.c **** *              opt           Allows you to specify an option to this functions which can be:
 580:uCOS-III\Source/os_tmr.c **** *
 581:uCOS-III\Source/os_tmr.c **** *                               OS_OPT_TMR_NONE            Do nothing special but stop the timer
 582:uCOS-III\Source/os_tmr.c **** *                               OS_OPT_TMR_CALLBACK        Execute the callback function, pass it t
 583:uCOS-III\Source/os_tmr.c **** *                                                          specified when the timer was created.
 584:uCOS-III\Source/os_tmr.c **** *                               OS_OPT_TMR_CALLBACK_ARG    Execute the callback function, pass it t
 585:uCOS-III\Source/os_tmr.c **** *                                                          specified in THIS function call
 586:uCOS-III\Source/os_tmr.c **** *
 587:uCOS-III\Source/os_tmr.c **** *              callback_arg  Is a pointer to a 'new' callback argument that can be passed to the ca
 588:uCOS-III\Source/os_tmr.c **** *                               instead of the timer's callback argument.  In other words, use 'cal
 589:uCOS-III\Source/os_tmr.c **** *                               THIS function INSTEAD of p_tmr->OSTmrCallbackArg
 590:uCOS-III\Source/os_tmr.c **** *
 591:uCOS-III\Source/os_tmr.c **** *              p_err          Is a pointer to an error code.  '*p_err' will contain one of the foll
 592:uCOS-III\Source/os_tmr.c **** *                               OS_ERR_NONE
 593:uCOS-III\Source/os_tmr.c **** *                               OS_ERR_OBJ_TYPE            if 'p_tmr' is not pointing to a timer
 594:uCOS-III\Source/os_tmr.c **** *                               OS_ERR_OPT_INVALID         if you specified an invalid option for '
 595:uCOS-III\Source/os_tmr.c **** *                               OS_ERR_TMR_INACTIVE        if the timer was not created
 596:uCOS-III\Source/os_tmr.c **** *                               OS_ERR_TMR_INVALID         'p_tmr' is a NULL pointer
 597:uCOS-III\Source/os_tmr.c **** *                               OS_ERR_TMR_INVALID_STATE   the timer is in an invalid state
 598:uCOS-III\Source/os_tmr.c **** *                               OS_ERR_TMR_ISR             if the function was called from an ISR
 599:uCOS-III\Source/os_tmr.c **** *                               OS_ERR_TMR_NO_CALLBACK     if the timer does not have a callback fu
 600:uCOS-III\Source/os_tmr.c **** *                               OS_ERR_TMR_STOPPED         if the timer was already stopped
 601:uCOS-III\Source/os_tmr.c **** *
 602:uCOS-III\Source/os_tmr.c **** * Returns    : DEF_TRUE       If we stopped the timer (if the timer is already stopped, we also ret
 603:uCOS-III\Source/os_tmr.c **** *              DEF_FALSE      If not
 604:uCOS-III\Source/os_tmr.c **** ***************************************************************************************************
 605:uCOS-III\Source/os_tmr.c **** */
 606:uCOS-III\Source/os_tmr.c **** 
 607:uCOS-III\Source/os_tmr.c **** CPU_BOOLEAN  OSTmrStop (OS_TMR  *p_tmr,
ARM GAS  C:\Users\jorti\AppData\Local\Temp\ccmiXXpF.s 			page 17


 608:uCOS-III\Source/os_tmr.c ****                         OS_OPT   opt,
 609:uCOS-III\Source/os_tmr.c ****                         void    *p_callback_arg,
 610:uCOS-III\Source/os_tmr.c ****                         OS_ERR  *p_err)
 611:uCOS-III\Source/os_tmr.c **** {
 612:uCOS-III\Source/os_tmr.c ****     OS_TMR_CALLBACK_PTR  p_fnct;
 613:uCOS-III\Source/os_tmr.c ****     OS_ERR               err;
 614:uCOS-III\Source/os_tmr.c ****     CPU_BOOLEAN          success;
 615:uCOS-III\Source/os_tmr.c **** 
 616:uCOS-III\Source/os_tmr.c **** 
 617:uCOS-III\Source/os_tmr.c **** 
 618:uCOS-III\Source/os_tmr.c **** #ifdef OS_SAFETY_CRITICAL
 619:uCOS-III\Source/os_tmr.c ****     if (p_err == (OS_ERR *)0) {
 620:uCOS-III\Source/os_tmr.c ****         OS_SAFETY_CRITICAL_EXCEPTION();
 621:uCOS-III\Source/os_tmr.c ****         return (DEF_FALSE);
 622:uCOS-III\Source/os_tmr.c ****     }
 623:uCOS-III\Source/os_tmr.c **** #endif
 624:uCOS-III\Source/os_tmr.c **** 
 625:uCOS-III\Source/os_tmr.c **** #if OS_CFG_CALLED_FROM_ISR_CHK_EN > 0u
 626:uCOS-III\Source/os_tmr.c ****     if (OSIntNestingCtr > (OS_NESTING_CTR)0) {                        /* See if trying to call from
 627:uCOS-III\Source/os_tmr.c ****        *p_err = OS_ERR_TMR_ISR;
 628:uCOS-III\Source/os_tmr.c ****         return (DEF_FALSE);
 629:uCOS-III\Source/os_tmr.c ****     }
 630:uCOS-III\Source/os_tmr.c **** #endif
 631:uCOS-III\Source/os_tmr.c **** 
 632:uCOS-III\Source/os_tmr.c **** #if OS_CFG_ARG_CHK_EN > 0u
 633:uCOS-III\Source/os_tmr.c ****     if (p_tmr == (OS_TMR *)0) {
 634:uCOS-III\Source/os_tmr.c ****        *p_err = OS_ERR_TMR_INVALID;
 635:uCOS-III\Source/os_tmr.c ****         return (DEF_FALSE);
 636:uCOS-III\Source/os_tmr.c ****     }
 637:uCOS-III\Source/os_tmr.c **** #endif
 638:uCOS-III\Source/os_tmr.c **** 
 639:uCOS-III\Source/os_tmr.c **** #if OS_CFG_OBJ_TYPE_CHK_EN > 0u
 640:uCOS-III\Source/os_tmr.c ****     if (p_tmr->Type != OS_OBJ_TYPE_TMR) {                             /* Make sure timer was create
 641:uCOS-III\Source/os_tmr.c ****        *p_err = OS_ERR_OBJ_TYPE;
 642:uCOS-III\Source/os_tmr.c ****         return (DEF_FALSE);
 643:uCOS-III\Source/os_tmr.c ****     }
 644:uCOS-III\Source/os_tmr.c **** #endif
 645:uCOS-III\Source/os_tmr.c **** 
 646:uCOS-III\Source/os_tmr.c ****     OSSchedLock(&err);
 647:uCOS-III\Source/os_tmr.c ****     switch (p_tmr->State) {
 648:uCOS-III\Source/os_tmr.c ****         case OS_TMR_STATE_RUNNING:
 649:uCOS-III\Source/os_tmr.c ****              OS_TmrUnlink(p_tmr);                                     /* Remove from current wheel 
 650:uCOS-III\Source/os_tmr.c ****             *p_err = OS_ERR_NONE;
 651:uCOS-III\Source/os_tmr.c ****              switch (opt) {
 652:uCOS-III\Source/os_tmr.c ****                  case OS_OPT_TMR_CALLBACK:
 653:uCOS-III\Source/os_tmr.c ****                       p_fnct = p_tmr->CallbackPtr;                         /* Execute callback func
 654:uCOS-III\Source/os_tmr.c ****                       if (p_fnct != (OS_TMR_CALLBACK_PTR)0) {              /* ... if available     
 655:uCOS-III\Source/os_tmr.c ****                         (*p_fnct)((void *)p_tmr, p_tmr->CallbackPtrArg);   /* Use callback arg when
 656:uCOS-III\Source/os_tmr.c ****                       } else {
 657:uCOS-III\Source/os_tmr.c ****                          *p_err = OS_ERR_TMR_NO_CALLBACK;
 658:uCOS-III\Source/os_tmr.c ****                       }
 659:uCOS-III\Source/os_tmr.c ****                       break;
 660:uCOS-III\Source/os_tmr.c **** 
 661:uCOS-III\Source/os_tmr.c ****                  case OS_OPT_TMR_CALLBACK_ARG:
 662:uCOS-III\Source/os_tmr.c ****                       p_fnct = p_tmr->CallbackPtr;                    /* Execute callback function 
 663:uCOS-III\Source/os_tmr.c ****                       if (p_fnct != (OS_TMR_CALLBACK_PTR)0) {
 664:uCOS-III\Source/os_tmr.c ****                         (*p_fnct)((void *)p_tmr, p_callback_arg);     /* .. using the 'callback_arg
ARM GAS  C:\Users\jorti\AppData\Local\Temp\ccmiXXpF.s 			page 18


 665:uCOS-III\Source/os_tmr.c ****                       } else {
 666:uCOS-III\Source/os_tmr.c ****                          *p_err = OS_ERR_TMR_NO_CALLBACK;
 667:uCOS-III\Source/os_tmr.c ****                       }
 668:uCOS-III\Source/os_tmr.c ****                       break;
 669:uCOS-III\Source/os_tmr.c **** 
 670:uCOS-III\Source/os_tmr.c ****                  case OS_OPT_TMR_NONE:
 671:uCOS-III\Source/os_tmr.c ****                       break;
 672:uCOS-III\Source/os_tmr.c **** 
 673:uCOS-III\Source/os_tmr.c ****                  default:
 674:uCOS-III\Source/os_tmr.c ****                      OSSchedUnlock(&err);
 675:uCOS-III\Source/os_tmr.c ****                     *p_err = OS_ERR_OPT_INVALID;
 676:uCOS-III\Source/os_tmr.c ****                      return (DEF_FALSE);
 677:uCOS-III\Source/os_tmr.c ****              }
 678:uCOS-III\Source/os_tmr.c ****              OSSchedUnlock(&err);
 679:uCOS-III\Source/os_tmr.c ****              success = DEF_TRUE;
 680:uCOS-III\Source/os_tmr.c ****              break;
 681:uCOS-III\Source/os_tmr.c **** 
 682:uCOS-III\Source/os_tmr.c ****         case OS_TMR_STATE_COMPLETED:                                  /* Timer has already complete
 683:uCOS-III\Source/os_tmr.c ****         case OS_TMR_STATE_STOPPED:                                    /* ... timer has not started 
 684:uCOS-III\Source/os_tmr.c ****              OSSchedUnlock(&err);
 685:uCOS-III\Source/os_tmr.c ****             *p_err   = OS_ERR_TMR_STOPPED;
 686:uCOS-III\Source/os_tmr.c ****              success = DEF_TRUE;
 687:uCOS-III\Source/os_tmr.c ****              break;
 688:uCOS-III\Source/os_tmr.c **** 
 689:uCOS-III\Source/os_tmr.c ****         case OS_TMR_STATE_UNUSED:                                     /* Timer was not created     
 690:uCOS-III\Source/os_tmr.c ****              OSSchedUnlock(&err);
 691:uCOS-III\Source/os_tmr.c ****             *p_err   = OS_ERR_TMR_INACTIVE;
 692:uCOS-III\Source/os_tmr.c ****              success = DEF_FALSE;
 693:uCOS-III\Source/os_tmr.c ****              break;
 694:uCOS-III\Source/os_tmr.c **** 
 695:uCOS-III\Source/os_tmr.c ****         default:
 696:uCOS-III\Source/os_tmr.c ****              OSSchedUnlock(&err);
 697:uCOS-III\Source/os_tmr.c ****             *p_err   = OS_ERR_TMR_INVALID_STATE;
 698:uCOS-III\Source/os_tmr.c ****              success = DEF_FALSE;
 699:uCOS-III\Source/os_tmr.c ****              break;
 700:uCOS-III\Source/os_tmr.c ****     }
 701:uCOS-III\Source/os_tmr.c ****     return (success);
 702:uCOS-III\Source/os_tmr.c **** }
 703:uCOS-III\Source/os_tmr.c **** 
 704:uCOS-III\Source/os_tmr.c **** /*$PAGE*/
 705:uCOS-III\Source/os_tmr.c **** /*
 706:uCOS-III\Source/os_tmr.c **** ***************************************************************************************************
 707:uCOS-III\Source/os_tmr.c **** *                                                 CLEAR TIMER FIELDS
 708:uCOS-III\Source/os_tmr.c **** *
 709:uCOS-III\Source/os_tmr.c **** * Description: This function is called to clear all timer fields.
 710:uCOS-III\Source/os_tmr.c **** *
 711:uCOS-III\Source/os_tmr.c **** * Argument(s): p_tmr    is a pointer to the timer to clear
 712:uCOS-III\Source/os_tmr.c **** *              -----
 713:uCOS-III\Source/os_tmr.c **** *
 714:uCOS-III\Source/os_tmr.c **** * Returns    : none
 715:uCOS-III\Source/os_tmr.c **** *
 716:uCOS-III\Source/os_tmr.c **** * Note(s)    : 1) This function is INTERNAL to uC/OS-III and your application MUST NOT call it.
 717:uCOS-III\Source/os_tmr.c **** ***************************************************************************************************
 718:uCOS-III\Source/os_tmr.c **** */
 719:uCOS-III\Source/os_tmr.c **** 
 720:uCOS-III\Source/os_tmr.c **** void  OS_TmrClr (OS_TMR  *p_tmr)
 721:uCOS-III\Source/os_tmr.c **** {
ARM GAS  C:\Users\jorti\AppData\Local\Temp\ccmiXXpF.s 			page 19


 274              		.loc 1 721 0
 275              		.cfi_startproc
 276              		@ args = 0, pretend = 0, frame = 0
 277              		@ frame_needed = 0, uses_anonymous_args = 0
 278              		@ link register save eliminated.
 279              	.LVL29:
 722:uCOS-III\Source/os_tmr.c ****     p_tmr->State          = OS_TMR_STATE_UNUSED;            /* Clear timer fields                  
 280              		.loc 1 722 0
 281 0000 0023     		movs	r3, #0
 282 0002 80F82A30 		strb	r3, [r0, #42]
 723:uCOS-III\Source/os_tmr.c ****     p_tmr->Type           = OS_OBJ_TYPE_NONE;
 283              		.loc 1 723 0
 284 0006 074A     		ldr	r2, .L28
 285 0008 0260     		str	r2, [r0]
 724:uCOS-III\Source/os_tmr.c ****     p_tmr->NamePtr        = (CPU_CHAR          *)((void *)"?TMR");
 286              		.loc 1 724 0
 287 000a 074A     		ldr	r2, .L28+4
 288 000c 4260     		str	r2, [r0, #4]
 725:uCOS-III\Source/os_tmr.c ****     p_tmr->Dly            = (OS_TICK            )0;
 289              		.loc 1 725 0
 290 000e 0362     		str	r3, [r0, #32]
 726:uCOS-III\Source/os_tmr.c ****     p_tmr->Match          = (OS_TICK            )0;
 291              		.loc 1 726 0
 292 0010 8361     		str	r3, [r0, #24]
 727:uCOS-III\Source/os_tmr.c ****     p_tmr->Remain         = (OS_TICK            )0;
 293              		.loc 1 727 0
 294 0012 C361     		str	r3, [r0, #28]
 728:uCOS-III\Source/os_tmr.c ****     p_tmr->Period         = (OS_TICK            )0;
 295              		.loc 1 728 0
 296 0014 4362     		str	r3, [r0, #36]
 729:uCOS-III\Source/os_tmr.c ****     p_tmr->Opt            = (OS_OPT             )0;
 297              		.loc 1 729 0
 298 0016 0385     		strh	r3, [r0, #40]	@ movhi
 730:uCOS-III\Source/os_tmr.c ****     p_tmr->CallbackPtr    = (OS_TMR_CALLBACK_PTR)0;
 299              		.loc 1 730 0
 300 0018 8360     		str	r3, [r0, #8]
 731:uCOS-III\Source/os_tmr.c ****     p_tmr->CallbackPtrArg = (void              *)0;
 301              		.loc 1 731 0
 302 001a C360     		str	r3, [r0, #12]
 732:uCOS-III\Source/os_tmr.c ****     p_tmr->NextPtr        = (OS_TMR            *)0;
 303              		.loc 1 732 0
 304 001c 0361     		str	r3, [r0, #16]
 733:uCOS-III\Source/os_tmr.c ****     p_tmr->PrevPtr        = (OS_TMR            *)0;
 305              		.loc 1 733 0
 306 001e 4361     		str	r3, [r0, #20]
 307 0020 7047     		bx	lr
 308              	.L29:
 309 0022 00BF     		.align	2
 310              	.L28:
 311 0024 4E4F4E45 		.word	1162760014
 312 0028 00000000 		.word	.LC0
 313              		.cfi_endproc
 314              	.LFE7:
 315              		.size	OS_TmrClr, .-OS_TmrClr
 316              		.section	.text.OS_TmrDbgListAdd,"ax",%progbits
 317              		.align	2
 318              		.global	OS_TmrDbgListAdd
ARM GAS  C:\Users\jorti\AppData\Local\Temp\ccmiXXpF.s 			page 20


 319              		.thumb
 320              		.thumb_func
 321              		.type	OS_TmrDbgListAdd, %function
 322              	OS_TmrDbgListAdd:
 323              	.LFB8:
 734:uCOS-III\Source/os_tmr.c **** }
 735:uCOS-III\Source/os_tmr.c **** 
 736:uCOS-III\Source/os_tmr.c **** /*$PAGE*/
 737:uCOS-III\Source/os_tmr.c **** /*
 738:uCOS-III\Source/os_tmr.c **** ***************************************************************************************************
 739:uCOS-III\Source/os_tmr.c **** *                                         ADD/REMOVE TIMER TO/FROM DEBUG TABLE
 740:uCOS-III\Source/os_tmr.c **** *
 741:uCOS-III\Source/os_tmr.c **** * Description: These functions are called by uC/OS-III to add or remove a timer to/from a timer deb
 742:uCOS-III\Source/os_tmr.c **** *
 743:uCOS-III\Source/os_tmr.c **** * Arguments  : p_tmr     is a pointer to the timer to add/remove
 744:uCOS-III\Source/os_tmr.c **** *
 745:uCOS-III\Source/os_tmr.c **** * Returns    : none
 746:uCOS-III\Source/os_tmr.c **** *
 747:uCOS-III\Source/os_tmr.c **** * Note(s)    : These functions are INTERNAL to uC/OS-III and your application should not call it.
 748:uCOS-III\Source/os_tmr.c **** ***************************************************************************************************
 749:uCOS-III\Source/os_tmr.c **** */
 750:uCOS-III\Source/os_tmr.c **** 
 751:uCOS-III\Source/os_tmr.c **** 
 752:uCOS-III\Source/os_tmr.c **** #if OS_CFG_DBG_EN > 0u
 753:uCOS-III\Source/os_tmr.c **** void  OS_TmrDbgListAdd (OS_TMR  *p_tmr)
 754:uCOS-III\Source/os_tmr.c **** {
 324              		.loc 1 754 0
 325              		.cfi_startproc
 326              		@ args = 0, pretend = 0, frame = 0
 327              		@ frame_needed = 0, uses_anonymous_args = 0
 328              		@ link register save eliminated.
 329              	.LVL30:
 755:uCOS-III\Source/os_tmr.c ****     p_tmr->DbgPrevPtr               = (OS_TMR *)0;
 330              		.loc 1 755 0
 331 0000 0023     		movs	r3, #0
 332 0002 C362     		str	r3, [r0, #44]
 756:uCOS-III\Source/os_tmr.c ****     if (OSTmrDbgListPtr == (OS_TMR *)0) {
 333              		.loc 1 756 0
 334 0004 044B     		ldr	r3, .L33
 335 0006 1B68     		ldr	r3, [r3]
 336 0008 0BB9     		cbnz	r3, .L31
 757:uCOS-III\Source/os_tmr.c ****         p_tmr->DbgNextPtr           = (OS_TMR *)0;
 337              		.loc 1 757 0
 338 000a 0363     		str	r3, [r0, #48]
 339 000c 01E0     		b	.L32
 340              	.L31:
 758:uCOS-III\Source/os_tmr.c ****     } else {
 759:uCOS-III\Source/os_tmr.c ****         p_tmr->DbgNextPtr           =  OSTmrDbgListPtr;
 341              		.loc 1 759 0
 342 000e 0363     		str	r3, [r0, #48]
 760:uCOS-III\Source/os_tmr.c ****         OSTmrDbgListPtr->DbgPrevPtr =  p_tmr;
 343              		.loc 1 760 0
 344 0010 D862     		str	r0, [r3, #44]
 345              	.L32:
 761:uCOS-III\Source/os_tmr.c ****     }
 762:uCOS-III\Source/os_tmr.c ****     OSTmrDbgListPtr                 =  p_tmr;
 346              		.loc 1 762 0
ARM GAS  C:\Users\jorti\AppData\Local\Temp\ccmiXXpF.s 			page 21


 347 0012 014B     		ldr	r3, .L33
 348 0014 1860     		str	r0, [r3]
 349 0016 7047     		bx	lr
 350              	.L34:
 351              		.align	2
 352              	.L33:
 353 0018 00000000 		.word	OSTmrDbgListPtr
 354              		.cfi_endproc
 355              	.LFE8:
 356              		.size	OS_TmrDbgListAdd, .-OS_TmrDbgListAdd
 357              		.section	.text.OSTmrCreate,"ax",%progbits
 358              		.align	2
 359              		.global	OSTmrCreate
 360              		.thumb
 361              		.thumb_func
 362              		.type	OSTmrCreate, %function
 363              	OSTmrCreate:
 364              	.LFB1:
 112:uCOS-III\Source/os_tmr.c ****     CPU_SR_ALLOC();
 365              		.loc 1 112 0
 366              		.cfi_startproc
 367              		@ args = 16, pretend = 0, frame = 0
 368              		@ frame_needed = 0, uses_anonymous_args = 0
 369              	.LVL31:
 370 0000 2DE9F843 		push	{r3, r4, r5, r6, r7, r8, r9, lr}
 371              		.cfi_def_cfa_offset 32
 372              		.cfi_offset 3, -32
 373              		.cfi_offset 4, -28
 374              		.cfi_offset 5, -24
 375              		.cfi_offset 6, -20
 376              		.cfi_offset 7, -16
 377              		.cfi_offset 8, -12
 378              		.cfi_offset 9, -8
 379              		.cfi_offset 14, -4
 380 0004 BDF82060 		ldrh	r6, [sp, #32]
 381              	.LVL32:
 132:uCOS-III\Source/os_tmr.c ****        *p_err = OS_ERR_TMR_ISR;
 382              		.loc 1 132 0
 383 0008 274D     		ldr	r5, .L45
 384 000a 2D78     		ldrb	r5, [r5]	@ zero_extendqisi2
 385 000c 2DB1     		cbz	r5, .L36
 133:uCOS-III\Source/os_tmr.c ****         return;
 386              		.loc 1 133 0
 387 000e 47F24333 		movw	r3, #29507
 388              	.LVL33:
 389 0012 0B9A     		ldr	r2, [sp, #44]
 390              	.LVL34:
 391 0014 1380     		strh	r3, [r2]	@ movhi
 134:uCOS-III\Source/os_tmr.c ****     }
 392              		.loc 1 134 0
 393 0016 BDE8F883 		pop	{r3, r4, r5, r6, r7, r8, r9, pc}
 394              	.LVL35:
 395              	.L36:
 139:uCOS-III\Source/os_tmr.c ****        *p_err = OS_ERR_OBJ_PTR_NULL;
 396              		.loc 1 139 0
 397 001a 28B9     		cbnz	r0, .L38
 140:uCOS-III\Source/os_tmr.c ****         return;
ARM GAS  C:\Users\jorti\AppData\Local\Temp\ccmiXXpF.s 			page 22


 398              		.loc 1 140 0
 399 001c 45F6C353 		movw	r3, #24003
 400              	.LVL36:
 401 0020 0B9A     		ldr	r2, [sp, #44]
 402              	.LVL37:
 403 0022 1380     		strh	r3, [r2]	@ movhi
 141:uCOS-III\Source/os_tmr.c ****     }
 404              		.loc 1 141 0
 405 0024 BDE8F883 		pop	{r3, r4, r5, r6, r7, r8, r9, pc}
 406              	.LVL38:
 407              	.L38:
 144:uCOS-III\Source/os_tmr.c ****         case OS_OPT_TMR_PERIODIC:
 408              		.loc 1 144 0
 409 0028 012E     		cmp	r6, #1
 410 002a 08D0     		beq	.L40
 411 002c 022E     		cmp	r6, #2
 412 002e 0DD1     		bne	.L43
 146:uCOS-III\Source/os_tmr.c ****                 *p_err = OS_ERR_TMR_INVALID_PERIOD;
 413              		.loc 1 146 0
 414 0030 93B9     		cbnz	r3, .L42
 147:uCOS-III\Source/os_tmr.c ****                  return;
 415              		.loc 1 147 0
 416 0032 47F24033 		movw	r3, #29504
 417              	.LVL39:
 418 0036 0B9A     		ldr	r2, [sp, #44]
 419              	.LVL40:
 420 0038 1380     		strh	r3, [r2]	@ movhi
 148:uCOS-III\Source/os_tmr.c ****              }
 421              		.loc 1 148 0
 422 003a BDE8F883 		pop	{r3, r4, r5, r6, r7, r8, r9, pc}
 423              	.LVL41:
 424              	.L40:
 153:uCOS-III\Source/os_tmr.c ****                 *p_err = OS_ERR_TMR_INVALID_DLY;
 425              		.loc 1 153 0
 426 003e 5AB9     		cbnz	r2, .L42
 154:uCOS-III\Source/os_tmr.c ****                  return;
 427              		.loc 1 154 0
 428 0040 47F23F33 		movw	r3, #29503
 429              	.LVL42:
 430 0044 0B9A     		ldr	r2, [sp, #44]
 431              	.LVL43:
 432 0046 1380     		strh	r3, [r2]	@ movhi
 155:uCOS-III\Source/os_tmr.c ****              }
 433              		.loc 1 155 0
 434 0048 BDE8F883 		pop	{r3, r4, r5, r6, r7, r8, r9, pc}
 435              	.LVL44:
 436              	.L43:
 160:uCOS-III\Source/os_tmr.c ****              return;
 437              		.loc 1 160 0
 438 004c 45F62563 		movw	r3, #24101
 439              	.LVL45:
 440 0050 0B9A     		ldr	r2, [sp, #44]
 441              	.LVL46:
 442 0052 1380     		strh	r3, [r2]	@ movhi
 161:uCOS-III\Source/os_tmr.c ****     }
 443              		.loc 1 161 0
 444 0054 BDE8F883 		pop	{r3, r4, r5, r6, r7, r8, r9, pc}
ARM GAS  C:\Users\jorti\AppData\Local\Temp\ccmiXXpF.s 			page 23


 445              	.LVL47:
 446              	.L42:
 447 0058 1F46     		mov	r7, r3
 448 005a 1546     		mov	r5, r2
 449 005c 8846     		mov	r8, r1
 450 005e 0446     		mov	r4, r0
 165:uCOS-III\Source/os_tmr.c ****     p_tmr->State          = (OS_STATE           )OS_TMR_STATE_STOPPED;     /* Initialize the timer 
 451              		.loc 1 165 0
 452 0060 FFF7FEFF 		bl	CPU_SR_Save
 453              	.LVL48:
 454 0064 8146     		mov	r9, r0
 455              	.LVL49:
 166:uCOS-III\Source/os_tmr.c ****     p_tmr->Type           = (OS_OBJ_TYPE        )OS_OBJ_TYPE_TMR;
 456              		.loc 1 166 0
 457 0066 0123     		movs	r3, #1
 458 0068 84F82A30 		strb	r3, [r4, #42]
 167:uCOS-III\Source/os_tmr.c ****     p_tmr->NamePtr        = (CPU_CHAR          *)p_name;
 459              		.loc 1 167 0
 460 006c 0F4B     		ldr	r3, .L45+4
 461 006e 2360     		str	r3, [r4]
 168:uCOS-III\Source/os_tmr.c ****     p_tmr->Dly            = (OS_TICK            )dly;
 462              		.loc 1 168 0
 463 0070 C4F80480 		str	r8, [r4, #4]
 169:uCOS-III\Source/os_tmr.c ****     p_tmr->Match          = (OS_TICK            )0;
 464              		.loc 1 169 0
 465 0074 2562     		str	r5, [r4, #32]
 170:uCOS-III\Source/os_tmr.c ****     p_tmr->Remain         = (OS_TICK            )0;
 466              		.loc 1 170 0
 467 0076 0025     		movs	r5, #0
 468              	.LVL50:
 469 0078 A561     		str	r5, [r4, #24]
 171:uCOS-III\Source/os_tmr.c ****     p_tmr->Period         = (OS_TICK            )period;
 470              		.loc 1 171 0
 471 007a E561     		str	r5, [r4, #28]
 172:uCOS-III\Source/os_tmr.c ****     p_tmr->Opt            = (OS_OPT             )opt;
 472              		.loc 1 172 0
 473 007c 6762     		str	r7, [r4, #36]
 173:uCOS-III\Source/os_tmr.c ****     p_tmr->CallbackPtr    = (OS_TMR_CALLBACK_PTR)p_callback;
 474              		.loc 1 173 0
 475 007e 2685     		strh	r6, [r4, #40]	@ movhi
 174:uCOS-III\Source/os_tmr.c ****     p_tmr->CallbackPtrArg = (void              *)p_callback_arg;
 476              		.loc 1 174 0
 477 0080 099B     		ldr	r3, [sp, #36]
 478 0082 A360     		str	r3, [r4, #8]
 175:uCOS-III\Source/os_tmr.c ****     p_tmr->NextPtr        = (OS_TMR            *)0;
 479              		.loc 1 175 0
 480 0084 0A9B     		ldr	r3, [sp, #40]
 481 0086 E360     		str	r3, [r4, #12]
 176:uCOS-III\Source/os_tmr.c ****     p_tmr->PrevPtr        = (OS_TMR            *)0;
 482              		.loc 1 176 0
 483 0088 2561     		str	r5, [r4, #16]
 177:uCOS-III\Source/os_tmr.c **** 
 484              		.loc 1 177 0
 485 008a 6561     		str	r5, [r4, #20]
 180:uCOS-III\Source/os_tmr.c **** #endif
 486              		.loc 1 180 0
 487 008c 2046     		mov	r0, r4
ARM GAS  C:\Users\jorti\AppData\Local\Temp\ccmiXXpF.s 			page 24


 488              	.LVL51:
 489 008e FFF7FEFF 		bl	OS_TmrDbgListAdd
 490              	.LVL52:
 182:uCOS-III\Source/os_tmr.c **** 
 491              		.loc 1 182 0
 492 0092 074A     		ldr	r2, .L45+8
 493 0094 1388     		ldrh	r3, [r2]
 494 0096 0133     		adds	r3, r3, #1
 495 0098 1380     		strh	r3, [r2]	@ movhi
 184:uCOS-III\Source/os_tmr.c ****    *p_err = OS_ERR_NONE;
 496              		.loc 1 184 0
 497 009a 4846     		mov	r0, r9
 498 009c FFF7FEFF 		bl	CPU_SR_Restore
 499              	.LVL53:
 185:uCOS-III\Source/os_tmr.c **** }
 500              		.loc 1 185 0
 501 00a0 0B9B     		ldr	r3, [sp, #44]
 502 00a2 1D80     		strh	r5, [r3]	@ movhi
 503 00a4 BDE8F883 		pop	{r3, r4, r5, r6, r7, r8, r9, pc}
 504              	.LVL54:
 505              	.L46:
 506              		.align	2
 507              	.L45:
 508 00a8 00000000 		.word	OSIntNestingCtr
 509 00ac 544D5220 		.word	542264660
 510 00b0 00000000 		.word	OSTmrQty
 511              		.cfi_endproc
 512              	.LFE1:
 513              		.size	OSTmrCreate, .-OSTmrCreate
 514              		.section	.text.OS_TmrDbgListRemove,"ax",%progbits
 515              		.align	2
 516              		.global	OS_TmrDbgListRemove
 517              		.thumb
 518              		.thumb_func
 519              		.type	OS_TmrDbgListRemove, %function
 520              	OS_TmrDbgListRemove:
 521              	.LFB9:
 763:uCOS-III\Source/os_tmr.c **** }
 764:uCOS-III\Source/os_tmr.c **** 
 765:uCOS-III\Source/os_tmr.c **** 
 766:uCOS-III\Source/os_tmr.c **** 
 767:uCOS-III\Source/os_tmr.c **** void  OS_TmrDbgListRemove (OS_TMR  *p_tmr)
 768:uCOS-III\Source/os_tmr.c **** {
 522              		.loc 1 768 0
 523              		.cfi_startproc
 524              		@ args = 0, pretend = 0, frame = 0
 525              		@ frame_needed = 0, uses_anonymous_args = 0
 526              		@ link register save eliminated.
 527              	.LVL55:
 769:uCOS-III\Source/os_tmr.c ****     OS_TMR  *p_tmr_next;
 770:uCOS-III\Source/os_tmr.c ****     OS_TMR  *p_tmr_prev;
 771:uCOS-III\Source/os_tmr.c **** 
 772:uCOS-III\Source/os_tmr.c **** 
 773:uCOS-III\Source/os_tmr.c ****     p_tmr_prev = p_tmr->DbgPrevPtr;
 528              		.loc 1 773 0
 529 0000 C26A     		ldr	r2, [r0, #44]
 530              	.LVL56:
ARM GAS  C:\Users\jorti\AppData\Local\Temp\ccmiXXpF.s 			page 25


 774:uCOS-III\Source/os_tmr.c ****     p_tmr_next = p_tmr->DbgNextPtr;
 531              		.loc 1 774 0
 532 0002 036B     		ldr	r3, [r0, #48]
 533              	.LVL57:
 775:uCOS-III\Source/os_tmr.c **** 
 776:uCOS-III\Source/os_tmr.c ****     if (p_tmr_prev == (OS_TMR *)0) {
 534              		.loc 1 776 0
 535 0004 3AB9     		cbnz	r2, .L48
 777:uCOS-III\Source/os_tmr.c ****         OSTmrDbgListPtr = p_tmr_next;
 536              		.loc 1 777 0
 537 0006 094A     		ldr	r2, .L52
 538              	.LVL58:
 539 0008 1360     		str	r3, [r2]
 778:uCOS-III\Source/os_tmr.c ****         if (p_tmr_next != (OS_TMR *)0) {
 540              		.loc 1 778 0
 541 000a 0BB1     		cbz	r3, .L49
 779:uCOS-III\Source/os_tmr.c ****             p_tmr_next->DbgPrevPtr = (OS_TMR *)0;
 542              		.loc 1 779 0
 543 000c 0022     		movs	r2, #0
 544 000e DA62     		str	r2, [r3, #44]
 545              	.LVL59:
 546              	.L49:
 780:uCOS-III\Source/os_tmr.c ****         }
 781:uCOS-III\Source/os_tmr.c ****         p_tmr->DbgNextPtr = (OS_TMR *)0;
 547              		.loc 1 781 0
 548 0010 0023     		movs	r3, #0
 549              	.LVL60:
 550 0012 0363     		str	r3, [r0, #48]
 551 0014 7047     		bx	lr
 552              	.LVL61:
 553              	.L48:
 782:uCOS-III\Source/os_tmr.c **** 
 783:uCOS-III\Source/os_tmr.c ****     } else if (p_tmr_next == (OS_TMR *)0) {
 554              		.loc 1 783 0
 555 0016 13B9     		cbnz	r3, .L51
 784:uCOS-III\Source/os_tmr.c ****         p_tmr_prev->DbgNextPtr = (OS_TMR *)0;
 556              		.loc 1 784 0
 557 0018 1363     		str	r3, [r2, #48]
 785:uCOS-III\Source/os_tmr.c ****         p_tmr->DbgPrevPtr      = (OS_TMR *)0;
 558              		.loc 1 785 0
 559 001a C362     		str	r3, [r0, #44]
 560 001c 7047     		bx	lr
 561              	.L51:
 786:uCOS-III\Source/os_tmr.c **** 
 787:uCOS-III\Source/os_tmr.c ****     } else {
 788:uCOS-III\Source/os_tmr.c ****         p_tmr_prev->DbgNextPtr =  p_tmr_next;
 562              		.loc 1 788 0
 563 001e 1363     		str	r3, [r2, #48]
 789:uCOS-III\Source/os_tmr.c ****         p_tmr_next->DbgPrevPtr =  p_tmr_prev;
 564              		.loc 1 789 0
 565 0020 DA62     		str	r2, [r3, #44]
 790:uCOS-III\Source/os_tmr.c ****         p_tmr->DbgNextPtr      = (OS_TMR *)0;
 566              		.loc 1 790 0
 567 0022 0023     		movs	r3, #0
 568              	.LVL62:
 569 0024 0363     		str	r3, [r0, #48]
 791:uCOS-III\Source/os_tmr.c ****         p_tmr->DbgPrevPtr      = (OS_TMR *)0;
ARM GAS  C:\Users\jorti\AppData\Local\Temp\ccmiXXpF.s 			page 26


 570              		.loc 1 791 0
 571 0026 C362     		str	r3, [r0, #44]
 572 0028 7047     		bx	lr
 573              	.L53:
 574 002a 00BF     		.align	2
 575              	.L52:
 576 002c 00000000 		.word	OSTmrDbgListPtr
 577              		.cfi_endproc
 578              	.LFE9:
 579              		.size	OS_TmrDbgListRemove, .-OS_TmrDbgListRemove
 580              		.section	.text.OS_TmrInit,"ax",%progbits
 581              		.align	2
 582              		.global	OS_TmrInit
 583              		.thumb
 584              		.thumb_func
 585              		.type	OS_TmrInit, %function
 586              	OS_TmrInit:
 587              	.LFB10:
 792:uCOS-III\Source/os_tmr.c ****     }
 793:uCOS-III\Source/os_tmr.c **** }
 794:uCOS-III\Source/os_tmr.c **** #endif
 795:uCOS-III\Source/os_tmr.c **** 
 796:uCOS-III\Source/os_tmr.c **** /*$PAGE*/
 797:uCOS-III\Source/os_tmr.c **** /*
 798:uCOS-III\Source/os_tmr.c **** ***************************************************************************************************
 799:uCOS-III\Source/os_tmr.c **** *                                             INITIALIZE THE TIMER MANAGER
 800:uCOS-III\Source/os_tmr.c **** *
 801:uCOS-III\Source/os_tmr.c **** * Description: This function is called by OSInit() to initialize the timer manager module.
 802:uCOS-III\Source/os_tmr.c **** *
 803:uCOS-III\Source/os_tmr.c **** * Argument(s): p_err    is a pointer to a variable that will contain an error code returned by this
 804:uCOS-III\Source/os_tmr.c **** *
 805:uCOS-III\Source/os_tmr.c **** *                           OS_ERR_NONE
 806:uCOS-III\Source/os_tmr.c **** *                           OS_ERR_TMR_STK_INVALID       if you didn't specify a stack for the time
 807:uCOS-III\Source/os_tmr.c **** *                           OS_ERR_TMR_STK_SIZE_INVALID  if you didn't allocate enough space for th
 808:uCOS-III\Source/os_tmr.c **** *                           OS_ERR_PRIO_INVALID          if you specified the same priority as the 
 809:uCOS-III\Source/os_tmr.c **** *                           OS_ERR_xxx                   any error code returned by OSTaskCreate()
 810:uCOS-III\Source/os_tmr.c **** *
 811:uCOS-III\Source/os_tmr.c **** * Returns    : none
 812:uCOS-III\Source/os_tmr.c **** *
 813:uCOS-III\Source/os_tmr.c **** * Note(s)    : 1) This function is INTERNAL to uC/OS-III and your application MUST NOT call it.
 814:uCOS-III\Source/os_tmr.c **** ***************************************************************************************************
 815:uCOS-III\Source/os_tmr.c **** */
 816:uCOS-III\Source/os_tmr.c **** 
 817:uCOS-III\Source/os_tmr.c **** void  OS_TmrInit (OS_ERR  *p_err)
 818:uCOS-III\Source/os_tmr.c **** {
 588              		.loc 1 818 0
 589              		.cfi_startproc
 590              		@ args = 0, pretend = 0, frame = 0
 591              		@ frame_needed = 0, uses_anonymous_args = 0
 592              	.LVL63:
 593 0000 10B5     		push	{r4, lr}
 594              		.cfi_def_cfa_offset 8
 595              		.cfi_offset 4, -8
 596              		.cfi_offset 14, -4
 597 0002 8AB0     		sub	sp, sp, #40
 598              		.cfi_def_cfa_offset 48
 819:uCOS-III\Source/os_tmr.c ****     OS_TMR_SPOKE_IX   i;
ARM GAS  C:\Users\jorti\AppData\Local\Temp\ccmiXXpF.s 			page 27


 820:uCOS-III\Source/os_tmr.c ****     OS_TMR_SPOKE     *p_spoke;
 821:uCOS-III\Source/os_tmr.c **** 
 822:uCOS-III\Source/os_tmr.c **** 
 823:uCOS-III\Source/os_tmr.c **** 
 824:uCOS-III\Source/os_tmr.c **** #ifdef OS_SAFETY_CRITICAL
 825:uCOS-III\Source/os_tmr.c ****     if (p_err == (OS_ERR *)0) {
 826:uCOS-III\Source/os_tmr.c ****         OS_SAFETY_CRITICAL_EXCEPTION();
 827:uCOS-III\Source/os_tmr.c ****         return;
 828:uCOS-III\Source/os_tmr.c ****     }
 829:uCOS-III\Source/os_tmr.c **** #endif
 830:uCOS-III\Source/os_tmr.c **** 
 831:uCOS-III\Source/os_tmr.c **** #if OS_CFG_DBG_EN > 0u
 832:uCOS-III\Source/os_tmr.c ****     OSTmrDbgListPtr = (OS_TMR *)0;
 599              		.loc 1 832 0
 600 0004 0022     		movs	r2, #0
 601 0006 2C4B     		ldr	r3, .L64
 602 0008 1A60     		str	r2, [r3]
 833:uCOS-III\Source/os_tmr.c **** #endif
 834:uCOS-III\Source/os_tmr.c **** 
 835:uCOS-III\Source/os_tmr.c ****     if (OSCfg_TmrTaskRate_Hz > (OS_RATE_HZ)0) {
 603              		.loc 1 835 0
 604 000a 2C4B     		ldr	r3, .L64+4
 605 000c 1B68     		ldr	r3, [r3]
 606 000e 33B1     		cbz	r3, .L55
 836:uCOS-III\Source/os_tmr.c ****         OSTmrUpdateCnt = OSCfg_TickRate_Hz / OSCfg_TmrTaskRate_Hz;
 607              		.loc 1 836 0
 608 0010 2B4A     		ldr	r2, .L64+8
 609 0012 1268     		ldr	r2, [r2]
 610 0014 B2FBF3F3 		udiv	r3, r2, r3
 611 0018 2A4A     		ldr	r2, .L64+12
 612 001a 1360     		str	r3, [r2]
 613 001c 07E0     		b	.L56
 614              	.L55:
 837:uCOS-III\Source/os_tmr.c ****     } else {
 838:uCOS-III\Source/os_tmr.c ****         OSTmrUpdateCnt = OSCfg_TickRate_Hz / (OS_RATE_HZ)10;
 615              		.loc 1 838 0
 616 001e 284B     		ldr	r3, .L64+8
 617 0020 1B68     		ldr	r3, [r3]
 618 0022 294A     		ldr	r2, .L64+16
 619 0024 A2FB0323 		umull	r2, r3, r2, r3
 620 0028 DB08     		lsrs	r3, r3, #3
 621 002a 264A     		ldr	r2, .L64+12
 622 002c 1360     		str	r3, [r2]
 623              	.L56:
 839:uCOS-III\Source/os_tmr.c ****     }
 840:uCOS-III\Source/os_tmr.c ****     OSTmrUpdateCtr   = OSTmrUpdateCnt;
 624              		.loc 1 840 0
 625 002e 254B     		ldr	r3, .L64+12
 626 0030 1A68     		ldr	r2, [r3]
 627 0032 264B     		ldr	r3, .L64+20
 628 0034 1A60     		str	r2, [r3]
 841:uCOS-III\Source/os_tmr.c **** 
 842:uCOS-III\Source/os_tmr.c ****     OSTmrTickCtr     = (OS_TICK)0;
 629              		.loc 1 842 0
 630 0036 0023     		movs	r3, #0
 631 0038 254A     		ldr	r2, .L64+24
 632 003a 1360     		str	r3, [r2]
ARM GAS  C:\Users\jorti\AppData\Local\Temp\ccmiXXpF.s 			page 28


 843:uCOS-III\Source/os_tmr.c **** 
 844:uCOS-III\Source/os_tmr.c ****     OSTmrTaskTimeMax = (CPU_TS)0;
 633              		.loc 1 844 0
 634 003c 254A     		ldr	r2, .L64+28
 635 003e 1360     		str	r3, [r2]
 636              	.LVL64:
 845:uCOS-III\Source/os_tmr.c **** 
 846:uCOS-III\Source/os_tmr.c ****     for (i = 0u; i < OSCfg_TmrWheelSize; i++) {
 637              		.loc 1 846 0
 638 0040 09E0     		b	.L57
 639              	.LVL65:
 640              	.L58:
 847:uCOS-III\Source/os_tmr.c ****         p_spoke                = &OSCfg_TmrWheel[i];
 848:uCOS-III\Source/os_tmr.c ****         p_spoke->NbrEntries    = (OS_OBJ_QTY)0;
 641              		.loc 1 848 0 discriminator 3
 642 0042 2549     		ldr	r1, .L64+32
 643 0044 01EBC304 		add	r4, r1, r3, lsl #3
 644 0048 0022     		movs	r2, #0
 645 004a A280     		strh	r2, [r4, #4]	@ movhi
 849:uCOS-III\Source/os_tmr.c ****         p_spoke->NbrEntriesMax = (OS_OBJ_QTY)0;
 646              		.loc 1 849 0 discriminator 3
 647 004c E280     		strh	r2, [r4, #6]	@ movhi
 850:uCOS-III\Source/os_tmr.c ****         p_spoke->FirstPtr      = (OS_TMR   *)0;
 648              		.loc 1 850 0 discriminator 3
 649 004e 41F83320 		str	r2, [r1, r3, lsl #3]
 846:uCOS-III\Source/os_tmr.c ****         p_spoke                = &OSCfg_TmrWheel[i];
 650              		.loc 1 846 0 discriminator 3
 651 0052 0133     		adds	r3, r3, #1
 652              	.LVL66:
 653 0054 9BB2     		uxth	r3, r3
 654              	.LVL67:
 655              	.L57:
 846:uCOS-III\Source/os_tmr.c ****         p_spoke                = &OSCfg_TmrWheel[i];
 656              		.loc 1 846 0 is_stmt 0 discriminator 1
 657 0056 214A     		ldr	r2, .L64+36
 658 0058 1288     		ldrh	r2, [r2]
 659 005a 9342     		cmp	r3, r2
 660 005c F1D3     		bcc	.L58
 851:uCOS-III\Source/os_tmr.c ****     }
 852:uCOS-III\Source/os_tmr.c **** 
 853:uCOS-III\Source/os_tmr.c ****                                                             /* ---------------- CREATE THE TIMER TA
 854:uCOS-III\Source/os_tmr.c ****     if (OSCfg_TmrTaskStkBasePtr == (CPU_STK*)0) {
 661              		.loc 1 854 0 is_stmt 1
 662 005e 204B     		ldr	r3, .L64+40
 663              	.LVL68:
 664 0060 1A68     		ldr	r2, [r3]
 665 0062 1AB9     		cbnz	r2, .L59
 855:uCOS-III\Source/os_tmr.c ****        *p_err = OS_ERR_TMR_STK_INVALID;
 666              		.loc 1 855 0
 667 0064 47F24733 		movw	r3, #29511
 668 0068 0380     		strh	r3, [r0]	@ movhi
 856:uCOS-III\Source/os_tmr.c ****         return;
 669              		.loc 1 856 0
 670 006a 23E0     		b	.L54
 671              	.L59:
 857:uCOS-III\Source/os_tmr.c ****     }
 858:uCOS-III\Source/os_tmr.c **** 
ARM GAS  C:\Users\jorti\AppData\Local\Temp\ccmiXXpF.s 			page 29


 859:uCOS-III\Source/os_tmr.c ****     if (OSCfg_TmrTaskStkSize < OSCfg_StkSizeMin) {
 672              		.loc 1 859 0
 673 006c 1D4B     		ldr	r3, .L64+44
 674 006e 1968     		ldr	r1, [r3]
 675 0070 1D4B     		ldr	r3, .L64+48
 676 0072 1B68     		ldr	r3, [r3]
 677 0074 9942     		cmp	r1, r3
 678 0076 03D2     		bcs	.L61
 860:uCOS-III\Source/os_tmr.c ****        *p_err = OS_ERR_TMR_STK_SIZE_INVALID;
 679              		.loc 1 860 0
 680 0078 47F24833 		movw	r3, #29512
 681 007c 0380     		strh	r3, [r0]	@ movhi
 861:uCOS-III\Source/os_tmr.c ****         return;
 682              		.loc 1 861 0
 683 007e 19E0     		b	.L54
 684              	.L61:
 862:uCOS-III\Source/os_tmr.c ****     }
 863:uCOS-III\Source/os_tmr.c **** 
 864:uCOS-III\Source/os_tmr.c ****     if (OSCfg_TmrTaskPrio >= (OS_CFG_PRIO_MAX - 1u)) {
 685              		.loc 1 864 0
 686 0080 1A4B     		ldr	r3, .L64+52
 687 0082 1C78     		ldrb	r4, [r3]	@ zero_extendqisi2
 688 0084 062C     		cmp	r4, #6
 689 0086 03D9     		bls	.L62
 865:uCOS-III\Source/os_tmr.c ****        *p_err = OS_ERR_TMR_PRIO_INVALID;
 690              		.loc 1 865 0
 691 0088 47F24633 		movw	r3, #29510
 692 008c 0380     		strh	r3, [r0]	@ movhi
 866:uCOS-III\Source/os_tmr.c ****         return;
 693              		.loc 1 866 0
 694 008e 11E0     		b	.L54
 695              	.L62:
 867:uCOS-III\Source/os_tmr.c ****     }
 868:uCOS-III\Source/os_tmr.c **** 
 869:uCOS-III\Source/os_tmr.c ****     OSTaskCreate((OS_TCB     *)&OSTmrTaskTCB,
 696              		.loc 1 869 0
 697 0090 0890     		str	r0, [sp, #32]
 698 0092 0B23     		movs	r3, #11
 699 0094 0793     		str	r3, [sp, #28]
 700 0096 0023     		movs	r3, #0
 701 0098 0693     		str	r3, [sp, #24]
 702 009a 0593     		str	r3, [sp, #20]
 703 009c 0493     		str	r3, [sp, #16]
 704 009e 0391     		str	r1, [sp, #12]
 705 00a0 1349     		ldr	r1, .L64+56
 706 00a2 0968     		ldr	r1, [r1]
 707 00a4 0291     		str	r1, [sp, #8]
 708 00a6 0192     		str	r2, [sp, #4]
 709 00a8 0094     		str	r4, [sp]
 710 00aa 124A     		ldr	r2, .L64+60
 711 00ac 1249     		ldr	r1, .L64+64
 712 00ae 1348     		ldr	r0, .L64+68
 713              	.LVL69:
 714 00b0 FFF7FEFF 		bl	OSTaskCreate
 715              	.LVL70:
 716              	.L54:
 870:uCOS-III\Source/os_tmr.c ****                  (CPU_CHAR   *)((void *)"uC/OS-III Timer Task"),
ARM GAS  C:\Users\jorti\AppData\Local\Temp\ccmiXXpF.s 			page 30


 871:uCOS-III\Source/os_tmr.c ****                  (OS_TASK_PTR )OS_TmrTask,
 872:uCOS-III\Source/os_tmr.c ****                  (void       *)0,
 873:uCOS-III\Source/os_tmr.c ****                  (OS_PRIO     )OSCfg_TmrTaskPrio,
 874:uCOS-III\Source/os_tmr.c ****                  (CPU_STK    *)OSCfg_TmrTaskStkBasePtr,
 875:uCOS-III\Source/os_tmr.c ****                  (CPU_STK_SIZE)OSCfg_TmrTaskStkLimit,
 876:uCOS-III\Source/os_tmr.c ****                  (CPU_STK_SIZE)OSCfg_TmrTaskStkSize,
 877:uCOS-III\Source/os_tmr.c ****                  (OS_MSG_QTY  )0,
 878:uCOS-III\Source/os_tmr.c ****                  (OS_TICK     )0,
 879:uCOS-III\Source/os_tmr.c ****                  (void       *)0,
 880:uCOS-III\Source/os_tmr.c ****                  (OS_OPT      )(OS_OPT_TASK_STK_CHK | OS_OPT_TASK_STK_CLR | OS_OPT_TASK_NO_TLS),
 881:uCOS-III\Source/os_tmr.c ****                  (OS_ERR     *)p_err);
 882:uCOS-III\Source/os_tmr.c **** }
 717              		.loc 1 882 0
 718 00b4 0AB0     		add	sp, sp, #40
 719              		.cfi_def_cfa_offset 8
 720              		@ sp needed
 721 00b6 10BD     		pop	{r4, pc}
 722              	.L65:
 723              		.align	2
 724              	.L64:
 725 00b8 00000000 		.word	OSTmrDbgListPtr
 726 00bc 00000000 		.word	OSCfg_TmrTaskRate_Hz
 727 00c0 00000000 		.word	OSCfg_TickRate_Hz
 728 00c4 00000000 		.word	OSTmrUpdateCnt
 729 00c8 CDCCCCCC 		.word	-858993459
 730 00cc 00000000 		.word	OSTmrUpdateCtr
 731 00d0 00000000 		.word	OSTmrTickCtr
 732 00d4 00000000 		.word	OSTmrTaskTimeMax
 733 00d8 00000000 		.word	OSCfg_TmrWheel
 734 00dc 00000000 		.word	OSCfg_TmrWheelSize
 735 00e0 00000000 		.word	OSCfg_TmrTaskStkBasePtr
 736 00e4 00000000 		.word	OSCfg_TmrTaskStkSize
 737 00e8 00000000 		.word	OSCfg_StkSizeMin
 738 00ec 00000000 		.word	OSCfg_TmrTaskPrio
 739 00f0 00000000 		.word	OSCfg_TmrTaskStkLimit
 740 00f4 00000000 		.word	OS_TmrTask
 741 00f8 08000000 		.word	.LC1
 742 00fc 00000000 		.word	OSTmrTaskTCB
 743              		.cfi_endproc
 744              	.LFE10:
 745              		.size	OS_TmrInit, .-OS_TmrInit
 746              		.section	.text.OS_TmrLink,"ax",%progbits
 747              		.align	2
 748              		.global	OS_TmrLink
 749              		.thumb
 750              		.thumb_func
 751              		.type	OS_TmrLink, %function
 752              	OS_TmrLink:
 753              	.LFB11:
 883:uCOS-III\Source/os_tmr.c **** 
 884:uCOS-III\Source/os_tmr.c **** /*$PAGE*/
 885:uCOS-III\Source/os_tmr.c **** /*
 886:uCOS-III\Source/os_tmr.c **** ***************************************************************************************************
 887:uCOS-III\Source/os_tmr.c **** *                                         INSERT A TIMER INTO THE TIMER WHEEL
 888:uCOS-III\Source/os_tmr.c **** *
 889:uCOS-III\Source/os_tmr.c **** * Description: This function is called to insert the timer into the timer wheel.  The timer is alwa
 890:uCOS-III\Source/os_tmr.c **** *              beginning of the list.
ARM GAS  C:\Users\jorti\AppData\Local\Temp\ccmiXXpF.s 			page 31


 891:uCOS-III\Source/os_tmr.c **** *
 892:uCOS-III\Source/os_tmr.c **** * Arguments  : p_tmr          Is a pointer to the timer to insert.
 893:uCOS-III\Source/os_tmr.c **** *              -----
 894:uCOS-III\Source/os_tmr.c **** *
 895:uCOS-III\Source/os_tmr.c **** *              opt            Is either:
 896:uCOS-III\Source/os_tmr.c **** *
 897:uCOS-III\Source/os_tmr.c **** *                               OS_OPT_LINK_PERIODIC    Means to re-insert the timer after a period
 898:uCOS-III\Source/os_tmr.c **** *                               OS_OPT_LINK_DLY         Means to insert    the timer the first time
 899:uCOS-III\Source/os_tmr.c **** *
 900:uCOS-III\Source/os_tmr.c **** * Returns    : none
 901:uCOS-III\Source/os_tmr.c **** *
 902:uCOS-III\Source/os_tmr.c **** * Note(s)    : 1) This function is INTERNAL to uC/OS-III and your application MUST NOT call it.
 903:uCOS-III\Source/os_tmr.c **** ***************************************************************************************************
 904:uCOS-III\Source/os_tmr.c **** */
 905:uCOS-III\Source/os_tmr.c **** 
 906:uCOS-III\Source/os_tmr.c **** void  OS_TmrLink (OS_TMR  *p_tmr,
 907:uCOS-III\Source/os_tmr.c ****                   OS_OPT   opt)
 908:uCOS-III\Source/os_tmr.c **** {
 754              		.loc 1 908 0
 755              		.cfi_startproc
 756              		@ args = 0, pretend = 0, frame = 0
 757              		@ frame_needed = 0, uses_anonymous_args = 0
 758              		@ link register save eliminated.
 759              	.LVL71:
 760 0000 10B4     		push	{r4}
 761              		.cfi_def_cfa_offset 4
 762              		.cfi_offset 4, -4
 909:uCOS-III\Source/os_tmr.c ****     OS_TMR_SPOKE     *p_spoke;
 910:uCOS-III\Source/os_tmr.c ****     OS_TMR           *p_tmr0;
 911:uCOS-III\Source/os_tmr.c ****     OS_TMR           *p_tmr1;
 912:uCOS-III\Source/os_tmr.c ****     OS_TMR_SPOKE_IX   spoke;
 913:uCOS-III\Source/os_tmr.c **** 
 914:uCOS-III\Source/os_tmr.c **** 
 915:uCOS-III\Source/os_tmr.c **** 
 916:uCOS-III\Source/os_tmr.c ****     p_tmr->State = OS_TMR_STATE_RUNNING;
 763              		.loc 1 916 0
 764 0002 0223     		movs	r3, #2
 765 0004 80F82A30 		strb	r3, [r0, #42]
 917:uCOS-III\Source/os_tmr.c ****     if (opt == OS_OPT_LINK_PERIODIC) {                      /* Determine when timer will expire    
 766              		.loc 1 917 0
 767 0008 0129     		cmp	r1, #1
 768 000a 05D1     		bne	.L67
 918:uCOS-III\Source/os_tmr.c ****         p_tmr->Match = p_tmr->Period + OSTmrTickCtr;
 769              		.loc 1 918 0
 770 000c 426A     		ldr	r2, [r0, #36]
 771 000e 334B     		ldr	r3, .L80
 772 0010 1B68     		ldr	r3, [r3]
 773 0012 1344     		add	r3, r3, r2
 774 0014 8361     		str	r3, [r0, #24]
 775 0016 0BE0     		b	.L68
 776              	.L67:
 919:uCOS-III\Source/os_tmr.c ****     } else {
 920:uCOS-III\Source/os_tmr.c ****         if (p_tmr->Dly == (OS_TICK)0) {
 777              		.loc 1 920 0
 778 0018 036A     		ldr	r3, [r0, #32]
 779 001a 2BB9     		cbnz	r3, .L69
 921:uCOS-III\Source/os_tmr.c ****             p_tmr->Match = p_tmr->Period + OSTmrTickCtr;
ARM GAS  C:\Users\jorti\AppData\Local\Temp\ccmiXXpF.s 			page 32


 780              		.loc 1 921 0
 781 001c 426A     		ldr	r2, [r0, #36]
 782 001e 2F4B     		ldr	r3, .L80
 783 0020 1B68     		ldr	r3, [r3]
 784 0022 1344     		add	r3, r3, r2
 785 0024 8361     		str	r3, [r0, #24]
 786 0026 03E0     		b	.L68
 787              	.L69:
 922:uCOS-III\Source/os_tmr.c ****         } else {
 923:uCOS-III\Source/os_tmr.c ****             p_tmr->Match = p_tmr->Dly    + OSTmrTickCtr;
 788              		.loc 1 923 0
 789 0028 2C4A     		ldr	r2, .L80
 790 002a 1268     		ldr	r2, [r2]
 791 002c 1344     		add	r3, r3, r2
 792 002e 8361     		str	r3, [r0, #24]
 793              	.L68:
 924:uCOS-III\Source/os_tmr.c ****         }
 925:uCOS-III\Source/os_tmr.c ****     }
 926:uCOS-III\Source/os_tmr.c ****     spoke  = (OS_TMR_SPOKE_IX)(p_tmr->Match % OSCfg_TmrWheelSize);
 794              		.loc 1 926 0
 795 0030 8369     		ldr	r3, [r0, #24]
 796 0032 2B4A     		ldr	r2, .L80+4
 797 0034 1488     		ldrh	r4, [r2]
 798 0036 B3FBF4F2 		udiv	r2, r3, r4
 799 003a 04FB1234 		mls	r4, r4, r2, r3
 800              	.LVL72:
 927:uCOS-III\Source/os_tmr.c ****     p_spoke = &OSCfg_TmrWheel[spoke];
 801              		.loc 1 927 0
 802 003e A4B2     		uxth	r4, r4
 803              	.LVL73:
 928:uCOS-III\Source/os_tmr.c **** 
 929:uCOS-III\Source/os_tmr.c ****     if (p_spoke->FirstPtr ==  (OS_TMR *)0) {                /* Link into timer wheel               
 804              		.loc 1 929 0
 805 0040 284A     		ldr	r2, .L80+8
 806 0042 52F83420 		ldr	r2, [r2, r4, lsl #3]
 807 0046 52B9     		cbnz	r2, .L70
 930:uCOS-III\Source/os_tmr.c ****         p_tmr->NextPtr      = (OS_TMR *)0;
 808              		.loc 1 930 0
 809 0048 0023     		movs	r3, #0
 810 004a 0361     		str	r3, [r0, #16]
 931:uCOS-III\Source/os_tmr.c ****         p_tmr->PrevPtr      = (OS_TMR *)0;
 811              		.loc 1 931 0
 812 004c 4361     		str	r3, [r0, #20]
 932:uCOS-III\Source/os_tmr.c ****         p_spoke->FirstPtr   = p_tmr;
 813              		.loc 1 932 0
 814 004e 254B     		ldr	r3, .L80+8
 815 0050 43F83400 		str	r0, [r3, r4, lsl #3]
 933:uCOS-III\Source/os_tmr.c ****         p_spoke->NbrEntries = 1u;
 816              		.loc 1 933 0
 817 0054 03EBC403 		add	r3, r3, r4, lsl #3
 818 0058 0122     		movs	r2, #1
 819 005a 9A80     		strh	r2, [r3, #4]	@ movhi
 820 005c 30E0     		b	.L71
 821              	.L70:
 934:uCOS-III\Source/os_tmr.c ****     } else {
 935:uCOS-III\Source/os_tmr.c ****         p_tmr->Remain  = p_tmr->Match                       /* Compute remaining time for timer    
 936:uCOS-III\Source/os_tmr.c ****                        - OSTmrTickCtr;
ARM GAS  C:\Users\jorti\AppData\Local\Temp\ccmiXXpF.s 			page 33


 822              		.loc 1 936 0
 823 005e 1F4A     		ldr	r2, .L80
 824 0060 1268     		ldr	r2, [r2]
 825 0062 9B1A     		subs	r3, r3, r2
 935:uCOS-III\Source/os_tmr.c ****                        - OSTmrTickCtr;
 826              		.loc 1 935 0
 827 0064 C361     		str	r3, [r0, #28]
 937:uCOS-III\Source/os_tmr.c ****         p_tmr1         = p_spoke->FirstPtr;                 /* Point to current first timer in the 
 828              		.loc 1 937 0
 829 0066 1F4B     		ldr	r3, .L80+8
 830 0068 53F83430 		ldr	r3, [r3, r4, lsl #3]
 831              	.LVL74:
 938:uCOS-III\Source/os_tmr.c ****         while (p_tmr1 != (OS_TMR *)0) {
 832              		.loc 1 938 0
 833 006c 20E0     		b	.L72
 834              	.LVL75:
 835              	.L76:
 939:uCOS-III\Source/os_tmr.c ****             p_tmr1->Remain = p_tmr1->Match                  /* Compute time remaining of current ti
 836              		.loc 1 939 0
 837 006e 9A69     		ldr	r2, [r3, #24]
 940:uCOS-III\Source/os_tmr.c ****                            - OSTmrTickCtr;
 838              		.loc 1 940 0
 839 0070 1A49     		ldr	r1, .L80
 840 0072 0968     		ldr	r1, [r1]
 841 0074 521A     		subs	r2, r2, r1
 939:uCOS-III\Source/os_tmr.c ****             p_tmr1->Remain = p_tmr1->Match                  /* Compute time remaining of current ti
 842              		.loc 1 939 0
 843 0076 DA61     		str	r2, [r3, #28]
 941:uCOS-III\Source/os_tmr.c ****             if (p_tmr->Remain > p_tmr1->Remain) {           /* Do we need to insert AFTER current t
 844              		.loc 1 941 0
 845 0078 C169     		ldr	r1, [r0, #28]
 846 007a 8A42     		cmp	r2, r1
 847 007c 07D2     		bcs	.L73
 942:uCOS-III\Source/os_tmr.c ****                 if (p_tmr1->NextPtr  != (OS_TMR *)0) {      /* Yes, are we pointing at the last tim
 848              		.loc 1 942 0
 849 007e 1A69     		ldr	r2, [r3, #16]
 850 0080 AAB9     		cbnz	r2, .L78
 943:uCOS-III\Source/os_tmr.c ****                     p_tmr1            = p_tmr1->NextPtr;    /* No,  Point to next timer in the list
 944:uCOS-III\Source/os_tmr.c ****                 } else {
 945:uCOS-III\Source/os_tmr.c ****                     p_tmr->NextPtr    = (OS_TMR *)0;
 851              		.loc 1 945 0
 852 0082 0021     		movs	r1, #0
 853 0084 0161     		str	r1, [r0, #16]
 946:uCOS-III\Source/os_tmr.c ****                     p_tmr->PrevPtr    =  p_tmr1;
 854              		.loc 1 946 0
 855 0086 4361     		str	r3, [r0, #20]
 947:uCOS-III\Source/os_tmr.c ****                     p_tmr1->NextPtr   =  p_tmr;             /* Yes, timer to insert is now new last
 856              		.loc 1 947 0
 857 0088 1861     		str	r0, [r3, #16]
 858              	.LVL76:
 948:uCOS-III\Source/os_tmr.c ****                     p_tmr1            = (OS_TMR *)0;        /* Break loop                          
 859              		.loc 1 948 0
 860 008a 1346     		mov	r3, r2
 861 008c 10E0     		b	.L72
 862              	.LVL77:
 863              	.L73:
 949:uCOS-III\Source/os_tmr.c ****                 }
ARM GAS  C:\Users\jorti\AppData\Local\Temp\ccmiXXpF.s 			page 34


 950:uCOS-III\Source/os_tmr.c ****             } else {                                        /* Insert before the current timer     
 951:uCOS-III\Source/os_tmr.c ****                 if (p_tmr1->PrevPtr == (OS_TMR *)0) {       /* Are we inserting before the first ti
 864              		.loc 1 951 0
 865 008e 5A69     		ldr	r2, [r3, #20]
 866 0090 3AB9     		cbnz	r2, .L75
 952:uCOS-III\Source/os_tmr.c ****                     p_tmr->PrevPtr    = (OS_TMR *)0;
 867              		.loc 1 952 0
 868 0092 4261     		str	r2, [r0, #20]
 953:uCOS-III\Source/os_tmr.c ****                     p_tmr->NextPtr    = p_tmr1;
 869              		.loc 1 953 0
 870 0094 0361     		str	r3, [r0, #16]
 954:uCOS-III\Source/os_tmr.c ****                     p_tmr1->PrevPtr   = p_tmr;
 871              		.loc 1 954 0
 872 0096 5861     		str	r0, [r3, #20]
 955:uCOS-III\Source/os_tmr.c ****                     p_spoke->FirstPtr = p_tmr;
 873              		.loc 1 955 0
 874 0098 124B     		ldr	r3, .L80+8
 875              	.LVL78:
 876 009a 43F83400 		str	r0, [r3, r4, lsl #3]
 956:uCOS-III\Source/os_tmr.c ****                 } else {                                    /* Insert in between 2 timers already i
 957:uCOS-III\Source/os_tmr.c ****                     p_tmr0            = p_tmr1->PrevPtr;
 958:uCOS-III\Source/os_tmr.c ****                     p_tmr->PrevPtr    = p_tmr0;
 959:uCOS-III\Source/os_tmr.c ****                     p_tmr->NextPtr    = p_tmr1;
 960:uCOS-III\Source/os_tmr.c ****                     p_tmr0->NextPtr   = p_tmr;
 961:uCOS-III\Source/os_tmr.c ****                     p_tmr1->PrevPtr   = p_tmr;
 962:uCOS-III\Source/os_tmr.c ****                 }
 963:uCOS-III\Source/os_tmr.c ****                 p_tmr1 = (OS_TMR *)0;                       /* Break loop                          
 877              		.loc 1 963 0
 878 009e 1346     		mov	r3, r2
 879 00a0 06E0     		b	.L72
 880              	.LVL79:
 881              	.L75:
 958:uCOS-III\Source/os_tmr.c ****                     p_tmr->NextPtr    = p_tmr1;
 882              		.loc 1 958 0
 883 00a2 4261     		str	r2, [r0, #20]
 959:uCOS-III\Source/os_tmr.c ****                     p_tmr0->NextPtr   = p_tmr;
 884              		.loc 1 959 0
 885 00a4 0361     		str	r3, [r0, #16]
 960:uCOS-III\Source/os_tmr.c ****                     p_tmr1->PrevPtr   = p_tmr;
 886              		.loc 1 960 0
 887 00a6 1061     		str	r0, [r2, #16]
 961:uCOS-III\Source/os_tmr.c ****                 }
 888              		.loc 1 961 0
 889 00a8 5861     		str	r0, [r3, #20]
 890              		.loc 1 963 0
 891 00aa 0023     		movs	r3, #0
 892              	.LVL80:
 893 00ac 00E0     		b	.L72
 894              	.LVL81:
 895              	.L78:
 943:uCOS-III\Source/os_tmr.c ****                 } else {
 896              		.loc 1 943 0
 897 00ae 1346     		mov	r3, r2
 898              	.LVL82:
 899              	.L72:
 938:uCOS-III\Source/os_tmr.c ****             p_tmr1->Remain = p_tmr1->Match                  /* Compute time remaining of current ti
 900              		.loc 1 938 0
ARM GAS  C:\Users\jorti\AppData\Local\Temp\ccmiXXpF.s 			page 35


 901 00b0 002B     		cmp	r3, #0
 902 00b2 DCD1     		bne	.L76
 964:uCOS-III\Source/os_tmr.c ****             }
 965:uCOS-III\Source/os_tmr.c ****         }
 966:uCOS-III\Source/os_tmr.c ****         p_spoke->NbrEntries++;
 903              		.loc 1 966 0
 904 00b4 0B4B     		ldr	r3, .L80+8
 905              	.LVL83:
 906 00b6 03EBC403 		add	r3, r3, r4, lsl #3
 907 00ba 9A88     		ldrh	r2, [r3, #4]
 908 00bc 0132     		adds	r2, r2, #1
 909 00be 9A80     		strh	r2, [r3, #4]	@ movhi
 910              	.L71:
 967:uCOS-III\Source/os_tmr.c ****     }
 968:uCOS-III\Source/os_tmr.c ****     if (p_spoke->NbrEntriesMax < p_spoke->NbrEntries) {     /* Keep track of maximum number of entr
 911              		.loc 1 968 0
 912 00c0 084B     		ldr	r3, .L80+8
 913 00c2 03EBC403 		add	r3, r3, r4, lsl #3
 914 00c6 DA88     		ldrh	r2, [r3, #6]
 915 00c8 9B88     		ldrh	r3, [r3, #4]
 916 00ca 9A42     		cmp	r2, r3
 917 00cc 03D2     		bcs	.L66
 969:uCOS-III\Source/os_tmr.c ****         p_spoke->NbrEntriesMax = p_spoke->NbrEntries;
 918              		.loc 1 969 0
 919 00ce 054A     		ldr	r2, .L80+8
 920 00d0 02EBC404 		add	r4, r2, r4, lsl #3
 921              	.LVL84:
 922 00d4 E380     		strh	r3, [r4, #6]	@ movhi
 923              	.L66:
 970:uCOS-III\Source/os_tmr.c ****     }
 971:uCOS-III\Source/os_tmr.c **** }
 924              		.loc 1 971 0
 925 00d6 10BC     		pop	{r4}
 926              		.cfi_restore 4
 927              		.cfi_def_cfa_offset 0
 928 00d8 7047     		bx	lr
 929              	.L81:
 930 00da 00BF     		.align	2
 931              	.L80:
 932 00dc 00000000 		.word	OSTmrTickCtr
 933 00e0 00000000 		.word	OSCfg_TmrWheelSize
 934 00e4 00000000 		.word	OSCfg_TmrWheel
 935              		.cfi_endproc
 936              	.LFE11:
 937              		.size	OS_TmrLink, .-OS_TmrLink
 938              		.section	.text.OS_TmrResetPeak,"ax",%progbits
 939              		.align	2
 940              		.global	OS_TmrResetPeak
 941              		.thumb
 942              		.thumb_func
 943              		.type	OS_TmrResetPeak, %function
 944              	OS_TmrResetPeak:
 945              	.LFB12:
 972:uCOS-III\Source/os_tmr.c **** 
 973:uCOS-III\Source/os_tmr.c **** /*$PAGE*/
 974:uCOS-III\Source/os_tmr.c **** /*
 975:uCOS-III\Source/os_tmr.c **** ***************************************************************************************************
ARM GAS  C:\Users\jorti\AppData\Local\Temp\ccmiXXpF.s 			page 36


 976:uCOS-III\Source/os_tmr.c **** *                                              RESET TIMER LIST PEAK DETECTOR
 977:uCOS-III\Source/os_tmr.c **** *
 978:uCOS-III\Source/os_tmr.c **** * Description: This function is used to reset the peak detector for the number of entries in each s
 979:uCOS-III\Source/os_tmr.c **** *
 980:uCOS-III\Source/os_tmr.c **** * Arguments  : void
 981:uCOS-III\Source/os_tmr.c **** *
 982:uCOS-III\Source/os_tmr.c **** * Returns    : none
 983:uCOS-III\Source/os_tmr.c **** *
 984:uCOS-III\Source/os_tmr.c **** * Note(s)    : This function is INTERNAL to uC/OS-III and your application should not call it.
 985:uCOS-III\Source/os_tmr.c **** ***************************************************************************************************
 986:uCOS-III\Source/os_tmr.c **** */
 987:uCOS-III\Source/os_tmr.c **** 
 988:uCOS-III\Source/os_tmr.c **** void  OS_TmrResetPeak (void)
 989:uCOS-III\Source/os_tmr.c **** {
 946              		.loc 1 989 0
 947              		.cfi_startproc
 948              		@ args = 0, pretend = 0, frame = 0
 949              		@ frame_needed = 0, uses_anonymous_args = 0
 950              		@ link register save eliminated.
 951              	.LVL85:
 990:uCOS-III\Source/os_tmr.c ****     OS_TMR_SPOKE     *p_spoke;
 991:uCOS-III\Source/os_tmr.c ****     OS_TMR_SPOKE_IX   i;
 992:uCOS-III\Source/os_tmr.c **** 
 993:uCOS-III\Source/os_tmr.c **** 
 994:uCOS-III\Source/os_tmr.c **** 
 995:uCOS-III\Source/os_tmr.c ****     for (i = 0u; i < OSCfg_TmrWheelSize; i++) {
 952              		.loc 1 995 0
 953 0000 0023     		movs	r3, #0
 954 0002 06E0     		b	.L83
 955              	.LVL86:
 956              	.L84:
 996:uCOS-III\Source/os_tmr.c ****         p_spoke                = (OS_TMR_SPOKE *)&OSCfg_TmrWheel[i];
 997:uCOS-III\Source/os_tmr.c ****         p_spoke->NbrEntriesMax = (OS_OBJ_QTY    )0u;
 957              		.loc 1 997 0 discriminator 3
 958 0004 054A     		ldr	r2, .L85
 959 0006 02EBC302 		add	r2, r2, r3, lsl #3
 960 000a 0021     		movs	r1, #0
 961 000c D180     		strh	r1, [r2, #6]	@ movhi
 995:uCOS-III\Source/os_tmr.c ****         p_spoke                = (OS_TMR_SPOKE *)&OSCfg_TmrWheel[i];
 962              		.loc 1 995 0 discriminator 3
 963 000e 0133     		adds	r3, r3, #1
 964              	.LVL87:
 965 0010 9BB2     		uxth	r3, r3
 966              	.LVL88:
 967              	.L83:
 995:uCOS-III\Source/os_tmr.c ****         p_spoke                = (OS_TMR_SPOKE *)&OSCfg_TmrWheel[i];
 968              		.loc 1 995 0 is_stmt 0 discriminator 1
 969 0012 034A     		ldr	r2, .L85+4
 970 0014 1288     		ldrh	r2, [r2]
 971 0016 9342     		cmp	r3, r2
 972 0018 F4D3     		bcc	.L84
 998:uCOS-III\Source/os_tmr.c ****     }
 999:uCOS-III\Source/os_tmr.c **** }
 973              		.loc 1 999 0 is_stmt 1
 974 001a 7047     		bx	lr
 975              	.L86:
 976              		.align	2
ARM GAS  C:\Users\jorti\AppData\Local\Temp\ccmiXXpF.s 			page 37


 977              	.L85:
 978 001c 00000000 		.word	OSCfg_TmrWheel
 979 0020 00000000 		.word	OSCfg_TmrWheelSize
 980              		.cfi_endproc
 981              	.LFE12:
 982              		.size	OS_TmrResetPeak, .-OS_TmrResetPeak
 983              		.section	.text.OS_TmrUnlink,"ax",%progbits
 984              		.align	2
 985              		.global	OS_TmrUnlink
 986              		.thumb
 987              		.thumb_func
 988              		.type	OS_TmrUnlink, %function
 989              	OS_TmrUnlink:
 990              	.LFB13:
1000:uCOS-III\Source/os_tmr.c **** 
1001:uCOS-III\Source/os_tmr.c **** /*$PAGE*/
1002:uCOS-III\Source/os_tmr.c **** /*
1003:uCOS-III\Source/os_tmr.c **** ***************************************************************************************************
1004:uCOS-III\Source/os_tmr.c **** *                                         REMOVE A TIMER FROM THE TIMER WHEEL
1005:uCOS-III\Source/os_tmr.c **** *
1006:uCOS-III\Source/os_tmr.c **** * Description: This function is called to remove the timer from the timer wheel.
1007:uCOS-III\Source/os_tmr.c **** *
1008:uCOS-III\Source/os_tmr.c **** * Arguments  : p_tmr          Is a pointer to the timer to remove.
1009:uCOS-III\Source/os_tmr.c **** *              -----
1010:uCOS-III\Source/os_tmr.c **** *
1011:uCOS-III\Source/os_tmr.c **** * Returns    : none
1012:uCOS-III\Source/os_tmr.c **** *
1013:uCOS-III\Source/os_tmr.c **** * Note(s)    : 1) This function is INTERNAL to uC/OS-III and your application MUST NOT call it.
1014:uCOS-III\Source/os_tmr.c **** ***************************************************************************************************
1015:uCOS-III\Source/os_tmr.c **** */
1016:uCOS-III\Source/os_tmr.c **** 
1017:uCOS-III\Source/os_tmr.c **** void  OS_TmrUnlink (OS_TMR  *p_tmr)
1018:uCOS-III\Source/os_tmr.c **** {
 991              		.loc 1 1018 0
 992              		.cfi_startproc
 993              		@ args = 0, pretend = 0, frame = 0
 994              		@ frame_needed = 0, uses_anonymous_args = 0
 995              		@ link register save eliminated.
 996              	.LVL89:
1019:uCOS-III\Source/os_tmr.c ****     OS_TMR_SPOKE    *p_spoke;
1020:uCOS-III\Source/os_tmr.c ****     OS_TMR          *p_tmr1;
1021:uCOS-III\Source/os_tmr.c ****     OS_TMR          *p_tmr2;
1022:uCOS-III\Source/os_tmr.c ****     OS_TMR_SPOKE_IX  spoke;
1023:uCOS-III\Source/os_tmr.c **** 
1024:uCOS-III\Source/os_tmr.c **** 
1025:uCOS-III\Source/os_tmr.c **** 
1026:uCOS-III\Source/os_tmr.c ****     spoke   = (OS_TMR_SPOKE_IX)(p_tmr->Match % OSCfg_TmrWheelSize);
 997              		.loc 1 1026 0
 998 0000 8169     		ldr	r1, [r0, #24]
 999 0002 134B     		ldr	r3, .L90
 1000 0004 1B88     		ldrh	r3, [r3]
 1001 0006 B1FBF3F2 		udiv	r2, r1, r3
 1002 000a 03FB1213 		mls	r3, r3, r2, r1
 1003              	.LVL90:
1027:uCOS-III\Source/os_tmr.c ****     p_spoke = &OSCfg_TmrWheel[spoke];
 1004              		.loc 1 1027 0
 1005 000e 9BB2     		uxth	r3, r3
ARM GAS  C:\Users\jorti\AppData\Local\Temp\ccmiXXpF.s 			page 38


 1006              	.LVL91:
1028:uCOS-III\Source/os_tmr.c **** 
1029:uCOS-III\Source/os_tmr.c ****     if (p_spoke->FirstPtr == p_tmr) {                       /* See if timer to remove is at the beg
 1007              		.loc 1 1029 0
 1008 0010 104A     		ldr	r2, .L90+4
 1009 0012 52F83320 		ldr	r2, [r2, r3, lsl #3]
 1010 0016 9042     		cmp	r0, r2
 1011 0018 07D1     		bne	.L88
1030:uCOS-III\Source/os_tmr.c ****         p_tmr1            = (OS_TMR *)p_tmr->NextPtr;
 1012              		.loc 1 1030 0
 1013 001a 0269     		ldr	r2, [r0, #16]
 1014              	.LVL92:
1031:uCOS-III\Source/os_tmr.c ****         p_spoke->FirstPtr = (OS_TMR *)p_tmr1;
 1015              		.loc 1 1031 0
 1016 001c 0D49     		ldr	r1, .L90+4
 1017 001e 41F83320 		str	r2, [r1, r3, lsl #3]
1032:uCOS-III\Source/os_tmr.c ****         if (p_tmr1 != (OS_TMR *)0) {
 1018              		.loc 1 1032 0
 1019 0022 3AB1     		cbz	r2, .L89
1033:uCOS-III\Source/os_tmr.c ****             p_tmr1->PrevPtr = (OS_TMR *)0;
 1020              		.loc 1 1033 0
 1021 0024 0021     		movs	r1, #0
 1022 0026 5161     		str	r1, [r2, #20]
 1023 0028 04E0     		b	.L89
 1024              	.LVL93:
 1025              	.L88:
1034:uCOS-III\Source/os_tmr.c ****         }
1035:uCOS-III\Source/os_tmr.c ****     } else {
1036:uCOS-III\Source/os_tmr.c ****         p_tmr1          = (OS_TMR *)p_tmr->PrevPtr;         /* Remove timer from somewhere in the l
 1026              		.loc 1 1036 0
 1027 002a 4169     		ldr	r1, [r0, #20]
 1028              	.LVL94:
1037:uCOS-III\Source/os_tmr.c ****         p_tmr2          = (OS_TMR *)p_tmr->NextPtr;
 1029              		.loc 1 1037 0
 1030 002c 0269     		ldr	r2, [r0, #16]
 1031              	.LVL95:
1038:uCOS-III\Source/os_tmr.c ****         p_tmr1->NextPtr = p_tmr2;
 1032              		.loc 1 1038 0
 1033 002e 0A61     		str	r2, [r1, #16]
1039:uCOS-III\Source/os_tmr.c ****         if (p_tmr2 != (OS_TMR *)0) {
 1034              		.loc 1 1039 0
 1035 0030 02B1     		cbz	r2, .L89
1040:uCOS-III\Source/os_tmr.c ****             p_tmr2->PrevPtr = (OS_TMR *)p_tmr1;
 1036              		.loc 1 1040 0
 1037 0032 5161     		str	r1, [r2, #20]
 1038              	.LVL96:
 1039              	.L89:
1041:uCOS-III\Source/os_tmr.c ****         }
1042:uCOS-III\Source/os_tmr.c ****     }
1043:uCOS-III\Source/os_tmr.c ****     p_tmr->State   = OS_TMR_STATE_STOPPED;
 1040              		.loc 1 1043 0
 1041 0034 0122     		movs	r2, #1
 1042 0036 80F82A20 		strb	r2, [r0, #42]
1044:uCOS-III\Source/os_tmr.c ****     p_tmr->NextPtr = (OS_TMR *)0;
 1043              		.loc 1 1044 0
 1044 003a 0022     		movs	r2, #0
 1045 003c 0261     		str	r2, [r0, #16]
ARM GAS  C:\Users\jorti\AppData\Local\Temp\ccmiXXpF.s 			page 39


1045:uCOS-III\Source/os_tmr.c ****     p_tmr->PrevPtr = (OS_TMR *)0;
 1046              		.loc 1 1045 0
 1047 003e 4261     		str	r2, [r0, #20]
1046:uCOS-III\Source/os_tmr.c ****     p_spoke->NbrEntries--;
 1048              		.loc 1 1046 0
 1049 0040 044A     		ldr	r2, .L90+4
 1050 0042 02EBC303 		add	r3, r2, r3, lsl #3
 1051              	.LVL97:
 1052 0046 9A88     		ldrh	r2, [r3, #4]
 1053 0048 013A     		subs	r2, r2, #1
 1054 004a 9A80     		strh	r2, [r3, #4]	@ movhi
 1055 004c 7047     		bx	lr
 1056              	.L91:
 1057 004e 00BF     		.align	2
 1058              	.L90:
 1059 0050 00000000 		.word	OSCfg_TmrWheelSize
 1060 0054 00000000 		.word	OSCfg_TmrWheel
 1061              		.cfi_endproc
 1062              	.LFE13:
 1063              		.size	OS_TmrUnlink, .-OS_TmrUnlink
 1064              		.section	.text.OSTmrDel,"ax",%progbits
 1065              		.align	2
 1066              		.global	OSTmrDel
 1067              		.thumb
 1068              		.thumb_func
 1069              		.type	OSTmrDel, %function
 1070              	OSTmrDel:
 1071              	.LFB2:
 214:uCOS-III\Source/os_tmr.c ****     OS_ERR       err;
 1072              		.loc 1 214 0
 1073              		.cfi_startproc
 1074              		@ args = 0, pretend = 0, frame = 8
 1075              		@ frame_needed = 0, uses_anonymous_args = 0
 1076              	.LVL98:
 1077 0000 F0B5     		push	{r4, r5, r6, r7, lr}
 1078              		.cfi_def_cfa_offset 20
 1079              		.cfi_offset 4, -20
 1080              		.cfi_offset 5, -16
 1081              		.cfi_offset 6, -12
 1082              		.cfi_offset 7, -8
 1083              		.cfi_offset 14, -4
 1084 0002 83B0     		sub	sp, sp, #12
 1085              		.cfi_def_cfa_offset 32
 228:uCOS-III\Source/os_tmr.c ****        *p_err  = OS_ERR_TMR_ISR;
 1086              		.loc 1 228 0
 1087 0004 264B     		ldr	r3, .L102
 1088 0006 1D78     		ldrb	r5, [r3]	@ zero_extendqisi2
 1089 0008 25B1     		cbz	r5, .L93
 229:uCOS-III\Source/os_tmr.c ****         return (DEF_FALSE);
 1090              		.loc 1 229 0
 1091 000a 47F24333 		movw	r3, #29507
 1092 000e 0B80     		strh	r3, [r1]	@ movhi
 230:uCOS-III\Source/os_tmr.c ****     }
 1093              		.loc 1 230 0
 1094 0010 0025     		movs	r5, #0
 1095 0012 42E0     		b	.L94
 1096              	.L93:
ARM GAS  C:\Users\jorti\AppData\Local\Temp\ccmiXXpF.s 			page 40


 235:uCOS-III\Source/os_tmr.c ****        *p_err = OS_ERR_TMR_INVALID;
 1097              		.loc 1 235 0
 1098 0014 18B9     		cbnz	r0, .L95
 236:uCOS-III\Source/os_tmr.c ****         return (DEF_FALSE);
 1099              		.loc 1 236 0
 1100 0016 47F24233 		movw	r3, #29506
 1101 001a 0B80     		strh	r3, [r1]	@ movhi
 237:uCOS-III\Source/os_tmr.c ****     }
 1102              		.loc 1 237 0
 1103 001c 3DE0     		b	.L94
 1104              	.L95:
 1105 001e 0E46     		mov	r6, r1
 1106 0020 0446     		mov	r4, r0
 248:uCOS-III\Source/os_tmr.c **** #if OS_CFG_DBG_EN > 0u
 1107              		.loc 1 248 0
 1108 0022 0DF10600 		add	r0, sp, #6
 1109              	.LVL99:
 1110 0026 FFF7FEFF 		bl	OSSchedLock
 1111              	.LVL100:
 250:uCOS-III\Source/os_tmr.c **** #endif
 1112              		.loc 1 250 0
 1113 002a 2046     		mov	r0, r4
 1114 002c FFF7FEFF 		bl	OS_TmrDbgListRemove
 1115              	.LVL101:
 252:uCOS-III\Source/os_tmr.c **** 
 1116              		.loc 1 252 0
 1117 0030 1C4A     		ldr	r2, .L102+4
 1118 0032 1388     		ldrh	r3, [r2]
 1119 0034 013B     		subs	r3, r3, #1
 1120 0036 1380     		strh	r3, [r2]	@ movhi
 254:uCOS-III\Source/os_tmr.c ****         case OS_TMR_STATE_RUNNING:
 1121              		.loc 1 254 0
 1122 0038 94F82A70 		ldrb	r7, [r4, #42]	@ zero_extendqisi2
 1123 003c 032F     		cmp	r7, #3
 1124 003e 25D8     		bhi	.L96
 1125 0040 DFE807F0 		tbb	[pc, r7]
 1126              	.L98:
 1127 0044 1B       		.byte	(.L97-.L98)/2
 1128 0045 10       		.byte	(.L99-.L98)/2
 1129 0046 02       		.byte	(.L100-.L98)/2
 1130 0047 10       		.byte	(.L99-.L98)/2
 1131              		.p2align 1
 1132              	.L100:
 256:uCOS-III\Source/os_tmr.c ****              OS_TmrClr(p_tmr);
 1133              		.loc 1 256 0
 1134 0048 2046     		mov	r0, r4
 1135 004a FFF7FEFF 		bl	OS_TmrUnlink
 1136              	.LVL102:
 257:uCOS-III\Source/os_tmr.c ****              OSSchedUnlock(&err);
 1137              		.loc 1 257 0
 1138 004e 2046     		mov	r0, r4
 1139 0050 FFF7FEFF 		bl	OS_TmrClr
 1140              	.LVL103:
 258:uCOS-III\Source/os_tmr.c ****             *p_err   = OS_ERR_NONE;
 1141              		.loc 1 258 0
 1142 0054 0DF10600 		add	r0, sp, #6
 1143 0058 FFF7FEFF 		bl	OSSchedUnlock
ARM GAS  C:\Users\jorti\AppData\Local\Temp\ccmiXXpF.s 			page 41


 1144              	.LVL104:
 259:uCOS-III\Source/os_tmr.c ****              success = DEF_TRUE;
 1145              		.loc 1 259 0
 1146 005c 0023     		movs	r3, #0
 1147 005e 3380     		strh	r3, [r6]	@ movhi
 1148              	.LVL105:
 260:uCOS-III\Source/os_tmr.c ****              break;
 1149              		.loc 1 260 0
 1150 0060 0125     		movs	r5, #1
 261:uCOS-III\Source/os_tmr.c **** 
 1151              		.loc 1 261 0
 1152 0062 1AE0     		b	.L94
 1153              	.LVL106:
 1154              	.L99:
 265:uCOS-III\Source/os_tmr.c ****              OSSchedUnlock(&err);
 1155              		.loc 1 265 0
 1156 0064 2046     		mov	r0, r4
 1157 0066 FFF7FEFF 		bl	OS_TmrClr
 1158              	.LVL107:
 266:uCOS-III\Source/os_tmr.c ****             *p_err   = OS_ERR_NONE;
 1159              		.loc 1 266 0
 1160 006a 0DF10600 		add	r0, sp, #6
 1161 006e FFF7FEFF 		bl	OSSchedUnlock
 1162              	.LVL108:
 267:uCOS-III\Source/os_tmr.c ****              success = DEF_TRUE;
 1163              		.loc 1 267 0
 1164 0072 0023     		movs	r3, #0
 1165 0074 3380     		strh	r3, [r6]	@ movhi
 1166              	.LVL109:
 268:uCOS-III\Source/os_tmr.c ****              break;
 1167              		.loc 1 268 0
 1168 0076 0125     		movs	r5, #1
 269:uCOS-III\Source/os_tmr.c ****              
 1169              		.loc 1 269 0
 1170 0078 0FE0     		b	.L94
 1171              	.LVL110:
 1172              	.L97:
 272:uCOS-III\Source/os_tmr.c ****             *p_err   = OS_ERR_TMR_INACTIVE;
 1173              		.loc 1 272 0
 1174 007a 0DF10600 		add	r0, sp, #6
 1175 007e FFF7FEFF 		bl	OSSchedUnlock
 1176              	.LVL111:
 273:uCOS-III\Source/os_tmr.c ****              success = DEF_FALSE;
 1177              		.loc 1 273 0
 1178 0082 47F23D33 		movw	r3, #29501
 1179 0086 3380     		strh	r3, [r6]	@ movhi
 1180              	.LVL112:
 274:uCOS-III\Source/os_tmr.c ****              break;
 1181              		.loc 1 274 0
 1182 0088 3D46     		mov	r5, r7
 275:uCOS-III\Source/os_tmr.c **** 
 1183              		.loc 1 275 0
 1184 008a 06E0     		b	.L94
 1185              	.LVL113:
 1186              	.L96:
 278:uCOS-III\Source/os_tmr.c ****             *p_err   = OS_ERR_TMR_INVALID_STATE;
 1187              		.loc 1 278 0
ARM GAS  C:\Users\jorti\AppData\Local\Temp\ccmiXXpF.s 			page 42


 1188 008c 0DF10600 		add	r0, sp, #6
 1189 0090 FFF7FEFF 		bl	OSSchedUnlock
 1190              	.LVL114:
 279:uCOS-III\Source/os_tmr.c ****              success = DEF_FALSE;
 1191              		.loc 1 279 0
 1192 0094 47F24133 		movw	r3, #29505
 1193 0098 3380     		strh	r3, [r6]	@ movhi
 1194              	.LVL115:
 1195              	.L94:
 284:uCOS-III\Source/os_tmr.c **** #endif
 1196              		.loc 1 284 0
 1197 009a 2846     		mov	r0, r5
 1198 009c 03B0     		add	sp, sp, #12
 1199              		.cfi_def_cfa_offset 20
 1200              		@ sp needed
 1201 009e F0BD     		pop	{r4, r5, r6, r7, pc}
 1202              	.L103:
 1203              		.align	2
 1204              	.L102:
 1205 00a0 00000000 		.word	OSIntNestingCtr
 1206 00a4 00000000 		.word	OSTmrQty
 1207              		.cfi_endproc
 1208              	.LFE2:
 1209              		.size	OSTmrDel, .-OSTmrDel
 1210              		.section	.text.OSTmrStart,"ax",%progbits
 1211              		.align	2
 1212              		.global	OSTmrStart
 1213              		.thumb
 1214              		.thumb_func
 1215              		.type	OSTmrStart, %function
 1216              	OSTmrStart:
 1217              	.LFB4:
 423:uCOS-III\Source/os_tmr.c ****     OS_ERR       err;
 1218              		.loc 1 423 0
 1219              		.cfi_startproc
 1220              		@ args = 0, pretend = 0, frame = 8
 1221              		@ frame_needed = 0, uses_anonymous_args = 0
 1222              	.LVL116:
 1223 0000 F0B5     		push	{r4, r5, r6, r7, lr}
 1224              		.cfi_def_cfa_offset 20
 1225              		.cfi_offset 4, -20
 1226              		.cfi_offset 5, -16
 1227              		.cfi_offset 6, -12
 1228              		.cfi_offset 7, -8
 1229              		.cfi_offset 14, -4
 1230 0002 83B0     		sub	sp, sp, #12
 1231              		.cfi_def_cfa_offset 32
 437:uCOS-III\Source/os_tmr.c ****        *p_err = OS_ERR_TMR_ISR;
 1232              		.loc 1 437 0
 1233 0004 244B     		ldr	r3, .L114
 1234 0006 1C78     		ldrb	r4, [r3]	@ zero_extendqisi2
 1235 0008 24B1     		cbz	r4, .L105
 438:uCOS-III\Source/os_tmr.c ****         return (DEF_FALSE);
 1236              		.loc 1 438 0
 1237 000a 47F24333 		movw	r3, #29507
 1238 000e 0B80     		strh	r3, [r1]	@ movhi
 439:uCOS-III\Source/os_tmr.c ****     }
ARM GAS  C:\Users\jorti\AppData\Local\Temp\ccmiXXpF.s 			page 43


 1239              		.loc 1 439 0
 1240 0010 0024     		movs	r4, #0
 1241 0012 3DE0     		b	.L106
 1242              	.L105:
 444:uCOS-III\Source/os_tmr.c ****        *p_err = OS_ERR_TMR_INVALID;
 1243              		.loc 1 444 0
 1244 0014 18B9     		cbnz	r0, .L107
 445:uCOS-III\Source/os_tmr.c ****         return (DEF_FALSE);
 1245              		.loc 1 445 0
 1246 0016 47F24233 		movw	r3, #29506
 1247 001a 0B80     		strh	r3, [r1]	@ movhi
 446:uCOS-III\Source/os_tmr.c ****     }
 1248              		.loc 1 446 0
 1249 001c 38E0     		b	.L106
 1250              	.L107:
 1251 001e 0E46     		mov	r6, r1
 1252 0020 0546     		mov	r5, r0
 457:uCOS-III\Source/os_tmr.c ****     switch (p_tmr->State) {
 1253              		.loc 1 457 0
 1254 0022 0DF10600 		add	r0, sp, #6
 1255              	.LVL117:
 1256 0026 FFF7FEFF 		bl	OSSchedLock
 1257              	.LVL118:
 458:uCOS-III\Source/os_tmr.c ****         case OS_TMR_STATE_RUNNING:                          /* Restart the timer                   
 1258              		.loc 1 458 0
 1259 002a 95F82A70 		ldrb	r7, [r5, #42]	@ zero_extendqisi2
 1260 002e 032F     		cmp	r7, #3
 1261 0030 27D8     		bhi	.L108
 1262 0032 DFE807F0 		tbb	[pc, r7]
 1263              	.L110:
 1264 0036 1D       		.byte	(.L109-.L110)/2
 1265 0037 11       		.byte	(.L111-.L110)/2
 1266 0038 02       		.byte	(.L112-.L110)/2
 1267 0039 11       		.byte	(.L111-.L110)/2
 1268              		.p2align 1
 1269              	.L112:
 460:uCOS-III\Source/os_tmr.c ****              OS_TmrLink(p_tmr, OS_OPT_LINK_DLY);            /* ... Link timer to timer wheel (see N
 1270              		.loc 1 460 0
 1271 003a 2846     		mov	r0, r5
 1272 003c FFF7FEFF 		bl	OS_TmrUnlink
 1273              	.LVL119:
 461:uCOS-III\Source/os_tmr.c ****              OSSchedUnlock(&err);
 1274              		.loc 1 461 0
 1275 0040 0021     		movs	r1, #0
 1276 0042 2846     		mov	r0, r5
 1277 0044 FFF7FEFF 		bl	OS_TmrLink
 1278              	.LVL120:
 462:uCOS-III\Source/os_tmr.c ****             *p_err   = OS_ERR_NONE;
 1279              		.loc 1 462 0
 1280 0048 0DF10600 		add	r0, sp, #6
 1281 004c FFF7FEFF 		bl	OSSchedUnlock
 1282              	.LVL121:
 463:uCOS-III\Source/os_tmr.c ****              success = DEF_TRUE;
 1283              		.loc 1 463 0
 1284 0050 0023     		movs	r3, #0
 1285 0052 3380     		strh	r3, [r6]	@ movhi
 1286              	.LVL122:
ARM GAS  C:\Users\jorti\AppData\Local\Temp\ccmiXXpF.s 			page 44


 464:uCOS-III\Source/os_tmr.c ****              break;
 1287              		.loc 1 464 0
 1288 0054 0124     		movs	r4, #1
 465:uCOS-III\Source/os_tmr.c **** 
 1289              		.loc 1 465 0
 1290 0056 1BE0     		b	.L106
 1291              	.LVL123:
 1292              	.L111:
 469:uCOS-III\Source/os_tmr.c ****              OSSchedUnlock(&err);
 1293              		.loc 1 469 0
 1294 0058 0021     		movs	r1, #0
 1295 005a 2846     		mov	r0, r5
 1296 005c FFF7FEFF 		bl	OS_TmrLink
 1297              	.LVL124:
 470:uCOS-III\Source/os_tmr.c ****             *p_err   = OS_ERR_NONE;
 1298              		.loc 1 470 0
 1299 0060 0DF10600 		add	r0, sp, #6
 1300 0064 FFF7FEFF 		bl	OSSchedUnlock
 1301              	.LVL125:
 471:uCOS-III\Source/os_tmr.c ****              success = DEF_TRUE;
 1302              		.loc 1 471 0
 1303 0068 0023     		movs	r3, #0
 1304 006a 3380     		strh	r3, [r6]	@ movhi
 1305              	.LVL126:
 472:uCOS-III\Source/os_tmr.c ****              break;
 1306              		.loc 1 472 0
 1307 006c 0124     		movs	r4, #1
 473:uCOS-III\Source/os_tmr.c **** 
 1308              		.loc 1 473 0
 1309 006e 0FE0     		b	.L106
 1310              	.LVL127:
 1311              	.L109:
 476:uCOS-III\Source/os_tmr.c ****             *p_err   = OS_ERR_TMR_INACTIVE;
 1312              		.loc 1 476 0
 1313 0070 0DF10600 		add	r0, sp, #6
 1314 0074 FFF7FEFF 		bl	OSSchedUnlock
 1315              	.LVL128:
 477:uCOS-III\Source/os_tmr.c ****              success = DEF_FALSE;
 1316              		.loc 1 477 0
 1317 0078 47F23D33 		movw	r3, #29501
 1318 007c 3380     		strh	r3, [r6]	@ movhi
 1319              	.LVL129:
 478:uCOS-III\Source/os_tmr.c ****              break;
 1320              		.loc 1 478 0
 1321 007e 3C46     		mov	r4, r7
 479:uCOS-III\Source/os_tmr.c **** 
 1322              		.loc 1 479 0
 1323 0080 06E0     		b	.L106
 1324              	.LVL130:
 1325              	.L108:
 482:uCOS-III\Source/os_tmr.c ****             *p_err = OS_ERR_TMR_INVALID_STATE;
 1326              		.loc 1 482 0
 1327 0082 0DF10600 		add	r0, sp, #6
 1328 0086 FFF7FEFF 		bl	OSSchedUnlock
 1329              	.LVL131:
 483:uCOS-III\Source/os_tmr.c ****              success = DEF_FALSE;
 1330              		.loc 1 483 0
ARM GAS  C:\Users\jorti\AppData\Local\Temp\ccmiXXpF.s 			page 45


 1331 008a 47F24133 		movw	r3, #29505
 1332 008e 3380     		strh	r3, [r6]	@ movhi
 1333              	.LVL132:
 1334              	.L106:
 488:uCOS-III\Source/os_tmr.c **** 
 1335              		.loc 1 488 0
 1336 0090 2046     		mov	r0, r4
 1337 0092 03B0     		add	sp, sp, #12
 1338              		.cfi_def_cfa_offset 20
 1339              		@ sp needed
 1340 0094 F0BD     		pop	{r4, r5, r6, r7, pc}
 1341              	.L115:
 1342 0096 00BF     		.align	2
 1343              	.L114:
 1344 0098 00000000 		.word	OSIntNestingCtr
 1345              		.cfi_endproc
 1346              	.LFE4:
 1347              		.size	OSTmrStart, .-OSTmrStart
 1348              		.section	.text.OSTmrStop,"ax",%progbits
 1349              		.align	2
 1350              		.global	OSTmrStop
 1351              		.thumb
 1352              		.thumb_func
 1353              		.type	OSTmrStop, %function
 1354              	OSTmrStop:
 1355              	.LFB6:
 611:uCOS-III\Source/os_tmr.c ****     OS_TMR_CALLBACK_PTR  p_fnct;
 1356              		.loc 1 611 0
 1357              		.cfi_startproc
 1358              		@ args = 0, pretend = 0, frame = 8
 1359              		@ frame_needed = 0, uses_anonymous_args = 0
 1360              	.LVL133:
 1361 0000 2DE9F043 		push	{r4, r5, r6, r7, r8, r9, lr}
 1362              		.cfi_def_cfa_offset 28
 1363              		.cfi_offset 4, -28
 1364              		.cfi_offset 5, -24
 1365              		.cfi_offset 6, -20
 1366              		.cfi_offset 7, -16
 1367              		.cfi_offset 8, -12
 1368              		.cfi_offset 9, -8
 1369              		.cfi_offset 14, -4
 1370 0004 83B0     		sub	sp, sp, #12
 1371              		.cfi_def_cfa_offset 40
 626:uCOS-III\Source/os_tmr.c ****        *p_err = OS_ERR_TMR_ISR;
 1372              		.loc 1 626 0
 1373 0006 344C     		ldr	r4, .L133
 1374 0008 2478     		ldrb	r4, [r4]	@ zero_extendqisi2
 1375 000a 24B1     		cbz	r4, .L117
 627:uCOS-III\Source/os_tmr.c ****         return (DEF_FALSE);
 1376              		.loc 1 627 0
 1377 000c 47F24332 		movw	r2, #29507
 1378              	.LVL134:
 1379 0010 1A80     		strh	r2, [r3]	@ movhi
 628:uCOS-III\Source/os_tmr.c ****     }
 1380              		.loc 1 628 0
 1381 0012 0024     		movs	r4, #0
 1382 0014 5BE0     		b	.L118
ARM GAS  C:\Users\jorti\AppData\Local\Temp\ccmiXXpF.s 			page 46


 1383              	.LVL135:
 1384              	.L117:
 633:uCOS-III\Source/os_tmr.c ****        *p_err = OS_ERR_TMR_INVALID;
 1385              		.loc 1 633 0
 1386 0016 18B9     		cbnz	r0, .L119
 634:uCOS-III\Source/os_tmr.c ****         return (DEF_FALSE);
 1387              		.loc 1 634 0
 1388 0018 47F24232 		movw	r2, #29506
 1389              	.LVL136:
 1390 001c 1A80     		strh	r2, [r3]	@ movhi
 635:uCOS-III\Source/os_tmr.c ****     }
 1391              		.loc 1 635 0
 1392 001e 56E0     		b	.L118
 1393              	.LVL137:
 1394              	.L119:
 1395 0020 1F46     		mov	r7, r3
 1396 0022 9146     		mov	r9, r2
 1397 0024 0D46     		mov	r5, r1
 1398 0026 0646     		mov	r6, r0
 646:uCOS-III\Source/os_tmr.c ****     switch (p_tmr->State) {
 1399              		.loc 1 646 0
 1400 0028 0DF10600 		add	r0, sp, #6
 1401              	.LVL138:
 1402 002c FFF7FEFF 		bl	OSSchedLock
 1403              	.LVL139:
 647:uCOS-III\Source/os_tmr.c ****         case OS_TMR_STATE_RUNNING:
 1404              		.loc 1 647 0
 1405 0030 96F82A80 		ldrb	r8, [r6, #42]	@ zero_extendqisi2
 1406 0034 B8F1030F 		cmp	r8, #3
 1407 0038 42D8     		bhi	.L120
 1408 003a DFE808F0 		tbb	[pc, r8]
 1409              	.L122:
 1410 003e 38       		.byte	(.L121-.L122)/2
 1411 003f 2F       		.byte	(.L123-.L122)/2
 1412 0040 02       		.byte	(.L124-.L122)/2
 1413 0041 2F       		.byte	(.L123-.L122)/2
 1414              		.p2align 1
 1415              	.L124:
 649:uCOS-III\Source/os_tmr.c ****             *p_err = OS_ERR_NONE;
 1416              		.loc 1 649 0
 1417 0042 3046     		mov	r0, r6
 1418 0044 FFF7FEFF 		bl	OS_TmrUnlink
 1419              	.LVL140:
 650:uCOS-III\Source/os_tmr.c ****              switch (opt) {
 1420              		.loc 1 650 0
 1421 0048 0023     		movs	r3, #0
 1422 004a 3B80     		strh	r3, [r7]	@ movhi
 651:uCOS-III\Source/os_tmr.c ****                  case OS_OPT_TMR_CALLBACK:
 1423              		.loc 1 651 0
 1424 004c 032D     		cmp	r5, #3
 1425 004e 03D0     		beq	.L126
 1426 0050 042D     		cmp	r5, #4
 1427 0052 0BD0     		beq	.L127
 1428 0054 A5B9     		cbnz	r5, .L131
 1429 0056 1BE0     		b	.L128
 1430              	.L126:
 653:uCOS-III\Source/os_tmr.c ****                       if (p_fnct != (OS_TMR_CALLBACK_PTR)0) {              /* ... if available     
ARM GAS  C:\Users\jorti\AppData\Local\Temp\ccmiXXpF.s 			page 47


 1431              		.loc 1 653 0
 1432 0058 B368     		ldr	r3, [r6, #8]
 1433              	.LVL141:
 654:uCOS-III\Source/os_tmr.c ****                         (*p_fnct)((void *)p_tmr, p_tmr->CallbackPtrArg);   /* Use callback arg when
 1434              		.loc 1 654 0
 1435 005a 1BB1     		cbz	r3, .L129
 655:uCOS-III\Source/os_tmr.c ****                       } else {
 1436              		.loc 1 655 0
 1437 005c F168     		ldr	r1, [r6, #12]
 1438 005e 3046     		mov	r0, r6
 1439 0060 9847     		blx	r3
 1440              	.LVL142:
 1441 0062 15E0     		b	.L128
 1442              	.LVL143:
 1443              	.L129:
 657:uCOS-III\Source/os_tmr.c ****                       }
 1444              		.loc 1 657 0
 1445 0064 47F24433 		movw	r3, #29508
 1446              	.LVL144:
 1447 0068 3B80     		strh	r3, [r7]	@ movhi
 1448              	.LVL145:
 1449 006a 11E0     		b	.L128
 1450              	.L127:
 662:uCOS-III\Source/os_tmr.c ****                       if (p_fnct != (OS_TMR_CALLBACK_PTR)0) {
 1451              		.loc 1 662 0
 1452 006c B368     		ldr	r3, [r6, #8]
 1453              	.LVL146:
 663:uCOS-III\Source/os_tmr.c ****                         (*p_fnct)((void *)p_tmr, p_callback_arg);     /* .. using the 'callback_arg
 1454              		.loc 1 663 0
 1455 006e 1BB1     		cbz	r3, .L130
 664:uCOS-III\Source/os_tmr.c ****                       } else {
 1456              		.loc 1 664 0
 1457 0070 4946     		mov	r1, r9
 1458 0072 3046     		mov	r0, r6
 1459 0074 9847     		blx	r3
 1460              	.LVL147:
 1461 0076 0BE0     		b	.L128
 1462              	.LVL148:
 1463              	.L130:
 666:uCOS-III\Source/os_tmr.c ****                       }
 1464              		.loc 1 666 0
 1465 0078 47F24433 		movw	r3, #29508
 1466              	.LVL149:
 1467 007c 3B80     		strh	r3, [r7]	@ movhi
 1468              	.LVL150:
 1469 007e 07E0     		b	.L128
 1470              	.L131:
 674:uCOS-III\Source/os_tmr.c ****                     *p_err = OS_ERR_OPT_INVALID;
 1471              		.loc 1 674 0
 1472 0080 0DF10600 		add	r0, sp, #6
 1473 0084 FFF7FEFF 		bl	OSSchedUnlock
 1474              	.LVL151:
 675:uCOS-III\Source/os_tmr.c ****                      return (DEF_FALSE);
 1475              		.loc 1 675 0
 1476 0088 45F62563 		movw	r3, #24101
 1477 008c 3B80     		strh	r3, [r7]	@ movhi
 676:uCOS-III\Source/os_tmr.c ****              }
ARM GAS  C:\Users\jorti\AppData\Local\Temp\ccmiXXpF.s 			page 48


 1478              		.loc 1 676 0
 1479 008e 1EE0     		b	.L118
 1480              	.L128:
 678:uCOS-III\Source/os_tmr.c ****              success = DEF_TRUE;
 1481              		.loc 1 678 0
 1482 0090 0DF10600 		add	r0, sp, #6
 1483 0094 FFF7FEFF 		bl	OSSchedUnlock
 1484              	.LVL152:
 679:uCOS-III\Source/os_tmr.c ****              break;
 1485              		.loc 1 679 0
 1486 0098 0124     		movs	r4, #1
 680:uCOS-III\Source/os_tmr.c **** 
 1487              		.loc 1 680 0
 1488 009a 18E0     		b	.L118
 1489              	.LVL153:
 1490              	.L123:
 684:uCOS-III\Source/os_tmr.c ****             *p_err   = OS_ERR_TMR_STOPPED;
 1491              		.loc 1 684 0
 1492 009c 0DF10600 		add	r0, sp, #6
 1493 00a0 FFF7FEFF 		bl	OSSchedUnlock
 1494              	.LVL154:
 685:uCOS-III\Source/os_tmr.c ****              success = DEF_TRUE;
 1495              		.loc 1 685 0
 1496 00a4 47F24933 		movw	r3, #29513
 1497 00a8 3B80     		strh	r3, [r7]	@ movhi
 1498              	.LVL155:
 686:uCOS-III\Source/os_tmr.c ****              break;
 1499              		.loc 1 686 0
 1500 00aa 0124     		movs	r4, #1
 687:uCOS-III\Source/os_tmr.c **** 
 1501              		.loc 1 687 0
 1502 00ac 0FE0     		b	.L118
 1503              	.LVL156:
 1504              	.L121:
 690:uCOS-III\Source/os_tmr.c ****             *p_err   = OS_ERR_TMR_INACTIVE;
 1505              		.loc 1 690 0
 1506 00ae 0DF10600 		add	r0, sp, #6
 1507 00b2 FFF7FEFF 		bl	OSSchedUnlock
 1508              	.LVL157:
 691:uCOS-III\Source/os_tmr.c ****              success = DEF_FALSE;
 1509              		.loc 1 691 0
 1510 00b6 47F23D33 		movw	r3, #29501
 1511 00ba 3B80     		strh	r3, [r7]	@ movhi
 1512              	.LVL158:
 692:uCOS-III\Source/os_tmr.c ****              break;
 1513              		.loc 1 692 0
 1514 00bc 4446     		mov	r4, r8
 693:uCOS-III\Source/os_tmr.c **** 
 1515              		.loc 1 693 0
 1516 00be 06E0     		b	.L118
 1517              	.LVL159:
 1518              	.L120:
 696:uCOS-III\Source/os_tmr.c ****             *p_err   = OS_ERR_TMR_INVALID_STATE;
 1519              		.loc 1 696 0
 1520 00c0 0DF10600 		add	r0, sp, #6
 1521 00c4 FFF7FEFF 		bl	OSSchedUnlock
 1522              	.LVL160:
ARM GAS  C:\Users\jorti\AppData\Local\Temp\ccmiXXpF.s 			page 49


 697:uCOS-III\Source/os_tmr.c ****              success = DEF_FALSE;
 1523              		.loc 1 697 0
 1524 00c8 47F24133 		movw	r3, #29505
 1525 00cc 3B80     		strh	r3, [r7]	@ movhi
 1526              	.LVL161:
 1527              	.L118:
 702:uCOS-III\Source/os_tmr.c **** 
 1528              		.loc 1 702 0
 1529 00ce 2046     		mov	r0, r4
 1530 00d0 03B0     		add	sp, sp, #12
 1531              		.cfi_def_cfa_offset 28
 1532              		@ sp needed
 1533 00d2 BDE8F083 		pop	{r4, r5, r6, r7, r8, r9, pc}
 1534              	.L134:
 1535 00d6 00BF     		.align	2
 1536              	.L133:
 1537 00d8 00000000 		.word	OSIntNestingCtr
 1538              		.cfi_endproc
 1539              	.LFE6:
 1540              		.size	OSTmrStop, .-OSTmrStop
 1541              		.section	.text.OS_TmrTask,"ax",%progbits
 1542              		.align	2
 1543              		.global	OS_TmrTask
 1544              		.thumb
 1545              		.thumb_func
 1546              		.type	OS_TmrTask, %function
 1547              	OS_TmrTask:
 1548              	.LFB14:
1047:uCOS-III\Source/os_tmr.c **** }
1048:uCOS-III\Source/os_tmr.c **** 
1049:uCOS-III\Source/os_tmr.c **** /*$PAGE*/
1050:uCOS-III\Source/os_tmr.c **** /*
1051:uCOS-III\Source/os_tmr.c **** ***************************************************************************************************
1052:uCOS-III\Source/os_tmr.c **** *                                                 TIMER MANAGEMENT TASK
1053:uCOS-III\Source/os_tmr.c **** *
1054:uCOS-III\Source/os_tmr.c **** * Description: This task is created by OS_TmrInit().
1055:uCOS-III\Source/os_tmr.c **** *
1056:uCOS-III\Source/os_tmr.c **** * Arguments  : none
1057:uCOS-III\Source/os_tmr.c **** *
1058:uCOS-III\Source/os_tmr.c **** * Returns    : none
1059:uCOS-III\Source/os_tmr.c **** *
1060:uCOS-III\Source/os_tmr.c **** * Note(s)    : 1) This function is INTERNAL to uC/OS-III and your application MUST NOT call it.
1061:uCOS-III\Source/os_tmr.c **** ***************************************************************************************************
1062:uCOS-III\Source/os_tmr.c **** */
1063:uCOS-III\Source/os_tmr.c **** 
1064:uCOS-III\Source/os_tmr.c **** void  OS_TmrTask (void  *p_arg)
1065:uCOS-III\Source/os_tmr.c **** {
 1549              		.loc 1 1065 0
 1550              		.cfi_startproc
 1551              		@ args = 0, pretend = 0, frame = 8
 1552              		@ frame_needed = 0, uses_anonymous_args = 0
 1553              	.LVL162:
 1554 0000 F0B5     		push	{r4, r5, r6, r7, lr}
 1555              		.cfi_def_cfa_offset 20
 1556              		.cfi_offset 4, -20
 1557              		.cfi_offset 5, -16
 1558              		.cfi_offset 6, -12
ARM GAS  C:\Users\jorti\AppData\Local\Temp\ccmiXXpF.s 			page 50


 1559              		.cfi_offset 7, -8
 1560              		.cfi_offset 14, -4
 1561 0002 83B0     		sub	sp, sp, #12
 1562              		.cfi_def_cfa_offset 32
 1563              	.LVL163:
 1564              	.L143:
1066:uCOS-III\Source/os_tmr.c ****     CPU_BOOLEAN          done;
1067:uCOS-III\Source/os_tmr.c ****     OS_ERR               err;
1068:uCOS-III\Source/os_tmr.c ****     OS_TMR_CALLBACK_PTR  p_fnct;
1069:uCOS-III\Source/os_tmr.c ****     OS_TMR_SPOKE        *p_spoke;
1070:uCOS-III\Source/os_tmr.c ****     OS_TMR              *p_tmr;
1071:uCOS-III\Source/os_tmr.c ****     OS_TMR              *p_tmr_next;
1072:uCOS-III\Source/os_tmr.c ****     OS_TMR_SPOKE_IX      spoke;
1073:uCOS-III\Source/os_tmr.c ****     CPU_TS               ts;
1074:uCOS-III\Source/os_tmr.c ****     CPU_TS               ts_start;
1075:uCOS-III\Source/os_tmr.c ****     CPU_TS               ts_end;
1076:uCOS-III\Source/os_tmr.c **** 
1077:uCOS-III\Source/os_tmr.c **** 
1078:uCOS-III\Source/os_tmr.c **** 
1079:uCOS-III\Source/os_tmr.c ****     p_arg = p_arg;                                               /* Not using 'p_arg', prevent comp
1080:uCOS-III\Source/os_tmr.c ****     while (DEF_ON) {
1081:uCOS-III\Source/os_tmr.c ****         (void)OSTaskSemPend((OS_TICK )0,                         /* Wait for signal indicating time
 1565              		.loc 1 1081 0
 1566 0004 0DF10603 		add	r3, sp, #6
 1567 0008 6A46     		mov	r2, sp
 1568 000a 0021     		movs	r1, #0
 1569 000c 0846     		mov	r0, r1
 1570 000e FFF7FEFF 		bl	OSTaskSemPend
 1571              	.LVL164:
1082:uCOS-III\Source/os_tmr.c ****                             (OS_OPT  )OS_OPT_PEND_BLOCKING,
1083:uCOS-III\Source/os_tmr.c ****                             (CPU_TS *)&ts,
1084:uCOS-III\Source/os_tmr.c ****                             (OS_ERR *)&err);
1085:uCOS-III\Source/os_tmr.c **** 
1086:uCOS-III\Source/os_tmr.c ****         OSSchedLock(&err);
 1572              		.loc 1 1086 0
 1573 0012 0DF10600 		add	r0, sp, #6
 1574 0016 FFF7FEFF 		bl	OSSchedLock
 1575              	.LVL165:
1087:uCOS-III\Source/os_tmr.c ****         ts_start = OS_TS_GET();
 1576              		.loc 1 1087 0
 1577 001a FFF7FEFF 		bl	CPU_TS_TmrRd
 1578              	.LVL166:
 1579 001e 0746     		mov	r7, r0
 1580              	.LVL167:
1088:uCOS-III\Source/os_tmr.c ****         OSTmrTickCtr++;                                          /* Increment the current time     
 1581              		.loc 1 1088 0
 1582 0020 1F4A     		ldr	r2, .L147
 1583 0022 1368     		ldr	r3, [r2]
 1584 0024 0133     		adds	r3, r3, #1
 1585 0026 1360     		str	r3, [r2]
1089:uCOS-III\Source/os_tmr.c ****         spoke    = (OS_TMR_SPOKE_IX)(OSTmrTickCtr % OSCfg_TmrWheelSize);
 1586              		.loc 1 1089 0
 1587 0028 1E4A     		ldr	r2, .L147+4
 1588 002a 1188     		ldrh	r1, [r2]
 1589 002c B3FBF1F2 		udiv	r2, r3, r1
 1590 0030 01FB1233 		mls	r3, r1, r2, r3
 1591              	.LVL168:
ARM GAS  C:\Users\jorti\AppData\Local\Temp\ccmiXXpF.s 			page 51


1090:uCOS-III\Source/os_tmr.c ****         p_spoke  = &OSCfg_TmrWheel[spoke];
 1592              		.loc 1 1090 0
 1593 0034 9BB2     		uxth	r3, r3
 1594              	.LVL169:
1091:uCOS-III\Source/os_tmr.c ****         p_tmr    = p_spoke->FirstPtr;
 1595              		.loc 1 1091 0
 1596 0036 1C4A     		ldr	r2, .L147+8
 1597 0038 52F83340 		ldr	r4, [r2, r3, lsl #3]
 1598              	.LVL170:
1092:uCOS-III\Source/os_tmr.c ****         done     = DEF_FALSE;
 1599              		.loc 1 1092 0
 1600 003c 0023     		movs	r3, #0
 1601              	.LVL171:
1093:uCOS-III\Source/os_tmr.c ****         while (done == DEF_FALSE) {
 1602              		.loc 1 1093 0
 1603 003e 1CE0     		b	.L138
 1604              	.LVL172:
 1605              	.L142:
1094:uCOS-III\Source/os_tmr.c ****             if (p_tmr != (OS_TMR *)0) {
 1606              		.loc 1 1094 0
 1607 0040 ECB1     		cbz	r4, .L145
1095:uCOS-III\Source/os_tmr.c ****                 p_tmr_next = (OS_TMR *)p_tmr->NextPtr;           /* Point to next tmr to update bec
 1608              		.loc 1 1095 0
 1609 0042 2669     		ldr	r6, [r4, #16]
 1610              	.LVL173:
1096:uCOS-III\Source/os_tmr.c ****                                                                  /* ... timer could get unlinked fr
1097:uCOS-III\Source/os_tmr.c ****                 if (OSTmrTickCtr == p_tmr->Match) {              /* Process each timer that expires
 1611              		.loc 1 1097 0
 1612 0044 A169     		ldr	r1, [r4, #24]
 1613 0046 164B     		ldr	r3, .L147
 1614 0048 1A68     		ldr	r2, [r3]
1098:uCOS-III\Source/os_tmr.c ****                     OS_TmrUnlink(p_tmr);                         /* Remove from current wheel spoke
1099:uCOS-III\Source/os_tmr.c ****                     if (p_tmr->Opt == OS_OPT_TMR_PERIODIC) {
1100:uCOS-III\Source/os_tmr.c ****                         OS_TmrLink(p_tmr,
1101:uCOS-III\Source/os_tmr.c ****                                    OS_OPT_LINK_PERIODIC);        /* Recalculate new position of tim
1102:uCOS-III\Source/os_tmr.c ****                     } else {
1103:uCOS-III\Source/os_tmr.c ****                         p_tmr->State = OS_TMR_STATE_COMPLETED;   /* Indicate that the timer has com
1104:uCOS-III\Source/os_tmr.c ****                     }
1105:uCOS-III\Source/os_tmr.c ****                     p_fnct = p_tmr->CallbackPtr;                 /* Execute callback function if av
1106:uCOS-III\Source/os_tmr.c ****                     if (p_fnct != (OS_TMR_CALLBACK_PTR)0) {
1107:uCOS-III\Source/os_tmr.c ****                         (*p_fnct)((void *)p_tmr,
1108:uCOS-III\Source/os_tmr.c ****                                   p_tmr->CallbackPtrArg);
1109:uCOS-III\Source/os_tmr.c ****                     }
1110:uCOS-III\Source/os_tmr.c ****                     p_tmr = p_tmr_next;                          /* See if next timer matches      
1111:uCOS-III\Source/os_tmr.c ****                 } else {
1112:uCOS-III\Source/os_tmr.c ****                     done  = DEF_TRUE;
 1615              		.loc 1 1112 0
 1616 004a 0123     		movs	r3, #1
1097:uCOS-III\Source/os_tmr.c ****                     OS_TmrUnlink(p_tmr);                         /* Remove from current wheel spoke
 1617              		.loc 1 1097 0
 1618 004c 9142     		cmp	r1, r2
 1619 004e 14D1     		bne	.L138
1098:uCOS-III\Source/os_tmr.c ****                     OS_TmrUnlink(p_tmr);                         /* Remove from current wheel spoke
 1620              		.loc 1 1098 0
 1621 0050 2046     		mov	r0, r4
 1622 0052 FFF7FEFF 		bl	OS_TmrUnlink
 1623              	.LVL174:
ARM GAS  C:\Users\jorti\AppData\Local\Temp\ccmiXXpF.s 			page 52


1099:uCOS-III\Source/os_tmr.c ****                         OS_TmrLink(p_tmr,
 1624              		.loc 1 1099 0
 1625 0056 238D     		ldrh	r3, [r4, #40]
 1626 0058 022B     		cmp	r3, #2
 1627 005a 04D1     		bne	.L139
1100:uCOS-III\Source/os_tmr.c ****                                    OS_OPT_LINK_PERIODIC);        /* Recalculate new position of tim
 1628              		.loc 1 1100 0
 1629 005c 0121     		movs	r1, #1
 1630 005e 2046     		mov	r0, r4
 1631 0060 FFF7FEFF 		bl	OS_TmrLink
 1632              	.LVL175:
 1633 0064 02E0     		b	.L140
 1634              	.L139:
1103:uCOS-III\Source/os_tmr.c ****                     }
 1635              		.loc 1 1103 0
 1636 0066 0323     		movs	r3, #3
 1637 0068 84F82A30 		strb	r3, [r4, #42]
 1638              	.L140:
1105:uCOS-III\Source/os_tmr.c ****                     if (p_fnct != (OS_TMR_CALLBACK_PTR)0) {
 1639              		.loc 1 1105 0
 1640 006c A368     		ldr	r3, [r4, #8]
 1641              	.LVL176:
1106:uCOS-III\Source/os_tmr.c ****                         (*p_fnct)((void *)p_tmr,
 1642              		.loc 1 1106 0
 1643 006e 13B1     		cbz	r3, .L141
1107:uCOS-III\Source/os_tmr.c ****                                   p_tmr->CallbackPtrArg);
 1644              		.loc 1 1107 0
 1645 0070 E168     		ldr	r1, [r4, #12]
 1646 0072 2046     		mov	r0, r4
 1647 0074 9847     		blx	r3
 1648              	.LVL177:
 1649              	.L141:
1065:uCOS-III\Source/os_tmr.c ****     CPU_BOOLEAN          done;
 1650              		.loc 1 1065 0
 1651 0076 3446     		mov	r4, r6
 1652              	.LVL178:
 1653 0078 2B46     		mov	r3, r5
 1654              	.LVL179:
 1655              	.L138:
1092:uCOS-III\Source/os_tmr.c ****         while (done == DEF_FALSE) {
 1656              		.loc 1 1092 0
 1657 007a 1D46     		mov	r5, r3
 1658 007c 00E0     		b	.L137
 1659              	.LVL180:
 1660              	.L145:
1113:uCOS-III\Source/os_tmr.c ****                 }
1114:uCOS-III\Source/os_tmr.c ****             } else {
1115:uCOS-III\Source/os_tmr.c ****                 done = DEF_TRUE;
 1661              		.loc 1 1115 0
 1662 007e 0125     		movs	r5, #1
 1663              	.LVL181:
 1664              	.L137:
1093:uCOS-III\Source/os_tmr.c ****             if (p_tmr != (OS_TMR *)0) {
 1665              		.loc 1 1093 0
 1666 0080 002D     		cmp	r5, #0
 1667 0082 DDD0     		beq	.L142
1116:uCOS-III\Source/os_tmr.c ****             }
ARM GAS  C:\Users\jorti\AppData\Local\Temp\ccmiXXpF.s 			page 53


1117:uCOS-III\Source/os_tmr.c ****         }
1118:uCOS-III\Source/os_tmr.c ****         ts_end = OS_TS_GET() - ts_start;                         /* Measure execution time of timer
 1668              		.loc 1 1118 0
 1669 0084 FFF7FEFF 		bl	CPU_TS_TmrRd
 1670              	.LVL182:
 1671 0088 C71B     		subs	r7, r0, r7
 1672              	.LVL183:
1119:uCOS-III\Source/os_tmr.c ****         OSSchedUnlock(&err);
 1673              		.loc 1 1119 0
 1674 008a 0DF10600 		add	r0, sp, #6
 1675 008e FFF7FEFF 		bl	OSSchedUnlock
 1676              	.LVL184:
1120:uCOS-III\Source/os_tmr.c ****         if (OSTmrTaskTimeMax < ts_end) {
 1677              		.loc 1 1120 0
 1678 0092 064B     		ldr	r3, .L147+12
 1679 0094 1B68     		ldr	r3, [r3]
 1680 0096 9F42     		cmp	r7, r3
 1681 0098 B4D9     		bls	.L143
1121:uCOS-III\Source/os_tmr.c ****             OSTmrTaskTimeMax = ts_end;
 1682              		.loc 1 1121 0
 1683 009a 044B     		ldr	r3, .L147+12
 1684 009c 1F60     		str	r7, [r3]
 1685 009e B1E7     		b	.L143
 1686              	.L148:
 1687              		.align	2
 1688              	.L147:
 1689 00a0 00000000 		.word	OSTmrTickCtr
 1690 00a4 00000000 		.word	OSCfg_TmrWheelSize
 1691 00a8 00000000 		.word	OSCfg_TmrWheel
 1692 00ac 00000000 		.word	OSTmrTaskTimeMax
 1693              		.cfi_endproc
 1694              	.LFE14:
 1695              		.size	OS_TmrTask, .-OS_TmrTask
 1696              		.section	.rodata.str1.4,"aMS",%progbits,1
 1697              		.align	2
 1698              	.LC0:
 1699 0000 3F544D52 		.ascii	"?TMR\000"
 1699      00
 1700 0005 000000   		.space	3
 1701              	.LC1:
 1702 0008 75432F4F 		.ascii	"uC/OS-III Timer Task\000"
 1702      532D4949 
 1702      49205469 
 1702      6D657220 
 1702      5461736B 
 1703              		.text
 1704              	.Letext0:
 1705              		.file 2 ".\\uC-CPU\\ARM-Cortex-M3\\GNU/cpu.h"
 1706              		.file 3 ".\\uC-CPU/cpu_core.h"
 1707              		.file 4 ".\\uCOS-III\\Source/os_type.h"
 1708              		.file 5 ".\\uCOS-III\\Source/os.h"
 1709              		.section	.debug_info,"",%progbits
 1710              	.Ldebug_info0:
 1711 0000 B3160000 		.4byte	0x16b3
 1712 0004 0400     		.2byte	0x4
 1713 0006 00000000 		.4byte	.Ldebug_abbrev0
 1714 000a 04       		.byte	0x4
ARM GAS  C:\Users\jorti\AppData\Local\Temp\ccmiXXpF.s 			page 54


 1715 000b 01       		.uleb128 0x1
 1716 000c D7060000 		.4byte	.LASF358
 1717 0010 0C       		.byte	0xc
 1718 0011 52010000 		.4byte	.LASF359
 1719 0015 2D120000 		.4byte	.LASF360
 1720 0019 00000000 		.4byte	.Ldebug_ranges0+0
 1721 001d 00000000 		.4byte	0
 1722 0021 00000000 		.4byte	.Ldebug_line0
 1723 0025 02       		.uleb128 0x2
 1724 0026 F4070000 		.4byte	.LASF0
 1725 002a 02       		.byte	0x2
 1726 002b 76       		.byte	0x76
 1727 002c 30000000 		.4byte	0x30
 1728 0030 03       		.uleb128 0x3
 1729 0031 01       		.byte	0x1
 1730 0032 08       		.byte	0x8
 1731 0033 B5090000 		.4byte	.LASF2
 1732 0037 02       		.uleb128 0x2
 1733 0038 03110000 		.4byte	.LASF1
 1734 003c 02       		.byte	0x2
 1735 003d 77       		.byte	0x77
 1736 003e 42000000 		.4byte	0x42
 1737 0042 03       		.uleb128 0x3
 1738 0043 01       		.byte	0x1
 1739 0044 08       		.byte	0x8
 1740 0045 66110000 		.4byte	.LASF3
 1741 0049 02       		.uleb128 0x2
 1742 004a 54060000 		.4byte	.LASF4
 1743 004e 02       		.byte	0x2
 1744 004f 78       		.byte	0x78
 1745 0050 42000000 		.4byte	0x42
 1746 0054 03       		.uleb128 0x3
 1747 0055 01       		.byte	0x1
 1748 0056 06       		.byte	0x6
 1749 0057 56130000 		.4byte	.LASF5
 1750 005b 02       		.uleb128 0x2
 1751 005c 780B0000 		.4byte	.LASF6
 1752 0060 02       		.byte	0x2
 1753 0061 7A       		.byte	0x7a
 1754 0062 66000000 		.4byte	0x66
 1755 0066 03       		.uleb128 0x3
 1756 0067 02       		.byte	0x2
 1757 0068 07       		.byte	0x7
 1758 0069 83130000 		.4byte	.LASF7
 1759 006d 03       		.uleb128 0x3
 1760 006e 02       		.byte	0x2
 1761 006f 05       		.byte	0x5
 1762 0070 800E0000 		.4byte	.LASF8
 1763 0074 02       		.uleb128 0x2
 1764 0075 EA010000 		.4byte	.LASF9
 1765 0079 02       		.byte	0x2
 1766 007a 7C       		.byte	0x7c
 1767 007b 7F000000 		.4byte	0x7f
 1768 007f 03       		.uleb128 0x3
 1769 0080 04       		.byte	0x4
 1770 0081 07       		.byte	0x7
 1771 0082 E90F0000 		.4byte	.LASF10
ARM GAS  C:\Users\jorti\AppData\Local\Temp\ccmiXXpF.s 			page 55


 1772 0086 04       		.uleb128 0x4
 1773 0087 04       		.byte	0x4
 1774 0088 05       		.byte	0x5
 1775 0089 696E7400 		.ascii	"int\000"
 1776 008d 03       		.uleb128 0x3
 1777 008e 08       		.byte	0x8
 1778 008f 07       		.byte	0x7
 1779 0090 91050000 		.4byte	.LASF11
 1780 0094 03       		.uleb128 0x3
 1781 0095 08       		.byte	0x8
 1782 0096 05       		.byte	0x5
 1783 0097 D50A0000 		.4byte	.LASF12
 1784 009b 03       		.uleb128 0x3
 1785 009c 04       		.byte	0x4
 1786 009d 04       		.byte	0x4
 1787 009e E4040000 		.4byte	.LASF13
 1788 00a2 03       		.uleb128 0x3
 1789 00a3 08       		.byte	0x8
 1790 00a4 04       		.byte	0x4
 1791 00a5 17140000 		.4byte	.LASF14
 1792 00a9 05       		.uleb128 0x5
 1793 00aa 04       		.byte	0x4
 1794 00ab AF000000 		.4byte	0xaf
 1795 00af 06       		.uleb128 0x6
 1796 00b0 BA000000 		.4byte	0xba
 1797 00b4 07       		.uleb128 0x7
 1798 00b5 BA000000 		.4byte	0xba
 1799 00b9 00       		.byte	0
 1800 00ba 08       		.uleb128 0x8
 1801 00bb 04       		.byte	0x4
 1802 00bc 02       		.uleb128 0x2
 1803 00bd 9B100000 		.4byte	.LASF15
 1804 00c1 02       		.byte	0x2
 1805 00c2 B5       		.byte	0xb5
 1806 00c3 74000000 		.4byte	0x74
 1807 00c7 02       		.uleb128 0x2
 1808 00c8 CF150000 		.4byte	.LASF16
 1809 00cc 02       		.byte	0x2
 1810 00cd D9       		.byte	0xd9
 1811 00ce 74000000 		.4byte	0x74
 1812 00d2 02       		.uleb128 0x2
 1813 00d3 28080000 		.4byte	.LASF17
 1814 00d7 02       		.byte	0x2
 1815 00d8 DA       		.byte	0xda
 1816 00d9 BC000000 		.4byte	0xbc
 1817 00dd 09       		.uleb128 0x9
 1818 00de EB090000 		.4byte	.LASF18
 1819 00e2 02       		.byte	0x2
 1820 00e3 2901     		.2byte	0x129
 1821 00e5 74000000 		.4byte	0x74
 1822 00e9 03       		.uleb128 0x3
 1823 00ea 04       		.byte	0x4
 1824 00eb 05       		.byte	0x5
 1825 00ec B20E0000 		.4byte	.LASF19
 1826 00f0 03       		.uleb128 0x3
 1827 00f1 04       		.byte	0x4
 1828 00f2 07       		.byte	0x7
ARM GAS  C:\Users\jorti\AppData\Local\Temp\ccmiXXpF.s 			page 56


 1829 00f3 6E100000 		.4byte	.LASF20
 1830 00f7 03       		.uleb128 0x3
 1831 00f8 08       		.byte	0x8
 1832 00f9 04       		.byte	0x4
 1833 00fa A20D0000 		.4byte	.LASF21
 1834 00fe 03       		.uleb128 0x3
 1835 00ff 04       		.byte	0x4
 1836 0100 07       		.byte	0x7
 1837 0101 65100000 		.4byte	.LASF22
 1838 0105 02       		.uleb128 0x2
 1839 0106 2A0C0000 		.4byte	.LASF23
 1840 010a 03       		.byte	0x3
 1841 010b C4       		.byte	0xc4
 1842 010c 74000000 		.4byte	0x74
 1843 0110 02       		.uleb128 0x2
 1844 0111 CE0A0000 		.4byte	.LASF24
 1845 0115 03       		.byte	0x3
 1846 0116 C7       		.byte	0xc7
 1847 0117 05010000 		.4byte	0x105
 1848 011b 02       		.uleb128 0x2
 1849 011c C0010000 		.4byte	.LASF25
 1850 0120 04       		.byte	0x4
 1851 0121 30       		.byte	0x30
 1852 0122 5B000000 		.4byte	0x5b
 1853 0126 02       		.uleb128 0x2
 1854 0127 14080000 		.4byte	.LASF26
 1855 012b 04       		.byte	0x4
 1856 012c 32       		.byte	0x32
 1857 012d 74000000 		.4byte	0x74
 1858 0131 02       		.uleb128 0x2
 1859 0132 2F000000 		.4byte	.LASF27
 1860 0136 04       		.byte	0x4
 1861 0137 34       		.byte	0x34
 1862 0138 74000000 		.4byte	0x74
 1863 013c 02       		.uleb128 0x2
 1864 013d 0F110000 		.4byte	.LASF28
 1865 0141 04       		.byte	0x4
 1866 0142 36       		.byte	0x36
 1867 0143 74000000 		.4byte	0x74
 1868 0147 02       		.uleb128 0x2
 1869 0148 96130000 		.4byte	.LASF29
 1870 014c 04       		.byte	0x4
 1871 014d 38       		.byte	0x38
 1872 014e 74000000 		.4byte	0x74
 1873 0152 02       		.uleb128 0x2
 1874 0153 35080000 		.4byte	.LASF30
 1875 0157 04       		.byte	0x4
 1876 0158 3F       		.byte	0x3f
 1877 0159 5B000000 		.4byte	0x5b
 1878 015d 02       		.uleb128 0x2
 1879 015e B9070000 		.4byte	.LASF31
 1880 0162 04       		.byte	0x4
 1881 0163 40       		.byte	0x40
 1882 0164 5B000000 		.4byte	0x5b
 1883 0168 02       		.uleb128 0x2
 1884 0169 370F0000 		.4byte	.LASF32
 1885 016d 04       		.byte	0x4
ARM GAS  C:\Users\jorti\AppData\Local\Temp\ccmiXXpF.s 			page 57


 1886 016e 42       		.byte	0x42
 1887 016f 49000000 		.4byte	0x49
 1888 0173 02       		.uleb128 0x2
 1889 0174 A7020000 		.4byte	.LASF33
 1890 0178 04       		.byte	0x4
 1891 0179 44       		.byte	0x44
 1892 017a 5B000000 		.4byte	0x5b
 1893 017e 02       		.uleb128 0x2
 1894 017f BA090000 		.4byte	.LASF34
 1895 0183 04       		.byte	0x4
 1896 0184 45       		.byte	0x45
 1897 0185 74000000 		.4byte	0x74
 1898 0189 02       		.uleb128 0x2
 1899 018a AD110000 		.4byte	.LASF35
 1900 018e 04       		.byte	0x4
 1901 018f 47       		.byte	0x47
 1902 0190 5B000000 		.4byte	0x5b
 1903 0194 02       		.uleb128 0x2
 1904 0195 DC040000 		.4byte	.LASF36
 1905 0199 04       		.byte	0x4
 1906 019a 49       		.byte	0x49
 1907 019b 49000000 		.4byte	0x49
 1908 019f 02       		.uleb128 0x2
 1909 01a0 3E0A0000 		.4byte	.LASF37
 1910 01a4 04       		.byte	0x4
 1911 01a5 4D       		.byte	0x4d
 1912 01a6 74000000 		.4byte	0x74
 1913 01aa 02       		.uleb128 0x2
 1914 01ab D0060000 		.4byte	.LASF38
 1915 01af 04       		.byte	0x4
 1916 01b0 4F       		.byte	0x4f
 1917 01b1 74000000 		.4byte	0x74
 1918 01b5 02       		.uleb128 0x2
 1919 01b6 560C0000 		.4byte	.LASF39
 1920 01ba 04       		.byte	0x4
 1921 01bb 52       		.byte	0x52
 1922 01bc 74000000 		.4byte	0x74
 1923 01c0 02       		.uleb128 0x2
 1924 01c1 A4110000 		.4byte	.LASF40
 1925 01c5 04       		.byte	0x4
 1926 01c6 54       		.byte	0x54
 1927 01c7 49000000 		.4byte	0x49
 1928 01cb 02       		.uleb128 0x2
 1929 01cc 71070000 		.4byte	.LASF41
 1930 01d0 04       		.byte	0x4
 1931 01d1 56       		.byte	0x56
 1932 01d2 49000000 		.4byte	0x49
 1933 01d6 02       		.uleb128 0x2
 1934 01d7 E10B0000 		.4byte	.LASF42
 1935 01db 04       		.byte	0x4
 1936 01dc 58       		.byte	0x58
 1937 01dd 74000000 		.4byte	0x74
 1938 01e1 02       		.uleb128 0x2
 1939 01e2 F2090000 		.4byte	.LASF43
 1940 01e6 04       		.byte	0x4
 1941 01e7 5B       		.byte	0x5b
 1942 01e8 5B000000 		.4byte	0x5b
ARM GAS  C:\Users\jorti\AppData\Local\Temp\ccmiXXpF.s 			page 58


 1943 01ec 0A       		.uleb128 0xa
 1944 01ed 85010000 		.4byte	.LASF361
 1945 01f1 02       		.byte	0x2
 1946 01f2 66000000 		.4byte	0x66
 1947 01f6 05       		.byte	0x5
 1948 01f7 A501     		.2byte	0x1a5
 1949 01f9 64060000 		.4byte	0x664
 1950 01fd 0B       		.uleb128 0xb
 1951 01fe BF130000 		.4byte	.LASF44
 1952 0202 00       		.byte	0
 1953 0203 0C       		.uleb128 0xc
 1954 0204 83000000 		.4byte	.LASF45
 1955 0208 1027     		.2byte	0x2710
 1956 020a 0C       		.uleb128 0xc
 1957 020b 2A030000 		.4byte	.LASF46
 1958 020f 1127     		.2byte	0x2711
 1959 0211 0C       		.uleb128 0xc
 1960 0212 8C000000 		.4byte	.LASF47
 1961 0216 F82A     		.2byte	0x2af8
 1962 0218 0C       		.uleb128 0xc
 1963 0219 95000000 		.4byte	.LASF48
 1964 021d E02E     		.2byte	0x2ee0
 1965 021f 0C       		.uleb128 0xc
 1966 0220 AE010000 		.4byte	.LASF49
 1967 0224 E12E     		.2byte	0x2ee1
 1968 0226 0C       		.uleb128 0xc
 1969 0227 9E000000 		.4byte	.LASF50
 1970 022b C832     		.2byte	0x32c8
 1971 022d 0C       		.uleb128 0xc
 1972 022e 7F090000 		.4byte	.LASF51
 1973 0232 C932     		.2byte	0x32c9
 1974 0234 0C       		.uleb128 0xc
 1975 0235 A7000000 		.4byte	.LASF52
 1976 0239 B036     		.2byte	0x36b0
 1977 023b 0C       		.uleb128 0xc
 1978 023c B0000000 		.4byte	.LASF53
 1979 0240 983A     		.2byte	0x3a98
 1980 0242 0C       		.uleb128 0xc
 1981 0243 6F130000 		.4byte	.LASF54
 1982 0247 993A     		.2byte	0x3a99
 1983 0249 0C       		.uleb128 0xc
 1984 024a D1080000 		.4byte	.LASF55
 1985 024e FD3A     		.2byte	0x3afd
 1986 0250 0C       		.uleb128 0xc
 1987 0251 44100000 		.4byte	.LASF56
 1988 0255 FE3A     		.2byte	0x3afe
 1989 0257 0C       		.uleb128 0xc
 1990 0258 E30A0000 		.4byte	.LASF57
 1991 025c FF3A     		.2byte	0x3aff
 1992 025e 0C       		.uleb128 0xc
 1993 025f FA130000 		.4byte	.LASF58
 1994 0263 003B     		.2byte	0x3b00
 1995 0265 0C       		.uleb128 0xc
 1996 0266 B9000000 		.4byte	.LASF59
 1997 026a 803E     		.2byte	0x3e80
 1998 026c 0C       		.uleb128 0xc
 1999 026d C2000000 		.4byte	.LASF60
ARM GAS  C:\Users\jorti\AppData\Local\Temp\ccmiXXpF.s 			page 59


 2000 0271 6842     		.2byte	0x4268
 2001 0273 0C       		.uleb128 0xc
 2002 0274 CB000000 		.4byte	.LASF61
 2003 0278 5046     		.2byte	0x4650
 2004 027a 0C       		.uleb128 0xc
 2005 027b 66040000 		.4byte	.LASF62
 2006 027f 5146     		.2byte	0x4651
 2007 0281 0C       		.uleb128 0xc
 2008 0282 F8020000 		.4byte	.LASF63
 2009 0286 5246     		.2byte	0x4652
 2010 0288 0C       		.uleb128 0xc
 2011 0289 1C040000 		.4byte	.LASF64
 2012 028d 5346     		.2byte	0x4653
 2013 028f 0C       		.uleb128 0xc
 2014 0290 9C010000 		.4byte	.LASF65
 2015 0294 5446     		.2byte	0x4654
 2016 0296 0C       		.uleb128 0xc
 2017 0297 E7120000 		.4byte	.LASF66
 2018 029b 5546     		.2byte	0x4655
 2019 029d 0C       		.uleb128 0xc
 2020 029e 250D0000 		.4byte	.LASF67
 2021 02a2 5646     		.2byte	0x4656
 2022 02a4 0C       		.uleb128 0xc
 2023 02a5 D4000000 		.4byte	.LASF68
 2024 02a9 384A     		.2byte	0x4a38
 2025 02ab 0C       		.uleb128 0xc
 2026 02ac DD000000 		.4byte	.LASF69
 2027 02b0 204E     		.2byte	0x4e20
 2028 02b2 0C       		.uleb128 0xc
 2029 02b3 E6000000 		.4byte	.LASF70
 2030 02b7 0852     		.2byte	0x5208
 2031 02b9 0C       		.uleb128 0xc
 2032 02ba 440E0000 		.4byte	.LASF71
 2033 02be 0952     		.2byte	0x5209
 2034 02c0 0C       		.uleb128 0xc
 2035 02c1 EF000000 		.4byte	.LASF72
 2036 02c5 F055     		.2byte	0x55f0
 2037 02c7 0C       		.uleb128 0xc
 2038 02c8 C9110000 		.4byte	.LASF73
 2039 02cc B956     		.2byte	0x56b9
 2040 02ce 0C       		.uleb128 0xc
 2041 02cf E90B0000 		.4byte	.LASF74
 2042 02d3 BA56     		.2byte	0x56ba
 2043 02d5 0C       		.uleb128 0xc
 2044 02d6 240E0000 		.4byte	.LASF75
 2045 02da BB56     		.2byte	0x56bb
 2046 02dc 0C       		.uleb128 0xc
 2047 02dd EA080000 		.4byte	.LASF76
 2048 02e1 BC56     		.2byte	0x56bc
 2049 02e3 0C       		.uleb128 0xc
 2050 02e4 9F0B0000 		.4byte	.LASF77
 2051 02e8 BD56     		.2byte	0x56bd
 2052 02ea 0C       		.uleb128 0xc
 2053 02eb 0B0E0000 		.4byte	.LASF78
 2054 02ef BE56     		.2byte	0x56be
 2055 02f1 0C       		.uleb128 0xc
 2056 02f2 110C0000 		.4byte	.LASF79
ARM GAS  C:\Users\jorti\AppData\Local\Temp\ccmiXXpF.s 			page 60


 2057 02f6 BF56     		.2byte	0x56bf
 2058 02f8 0C       		.uleb128 0xc
 2059 02f9 2F050000 		.4byte	.LASF80
 2060 02fd C056     		.2byte	0x56c0
 2061 02ff 0C       		.uleb128 0xc
 2062 0300 A6140000 		.4byte	.LASF81
 2063 0304 C156     		.2byte	0x56c1
 2064 0306 0C       		.uleb128 0xc
 2065 0307 A8150000 		.4byte	.LASF82
 2066 030b C256     		.2byte	0x56c2
 2067 030d 0C       		.uleb128 0xc
 2068 030e 9C0E0000 		.4byte	.LASF83
 2069 0312 1D57     		.2byte	0x571d
 2070 0314 0C       		.uleb128 0xc
 2071 0315 1E0F0000 		.4byte	.LASF84
 2072 0319 1E57     		.2byte	0x571e
 2073 031b 0C       		.uleb128 0xc
 2074 031c A2070000 		.4byte	.LASF85
 2075 0320 8157     		.2byte	0x5781
 2076 0322 0C       		.uleb128 0xc
 2077 0323 0B100000 		.4byte	.LASF86
 2078 0327 8257     		.2byte	0x5782
 2079 0329 0C       		.uleb128 0xc
 2080 032a 54030000 		.4byte	.LASF87
 2081 032e 8357     		.2byte	0x5783
 2082 0330 0C       		.uleb128 0xc
 2083 0331 F8000000 		.4byte	.LASF88
 2084 0335 D859     		.2byte	0x59d8
 2085 0337 0C       		.uleb128 0xc
 2086 0338 65070000 		.4byte	.LASF89
 2087 033c D959     		.2byte	0x59d9
 2088 033e 0C       		.uleb128 0xc
 2089 033f 09050000 		.4byte	.LASF90
 2090 0343 DA59     		.2byte	0x59da
 2091 0345 0C       		.uleb128 0xc
 2092 0346 01010000 		.4byte	.LASF91
 2093 034a C05D     		.2byte	0x5dc0
 2094 034c 0C       		.uleb128 0xc
 2095 034d A5030000 		.4byte	.LASF92
 2096 0351 C15D     		.2byte	0x5dc1
 2097 0353 0C       		.uleb128 0xc
 2098 0354 BF0A0000 		.4byte	.LASF93
 2099 0358 C25D     		.2byte	0x5dc2
 2100 035a 0C       		.uleb128 0xc
 2101 035b B70B0000 		.4byte	.LASF94
 2102 035f C35D     		.2byte	0x5dc3
 2103 0361 0C       		.uleb128 0xc
 2104 0362 8B0F0000 		.4byte	.LASF95
 2105 0366 C45D     		.2byte	0x5dc4
 2106 0368 0C       		.uleb128 0xc
 2107 0369 D8090000 		.4byte	.LASF96
 2108 036d 255E     		.2byte	0x5e25
 2109 036f 0C       		.uleb128 0xc
 2110 0370 AE0D0000 		.4byte	.LASF97
 2111 0374 895E     		.2byte	0x5e89
 2112 0376 0C       		.uleb128 0xc
 2113 0377 40080000 		.4byte	.LASF98
ARM GAS  C:\Users\jorti\AppData\Local\Temp\ccmiXXpF.s 			page 61


 2114 037b 8A5E     		.2byte	0x5e8a
 2115 037d 0C       		.uleb128 0xc
 2116 037e 0A010000 		.4byte	.LASF99
 2117 0382 A861     		.2byte	0x61a8
 2118 0384 0C       		.uleb128 0xc
 2119 0385 1E140000 		.4byte	.LASF100
 2120 0389 A961     		.2byte	0x61a9
 2121 038b 0C       		.uleb128 0xc
 2122 038c 85100000 		.4byte	.LASF101
 2123 0390 AA61     		.2byte	0x61aa
 2124 0392 0C       		.uleb128 0xc
 2125 0393 D20F0000 		.4byte	.LASF102
 2126 0397 AB61     		.2byte	0x61ab
 2127 0399 0C       		.uleb128 0xc
 2128 039a 610B0000 		.4byte	.LASF103
 2129 039e AC61     		.2byte	0x61ac
 2130 03a0 0C       		.uleb128 0xc
 2131 03a1 70140000 		.4byte	.LASF104
 2132 03a5 AD61     		.2byte	0x61ad
 2133 03a7 0C       		.uleb128 0xc
 2134 03a8 07120000 		.4byte	.LASF105
 2135 03ac AE61     		.2byte	0x61ae
 2136 03ae 0C       		.uleb128 0xc
 2137 03af 94020000 		.4byte	.LASF106
 2138 03b3 AF61     		.2byte	0x61af
 2139 03b5 0C       		.uleb128 0xc
 2140 03b6 28020000 		.4byte	.LASF107
 2141 03ba B061     		.2byte	0x61b0
 2142 03bc 0C       		.uleb128 0xc
 2143 03bd F4040000 		.4byte	.LASF108
 2144 03c1 0D62     		.2byte	0x620d
 2145 03c3 0C       		.uleb128 0xc
 2146 03c4 A4100000 		.4byte	.LASF109
 2147 03c8 0E62     		.2byte	0x620e
 2148 03ca 0C       		.uleb128 0xc
 2149 03cb 7B150000 		.4byte	.LASF110
 2150 03cf 7162     		.2byte	0x6271
 2151 03d1 0C       		.uleb128 0xc
 2152 03d2 51140000 		.4byte	.LASF111
 2153 03d6 7262     		.2byte	0x6272
 2154 03d8 0C       		.uleb128 0xc
 2155 03d9 14000000 		.4byte	.LASF112
 2156 03dd 7362     		.2byte	0x6273
 2157 03df 0C       		.uleb128 0xc
 2158 03e0 720D0000 		.4byte	.LASF113
 2159 03e4 D562     		.2byte	0x62d5
 2160 03e6 0C       		.uleb128 0xc
 2161 03e7 13010000 		.4byte	.LASF114
 2162 03eb 9065     		.2byte	0x6590
 2163 03ed 0C       		.uleb128 0xc
 2164 03ee B6120000 		.4byte	.LASF115
 2165 03f2 9165     		.2byte	0x6591
 2166 03f4 0C       		.uleb128 0xc
 2167 03f5 A0060000 		.4byte	.LASF116
 2168 03f9 9265     		.2byte	0x6592
 2169 03fb 0C       		.uleb128 0xc
 2170 03fc A0090000 		.4byte	.LASF117
ARM GAS  C:\Users\jorti\AppData\Local\Temp\ccmiXXpF.s 			page 62


 2171 0400 9365     		.2byte	0x6593
 2172 0402 0C       		.uleb128 0xc
 2173 0403 140B0000 		.4byte	.LASF118
 2174 0407 9465     		.2byte	0x6594
 2175 0409 0C       		.uleb128 0xc
 2176 040a 1C010000 		.4byte	.LASF119
 2177 040e 7869     		.2byte	0x6978
 2178 0410 0C       		.uleb128 0xc
 2179 0411 CB0B0000 		.4byte	.LASF120
 2180 0415 7969     		.2byte	0x6979
 2181 0417 0C       		.uleb128 0xc
 2182 0418 F60D0000 		.4byte	.LASF121
 2183 041c 7A69     		.2byte	0x697a
 2184 041e 0C       		.uleb128 0xc
 2185 041f 830B0000 		.4byte	.LASF122
 2186 0423 7B69     		.2byte	0x697b
 2187 0425 0C       		.uleb128 0xc
 2188 0426 25010000 		.4byte	.LASF123
 2189 042a 606D     		.2byte	0x6d60
 2190 042c 0C       		.uleb128 0xc
 2191 042d 0D0A0000 		.4byte	.LASF124
 2192 0431 616D     		.2byte	0x6d61
 2193 0433 0C       		.uleb128 0xc
 2194 0434 51090000 		.4byte	.LASF125
 2195 0438 626D     		.2byte	0x6d62
 2196 043a 0C       		.uleb128 0xc
 2197 043b E6130000 		.4byte	.LASF126
 2198 043f 636D     		.2byte	0x6d63
 2199 0441 0C       		.uleb128 0xc
 2200 0442 39140000 		.4byte	.LASF127
 2201 0446 646D     		.2byte	0x6d64
 2202 0448 0C       		.uleb128 0xc
 2203 0449 BB0E0000 		.4byte	.LASF128
 2204 044d 656D     		.2byte	0x6d65
 2205 044f 0C       		.uleb128 0xc
 2206 0450 04150000 		.4byte	.LASF129
 2207 0454 C56D     		.2byte	0x6dc5
 2208 0456 0C       		.uleb128 0xc
 2209 0457 D4140000 		.4byte	.LASF130
 2210 045b C66D     		.2byte	0x6dc6
 2211 045d 0C       		.uleb128 0xc
 2212 045e 7E020000 		.4byte	.LASF131
 2213 0462 296E     		.2byte	0x6e29
 2214 0464 0C       		.uleb128 0xc
 2215 0465 570A0000 		.4byte	.LASF132
 2216 0469 2A6E     		.2byte	0x6e2a
 2217 046b 0C       		.uleb128 0xc
 2218 046c AA080000 		.4byte	.LASF133
 2219 0470 2B6E     		.2byte	0x6e2b
 2220 0472 0C       		.uleb128 0xc
 2221 0473 27100000 		.4byte	.LASF134
 2222 0477 2C6E     		.2byte	0x6e2c
 2223 0479 0C       		.uleb128 0xc
 2224 047a 850D0000 		.4byte	.LASF135
 2225 047e 2D6E     		.2byte	0x6e2d
 2226 0480 0C       		.uleb128 0xc
 2227 0481 E8110000 		.4byte	.LASF136
ARM GAS  C:\Users\jorti\AppData\Local\Temp\ccmiXXpF.s 			page 63


 2228 0485 2E6E     		.2byte	0x6e2e
 2229 0487 0C       		.uleb128 0xc
 2230 0488 F5010000 		.4byte	.LASF137
 2231 048c 2F6E     		.2byte	0x6e2f
 2232 048e 0C       		.uleb128 0xc
 2233 048f 20110000 		.4byte	.LASF138
 2234 0493 306E     		.2byte	0x6e30
 2235 0495 0C       		.uleb128 0xc
 2236 0496 C8100000 		.4byte	.LASF139
 2237 049a 316E     		.2byte	0x6e31
 2238 049c 0C       		.uleb128 0xc
 2239 049d 2E010000 		.4byte	.LASF140
 2240 04a1 4871     		.2byte	0x7148
 2241 04a3 0C       		.uleb128 0xc
 2242 04a4 4B020000 		.4byte	.LASF141
 2243 04a8 4971     		.2byte	0x7149
 2244 04aa 0C       		.uleb128 0xc
 2245 04ab FD070000 		.4byte	.LASF142
 2246 04af 4A71     		.2byte	0x714a
 2247 04b1 0C       		.uleb128 0xc
 2248 04b2 1C130000 		.4byte	.LASF143
 2249 04b6 4B71     		.2byte	0x714b
 2250 04b8 0C       		.uleb128 0xc
 2251 04b9 13150000 		.4byte	.LASF144
 2252 04bd 4C71     		.2byte	0x714c
 2253 04bf 0C       		.uleb128 0xc
 2254 04c0 04060000 		.4byte	.LASF145
 2255 04c4 4D71     		.2byte	0x714d
 2256 04c6 0C       		.uleb128 0xc
 2257 04c7 520D0000 		.4byte	.LASF146
 2258 04cb 4E71     		.2byte	0x714e
 2259 04cd 0C       		.uleb128 0xc
 2260 04ce C70C0000 		.4byte	.LASF147
 2261 04d2 4F71     		.2byte	0x714f
 2262 04d4 0C       		.uleb128 0xc
 2263 04d5 F90B0000 		.4byte	.LASF148
 2264 04d9 5071     		.2byte	0x7150
 2265 04db 0C       		.uleb128 0xc
 2266 04dc D9020000 		.4byte	.LASF149
 2267 04e0 5171     		.2byte	0x7151
 2268 04e2 0C       		.uleb128 0xc
 2269 04e3 A00C0000 		.4byte	.LASF150
 2270 04e7 5271     		.2byte	0x7152
 2271 04e9 0C       		.uleb128 0xc
 2272 04ea BF020000 		.4byte	.LASF151
 2273 04ee 5371     		.2byte	0x7153
 2274 04f0 0C       		.uleb128 0xc
 2275 04f1 74110000 		.4byte	.LASF152
 2276 04f5 5471     		.2byte	0x7154
 2277 04f7 0C       		.uleb128 0xc
 2278 04f8 11020000 		.4byte	.LASF153
 2279 04fc 5571     		.2byte	0x7155
 2280 04fe 0C       		.uleb128 0xc
 2281 04ff AF040000 		.4byte	.LASF154
 2282 0503 5671     		.2byte	0x7156
 2283 0505 0C       		.uleb128 0xc
 2284 0506 5E0F0000 		.4byte	.LASF155
ARM GAS  C:\Users\jorti\AppData\Local\Temp\ccmiXXpF.s 			page 64


 2285 050a 5771     		.2byte	0x7157
 2286 050c 0C       		.uleb128 0xc
 2287 050d A8050000 		.4byte	.LASF156
 2288 0511 5871     		.2byte	0x7158
 2289 0513 0C       		.uleb128 0xc
 2290 0514 5C0E0000 		.4byte	.LASF157
 2291 0518 5971     		.2byte	0x7159
 2292 051a 0C       		.uleb128 0xc
 2293 051b BE140000 		.4byte	.LASF158
 2294 051f 5A71     		.2byte	0x715a
 2295 0521 0C       		.uleb128 0xc
 2296 0522 03040000 		.4byte	.LASF159
 2297 0526 5B71     		.2byte	0x715b
 2298 0528 0C       		.uleb128 0xc
 2299 0529 E4050000 		.4byte	.LASF160
 2300 052d 5C71     		.2byte	0x715c
 2301 052f 0C       		.uleb128 0xc
 2302 0530 3C030000 		.4byte	.LASF161
 2303 0534 5D71     		.2byte	0x715d
 2304 0536 0C       		.uleb128 0xc
 2305 0537 F30C0000 		.4byte	.LASF162
 2306 053b 5E71     		.2byte	0x715e
 2307 053d 0C       		.uleb128 0xc
 2308 053e 10030000 		.4byte	.LASF163
 2309 0542 5F71     		.2byte	0x715f
 2310 0544 0C       		.uleb128 0xc
 2311 0545 73060000 		.4byte	.LASF164
 2312 0549 AD71     		.2byte	0x71ad
 2313 054b 0C       		.uleb128 0xc
 2314 054c 7B050000 		.4byte	.LASF165
 2315 0550 C071     		.2byte	0x71c0
 2316 0552 0C       		.uleb128 0xc
 2317 0553 430D0000 		.4byte	.LASF166
 2318 0557 C171     		.2byte	0x71c1
 2319 0559 0C       		.uleb128 0xc
 2320 055a A6130000 		.4byte	.LASF167
 2321 055e C271     		.2byte	0x71c2
 2322 0560 0C       		.uleb128 0xc
 2323 0561 C6090000 		.4byte	.LASF168
 2324 0565 C371     		.2byte	0x71c3
 2325 0567 0C       		.uleb128 0xc
 2326 0568 85070000 		.4byte	.LASF169
 2327 056c C471     		.2byte	0x71c4
 2328 056e 0C       		.uleb128 0xc
 2329 056f 62150000 		.4byte	.LASF170
 2330 0573 1172     		.2byte	0x7211
 2331 0575 0C       		.uleb128 0xc
 2332 0576 060F0000 		.4byte	.LASF171
 2333 057a 1272     		.2byte	0x7212
 2334 057c 0C       		.uleb128 0xc
 2335 057d CD010000 		.4byte	.LASF172
 2336 0581 1372     		.2byte	0x7213
 2337 0583 0C       		.uleb128 0xc
 2338 0584 7D0C0000 		.4byte	.LASF173
 2339 0588 1472     		.2byte	0x7214
 2340 058a 0C       		.uleb128 0xc
 2341 058b B4100000 		.4byte	.LASF174
ARM GAS  C:\Users\jorti\AppData\Local\Temp\ccmiXXpF.s 			page 65


 2342 058f 7572     		.2byte	0x7275
 2343 0591 0C       		.uleb128 0xc
 2344 0592 47150000 		.4byte	.LASF175
 2345 0596 7672     		.2byte	0x7276
 2346 0598 0C       		.uleb128 0xc
 2347 0599 28150000 		.4byte	.LASF176
 2348 059d 7772     		.2byte	0x7277
 2349 059f 0C       		.uleb128 0xc
 2350 05a0 C5070000 		.4byte	.LASF177
 2351 05a4 7872     		.2byte	0x7278
 2352 05a6 0C       		.uleb128 0xc
 2353 05a7 67000000 		.4byte	.LASF178
 2354 05ab 7972     		.2byte	0x7279
 2355 05ad 0C       		.uleb128 0xc
 2356 05ae 00130000 		.4byte	.LASF179
 2357 05b2 7A72     		.2byte	0x727a
 2358 05b4 0C       		.uleb128 0xc
 2359 05b5 AF060000 		.4byte	.LASF180
 2360 05b9 7B72     		.2byte	0x727b
 2361 05bb 0C       		.uleb128 0xc
 2362 05bc 700A0000 		.4byte	.LASF181
 2363 05c0 7C72     		.2byte	0x727c
 2364 05c2 0C       		.uleb128 0xc
 2365 05c3 E20D0000 		.4byte	.LASF182
 2366 05c7 7D72     		.2byte	0x727d
 2367 05c9 0C       		.uleb128 0xc
 2368 05ca 80080000 		.4byte	.LASF183
 2369 05ce 7E72     		.2byte	0x727e
 2370 05d0 0C       		.uleb128 0xc
 2371 05d1 84110000 		.4byte	.LASF184
 2372 05d5 D972     		.2byte	0x72d9
 2373 05d7 0C       		.uleb128 0xc
 2374 05d8 67050000 		.4byte	.LASF185
 2375 05dc 3D73     		.2byte	0x733d
 2376 05de 0C       		.uleb128 0xc
 2377 05df 39090000 		.4byte	.LASF186
 2378 05e3 3E73     		.2byte	0x733e
 2379 05e5 0C       		.uleb128 0xc
 2380 05e6 8F040000 		.4byte	.LASF187
 2381 05ea 3F73     		.2byte	0x733f
 2382 05ec 0C       		.uleb128 0xc
 2383 05ed 6B010000 		.4byte	.LASF188
 2384 05f1 4073     		.2byte	0x7340
 2385 05f3 0C       		.uleb128 0xc
 2386 05f4 72030000 		.4byte	.LASF189
 2387 05f8 4173     		.2byte	0x7341
 2388 05fa 0C       		.uleb128 0xc
 2389 05fb C4050000 		.4byte	.LASF190
 2390 05ff 4273     		.2byte	0x7342
 2391 0601 0C       		.uleb128 0xc
 2392 0602 58000000 		.4byte	.LASF191
 2393 0606 4373     		.2byte	0x7343
 2394 0608 0C       		.uleb128 0xc
 2395 0609 50050000 		.4byte	.LASF192
 2396 060d 4473     		.2byte	0x7344
 2397 060f 0C       		.uleb128 0xc
 2398 0610 DF070000 		.4byte	.LASF193
ARM GAS  C:\Users\jorti\AppData\Local\Temp\ccmiXXpF.s 			page 66


 2399 0614 4573     		.2byte	0x7345
 2400 0616 0C       		.uleb128 0xc
 2401 0617 DB0C0000 		.4byte	.LASF194
 2402 061b 4673     		.2byte	0x7346
 2403 061d 0C       		.uleb128 0xc
 2404 061e 32060000 		.4byte	.LASF195
 2405 0622 4773     		.2byte	0x7347
 2406 0624 0C       		.uleb128 0xc
 2407 0625 610C0000 		.4byte	.LASF196
 2408 0629 4873     		.2byte	0x7348
 2409 062b 0C       		.uleb128 0xc
 2410 062c 53110000 		.4byte	.LASF197
 2411 0630 4973     		.2byte	0x7349
 2412 0632 0C       		.uleb128 0xc
 2413 0633 37010000 		.4byte	.LASF198
 2414 0637 3075     		.2byte	0x7530
 2415 0639 0C       		.uleb128 0xc
 2416 063a 40010000 		.4byte	.LASF199
 2417 063e 1879     		.2byte	0x7918
 2418 0640 0C       		.uleb128 0xc
 2419 0641 49010000 		.4byte	.LASF200
 2420 0645 007D     		.2byte	0x7d00
 2421 0647 0C       		.uleb128 0xc
 2422 0648 DF110000 		.4byte	.LASF201
 2423 064c E880     		.2byte	0x80e8
 2424 064e 0C       		.uleb128 0xc
 2425 064f FE110000 		.4byte	.LASF202
 2426 0653 D084     		.2byte	0x84d0
 2427 0655 0C       		.uleb128 0xc
 2428 0656 AE0A0000 		.4byte	.LASF203
 2429 065a D184     		.2byte	0x84d1
 2430 065c 0C       		.uleb128 0xc
 2431 065d 17120000 		.4byte	.LASF204
 2432 0661 B888     		.2byte	0x88b8
 2433 0663 00       		.byte	0
 2434 0664 09       		.uleb128 0x9
 2435 0665 28000000 		.4byte	.LASF205
 2436 0669 05       		.byte	0x5
 2437 066a 7202     		.2byte	0x272
 2438 066c EC010000 		.4byte	0x1ec
 2439 0670 09       		.uleb128 0x9
 2440 0671 2B090000 		.4byte	.LASF206
 2441 0675 05       		.byte	0x5
 2442 0676 8202     		.2byte	0x282
 2443 0678 7C060000 		.4byte	0x67c
 2444 067c 0D       		.uleb128 0xd
 2445 067d 6C060000 		.4byte	.LASF212
 2446 0681 10       		.byte	0x10
 2447 0682 05       		.byte	0x5
 2448 0683 4003     		.2byte	0x340
 2449 0685 BE060000 		.4byte	0x6be
 2450 0689 0E       		.uleb128 0xe
 2451 068a 9A0D0000 		.4byte	.LASF207
 2452 068e 05       		.byte	0x5
 2453 068f 4103     		.2byte	0x341
 2454 0691 8C0C0000 		.4byte	0xc8c
 2455 0695 00       		.byte	0
ARM GAS  C:\Users\jorti\AppData\Local\Temp\ccmiXXpF.s 			page 67


 2456 0696 0E       		.uleb128 0xe
 2457 0697 9F130000 		.4byte	.LASF208
 2458 069b 05       		.byte	0x5
 2459 069c 4203     		.2byte	0x342
 2460 069e BA000000 		.4byte	0xba
 2461 06a2 04       		.byte	0x4
 2462 06a3 0E       		.uleb128 0xe
 2463 06a4 03100000 		.4byte	.LASF209
 2464 06a8 05       		.byte	0x5
 2465 06a9 4303     		.2byte	0x343
 2466 06ab 5D010000 		.4byte	0x15d
 2467 06af 08       		.byte	0x8
 2468 06b0 0E       		.uleb128 0xe
 2469 06b1 69130000 		.4byte	.LASF210
 2470 06b5 05       		.byte	0x5
 2471 06b6 4403     		.2byte	0x344
 2472 06b8 10010000 		.4byte	0x110
 2473 06bc 0C       		.byte	0xc
 2474 06bd 00       		.byte	0
 2475 06be 09       		.uleb128 0x9
 2476 06bf 970A0000 		.4byte	.LASF211
 2477 06c3 05       		.byte	0x5
 2478 06c4 8402     		.2byte	0x284
 2479 06c6 CA060000 		.4byte	0x6ca
 2480 06ca 0D       		.uleb128 0xd
 2481 06cb 8D150000 		.4byte	.LASF213
 2482 06cf 10       		.byte	0x10
 2483 06d0 05       		.byte	0x5
 2484 06d1 5303     		.2byte	0x353
 2485 06d3 19070000 		.4byte	0x719
 2486 06d7 0E       		.uleb128 0xe
 2487 06d8 B10F0000 		.4byte	.LASF214
 2488 06dc 05       		.byte	0x5
 2489 06dd 5403     		.2byte	0x354
 2490 06df 8C0C0000 		.4byte	0xc8c
 2491 06e3 00       		.byte	0
 2492 06e4 0E       		.uleb128 0xe
 2493 06e5 A2120000 		.4byte	.LASF215
 2494 06e9 05       		.byte	0x5
 2495 06ea 5503     		.2byte	0x355
 2496 06ec 8C0C0000 		.4byte	0xc8c
 2497 06f0 04       		.byte	0x4
 2498 06f1 0E       		.uleb128 0xe
 2499 06f2 66080000 		.4byte	.LASF216
 2500 06f6 05       		.byte	0x5
 2501 06f7 5603     		.2byte	0x356
 2502 06f9 52010000 		.4byte	0x152
 2503 06fd 08       		.byte	0x8
 2504 06fe 0E       		.uleb128 0xe
 2505 06ff 8C010000 		.4byte	.LASF217
 2506 0703 05       		.byte	0x5
 2507 0704 5703     		.2byte	0x357
 2508 0706 52010000 		.4byte	0x152
 2509 070a 0A       		.byte	0xa
 2510 070b 0E       		.uleb128 0xe
 2511 070c 8B140000 		.4byte	.LASF218
 2512 0710 05       		.byte	0x5
ARM GAS  C:\Users\jorti\AppData\Local\Temp\ccmiXXpF.s 			page 68


 2513 0711 5803     		.2byte	0x358
 2514 0713 52010000 		.4byte	0x152
 2515 0717 0C       		.byte	0xc
 2516 0718 00       		.byte	0
 2517 0719 09       		.uleb128 0x9
 2518 071a B4110000 		.4byte	.LASF219
 2519 071e 05       		.byte	0x5
 2520 071f 8E02     		.2byte	0x28e
 2521 0721 A9000000 		.4byte	0xa9
 2522 0725 09       		.uleb128 0x9
 2523 0726 19110000 		.4byte	.LASF220
 2524 072a 05       		.byte	0x5
 2525 072b 9002     		.2byte	0x290
 2526 072d 31070000 		.4byte	0x731
 2527 0731 0D       		.uleb128 0xd
 2528 0732 00000000 		.4byte	.LASF221
 2529 0736 C0       		.byte	0xc0
 2530 0737 05       		.byte	0x5
 2531 0738 AB03     		.2byte	0x3ab
 2532 073a D5090000 		.4byte	0x9d5
 2533 073e 0E       		.uleb128 0xe
 2534 073f F80A0000 		.4byte	.LASF222
 2535 0743 05       		.byte	0x5
 2536 0744 AC03     		.2byte	0x3ac
 2537 0746 920C0000 		.4byte	0xc92
 2538 074a 00       		.byte	0
 2539 074b 0E       		.uleb128 0xe
 2540 074c 5E100000 		.4byte	.LASF223
 2541 0750 05       		.byte	0x5
 2542 0751 AE03     		.2byte	0x3ae
 2543 0753 BA000000 		.4byte	0xba
 2544 0757 04       		.byte	0x4
 2545 0758 0E       		.uleb128 0xe
 2546 0759 3E0C0000 		.4byte	.LASF224
 2547 075d 05       		.byte	0x5
 2548 075e B003     		.2byte	0x3b0
 2549 0760 920C0000 		.4byte	0xc92
 2550 0764 08       		.byte	0x8
 2551 0765 0E       		.uleb128 0xe
 2552 0766 9A0D0000 		.4byte	.LASF207
 2553 076a 05       		.byte	0x5
 2554 076b B203     		.2byte	0x3b2
 2555 076d 740C0000 		.4byte	0xc74
 2556 0771 0C       		.byte	0xc
 2557 0772 0E       		.uleb128 0xe
 2558 0773 AD090000 		.4byte	.LASF225
 2559 0777 05       		.byte	0x5
 2560 0778 B303     		.2byte	0x3b3
 2561 077a 740C0000 		.4byte	0xc74
 2562 077e 10       		.byte	0x10
 2563 077f 0E       		.uleb128 0xe
 2564 0780 940C0000 		.4byte	.LASF226
 2565 0784 05       		.byte	0x5
 2566 0785 B503     		.2byte	0x3b5
 2567 0787 740C0000 		.4byte	0xc74
 2568 078b 14       		.byte	0x14
 2569 078c 0E       		.uleb128 0xe
ARM GAS  C:\Users\jorti\AppData\Local\Temp\ccmiXXpF.s 			page 69


 2570 078d 95080000 		.4byte	.LASF227
 2571 0791 05       		.byte	0x5
 2572 0792 B603     		.2byte	0x3b6
 2573 0794 740C0000 		.4byte	0xc74
 2574 0798 18       		.byte	0x18
 2575 0799 0E       		.uleb128 0xe
 2576 079a 20120000 		.4byte	.LASF228
 2577 079e 05       		.byte	0x5
 2578 079f B803     		.2byte	0x3b8
 2579 07a1 980C0000 		.4byte	0xc98
 2580 07a5 1C       		.byte	0x1c
 2581 07a6 0E       		.uleb128 0xe
 2582 07a7 840A0000 		.4byte	.LASF229
 2583 07ab 05       		.byte	0x5
 2584 07ac BA03     		.2byte	0x3ba
 2585 07ae 860C0000 		.4byte	0xc86
 2586 07b2 20       		.byte	0x20
 2587 07b3 0E       		.uleb128 0xe
 2588 07b4 8E060000 		.4byte	.LASF230
 2589 07b8 05       		.byte	0x5
 2590 07b9 BC03     		.2byte	0x3bc
 2591 07bb 920C0000 		.4byte	0xc92
 2592 07bf 24       		.byte	0x24
 2593 07c0 0E       		.uleb128 0xe
 2594 07c1 490A0000 		.4byte	.LASF231
 2595 07c5 05       		.byte	0x5
 2596 07c6 C203     		.2byte	0x3c2
 2597 07c8 19070000 		.4byte	0x719
 2598 07cc 28       		.byte	0x28
 2599 07cd 0E       		.uleb128 0xe
 2600 07ce A9120000 		.4byte	.LASF232
 2601 07d2 05       		.byte	0x5
 2602 07d3 C303     		.2byte	0x3c3
 2603 07d5 BA000000 		.4byte	0xba
 2604 07d9 2C       		.byte	0x2c
 2605 07da 0E       		.uleb128 0xe
 2606 07db 9B0F0000 		.4byte	.LASF233
 2607 07df 05       		.byte	0x5
 2608 07e0 C503     		.2byte	0x3c5
 2609 07e2 7A0C0000 		.4byte	0xc7a
 2610 07e6 30       		.byte	0x30
 2611 07e7 0E       		.uleb128 0xe
 2612 07e8 8B030000 		.4byte	.LASF234
 2613 07ec 05       		.byte	0x5
 2614 07ed C603     		.2byte	0x3c6
 2615 07ef C0010000 		.4byte	0x1c0
 2616 07f3 34       		.byte	0x34
 2617 07f4 0E       		.uleb128 0xe
 2618 07f5 8C0A0000 		.4byte	.LASF235
 2619 07f9 05       		.byte	0x5
 2620 07fa C703     		.2byte	0x3c7
 2621 07fc CB010000 		.4byte	0x1cb
 2622 0800 35       		.byte	0x35
 2623 0801 0E       		.uleb128 0xe
 2624 0802 7B070000 		.4byte	.LASF236
 2625 0806 05       		.byte	0x5
 2626 0807 C903     		.2byte	0x3c9
ARM GAS  C:\Users\jorti\AppData\Local\Temp\ccmiXXpF.s 			page 70


 2627 0809 C0010000 		.4byte	0x1c0
 2628 080d 36       		.byte	0x36
 2629 080e 0E       		.uleb128 0xe
 2630 080f 0B140000 		.4byte	.LASF237
 2631 0813 05       		.byte	0x5
 2632 0814 CA03     		.2byte	0x3ca
 2633 0816 94010000 		.4byte	0x194
 2634 081a 37       		.byte	0x37
 2635 081b 0E       		.uleb128 0xe
 2636 081c 86060000 		.4byte	.LASF238
 2637 0820 05       		.byte	0x5
 2638 0821 CB03     		.2byte	0x3cb
 2639 0823 D2000000 		.4byte	0xd2
 2640 0827 38       		.byte	0x38
 2641 0828 0F       		.uleb128 0xf
 2642 0829 4F707400 		.ascii	"Opt\000"
 2643 082d 05       		.byte	0x5
 2644 082e CC03     		.2byte	0x3cc
 2645 0830 89010000 		.4byte	0x189
 2646 0834 3C       		.byte	0x3c
 2647 0835 0E       		.uleb128 0xe
 2648 0836 92030000 		.4byte	.LASF239
 2649 083a 05       		.byte	0x5
 2650 083b CE03     		.2byte	0x3ce
 2651 083d 73010000 		.4byte	0x173
 2652 0841 3E       		.byte	0x3e
 2653 0842 0F       		.uleb128 0xf
 2654 0843 545300   		.ascii	"TS\000"
 2655 0846 05       		.byte	0x5
 2656 0847 D003     		.2byte	0x3d0
 2657 0849 10010000 		.4byte	0x110
 2658 084d 40       		.byte	0x40
 2659 084e 0E       		.uleb128 0xe
 2660 084f AA0F0000 		.4byte	.LASF240
 2661 0853 05       		.byte	0x5
 2662 0854 D203     		.2byte	0x3d2
 2663 0856 B5010000 		.4byte	0x1b5
 2664 085a 44       		.byte	0x44
 2665 085b 0E       		.uleb128 0xe
 2666 085c 5A080000 		.4byte	.LASF241
 2667 0860 05       		.byte	0x5
 2668 0861 D503     		.2byte	0x3d5
 2669 0863 D6010000 		.4byte	0x1d6
 2670 0867 48       		.byte	0x48
 2671 0868 0E       		.uleb128 0xe
 2672 0869 2E040000 		.4byte	.LASF242
 2673 086d 05       		.byte	0x5
 2674 086e D603     		.2byte	0x3d6
 2675 0870 D6010000 		.4byte	0x1d6
 2676 0874 4C       		.byte	0x4c
 2677 0875 0E       		.uleb128 0xe
 2678 0876 B70F0000 		.4byte	.LASF243
 2679 087a 05       		.byte	0x5
 2680 087b D703     		.2byte	0x3d7
 2681 087d D6010000 		.4byte	0x1d6
 2682 0881 50       		.byte	0x50
 2683 0882 0E       		.uleb128 0xe
ARM GAS  C:\Users\jorti\AppData\Local\Temp\ccmiXXpF.s 			page 71


 2684 0883 3C150000 		.4byte	.LASF244
 2685 0887 05       		.byte	0x5
 2686 0888 D903     		.2byte	0x3d9
 2687 088a D6010000 		.4byte	0x1d6
 2688 088e 54       		.byte	0x54
 2689 088f 0E       		.uleb128 0xe
 2690 0890 A00A0000 		.4byte	.LASF245
 2691 0894 05       		.byte	0x5
 2692 0895 DA03     		.2byte	0x3da
 2693 0897 D6010000 		.4byte	0x1d6
 2694 089b 58       		.byte	0x58
 2695 089c 0E       		.uleb128 0xe
 2696 089d 9F130000 		.4byte	.LASF208
 2697 08a1 05       		.byte	0x5
 2698 08a2 DD03     		.2byte	0x3dd
 2699 08a4 BA000000 		.4byte	0xba
 2700 08a8 5C       		.byte	0x5c
 2701 08a9 0E       		.uleb128 0xe
 2702 08aa 03100000 		.4byte	.LASF209
 2703 08ae 05       		.byte	0x5
 2704 08af DE03     		.2byte	0x3de
 2705 08b1 5D010000 		.4byte	0x15d
 2706 08b5 60       		.byte	0x60
 2707 08b6 0E       		.uleb128 0xe
 2708 08b7 390A0000 		.4byte	.LASF246
 2709 08bb 05       		.byte	0x5
 2710 08bc E203     		.2byte	0x3e2
 2711 08be BE060000 		.4byte	0x6be
 2712 08c2 64       		.byte	0x64
 2713 08c3 0E       		.uleb128 0xe
 2714 08c4 1E090000 		.4byte	.LASF247
 2715 08c8 05       		.byte	0x5
 2716 08c9 E403     		.2byte	0x3e4
 2717 08cb 10010000 		.4byte	0x110
 2718 08cf 74       		.byte	0x74
 2719 08d0 0E       		.uleb128 0xe
 2720 08d1 0E090000 		.4byte	.LASF248
 2721 08d5 05       		.byte	0x5
 2722 08d6 E503     		.2byte	0x3e5
 2723 08d8 10010000 		.4byte	0x110
 2724 08dc 78       		.byte	0x78
 2725 08dd 0E       		.uleb128 0xe
 2726 08de EE140000 		.4byte	.LASF249
 2727 08e2 05       		.byte	0x5
 2728 08e3 EA03     		.2byte	0x3ea
 2729 08e5 9E0C0000 		.4byte	0xc9e
 2730 08e9 7C       		.byte	0x7c
 2731 08ea 0E       		.uleb128 0xe
 2732 08eb 85040000 		.4byte	.LASF250
 2733 08ef 05       		.byte	0x5
 2734 08f0 EE03     		.2byte	0x3ee
 2735 08f2 47010000 		.4byte	0x147
 2736 08f6 80       		.byte	0x80
 2737 08f7 0E       		.uleb128 0xe
 2738 08f8 A1080000 		.4byte	.LASF251
 2739 08fc 05       		.byte	0x5
 2740 08fd EF03     		.2byte	0x3ef
ARM GAS  C:\Users\jorti\AppData\Local\Temp\ccmiXXpF.s 			page 72


 2741 08ff 47010000 		.4byte	0x147
 2742 0903 84       		.byte	0x84
 2743 0904 0E       		.uleb128 0xe
 2744 0905 08020000 		.4byte	.LASF252
 2745 0909 05       		.byte	0x5
 2746 090a F003     		.2byte	0x3f0
 2747 090c 89010000 		.4byte	0x189
 2748 0910 88       		.byte	0x88
 2749 0911 0E       		.uleb128 0xe
 2750 0912 330C0000 		.4byte	.LASF253
 2751 0916 05       		.byte	0x5
 2752 0917 F403     		.2byte	0x3f4
 2753 0919 68010000 		.4byte	0x168
 2754 091d 8A       		.byte	0x8a
 2755 091e 0E       		.uleb128 0xe
 2756 091f 30140000 		.4byte	.LASF254
 2757 0923 05       		.byte	0x5
 2758 0924 F803     		.2byte	0x3f8
 2759 0926 1B010000 		.4byte	0x11b
 2760 092a 8C       		.byte	0x8c
 2761 092b 0E       		.uleb128 0xe
 2762 092c 760F0000 		.4byte	.LASF255
 2763 0930 05       		.byte	0x5
 2764 0931 F903     		.2byte	0x3f9
 2765 0933 1B010000 		.4byte	0x11b
 2766 0937 8E       		.byte	0x8e
 2767 0938 0E       		.uleb128 0xe
 2768 0939 A6040000 		.4byte	.LASF256
 2769 093d 05       		.byte	0x5
 2770 093e FA03     		.2byte	0x3fa
 2771 0940 31010000 		.4byte	0x131
 2772 0944 90       		.byte	0x90
 2773 0945 0E       		.uleb128 0xe
 2774 0946 4A0C0000 		.4byte	.LASF257
 2775 094a 05       		.byte	0x5
 2776 094b FB03     		.2byte	0x3fb
 2777 094d 10010000 		.4byte	0x110
 2778 0951 94       		.byte	0x94
 2779 0952 0E       		.uleb128 0xe
 2780 0953 220B0000 		.4byte	.LASF258
 2781 0957 05       		.byte	0x5
 2782 0958 FC03     		.2byte	0x3fc
 2783 095a 10010000 		.4byte	0x110
 2784 095e 98       		.byte	0x98
 2785 095f 0E       		.uleb128 0xe
 2786 0960 460F0000 		.4byte	.LASF259
 2787 0964 05       		.byte	0x5
 2788 0965 FD03     		.2byte	0x3fd
 2789 0967 3C010000 		.4byte	0x13c
 2790 096b 9C       		.byte	0x9c
 2791 096c 0E       		.uleb128 0xe
 2792 096d F60E0000 		.4byte	.LASF260
 2793 0971 05       		.byte	0x5
 2794 0972 FE03     		.2byte	0x3fe
 2795 0974 3C010000 		.4byte	0x13c
 2796 0978 A0       		.byte	0xa0
 2797 0979 0E       		.uleb128 0xe
ARM GAS  C:\Users\jorti\AppData\Local\Temp\ccmiXXpF.s 			page 73


 2798 097a 660D0000 		.4byte	.LASF261
 2799 097e 05       		.byte	0x5
 2800 097f 0004     		.2byte	0x400
 2801 0981 10010000 		.4byte	0x110
 2802 0985 A4       		.byte	0xa4
 2803 0986 0E       		.uleb128 0xe
 2804 0987 D30E0000 		.4byte	.LASF262
 2805 098b 05       		.byte	0x5
 2806 098c 0104     		.2byte	0x401
 2807 098e 10010000 		.4byte	0x110
 2808 0992 A8       		.byte	0xa8
 2809 0993 0E       		.uleb128 0xe
 2810 0994 BC050000 		.4byte	.LASF263
 2811 0998 05       		.byte	0x5
 2812 0999 0504     		.2byte	0x405
 2813 099b D2000000 		.4byte	0xd2
 2814 099f AC       		.byte	0xac
 2815 09a0 0E       		.uleb128 0xe
 2816 09a1 52080000 		.4byte	.LASF264
 2817 09a5 05       		.byte	0x5
 2818 09a6 0604     		.2byte	0x406
 2819 09a8 D2000000 		.4byte	0xd2
 2820 09ac B0       		.byte	0xb0
 2821 09ad 0E       		.uleb128 0xe
 2822 09ae ED020000 		.4byte	.LASF265
 2823 09b2 05       		.byte	0x5
 2824 09b3 1104     		.2byte	0x411
 2825 09b5 740C0000 		.4byte	0xc74
 2826 09b9 B4       		.byte	0xb4
 2827 09ba 0E       		.uleb128 0xe
 2828 09bb 05030000 		.4byte	.LASF266
 2829 09bf 05       		.byte	0x5
 2830 09c0 1204     		.2byte	0x412
 2831 09c2 740C0000 		.4byte	0xc74
 2832 09c6 B8       		.byte	0xb8
 2833 09c7 0E       		.uleb128 0xe
 2834 09c8 E3140000 		.4byte	.LASF267
 2835 09cc 05       		.byte	0x5
 2836 09cd 1304     		.2byte	0x413
 2837 09cf 860C0000 		.4byte	0xc86
 2838 09d3 BC       		.byte	0xbc
 2839 09d4 00       		.byte	0
 2840 09d5 09       		.uleb128 0x9
 2841 09d6 21050000 		.4byte	.LASF268
 2842 09da 05       		.byte	0x5
 2843 09db 9E02     		.2byte	0x29e
 2844 09dd E1090000 		.4byte	0x9e1
 2845 09e1 0D       		.uleb128 0xd
 2846 09e2 060B0000 		.4byte	.LASF269
 2847 09e6 08       		.byte	0x8
 2848 09e7 05       		.byte	0x5
 2849 09e8 1E04     		.2byte	0x41e
 2850 09ea 160A0000 		.4byte	0xa16
 2851 09ee 0E       		.uleb128 0xe
 2852 09ef 1E100000 		.4byte	.LASF270
 2853 09f3 05       		.byte	0x5
 2854 09f4 1F04     		.2byte	0x41f
ARM GAS  C:\Users\jorti\AppData\Local\Temp\ccmiXXpF.s 			page 74


 2855 09f6 740C0000 		.4byte	0xc74
 2856 09fa 00       		.byte	0
 2857 09fb 0E       		.uleb128 0xe
 2858 09fc 8C010000 		.4byte	.LASF217
 2859 0a00 05       		.byte	0x5
 2860 0a01 2004     		.2byte	0x420
 2861 0a03 73010000 		.4byte	0x173
 2862 0a07 04       		.byte	0x4
 2863 0a08 0E       		.uleb128 0xe
 2864 0a09 8B140000 		.4byte	.LASF218
 2865 0a0d 05       		.byte	0x5
 2866 0a0e 2104     		.2byte	0x421
 2867 0a10 73010000 		.4byte	0x173
 2868 0a14 06       		.byte	0x6
 2869 0a15 00       		.byte	0
 2870 0a16 09       		.uleb128 0x9
 2871 0a17 E20E0000 		.4byte	.LASF271
 2872 0a1b 05       		.byte	0x5
 2873 0a1c A002     		.2byte	0x2a0
 2874 0a1e 220A0000 		.4byte	0xa22
 2875 0a22 05       		.uleb128 0x5
 2876 0a23 04       		.byte	0x4
 2877 0a24 280A0000 		.4byte	0xa28
 2878 0a28 06       		.uleb128 0x6
 2879 0a29 380A0000 		.4byte	0xa38
 2880 0a2d 07       		.uleb128 0x7
 2881 0a2e BA000000 		.4byte	0xba
 2882 0a32 07       		.uleb128 0x7
 2883 0a33 BA000000 		.4byte	0xba
 2884 0a37 00       		.byte	0
 2885 0a38 09       		.uleb128 0x9
 2886 0a39 C40D0000 		.4byte	.LASF272
 2887 0a3d 05       		.byte	0x5
 2888 0a3e A102     		.2byte	0x2a1
 2889 0a40 440A0000 		.4byte	0xa44
 2890 0a44 0D       		.uleb128 0xd
 2891 0a45 950E0000 		.4byte	.LASF273
 2892 0a49 34       		.byte	0x34
 2893 0a4a 05       		.byte	0x5
 2894 0a4b 2B04     		.2byte	0x42b
 2895 0a4d 080B0000 		.4byte	0xb08
 2896 0a51 0E       		.uleb128 0xe
 2897 0a52 80100000 		.4byte	.LASF274
 2898 0a56 05       		.byte	0x5
 2899 0a57 2C04     		.2byte	0x42c
 2900 0a59 7E010000 		.4byte	0x17e
 2901 0a5d 00       		.byte	0
 2902 0a5e 0E       		.uleb128 0xe
 2903 0a5f 840A0000 		.4byte	.LASF229
 2904 0a63 05       		.byte	0x5
 2905 0a64 2D04     		.2byte	0x42d
 2906 0a66 860C0000 		.4byte	0xc86
 2907 0a6a 04       		.byte	0x4
 2908 0a6b 0E       		.uleb128 0xe
 2909 0a6c 02090000 		.4byte	.LASF275
 2910 0a70 05       		.byte	0x5
 2911 0a71 2E04     		.2byte	0x42e
ARM GAS  C:\Users\jorti\AppData\Local\Temp\ccmiXXpF.s 			page 75


 2912 0a73 160A0000 		.4byte	0xa16
 2913 0a77 08       		.byte	0x8
 2914 0a78 0E       		.uleb128 0xe
 2915 0a79 F5140000 		.4byte	.LASF276
 2916 0a7d 05       		.byte	0x5
 2917 0a7e 2F04     		.2byte	0x42f
 2918 0a80 BA000000 		.4byte	0xba
 2919 0a84 0C       		.byte	0xc
 2920 0a85 0E       		.uleb128 0xe
 2921 0a86 9A0D0000 		.4byte	.LASF207
 2922 0a8a 05       		.byte	0x5
 2923 0a8b 3004     		.2byte	0x430
 2924 0a8d AE0C0000 		.4byte	0xcae
 2925 0a91 10       		.byte	0x10
 2926 0a92 0E       		.uleb128 0xe
 2927 0a93 AD090000 		.4byte	.LASF225
 2928 0a97 05       		.byte	0x5
 2929 0a98 3104     		.2byte	0x431
 2930 0a9a AE0C0000 		.4byte	0xcae
 2931 0a9e 14       		.byte	0x14
 2932 0a9f 0E       		.uleb128 0xe
 2933 0aa0 D7150000 		.4byte	.LASF277
 2934 0aa4 05       		.byte	0x5
 2935 0aa5 3204     		.2byte	0x432
 2936 0aa7 D6010000 		.4byte	0x1d6
 2937 0aab 18       		.byte	0x18
 2938 0aac 0E       		.uleb128 0xe
 2939 0aad 1C060000 		.4byte	.LASF278
 2940 0ab1 05       		.byte	0x5
 2941 0ab2 3304     		.2byte	0x433
 2942 0ab4 D6010000 		.4byte	0x1d6
 2943 0ab8 1C       		.byte	0x1c
 2944 0ab9 0F       		.uleb128 0xf
 2945 0aba 446C7900 		.ascii	"Dly\000"
 2946 0abe 05       		.byte	0x5
 2947 0abf 3404     		.2byte	0x434
 2948 0ac1 D6010000 		.4byte	0x1d6
 2949 0ac5 20       		.byte	0x20
 2950 0ac6 0E       		.uleb128 0xe
 2951 0ac7 420B0000 		.4byte	.LASF279
 2952 0acb 05       		.byte	0x5
 2953 0acc 3504     		.2byte	0x435
 2954 0ace D6010000 		.4byte	0x1d6
 2955 0ad2 24       		.byte	0x24
 2956 0ad3 0F       		.uleb128 0xf
 2957 0ad4 4F707400 		.ascii	"Opt\000"
 2958 0ad8 05       		.byte	0x5
 2959 0ad9 3604     		.2byte	0x436
 2960 0adb 89010000 		.4byte	0x189
 2961 0adf 28       		.byte	0x28
 2962 0ae0 0E       		.uleb128 0xe
 2963 0ae1 24030000 		.4byte	.LASF280
 2964 0ae5 05       		.byte	0x5
 2965 0ae6 3704     		.2byte	0x437
 2966 0ae8 C0010000 		.4byte	0x1c0
 2967 0aec 2A       		.byte	0x2a
 2968 0aed 0E       		.uleb128 0xe
ARM GAS  C:\Users\jorti\AppData\Local\Temp\ccmiXXpF.s 			page 76


 2969 0aee ED020000 		.4byte	.LASF265
 2970 0af2 05       		.byte	0x5
 2971 0af3 3904     		.2byte	0x439
 2972 0af5 AE0C0000 		.4byte	0xcae
 2973 0af9 2C       		.byte	0x2c
 2974 0afa 0E       		.uleb128 0xe
 2975 0afb 05030000 		.4byte	.LASF266
 2976 0aff 05       		.byte	0x5
 2977 0b00 3A04     		.2byte	0x43a
 2978 0b02 AE0C0000 		.4byte	0xcae
 2979 0b06 30       		.byte	0x30
 2980 0b07 00       		.byte	0
 2981 0b08 09       		.uleb128 0x9
 2982 0b09 5F060000 		.4byte	.LASF281
 2983 0b0d 05       		.byte	0x5
 2984 0b0e A202     		.2byte	0x2a2
 2985 0b10 140B0000 		.4byte	0xb14
 2986 0b14 0D       		.uleb128 0xd
 2987 0b15 1B080000 		.4byte	.LASF282
 2988 0b19 08       		.byte	0x8
 2989 0b1a 05       		.byte	0x5
 2990 0b1b 4004     		.2byte	0x440
 2991 0b1d 490B0000 		.4byte	0xb49
 2992 0b21 0E       		.uleb128 0xe
 2993 0b22 1E100000 		.4byte	.LASF270
 2994 0b26 05       		.byte	0x5
 2995 0b27 4104     		.2byte	0x441
 2996 0b29 AE0C0000 		.4byte	0xcae
 2997 0b2d 00       		.byte	0
 2998 0b2e 0E       		.uleb128 0xe
 2999 0b2f 8C010000 		.4byte	.LASF217
 3000 0b33 05       		.byte	0x5
 3001 0b34 4204     		.2byte	0x442
 3002 0b36 73010000 		.4byte	0x173
 3003 0b3a 04       		.byte	0x4
 3004 0b3b 0E       		.uleb128 0xe
 3005 0b3c 8B140000 		.4byte	.LASF218
 3006 0b40 05       		.byte	0x5
 3007 0b41 4304     		.2byte	0x443
 3008 0b43 73010000 		.4byte	0x173
 3009 0b47 06       		.byte	0x6
 3010 0b48 00       		.byte	0
 3011 0b49 09       		.uleb128 0x9
 3012 0b4a D7050000 		.4byte	.LASF283
 3013 0b4e 05       		.byte	0x5
 3014 0b4f A502     		.2byte	0x2a5
 3015 0b51 550B0000 		.4byte	0xb55
 3016 0b55 0D       		.uleb128 0xd
 3017 0b56 D9130000 		.4byte	.LASF284
 3018 0b5a 20       		.byte	0x20
 3019 0b5b 05       		.byte	0x5
 3020 0b5c DD02     		.2byte	0x2dd
 3021 0b5e CB0B0000 		.4byte	0xbcb
 3022 0b62 0E       		.uleb128 0xe
 3023 0b63 AD090000 		.4byte	.LASF225
 3024 0b67 05       		.byte	0x5
 3025 0b68 DE02     		.2byte	0x2de
ARM GAS  C:\Users\jorti\AppData\Local\Temp\ccmiXXpF.s 			page 77


 3026 0b6a 7A0C0000 		.4byte	0xc7a
 3027 0b6e 00       		.byte	0
 3028 0b6f 0E       		.uleb128 0xe
 3029 0b70 9A0D0000 		.4byte	.LASF207
 3030 0b74 05       		.byte	0x5
 3031 0b75 DF02     		.2byte	0x2df
 3032 0b77 7A0C0000 		.4byte	0xc7a
 3033 0b7b 04       		.byte	0x4
 3034 0b7c 0E       		.uleb128 0xe
 3035 0b7d 5A0B0000 		.4byte	.LASF285
 3036 0b81 05       		.byte	0x5
 3037 0b82 E002     		.2byte	0x2e0
 3038 0b84 740C0000 		.4byte	0xc74
 3039 0b88 08       		.byte	0x8
 3040 0b89 0E       		.uleb128 0xe
 3041 0b8a 80140000 		.4byte	.LASF286
 3042 0b8e 05       		.byte	0x5
 3043 0b8f E102     		.2byte	0x2e1
 3044 0b91 800C0000 		.4byte	0xc80
 3045 0b95 0C       		.byte	0xc
 3046 0b96 0E       		.uleb128 0xe
 3047 0b97 1B0D0000 		.4byte	.LASF287
 3048 0b9b 05       		.byte	0x5
 3049 0b9c E202     		.2byte	0x2e2
 3050 0b9e 800C0000 		.4byte	0xc80
 3051 0ba2 10       		.byte	0x10
 3052 0ba3 0E       		.uleb128 0xe
 3053 0ba4 46040000 		.4byte	.LASF288
 3054 0ba8 05       		.byte	0x5
 3055 0ba9 E302     		.2byte	0x2e3
 3056 0bab BA000000 		.4byte	0xba
 3057 0baf 14       		.byte	0x14
 3058 0bb0 0E       		.uleb128 0xe
 3059 0bb1 8A0E0000 		.4byte	.LASF289
 3060 0bb5 05       		.byte	0x5
 3061 0bb6 E402     		.2byte	0x2e4
 3062 0bb8 5D010000 		.4byte	0x15d
 3063 0bbc 18       		.byte	0x18
 3064 0bbd 0E       		.uleb128 0xe
 3065 0bbe 3E0E0000 		.4byte	.LASF290
 3066 0bc2 05       		.byte	0x5
 3067 0bc3 E502     		.2byte	0x2e5
 3068 0bc5 10010000 		.4byte	0x110
 3069 0bc9 1C       		.byte	0x1c
 3070 0bca 00       		.byte	0
 3071 0bcb 09       		.uleb128 0x9
 3072 0bcc 2C130000 		.4byte	.LASF291
 3073 0bd0 05       		.byte	0x5
 3074 0bd1 A602     		.2byte	0x2a6
 3075 0bd3 D70B0000 		.4byte	0xbd7
 3076 0bd7 0D       		.uleb128 0xd
 3077 0bd8 99140000 		.4byte	.LASF292
 3078 0bdc 0C       		.byte	0xc
 3079 0bdd 05       		.byte	0x5
 3080 0bde E902     		.2byte	0x2e9
 3081 0be0 0C0C0000 		.4byte	0xc0c
 3082 0be4 0E       		.uleb128 0xe
ARM GAS  C:\Users\jorti\AppData\Local\Temp\ccmiXXpF.s 			page 78


 3083 0be5 C20F0000 		.4byte	.LASF293
 3084 0be9 05       		.byte	0x5
 3085 0bea EA02     		.2byte	0x2ea
 3086 0bec 7A0C0000 		.4byte	0xc7a
 3087 0bf0 00       		.byte	0
 3088 0bf1 0E       		.uleb128 0xe
 3089 0bf2 DA030000 		.4byte	.LASF294
 3090 0bf6 05       		.byte	0x5
 3091 0bf7 EB02     		.2byte	0x2eb
 3092 0bf9 7A0C0000 		.4byte	0xc7a
 3093 0bfd 04       		.byte	0x4
 3094 0bfe 0E       		.uleb128 0xe
 3095 0bff 8C010000 		.4byte	.LASF217
 3096 0c03 05       		.byte	0x5
 3097 0c04 EC02     		.2byte	0x2ec
 3098 0c06 73010000 		.4byte	0x173
 3099 0c0a 08       		.byte	0x8
 3100 0c0b 00       		.byte	0
 3101 0c0c 09       		.uleb128 0x9
 3102 0c0d 520F0000 		.4byte	.LASF295
 3103 0c11 05       		.byte	0x5
 3104 0c12 A702     		.2byte	0x2a7
 3105 0c14 180C0000 		.4byte	0xc18
 3106 0c18 0D       		.uleb128 0xd
 3107 0c19 50040000 		.4byte	.LASF296
 3108 0c1d 20       		.byte	0x20
 3109 0c1e 05       		.byte	0x5
 3110 0c1f FF02     		.2byte	0x2ff
 3111 0c21 740C0000 		.4byte	0xc74
 3112 0c25 0E       		.uleb128 0xe
 3113 0c26 80100000 		.4byte	.LASF274
 3114 0c2a 05       		.byte	0x5
 3115 0c2b 0003     		.2byte	0x300
 3116 0c2d 7E010000 		.4byte	0x17e
 3117 0c31 00       		.byte	0
 3118 0c32 0E       		.uleb128 0xe
 3119 0c33 840A0000 		.4byte	.LASF229
 3120 0c37 05       		.byte	0x5
 3121 0c38 0103     		.2byte	0x301
 3122 0c3a 860C0000 		.4byte	0xc86
 3123 0c3e 04       		.byte	0x4
 3124 0c3f 0E       		.uleb128 0xe
 3125 0c40 820F0000 		.4byte	.LASF297
 3126 0c44 05       		.byte	0x5
 3127 0c45 0203     		.2byte	0x302
 3128 0c47 CB0B0000 		.4byte	0xbcb
 3129 0c4b 08       		.byte	0x8
 3130 0c4c 0E       		.uleb128 0xe
 3131 0c4d ED020000 		.4byte	.LASF265
 3132 0c51 05       		.byte	0x5
 3133 0c52 0403     		.2byte	0x304
 3134 0c54 BA000000 		.4byte	0xba
 3135 0c58 14       		.byte	0x14
 3136 0c59 0E       		.uleb128 0xe
 3137 0c5a 05030000 		.4byte	.LASF266
 3138 0c5e 05       		.byte	0x5
 3139 0c5f 0503     		.2byte	0x305
ARM GAS  C:\Users\jorti\AppData\Local\Temp\ccmiXXpF.s 			page 79


 3140 0c61 BA000000 		.4byte	0xba
 3141 0c65 18       		.byte	0x18
 3142 0c66 0E       		.uleb128 0xe
 3143 0c67 E3140000 		.4byte	.LASF267
 3144 0c6b 05       		.byte	0x5
 3145 0c6c 0603     		.2byte	0x306
 3146 0c6e 860C0000 		.4byte	0xc86
 3147 0c72 1C       		.byte	0x1c
 3148 0c73 00       		.byte	0
 3149 0c74 05       		.uleb128 0x5
 3150 0c75 04       		.byte	0x4
 3151 0c76 25070000 		.4byte	0x725
 3152 0c7a 05       		.uleb128 0x5
 3153 0c7b 04       		.byte	0x4
 3154 0c7c 490B0000 		.4byte	0xb49
 3155 0c80 05       		.uleb128 0x5
 3156 0c81 04       		.byte	0x4
 3157 0c82 0C0C0000 		.4byte	0xc0c
 3158 0c86 05       		.uleb128 0x5
 3159 0c87 04       		.byte	0x4
 3160 0c88 25000000 		.4byte	0x25
 3161 0c8c 05       		.uleb128 0x5
 3162 0c8d 04       		.byte	0x4
 3163 0c8e 70060000 		.4byte	0x670
 3164 0c92 05       		.uleb128 0x5
 3165 0c93 04       		.byte	0x4
 3166 0c94 C7000000 		.4byte	0xc7
 3167 0c98 05       		.uleb128 0x5
 3168 0c99 04       		.byte	0x4
 3169 0c9a D5090000 		.4byte	0x9d5
 3170 0c9e 10       		.uleb128 0x10
 3171 0c9f AA010000 		.4byte	0x1aa
 3172 0ca3 AE0C0000 		.4byte	0xcae
 3173 0ca7 11       		.uleb128 0x11
 3174 0ca8 FE000000 		.4byte	0xfe
 3175 0cac 00       		.byte	0
 3176 0cad 00       		.byte	0
 3177 0cae 05       		.uleb128 0x5
 3178 0caf 04       		.byte	0x4
 3179 0cb0 380A0000 		.4byte	0xa38
 3180 0cb4 12       		.uleb128 0x12
 3181 0cb5 C0150000 		.4byte	.LASF301
 3182 0cb9 01       		.byte	0x1
 3183 0cba 3701     		.2byte	0x137
 3184 0cbc D6010000 		.4byte	0x1d6
 3185 0cc0 00000000 		.4byte	.LFB3
 3186 0cc4 B4000000 		.4byte	.LFE3-.LFB3
 3187 0cc8 01       		.uleb128 0x1
 3188 0cc9 9C       		.byte	0x9c
 3189 0cca 820D0000 		.4byte	0xd82
 3190 0cce 13       		.uleb128 0x13
 3191 0ccf DD150000 		.4byte	.LASF298
 3192 0cd3 01       		.byte	0x1
 3193 0cd4 3701     		.2byte	0x137
 3194 0cd6 AE0C0000 		.4byte	0xcae
 3195 0cda 00000000 		.4byte	.LLST0
 3196 0cde 13       		.uleb128 0x13
ARM GAS  C:\Users\jorti\AppData\Local\Temp\ccmiXXpF.s 			page 80


 3197 0cdf 8E090000 		.4byte	.LASF299
 3198 0ce3 01       		.byte	0x1
 3199 0ce4 3801     		.2byte	0x138
 3200 0ce6 820D0000 		.4byte	0xd82
 3201 0cea 45000000 		.4byte	.LLST1
 3202 0cee 14       		.uleb128 0x14
 3203 0cef DB0D0000 		.4byte	.LASF300
 3204 0cf3 01       		.byte	0x1
 3205 0cf4 3A01     		.2byte	0x13a
 3206 0cf6 D6010000 		.4byte	0x1d6
 3207 0cfa 71000000 		.4byte	.LLST2
 3208 0cfe 15       		.uleb128 0x15
 3209 0cff 65727200 		.ascii	"err\000"
 3210 0d03 01       		.byte	0x1
 3211 0d04 3B01     		.2byte	0x13b
 3212 0d06 64060000 		.4byte	0x664
 3213 0d0a 02       		.uleb128 0x2
 3214 0d0b 91       		.byte	0x91
 3215 0d0c 6E       		.sleb128 -18
 3216 0d0d 16       		.uleb128 0x16
 3217 0d0e 2A000000 		.4byte	.LVL4
 3218 0d12 62160000 		.4byte	0x1662
 3219 0d16 210D0000 		.4byte	0xd21
 3220 0d1a 17       		.uleb128 0x17
 3221 0d1b 01       		.uleb128 0x1
 3222 0d1c 50       		.byte	0x50
 3223 0d1d 02       		.uleb128 0x2
 3224 0d1e 91       		.byte	0x91
 3225 0d1f 6E       		.sleb128 -18
 3226 0d20 00       		.byte	0
 3227 0d21 16       		.uleb128 0x16
 3228 0d22 4C000000 		.4byte	.LVL6
 3229 0d26 6E160000 		.4byte	0x166e
 3230 0d2a 350D0000 		.4byte	0xd35
 3231 0d2e 17       		.uleb128 0x17
 3232 0d2f 01       		.uleb128 0x1
 3233 0d30 50       		.byte	0x50
 3234 0d31 02       		.uleb128 0x2
 3235 0d32 91       		.byte	0x91
 3236 0d33 6E       		.sleb128 -18
 3237 0d34 00       		.byte	0
 3238 0d35 16       		.uleb128 0x16
 3239 0d36 6E000000 		.4byte	.LVL11
 3240 0d3a 6E160000 		.4byte	0x166e
 3241 0d3e 490D0000 		.4byte	0xd49
 3242 0d42 17       		.uleb128 0x17
 3243 0d43 01       		.uleb128 0x1
 3244 0d44 50       		.byte	0x50
 3245 0d45 02       		.uleb128 0x2
 3246 0d46 91       		.byte	0x91
 3247 0d47 6E       		.sleb128 -18
 3248 0d48 00       		.byte	0
 3249 0d49 16       		.uleb128 0x16
 3250 0d4a 7E000000 		.4byte	.LVL13
 3251 0d4e 6E160000 		.4byte	0x166e
 3252 0d52 5D0D0000 		.4byte	0xd5d
 3253 0d56 17       		.uleb128 0x17
ARM GAS  C:\Users\jorti\AppData\Local\Temp\ccmiXXpF.s 			page 81


 3254 0d57 01       		.uleb128 0x1
 3255 0d58 50       		.byte	0x50
 3256 0d59 02       		.uleb128 0x2
 3257 0d5a 91       		.byte	0x91
 3258 0d5b 6E       		.sleb128 -18
 3259 0d5c 00       		.byte	0
 3260 0d5d 16       		.uleb128 0x16
 3261 0d5e 8C000000 		.4byte	.LVL16
 3262 0d62 6E160000 		.4byte	0x166e
 3263 0d66 710D0000 		.4byte	0xd71
 3264 0d6a 17       		.uleb128 0x17
 3265 0d6b 01       		.uleb128 0x1
 3266 0d6c 50       		.byte	0x50
 3267 0d6d 02       		.uleb128 0x2
 3268 0d6e 91       		.byte	0x91
 3269 0d6f 6E       		.sleb128 -18
 3270 0d70 00       		.byte	0
 3271 0d71 18       		.uleb128 0x18
 3272 0d72 9E000000 		.4byte	.LVL19
 3273 0d76 6E160000 		.4byte	0x166e
 3274 0d7a 17       		.uleb128 0x17
 3275 0d7b 01       		.uleb128 0x1
 3276 0d7c 50       		.byte	0x50
 3277 0d7d 02       		.uleb128 0x2
 3278 0d7e 91       		.byte	0x91
 3279 0d7f 6E       		.sleb128 -18
 3280 0d80 00       		.byte	0
 3281 0d81 00       		.byte	0
 3282 0d82 05       		.uleb128 0x5
 3283 0d83 04       		.byte	0x4
 3284 0d84 64060000 		.4byte	0x664
 3285 0d88 12       		.uleb128 0x12
 3286 0d89 CB130000 		.4byte	.LASF302
 3287 0d8d 01       		.byte	0x1
 3288 0d8e 0402     		.2byte	0x204
 3289 0d90 C0010000 		.4byte	0x1c0
 3290 0d94 00000000 		.4byte	.LFB5
 3291 0d98 48000000 		.4byte	.LFE5-.LFB5
 3292 0d9c 01       		.uleb128 0x1
 3293 0d9d 9C       		.byte	0x9c
 3294 0d9e F50D0000 		.4byte	0xdf5
 3295 0da2 13       		.uleb128 0x13
 3296 0da3 DD150000 		.4byte	.LASF298
 3297 0da7 01       		.byte	0x1
 3298 0da8 0402     		.2byte	0x204
 3299 0daa AE0C0000 		.4byte	0xcae
 3300 0dae BE000000 		.4byte	.LLST3
 3301 0db2 13       		.uleb128 0x13
 3302 0db3 8E090000 		.4byte	.LASF299
 3303 0db7 01       		.byte	0x1
 3304 0db8 0502     		.2byte	0x205
 3305 0dba 820D0000 		.4byte	0xd82
 3306 0dbe EA000000 		.4byte	.LLST4
 3307 0dc2 14       		.uleb128 0x14
 3308 0dc3 C4120000 		.4byte	.LASF303
 3309 0dc7 01       		.byte	0x1
 3310 0dc8 0702     		.2byte	0x207
ARM GAS  C:\Users\jorti\AppData\Local\Temp\ccmiXXpF.s 			page 82


 3311 0dca C0010000 		.4byte	0x1c0
 3312 0dce 16010000 		.4byte	.LLST5
 3313 0dd2 14       		.uleb128 0x14
 3314 0dd3 49050000 		.4byte	.LASF304
 3315 0dd7 01       		.byte	0x1
 3316 0dd8 0802     		.2byte	0x208
 3317 0dda DD000000 		.4byte	0xdd
 3318 0dde 29010000 		.4byte	.LLST6
 3319 0de2 19       		.uleb128 0x19
 3320 0de3 24000000 		.4byte	.LVL25
 3321 0de7 7A160000 		.4byte	0x167a
 3322 0deb 19       		.uleb128 0x19
 3323 0dec 3C000000 		.4byte	.LVL27
 3324 0df0 86160000 		.4byte	0x1686
 3325 0df4 00       		.byte	0
 3326 0df5 1A       		.uleb128 0x1a
 3327 0df6 5C040000 		.4byte	.LASF305
 3328 0dfa 01       		.byte	0x1
 3329 0dfb D002     		.2byte	0x2d0
 3330 0dfd 00000000 		.4byte	.LFB7
 3331 0e01 2C000000 		.4byte	.LFE7-.LFB7
 3332 0e05 01       		.uleb128 0x1
 3333 0e06 9C       		.byte	0x9c
 3334 0e07 1A0E0000 		.4byte	0xe1a
 3335 0e0b 1B       		.uleb128 0x1b
 3336 0e0c DD150000 		.4byte	.LASF298
 3337 0e10 01       		.byte	0x1
 3338 0e11 D002     		.2byte	0x2d0
 3339 0e13 AE0C0000 		.4byte	0xcae
 3340 0e17 01       		.uleb128 0x1
 3341 0e18 50       		.byte	0x50
 3342 0e19 00       		.byte	0
 3343 0e1a 1A       		.uleb128 0x1a
 3344 0e1b 490B0000 		.4byte	.LASF306
 3345 0e1f 01       		.byte	0x1
 3346 0e20 F102     		.2byte	0x2f1
 3347 0e22 00000000 		.4byte	.LFB8
 3348 0e26 1C000000 		.4byte	.LFE8-.LFB8
 3349 0e2a 01       		.uleb128 0x1
 3350 0e2b 9C       		.byte	0x9c
 3351 0e2c 3F0E0000 		.4byte	0xe3f
 3352 0e30 1B       		.uleb128 0x1b
 3353 0e31 DD150000 		.4byte	.LASF298
 3354 0e35 01       		.byte	0x1
 3355 0e36 F102     		.2byte	0x2f1
 3356 0e38 AE0C0000 		.4byte	0xcae
 3357 0e3c 01       		.uleb128 0x1
 3358 0e3d 50       		.byte	0x50
 3359 0e3e 00       		.byte	0
 3360 0e3f 1C       		.uleb128 0x1c
 3361 0e40 94090000 		.4byte	.LASF307
 3362 0e44 01       		.byte	0x1
 3363 0e45 68       		.byte	0x68
 3364 0e46 00000000 		.4byte	.LFB1
 3365 0e4a B4000000 		.4byte	.LFE1-.LFB1
 3366 0e4e 01       		.uleb128 0x1
 3367 0e4f 9C       		.byte	0x9c
ARM GAS  C:\Users\jorti\AppData\Local\Temp\ccmiXXpF.s 			page 83


 3368 0e50 090F0000 		.4byte	0xf09
 3369 0e54 1D       		.uleb128 0x1d
 3370 0e55 DD150000 		.4byte	.LASF298
 3371 0e59 01       		.byte	0x1
 3372 0e5a 68       		.byte	0x68
 3373 0e5b AE0C0000 		.4byte	0xcae
 3374 0e5f 48010000 		.4byte	.LLST7
 3375 0e63 1D       		.uleb128 0x1d
 3376 0e64 32090000 		.4byte	.LASF308
 3377 0e68 01       		.byte	0x1
 3378 0e69 69       		.byte	0x69
 3379 0e6a 860C0000 		.4byte	0xc86
 3380 0e6e 74010000 		.4byte	.LLST8
 3381 0e72 1E       		.uleb128 0x1e
 3382 0e73 646C7900 		.ascii	"dly\000"
 3383 0e77 01       		.byte	0x1
 3384 0e78 6A       		.byte	0x6a
 3385 0e79 D6010000 		.4byte	0x1d6
 3386 0e7d A0010000 		.4byte	.LLST9
 3387 0e81 1D       		.uleb128 0x1d
 3388 0e82 62130000 		.4byte	.LASF309
 3389 0e86 01       		.byte	0x1
 3390 0e87 6B       		.byte	0x6b
 3391 0e88 D6010000 		.4byte	0x1d6
 3392 0e8c 55020000 		.4byte	.LLST10
 3393 0e90 1E       		.uleb128 0x1e
 3394 0e91 6F707400 		.ascii	"opt\000"
 3395 0e95 01       		.byte	0x1
 3396 0e96 6C       		.byte	0x6c
 3397 0e97 89010000 		.4byte	0x189
 3398 0e9b FE020000 		.4byte	.LLST11
 3399 0e9f 1D       		.uleb128 0x1d
 3400 0ea0 49060000 		.4byte	.LASF310
 3401 0ea4 01       		.byte	0x1
 3402 0ea5 6D       		.byte	0x6d
 3403 0ea6 160A0000 		.4byte	0xa16
 3404 0eaa 2A030000 		.4byte	.LLST12
 3405 0eae 1D       		.uleb128 0x1d
 3406 0eaf 67020000 		.4byte	.LASF311
 3407 0eb3 01       		.byte	0x1
 3408 0eb4 6E       		.byte	0x6e
 3409 0eb5 BA000000 		.4byte	0xba
 3410 0eb9 56030000 		.4byte	.LLST13
 3411 0ebd 1D       		.uleb128 0x1d
 3412 0ebe 8E090000 		.4byte	.LASF299
 3413 0ec2 01       		.byte	0x1
 3414 0ec3 6F       		.byte	0x6f
 3415 0ec4 820D0000 		.4byte	0xd82
 3416 0ec8 82030000 		.4byte	.LLST14
 3417 0ecc 1F       		.uleb128 0x1f
 3418 0ecd 49050000 		.4byte	.LASF304
 3419 0ed1 01       		.byte	0x1
 3420 0ed2 71       		.byte	0x71
 3421 0ed3 DD000000 		.4byte	0xdd
 3422 0ed7 AE030000 		.4byte	.LLST15
 3423 0edb 19       		.uleb128 0x19
 3424 0edc 64000000 		.4byte	.LVL48
ARM GAS  C:\Users\jorti\AppData\Local\Temp\ccmiXXpF.s 			page 84


 3425 0ee0 7A160000 		.4byte	0x167a
 3426 0ee4 16       		.uleb128 0x16
 3427 0ee5 92000000 		.4byte	.LVL52
 3428 0ee9 1A0E0000 		.4byte	0xe1a
 3429 0eed F80E0000 		.4byte	0xef8
 3430 0ef1 17       		.uleb128 0x17
 3431 0ef2 01       		.uleb128 0x1
 3432 0ef3 50       		.byte	0x50
 3433 0ef4 02       		.uleb128 0x2
 3434 0ef5 74       		.byte	0x74
 3435 0ef6 00       		.sleb128 0
 3436 0ef7 00       		.byte	0
 3437 0ef8 18       		.uleb128 0x18
 3438 0ef9 A0000000 		.4byte	.LVL53
 3439 0efd 86160000 		.4byte	0x1686
 3440 0f01 17       		.uleb128 0x17
 3441 0f02 01       		.uleb128 0x1
 3442 0f03 50       		.byte	0x50
 3443 0f04 02       		.uleb128 0x2
 3444 0f05 79       		.byte	0x79
 3445 0f06 00       		.sleb128 0
 3446 0f07 00       		.byte	0
 3447 0f08 00       		.byte	0
 3448 0f09 1A       		.uleb128 0x1a
 3449 0f0a EF100000 		.4byte	.LASF312
 3450 0f0e 01       		.byte	0x1
 3451 0f0f FF02     		.2byte	0x2ff
 3452 0f11 00000000 		.4byte	.LFB9
 3453 0f15 30000000 		.4byte	.LFE9-.LFB9
 3454 0f19 01       		.uleb128 0x1
 3455 0f1a 9C       		.byte	0x9c
 3456 0f1b 4E0F0000 		.4byte	0xf4e
 3457 0f1f 1B       		.uleb128 0x1b
 3458 0f20 DD150000 		.4byte	.LASF298
 3459 0f24 01       		.byte	0x1
 3460 0f25 FF02     		.2byte	0x2ff
 3461 0f27 AE0C0000 		.4byte	0xcae
 3462 0f2b 01       		.uleb128 0x1
 3463 0f2c 50       		.byte	0x50
 3464 0f2d 14       		.uleb128 0x14
 3465 0f2e 75080000 		.4byte	.LASF313
 3466 0f32 01       		.byte	0x1
 3467 0f33 0103     		.2byte	0x301
 3468 0f35 AE0C0000 		.4byte	0xcae
 3469 0f39 D8030000 		.4byte	.LLST16
 3470 0f3d 14       		.uleb128 0x14
 3471 0f3e 020A0000 		.4byte	.LASF314
 3472 0f42 01       		.byte	0x1
 3473 0f43 0203     		.2byte	0x302
 3474 0f45 AE0C0000 		.4byte	0xcae
 3475 0f49 F6030000 		.4byte	.LLST17
 3476 0f4d 00       		.byte	0
 3477 0f4e 1A       		.uleb128 0x1a
 3478 0f4f F8030000 		.4byte	.LASF315
 3479 0f53 01       		.byte	0x1
 3480 0f54 3103     		.2byte	0x331
 3481 0f56 00000000 		.4byte	.LFB10
ARM GAS  C:\Users\jorti\AppData\Local\Temp\ccmiXXpF.s 			page 85


 3482 0f5a 00010000 		.4byte	.LFE10-.LFB10
 3483 0f5e 01       		.uleb128 0x1
 3484 0f5f 9C       		.byte	0x9c
 3485 0f60 D70F0000 		.4byte	0xfd7
 3486 0f64 13       		.uleb128 0x13
 3487 0f65 8E090000 		.4byte	.LASF299
 3488 0f69 01       		.byte	0x1
 3489 0f6a 3103     		.2byte	0x331
 3490 0f6c 820D0000 		.4byte	0xd82
 3491 0f70 20040000 		.4byte	.LLST18
 3492 0f74 20       		.uleb128 0x20
 3493 0f75 6900     		.ascii	"i\000"
 3494 0f77 01       		.byte	0x1
 3495 0f78 3303     		.2byte	0x333
 3496 0f7a E1010000 		.4byte	0x1e1
 3497 0f7e 4D040000 		.4byte	.LLST19
 3498 0f82 21       		.uleb128 0x21
 3499 0f83 76020000 		.4byte	.LASF317
 3500 0f87 01       		.byte	0x1
 3501 0f88 3403     		.2byte	0x334
 3502 0f8a D70F0000 		.4byte	0xfd7
 3503 0f8e 18       		.uleb128 0x18
 3504 0f8f B4000000 		.4byte	.LVL70
 3505 0f93 92160000 		.4byte	0x1692
 3506 0f97 17       		.uleb128 0x17
 3507 0f98 01       		.uleb128 0x1
 3508 0f99 51       		.byte	0x51
 3509 0f9a 05       		.uleb128 0x5
 3510 0f9b 03       		.byte	0x3
 3511 0f9c 08000000 		.4byte	.LC1
 3512 0fa0 17       		.uleb128 0x17
 3513 0fa1 01       		.uleb128 0x1
 3514 0fa2 52       		.byte	0x52
 3515 0fa3 05       		.uleb128 0x5
 3516 0fa4 03       		.byte	0x3
 3517 0fa5 00000000 		.4byte	OS_TmrTask
 3518 0fa9 17       		.uleb128 0x17
 3519 0faa 01       		.uleb128 0x1
 3520 0fab 53       		.byte	0x53
 3521 0fac 01       		.uleb128 0x1
 3522 0fad 30       		.byte	0x30
 3523 0fae 17       		.uleb128 0x17
 3524 0faf 02       		.uleb128 0x2
 3525 0fb0 7D       		.byte	0x7d
 3526 0fb1 00       		.sleb128 0
 3527 0fb2 02       		.uleb128 0x2
 3528 0fb3 74       		.byte	0x74
 3529 0fb4 00       		.sleb128 0
 3530 0fb5 17       		.uleb128 0x17
 3531 0fb6 02       		.uleb128 0x2
 3532 0fb7 7D       		.byte	0x7d
 3533 0fb8 10       		.sleb128 16
 3534 0fb9 01       		.uleb128 0x1
 3535 0fba 30       		.byte	0x30
 3536 0fbb 17       		.uleb128 0x17
 3537 0fbc 02       		.uleb128 0x2
 3538 0fbd 7D       		.byte	0x7d
ARM GAS  C:\Users\jorti\AppData\Local\Temp\ccmiXXpF.s 			page 86


 3539 0fbe 14       		.sleb128 20
 3540 0fbf 01       		.uleb128 0x1
 3541 0fc0 30       		.byte	0x30
 3542 0fc1 17       		.uleb128 0x17
 3543 0fc2 02       		.uleb128 0x2
 3544 0fc3 7D       		.byte	0x7d
 3545 0fc4 18       		.sleb128 24
 3546 0fc5 01       		.uleb128 0x1
 3547 0fc6 30       		.byte	0x30
 3548 0fc7 17       		.uleb128 0x17
 3549 0fc8 02       		.uleb128 0x2
 3550 0fc9 7D       		.byte	0x7d
 3551 0fca 1C       		.sleb128 28
 3552 0fcb 01       		.uleb128 0x1
 3553 0fcc 3B       		.byte	0x3b
 3554 0fcd 17       		.uleb128 0x17
 3555 0fce 02       		.uleb128 0x2
 3556 0fcf 7D       		.byte	0x7d
 3557 0fd0 20       		.sleb128 32
 3558 0fd1 03       		.uleb128 0x3
 3559 0fd2 F3       		.byte	0xf3
 3560 0fd3 01       		.uleb128 0x1
 3561 0fd4 50       		.byte	0x50
 3562 0fd5 00       		.byte	0
 3563 0fd6 00       		.byte	0
 3564 0fd7 05       		.uleb128 0x5
 3565 0fd8 04       		.byte	0x4
 3566 0fd9 080B0000 		.4byte	0xb08
 3567 0fdd 1A       		.uleb128 0x1a
 3568 0fde 40020000 		.4byte	.LASF316
 3569 0fe2 01       		.byte	0x1
 3570 0fe3 8A03     		.2byte	0x38a
 3571 0fe5 00000000 		.4byte	.LFB11
 3572 0fe9 E8000000 		.4byte	.LFE11-.LFB11
 3573 0fed 01       		.uleb128 0x1
 3574 0fee 9C       		.byte	0x9c
 3575 0fef 4E100000 		.4byte	0x104e
 3576 0ff3 1B       		.uleb128 0x1b
 3577 0ff4 DD150000 		.4byte	.LASF298
 3578 0ff8 01       		.byte	0x1
 3579 0ff9 8A03     		.2byte	0x38a
 3580 0ffb AE0C0000 		.4byte	0xcae
 3581 0fff 01       		.uleb128 0x1
 3582 1000 50       		.byte	0x50
 3583 1001 22       		.uleb128 0x22
 3584 1002 6F707400 		.ascii	"opt\000"
 3585 1006 01       		.byte	0x1
 3586 1007 8B03     		.2byte	0x38b
 3587 1009 89010000 		.4byte	0x189
 3588 100d 77040000 		.4byte	.LLST20
 3589 1011 21       		.uleb128 0x21
 3590 1012 76020000 		.4byte	.LASF317
 3591 1016 01       		.byte	0x1
 3592 1017 8D03     		.2byte	0x38d
 3593 1019 D70F0000 		.4byte	0xfd7
 3594 101d 14       		.uleb128 0x14
 3595 101e D9120000 		.4byte	.LASF318
ARM GAS  C:\Users\jorti\AppData\Local\Temp\ccmiXXpF.s 			page 87


 3596 1022 01       		.byte	0x1
 3597 1023 8E03     		.2byte	0x38e
 3598 1025 AE0C0000 		.4byte	0xcae
 3599 1029 98040000 		.4byte	.LLST21
 3600 102d 14       		.uleb128 0x14
 3601 102e E0120000 		.4byte	.LASF319
 3602 1032 01       		.byte	0x1
 3603 1033 8F03     		.2byte	0x38f
 3604 1035 AE0C0000 		.4byte	0xcae
 3605 1039 AB040000 		.4byte	.LLST22
 3606 103d 14       		.uleb128 0x14
 3607 103e 2E0B0000 		.4byte	.LASF320
 3608 1042 01       		.byte	0x1
 3609 1043 9003     		.2byte	0x390
 3610 1045 E1010000 		.4byte	0x1e1
 3611 1049 EB040000 		.4byte	.LLST23
 3612 104d 00       		.byte	0
 3613 104e 1A       		.uleb128 0x1a
 3614 104f 3D000000 		.4byte	.LASF321
 3615 1053 01       		.byte	0x1
 3616 1054 DC03     		.2byte	0x3dc
 3617 1056 00000000 		.4byte	.LFB12
 3618 105a 24000000 		.4byte	.LFE12-.LFB12
 3619 105e 01       		.uleb128 0x1
 3620 105f 9C       		.byte	0x9c
 3621 1060 7F100000 		.4byte	0x107f
 3622 1064 21       		.uleb128 0x21
 3623 1065 76020000 		.4byte	.LASF317
 3624 1069 01       		.byte	0x1
 3625 106a DE03     		.2byte	0x3de
 3626 106c D70F0000 		.4byte	0xfd7
 3627 1070 20       		.uleb128 0x20
 3628 1071 6900     		.ascii	"i\000"
 3629 1073 01       		.byte	0x1
 3630 1074 DF03     		.2byte	0x3df
 3631 1076 E1010000 		.4byte	0x1e1
 3632 107a FE040000 		.4byte	.LLST24
 3633 107e 00       		.byte	0
 3634 107f 1A       		.uleb128 0x1a
 3635 1080 F60F0000 		.4byte	.LASF322
 3636 1084 01       		.byte	0x1
 3637 1085 F903     		.2byte	0x3f9
 3638 1087 00000000 		.4byte	.LFB13
 3639 108b 58000000 		.4byte	.LFE13-.LFB13
 3640 108f 01       		.uleb128 0x1
 3641 1090 9C       		.byte	0x9c
 3642 1091 E0100000 		.4byte	0x10e0
 3643 1095 1B       		.uleb128 0x1b
 3644 1096 DD150000 		.4byte	.LASF298
 3645 109a 01       		.byte	0x1
 3646 109b F903     		.2byte	0x3f9
 3647 109d AE0C0000 		.4byte	0xcae
 3648 10a1 01       		.uleb128 0x1
 3649 10a2 50       		.byte	0x50
 3650 10a3 21       		.uleb128 0x21
 3651 10a4 76020000 		.4byte	.LASF317
 3652 10a8 01       		.byte	0x1
ARM GAS  C:\Users\jorti\AppData\Local\Temp\ccmiXXpF.s 			page 88


 3653 10a9 FB03     		.2byte	0x3fb
 3654 10ab D70F0000 		.4byte	0xfd7
 3655 10af 14       		.uleb128 0x14
 3656 10b0 E0120000 		.4byte	.LASF319
 3657 10b4 01       		.byte	0x1
 3658 10b5 FC03     		.2byte	0x3fc
 3659 10b7 AE0C0000 		.4byte	0xcae
 3660 10bb 28050000 		.4byte	.LLST25
 3661 10bf 14       		.uleb128 0x14
 3662 10c0 FF0A0000 		.4byte	.LASF323
 3663 10c4 01       		.byte	0x1
 3664 10c5 FD03     		.2byte	0x3fd
 3665 10c7 AE0C0000 		.4byte	0xcae
 3666 10cb 46050000 		.4byte	.LLST26
 3667 10cf 14       		.uleb128 0x14
 3668 10d0 2E0B0000 		.4byte	.LASF320
 3669 10d4 01       		.byte	0x1
 3670 10d5 FE03     		.2byte	0x3fe
 3671 10d7 E1010000 		.4byte	0x1e1
 3672 10db 59050000 		.4byte	.LLST27
 3673 10df 00       		.byte	0
 3674 10e0 23       		.uleb128 0x23
 3675 10e1 38110000 		.4byte	.LASF324
 3676 10e5 01       		.byte	0x1
 3677 10e6 D4       		.byte	0xd4
 3678 10e7 37000000 		.4byte	0x37
 3679 10eb 00000000 		.4byte	.LFB2
 3680 10ef A8000000 		.4byte	.LFE2-.LFB2
 3681 10f3 01       		.uleb128 0x1
 3682 10f4 9C       		.byte	0x9c
 3683 10f5 E5110000 		.4byte	0x11e5
 3684 10f9 1D       		.uleb128 0x1d
 3685 10fa DD150000 		.4byte	.LASF298
 3686 10fe 01       		.byte	0x1
 3687 10ff D4       		.byte	0xd4
 3688 1100 AE0C0000 		.4byte	0xcae
 3689 1104 6C050000 		.4byte	.LLST28
 3690 1108 1D       		.uleb128 0x1d
 3691 1109 8E090000 		.4byte	.LASF299
 3692 110d 01       		.byte	0x1
 3693 110e D5       		.byte	0xd5
 3694 110f 820D0000 		.4byte	0xd82
 3695 1113 98050000 		.4byte	.LLST29
 3696 1117 24       		.uleb128 0x24
 3697 1118 65727200 		.ascii	"err\000"
 3698 111c 01       		.byte	0x1
 3699 111d D7       		.byte	0xd7
 3700 111e 64060000 		.4byte	0x664
 3701 1122 02       		.uleb128 0x2
 3702 1123 91       		.byte	0x91
 3703 1124 66       		.sleb128 -26
 3704 1125 1F       		.uleb128 0x1f
 3705 1126 CA0F0000 		.4byte	.LASF325
 3706 112a 01       		.byte	0x1
 3707 112b D8       		.byte	0xd8
 3708 112c 37000000 		.4byte	0x37
 3709 1130 C4050000 		.4byte	.LLST30
ARM GAS  C:\Users\jorti\AppData\Local\Temp\ccmiXXpF.s 			page 89


 3710 1134 16       		.uleb128 0x16
 3711 1135 2A000000 		.4byte	.LVL100
 3712 1139 62160000 		.4byte	0x1662
 3713 113d 48110000 		.4byte	0x1148
 3714 1141 17       		.uleb128 0x17
 3715 1142 01       		.uleb128 0x1
 3716 1143 50       		.byte	0x50
 3717 1144 02       		.uleb128 0x2
 3718 1145 91       		.byte	0x91
 3719 1146 66       		.sleb128 -26
 3720 1147 00       		.byte	0
 3721 1148 16       		.uleb128 0x16
 3722 1149 30000000 		.4byte	.LVL101
 3723 114d 090F0000 		.4byte	0xf09
 3724 1151 5C110000 		.4byte	0x115c
 3725 1155 17       		.uleb128 0x17
 3726 1156 01       		.uleb128 0x1
 3727 1157 50       		.byte	0x50
 3728 1158 02       		.uleb128 0x2
 3729 1159 74       		.byte	0x74
 3730 115a 00       		.sleb128 0
 3731 115b 00       		.byte	0
 3732 115c 16       		.uleb128 0x16
 3733 115d 4E000000 		.4byte	.LVL102
 3734 1161 7F100000 		.4byte	0x107f
 3735 1165 70110000 		.4byte	0x1170
 3736 1169 17       		.uleb128 0x17
 3737 116a 01       		.uleb128 0x1
 3738 116b 50       		.byte	0x50
 3739 116c 02       		.uleb128 0x2
 3740 116d 74       		.byte	0x74
 3741 116e 00       		.sleb128 0
 3742 116f 00       		.byte	0
 3743 1170 16       		.uleb128 0x16
 3744 1171 54000000 		.4byte	.LVL103
 3745 1175 F50D0000 		.4byte	0xdf5
 3746 1179 84110000 		.4byte	0x1184
 3747 117d 17       		.uleb128 0x17
 3748 117e 01       		.uleb128 0x1
 3749 117f 50       		.byte	0x50
 3750 1180 02       		.uleb128 0x2
 3751 1181 74       		.byte	0x74
 3752 1182 00       		.sleb128 0
 3753 1183 00       		.byte	0
 3754 1184 16       		.uleb128 0x16
 3755 1185 5C000000 		.4byte	.LVL104
 3756 1189 6E160000 		.4byte	0x166e
 3757 118d 98110000 		.4byte	0x1198
 3758 1191 17       		.uleb128 0x17
 3759 1192 01       		.uleb128 0x1
 3760 1193 50       		.byte	0x50
 3761 1194 02       		.uleb128 0x2
 3762 1195 91       		.byte	0x91
 3763 1196 66       		.sleb128 -26
 3764 1197 00       		.byte	0
 3765 1198 16       		.uleb128 0x16
 3766 1199 6A000000 		.4byte	.LVL107
ARM GAS  C:\Users\jorti\AppData\Local\Temp\ccmiXXpF.s 			page 90


 3767 119d F50D0000 		.4byte	0xdf5
 3768 11a1 AC110000 		.4byte	0x11ac
 3769 11a5 17       		.uleb128 0x17
 3770 11a6 01       		.uleb128 0x1
 3771 11a7 50       		.byte	0x50
 3772 11a8 02       		.uleb128 0x2
 3773 11a9 74       		.byte	0x74
 3774 11aa 00       		.sleb128 0
 3775 11ab 00       		.byte	0
 3776 11ac 16       		.uleb128 0x16
 3777 11ad 72000000 		.4byte	.LVL108
 3778 11b1 6E160000 		.4byte	0x166e
 3779 11b5 C0110000 		.4byte	0x11c0
 3780 11b9 17       		.uleb128 0x17
 3781 11ba 01       		.uleb128 0x1
 3782 11bb 50       		.byte	0x50
 3783 11bc 02       		.uleb128 0x2
 3784 11bd 91       		.byte	0x91
 3785 11be 66       		.sleb128 -26
 3786 11bf 00       		.byte	0
 3787 11c0 16       		.uleb128 0x16
 3788 11c1 82000000 		.4byte	.LVL111
 3789 11c5 6E160000 		.4byte	0x166e
 3790 11c9 D4110000 		.4byte	0x11d4
 3791 11cd 17       		.uleb128 0x17
 3792 11ce 01       		.uleb128 0x1
 3793 11cf 50       		.byte	0x50
 3794 11d0 02       		.uleb128 0x2
 3795 11d1 91       		.byte	0x91
 3796 11d2 66       		.sleb128 -26
 3797 11d3 00       		.byte	0
 3798 11d4 18       		.uleb128 0x18
 3799 11d5 94000000 		.4byte	.LVL114
 3800 11d9 6E160000 		.4byte	0x166e
 3801 11dd 17       		.uleb128 0x17
 3802 11de 01       		.uleb128 0x1
 3803 11df 50       		.byte	0x50
 3804 11e0 02       		.uleb128 0x2
 3805 11e1 91       		.byte	0x91
 3806 11e2 66       		.sleb128 -26
 3807 11e3 00       		.byte	0
 3808 11e4 00       		.byte	0
 3809 11e5 12       		.uleb128 0x12
 3810 11e6 3B040000 		.4byte	.LASF326
 3811 11ea 01       		.byte	0x1
 3812 11eb A501     		.2byte	0x1a5
 3813 11ed 37000000 		.4byte	0x37
 3814 11f1 00000000 		.4byte	.LFB4
 3815 11f5 9C000000 		.4byte	.LFE4-.LFB4
 3816 11f9 01       		.uleb128 0x1
 3817 11fa 9C       		.byte	0x9c
 3818 11fb E5120000 		.4byte	0x12e5
 3819 11ff 13       		.uleb128 0x13
 3820 1200 DD150000 		.4byte	.LASF298
 3821 1204 01       		.byte	0x1
 3822 1205 A501     		.2byte	0x1a5
 3823 1207 AE0C0000 		.4byte	0xcae
ARM GAS  C:\Users\jorti\AppData\Local\Temp\ccmiXXpF.s 			page 91


 3824 120b F0050000 		.4byte	.LLST31
 3825 120f 13       		.uleb128 0x13
 3826 1210 8E090000 		.4byte	.LASF299
 3827 1214 01       		.byte	0x1
 3828 1215 A601     		.2byte	0x1a6
 3829 1217 820D0000 		.4byte	0xd82
 3830 121b 1C060000 		.4byte	.LLST32
 3831 121f 15       		.uleb128 0x15
 3832 1220 65727200 		.ascii	"err\000"
 3833 1224 01       		.byte	0x1
 3834 1225 A801     		.2byte	0x1a8
 3835 1227 64060000 		.4byte	0x664
 3836 122b 02       		.uleb128 0x2
 3837 122c 91       		.byte	0x91
 3838 122d 66       		.sleb128 -26
 3839 122e 14       		.uleb128 0x14
 3840 122f CA0F0000 		.4byte	.LASF325
 3841 1233 01       		.byte	0x1
 3842 1234 A901     		.2byte	0x1a9
 3843 1236 37000000 		.4byte	0x37
 3844 123a 48060000 		.4byte	.LLST33
 3845 123e 16       		.uleb128 0x16
 3846 123f 2A000000 		.4byte	.LVL118
 3847 1243 62160000 		.4byte	0x1662
 3848 1247 52120000 		.4byte	0x1252
 3849 124b 17       		.uleb128 0x17
 3850 124c 01       		.uleb128 0x1
 3851 124d 50       		.byte	0x50
 3852 124e 02       		.uleb128 0x2
 3853 124f 91       		.byte	0x91
 3854 1250 66       		.sleb128 -26
 3855 1251 00       		.byte	0
 3856 1252 16       		.uleb128 0x16
 3857 1253 40000000 		.4byte	.LVL119
 3858 1257 7F100000 		.4byte	0x107f
 3859 125b 66120000 		.4byte	0x1266
 3860 125f 17       		.uleb128 0x17
 3861 1260 01       		.uleb128 0x1
 3862 1261 50       		.byte	0x50
 3863 1262 02       		.uleb128 0x2
 3864 1263 75       		.byte	0x75
 3865 1264 00       		.sleb128 0
 3866 1265 00       		.byte	0
 3867 1266 16       		.uleb128 0x16
 3868 1267 48000000 		.4byte	.LVL120
 3869 126b DD0F0000 		.4byte	0xfdd
 3870 126f 7F120000 		.4byte	0x127f
 3871 1273 17       		.uleb128 0x17
 3872 1274 01       		.uleb128 0x1
 3873 1275 50       		.byte	0x50
 3874 1276 02       		.uleb128 0x2
 3875 1277 75       		.byte	0x75
 3876 1278 00       		.sleb128 0
 3877 1279 17       		.uleb128 0x17
 3878 127a 01       		.uleb128 0x1
 3879 127b 51       		.byte	0x51
 3880 127c 01       		.uleb128 0x1
ARM GAS  C:\Users\jorti\AppData\Local\Temp\ccmiXXpF.s 			page 92


 3881 127d 30       		.byte	0x30
 3882 127e 00       		.byte	0
 3883 127f 16       		.uleb128 0x16
 3884 1280 50000000 		.4byte	.LVL121
 3885 1284 6E160000 		.4byte	0x166e
 3886 1288 93120000 		.4byte	0x1293
 3887 128c 17       		.uleb128 0x17
 3888 128d 01       		.uleb128 0x1
 3889 128e 50       		.byte	0x50
 3890 128f 02       		.uleb128 0x2
 3891 1290 91       		.byte	0x91
 3892 1291 66       		.sleb128 -26
 3893 1292 00       		.byte	0
 3894 1293 16       		.uleb128 0x16
 3895 1294 60000000 		.4byte	.LVL124
 3896 1298 DD0F0000 		.4byte	0xfdd
 3897 129c AC120000 		.4byte	0x12ac
 3898 12a0 17       		.uleb128 0x17
 3899 12a1 01       		.uleb128 0x1
 3900 12a2 50       		.byte	0x50
 3901 12a3 02       		.uleb128 0x2
 3902 12a4 75       		.byte	0x75
 3903 12a5 00       		.sleb128 0
 3904 12a6 17       		.uleb128 0x17
 3905 12a7 01       		.uleb128 0x1
 3906 12a8 51       		.byte	0x51
 3907 12a9 01       		.uleb128 0x1
 3908 12aa 30       		.byte	0x30
 3909 12ab 00       		.byte	0
 3910 12ac 16       		.uleb128 0x16
 3911 12ad 68000000 		.4byte	.LVL125
 3912 12b1 6E160000 		.4byte	0x166e
 3913 12b5 C0120000 		.4byte	0x12c0
 3914 12b9 17       		.uleb128 0x17
 3915 12ba 01       		.uleb128 0x1
 3916 12bb 50       		.byte	0x50
 3917 12bc 02       		.uleb128 0x2
 3918 12bd 91       		.byte	0x91
 3919 12be 66       		.sleb128 -26
 3920 12bf 00       		.byte	0
 3921 12c0 16       		.uleb128 0x16
 3922 12c1 78000000 		.4byte	.LVL128
 3923 12c5 6E160000 		.4byte	0x166e
 3924 12c9 D4120000 		.4byte	0x12d4
 3925 12cd 17       		.uleb128 0x17
 3926 12ce 01       		.uleb128 0x1
 3927 12cf 50       		.byte	0x50
 3928 12d0 02       		.uleb128 0x2
 3929 12d1 91       		.byte	0x91
 3930 12d2 66       		.sleb128 -26
 3931 12d3 00       		.byte	0
 3932 12d4 18       		.uleb128 0x18
 3933 12d5 8A000000 		.4byte	.LVL131
 3934 12d9 6E160000 		.4byte	0x166e
 3935 12dd 17       		.uleb128 0x17
 3936 12de 01       		.uleb128 0x1
 3937 12df 50       		.byte	0x50
ARM GAS  C:\Users\jorti\AppData\Local\Temp\ccmiXXpF.s 			page 93


 3938 12e0 02       		.uleb128 0x2
 3939 12e1 91       		.byte	0x91
 3940 12e2 66       		.sleb128 -26
 3941 12e3 00       		.byte	0
 3942 12e4 00       		.byte	0
 3943 12e5 12       		.uleb128 0x12
 3944 12e6 EA040000 		.4byte	.LASF327
 3945 12ea 01       		.byte	0x1
 3946 12eb 5F02     		.2byte	0x25f
 3947 12ed 37000000 		.4byte	0x37
 3948 12f1 00000000 		.4byte	.LFB6
 3949 12f5 DC000000 		.4byte	.LFE6-.LFB6
 3950 12f9 01       		.uleb128 0x1
 3951 12fa 9C       		.byte	0x9c
 3952 12fb 1D140000 		.4byte	0x141d
 3953 12ff 13       		.uleb128 0x13
 3954 1300 DD150000 		.4byte	.LASF298
 3955 1304 01       		.byte	0x1
 3956 1305 5F02     		.2byte	0x25f
 3957 1307 AE0C0000 		.4byte	0xcae
 3958 130b 74060000 		.4byte	.LLST34
 3959 130f 22       		.uleb128 0x22
 3960 1310 6F707400 		.ascii	"opt\000"
 3961 1314 01       		.byte	0x1
 3962 1315 6002     		.2byte	0x260
 3963 1317 89010000 		.4byte	0x189
 3964 131b A0060000 		.4byte	.LLST35
 3965 131f 13       		.uleb128 0x13
 3966 1320 67020000 		.4byte	.LASF311
 3967 1324 01       		.byte	0x1
 3968 1325 6102     		.2byte	0x261
 3969 1327 BA000000 		.4byte	0xba
 3970 132b C1060000 		.4byte	.LLST36
 3971 132f 13       		.uleb128 0x13
 3972 1330 8E090000 		.4byte	.LASF299
 3973 1334 01       		.byte	0x1
 3974 1335 6202     		.2byte	0x262
 3975 1337 820D0000 		.4byte	0xd82
 3976 133b 1F070000 		.4byte	.LLST37
 3977 133f 14       		.uleb128 0x14
 3978 1340 99060000 		.4byte	.LASF328
 3979 1344 01       		.byte	0x1
 3980 1345 6402     		.2byte	0x264
 3981 1347 160A0000 		.4byte	0xa16
 3982 134b 4B070000 		.4byte	.LLST38
 3983 134f 15       		.uleb128 0x15
 3984 1350 65727200 		.ascii	"err\000"
 3985 1354 01       		.byte	0x1
 3986 1355 6502     		.2byte	0x265
 3987 1357 64060000 		.4byte	0x664
 3988 135b 02       		.uleb128 0x2
 3989 135c 91       		.byte	0x91
 3990 135d 5E       		.sleb128 -34
 3991 135e 14       		.uleb128 0x14
 3992 135f CA0F0000 		.4byte	.LASF325
 3993 1363 01       		.byte	0x1
 3994 1364 6602     		.2byte	0x266
ARM GAS  C:\Users\jorti\AppData\Local\Temp\ccmiXXpF.s 			page 94


 3995 1366 37000000 		.4byte	0x37
 3996 136a 97070000 		.4byte	.LLST39
 3997 136e 16       		.uleb128 0x16
 3998 136f 30000000 		.4byte	.LVL139
 3999 1373 62160000 		.4byte	0x1662
 4000 1377 82130000 		.4byte	0x1382
 4001 137b 17       		.uleb128 0x17
 4002 137c 01       		.uleb128 0x1
 4003 137d 50       		.byte	0x50
 4004 137e 02       		.uleb128 0x2
 4005 137f 91       		.byte	0x91
 4006 1380 5E       		.sleb128 -34
 4007 1381 00       		.byte	0
 4008 1382 16       		.uleb128 0x16
 4009 1383 48000000 		.4byte	.LVL140
 4010 1387 7F100000 		.4byte	0x107f
 4011 138b 96130000 		.4byte	0x1396
 4012 138f 17       		.uleb128 0x17
 4013 1390 01       		.uleb128 0x1
 4014 1391 50       		.byte	0x50
 4015 1392 02       		.uleb128 0x2
 4016 1393 76       		.byte	0x76
 4017 1394 00       		.sleb128 0
 4018 1395 00       		.byte	0
 4019 1396 25       		.uleb128 0x25
 4020 1397 62000000 		.4byte	.LVL142
 4021 139b A6130000 		.4byte	0x13a6
 4022 139f 17       		.uleb128 0x17
 4023 13a0 01       		.uleb128 0x1
 4024 13a1 50       		.byte	0x50
 4025 13a2 02       		.uleb128 0x2
 4026 13a3 76       		.byte	0x76
 4027 13a4 00       		.sleb128 0
 4028 13a5 00       		.byte	0
 4029 13a6 25       		.uleb128 0x25
 4030 13a7 76000000 		.4byte	.LVL147
 4031 13ab BC130000 		.4byte	0x13bc
 4032 13af 17       		.uleb128 0x17
 4033 13b0 01       		.uleb128 0x1
 4034 13b1 50       		.byte	0x50
 4035 13b2 02       		.uleb128 0x2
 4036 13b3 76       		.byte	0x76
 4037 13b4 00       		.sleb128 0
 4038 13b5 17       		.uleb128 0x17
 4039 13b6 01       		.uleb128 0x1
 4040 13b7 51       		.byte	0x51
 4041 13b8 02       		.uleb128 0x2
 4042 13b9 79       		.byte	0x79
 4043 13ba 00       		.sleb128 0
 4044 13bb 00       		.byte	0
 4045 13bc 16       		.uleb128 0x16
 4046 13bd 88000000 		.4byte	.LVL151
 4047 13c1 6E160000 		.4byte	0x166e
 4048 13c5 D0130000 		.4byte	0x13d0
 4049 13c9 17       		.uleb128 0x17
 4050 13ca 01       		.uleb128 0x1
 4051 13cb 50       		.byte	0x50
ARM GAS  C:\Users\jorti\AppData\Local\Temp\ccmiXXpF.s 			page 95


 4052 13cc 02       		.uleb128 0x2
 4053 13cd 91       		.byte	0x91
 4054 13ce 5E       		.sleb128 -34
 4055 13cf 00       		.byte	0
 4056 13d0 16       		.uleb128 0x16
 4057 13d1 98000000 		.4byte	.LVL152
 4058 13d5 6E160000 		.4byte	0x166e
 4059 13d9 E4130000 		.4byte	0x13e4
 4060 13dd 17       		.uleb128 0x17
 4061 13de 01       		.uleb128 0x1
 4062 13df 50       		.byte	0x50
 4063 13e0 02       		.uleb128 0x2
 4064 13e1 91       		.byte	0x91
 4065 13e2 5E       		.sleb128 -34
 4066 13e3 00       		.byte	0
 4067 13e4 16       		.uleb128 0x16
 4068 13e5 A4000000 		.4byte	.LVL154
 4069 13e9 6E160000 		.4byte	0x166e
 4070 13ed F8130000 		.4byte	0x13f8
 4071 13f1 17       		.uleb128 0x17
 4072 13f2 01       		.uleb128 0x1
 4073 13f3 50       		.byte	0x50
 4074 13f4 02       		.uleb128 0x2
 4075 13f5 91       		.byte	0x91
 4076 13f6 5E       		.sleb128 -34
 4077 13f7 00       		.byte	0
 4078 13f8 16       		.uleb128 0x16
 4079 13f9 B6000000 		.4byte	.LVL157
 4080 13fd 6E160000 		.4byte	0x166e
 4081 1401 0C140000 		.4byte	0x140c
 4082 1405 17       		.uleb128 0x17
 4083 1406 01       		.uleb128 0x1
 4084 1407 50       		.byte	0x50
 4085 1408 02       		.uleb128 0x2
 4086 1409 91       		.byte	0x91
 4087 140a 5E       		.sleb128 -34
 4088 140b 00       		.byte	0
 4089 140c 18       		.uleb128 0x18
 4090 140d C8000000 		.4byte	.LVL160
 4091 1411 6E160000 		.4byte	0x166e
 4092 1415 17       		.uleb128 0x17
 4093 1416 01       		.uleb128 0x1
 4094 1417 50       		.byte	0x50
 4095 1418 02       		.uleb128 0x2
 4096 1419 91       		.byte	0x91
 4097 141a 5E       		.sleb128 -34
 4098 141b 00       		.byte	0
 4099 141c 00       		.byte	0
 4100 141d 26       		.uleb128 0x26
 4101 141e 4D000000 		.4byte	.LASF329
 4102 1422 01       		.byte	0x1
 4103 1423 2804     		.2byte	0x428
 4104 1425 00000000 		.4byte	.LFB14
 4105 1429 B0000000 		.4byte	.LFE14-.LFB14
 4106 142d 01       		.uleb128 0x1
 4107 142e 9C       		.byte	0x9c
 4108 142f 72150000 		.4byte	0x1572
ARM GAS  C:\Users\jorti\AppData\Local\Temp\ccmiXXpF.s 			page 96


 4109 1433 13       		.uleb128 0x13
 4110 1434 58100000 		.4byte	.LASF330
 4111 1438 01       		.byte	0x1
 4112 1439 2804     		.2byte	0x428
 4113 143b BA000000 		.4byte	0xba
 4114 143f C3070000 		.4byte	.LLST40
 4115 1443 14       		.uleb128 0x14
 4116 1444 97010000 		.4byte	.LASF331
 4117 1448 01       		.byte	0x1
 4118 1449 2A04     		.2byte	0x42a
 4119 144b 37000000 		.4byte	0x37
 4120 144f E4070000 		.4byte	.LLST41
 4121 1453 15       		.uleb128 0x15
 4122 1454 65727200 		.ascii	"err\000"
 4123 1458 01       		.byte	0x1
 4124 1459 2B04     		.2byte	0x42b
 4125 145b 64060000 		.4byte	0x664
 4126 145f 02       		.uleb128 0x2
 4127 1460 91       		.byte	0x91
 4128 1461 66       		.sleb128 -26
 4129 1462 14       		.uleb128 0x14
 4130 1463 99060000 		.4byte	.LASF328
 4131 1467 01       		.byte	0x1
 4132 1468 2C04     		.2byte	0x42c
 4133 146a 160A0000 		.4byte	0xa16
 4134 146e 0E080000 		.4byte	.LLST42
 4135 1472 21       		.uleb128 0x21
 4136 1473 76020000 		.4byte	.LASF317
 4137 1477 01       		.byte	0x1
 4138 1478 2D04     		.2byte	0x42d
 4139 147a D70F0000 		.4byte	0xfd7
 4140 147e 14       		.uleb128 0x14
 4141 147f DD150000 		.4byte	.LASF298
 4142 1483 01       		.byte	0x1
 4143 1484 2E04     		.2byte	0x42e
 4144 1486 AE0C0000 		.4byte	0xcae
 4145 148a 21080000 		.4byte	.LLST43
 4146 148e 14       		.uleb128 0x14
 4147 148f 75080000 		.4byte	.LASF313
 4148 1493 01       		.byte	0x1
 4149 1494 2F04     		.2byte	0x42f
 4150 1496 AE0C0000 		.4byte	0xcae
 4151 149a 3F080000 		.4byte	.LLST44
 4152 149e 14       		.uleb128 0x14
 4153 149f 2E0B0000 		.4byte	.LASF320
 4154 14a3 01       		.byte	0x1
 4155 14a4 3004     		.2byte	0x430
 4156 14a6 E1010000 		.4byte	0x1e1
 4157 14aa 52080000 		.4byte	.LLST45
 4158 14ae 15       		.uleb128 0x15
 4159 14af 747300   		.ascii	"ts\000"
 4160 14b2 01       		.byte	0x1
 4161 14b3 3104     		.2byte	0x431
 4162 14b5 10010000 		.4byte	0x110
 4163 14b9 02       		.uleb128 0x2
 4164 14ba 91       		.byte	0x91
 4165 14bb 60       		.sleb128 -32
ARM GAS  C:\Users\jorti\AppData\Local\Temp\ccmiXXpF.s 			page 97


 4166 14bc 14       		.uleb128 0x14
 4167 14bd 69030000 		.4byte	.LASF332
 4168 14c1 01       		.byte	0x1
 4169 14c2 3204     		.2byte	0x432
 4170 14c4 10010000 		.4byte	0x110
 4171 14c8 65080000 		.4byte	.LLST46
 4172 14cc 27       		.uleb128 0x27
 4173 14cd 10140000 		.4byte	.LASF333
 4174 14d1 01       		.byte	0x1
 4175 14d2 3304     		.2byte	0x433
 4176 14d4 10010000 		.4byte	0x110
 4177 14d8 01       		.uleb128 0x1
 4178 14d9 57       		.byte	0x57
 4179 14da 16       		.uleb128 0x16
 4180 14db 12000000 		.4byte	.LVL164
 4181 14df 9E160000 		.4byte	0x169e
 4182 14e3 FE140000 		.4byte	0x14fe
 4183 14e7 17       		.uleb128 0x17
 4184 14e8 01       		.uleb128 0x1
 4185 14e9 50       		.byte	0x50
 4186 14ea 01       		.uleb128 0x1
 4187 14eb 30       		.byte	0x30
 4188 14ec 17       		.uleb128 0x17
 4189 14ed 01       		.uleb128 0x1
 4190 14ee 51       		.byte	0x51
 4191 14ef 01       		.uleb128 0x1
 4192 14f0 30       		.byte	0x30
 4193 14f1 17       		.uleb128 0x17
 4194 14f2 01       		.uleb128 0x1
 4195 14f3 52       		.byte	0x52
 4196 14f4 02       		.uleb128 0x2
 4197 14f5 7D       		.byte	0x7d
 4198 14f6 00       		.sleb128 0
 4199 14f7 17       		.uleb128 0x17
 4200 14f8 01       		.uleb128 0x1
 4201 14f9 53       		.byte	0x53
 4202 14fa 02       		.uleb128 0x2
 4203 14fb 91       		.byte	0x91
 4204 14fc 66       		.sleb128 -26
 4205 14fd 00       		.byte	0
 4206 14fe 16       		.uleb128 0x16
 4207 14ff 1A000000 		.4byte	.LVL165
 4208 1503 62160000 		.4byte	0x1662
 4209 1507 12150000 		.4byte	0x1512
 4210 150b 17       		.uleb128 0x17
 4211 150c 01       		.uleb128 0x1
 4212 150d 50       		.byte	0x50
 4213 150e 02       		.uleb128 0x2
 4214 150f 91       		.byte	0x91
 4215 1510 66       		.sleb128 -26
 4216 1511 00       		.byte	0
 4217 1512 19       		.uleb128 0x19
 4218 1513 1E000000 		.4byte	.LVL166
 4219 1517 AA160000 		.4byte	0x16aa
 4220 151b 16       		.uleb128 0x16
 4221 151c 56000000 		.4byte	.LVL174
 4222 1520 7F100000 		.4byte	0x107f
ARM GAS  C:\Users\jorti\AppData\Local\Temp\ccmiXXpF.s 			page 98


 4223 1524 2F150000 		.4byte	0x152f
 4224 1528 17       		.uleb128 0x17
 4225 1529 01       		.uleb128 0x1
 4226 152a 50       		.byte	0x50
 4227 152b 02       		.uleb128 0x2
 4228 152c 74       		.byte	0x74
 4229 152d 00       		.sleb128 0
 4230 152e 00       		.byte	0
 4231 152f 16       		.uleb128 0x16
 4232 1530 64000000 		.4byte	.LVL175
 4233 1534 DD0F0000 		.4byte	0xfdd
 4234 1538 48150000 		.4byte	0x1548
 4235 153c 17       		.uleb128 0x17
 4236 153d 01       		.uleb128 0x1
 4237 153e 50       		.byte	0x50
 4238 153f 02       		.uleb128 0x2
 4239 1540 74       		.byte	0x74
 4240 1541 00       		.sleb128 0
 4241 1542 17       		.uleb128 0x17
 4242 1543 01       		.uleb128 0x1
 4243 1544 51       		.byte	0x51
 4244 1545 01       		.uleb128 0x1
 4245 1546 31       		.byte	0x31
 4246 1547 00       		.byte	0
 4247 1548 25       		.uleb128 0x25
 4248 1549 76000000 		.4byte	.LVL177
 4249 154d 58150000 		.4byte	0x1558
 4250 1551 17       		.uleb128 0x17
 4251 1552 01       		.uleb128 0x1
 4252 1553 50       		.byte	0x50
 4253 1554 02       		.uleb128 0x2
 4254 1555 74       		.byte	0x74
 4255 1556 00       		.sleb128 0
 4256 1557 00       		.byte	0
 4257 1558 19       		.uleb128 0x19
 4258 1559 88000000 		.4byte	.LVL182
 4259 155d AA160000 		.4byte	0x16aa
 4260 1561 18       		.uleb128 0x18
 4261 1562 92000000 		.4byte	.LVL184
 4262 1566 6E160000 		.4byte	0x166e
 4263 156a 17       		.uleb128 0x17
 4264 156b 01       		.uleb128 0x1
 4265 156c 50       		.byte	0x50
 4266 156d 02       		.uleb128 0x2
 4267 156e 91       		.byte	0x91
 4268 156f 66       		.sleb128 -26
 4269 1570 00       		.byte	0
 4270 1571 00       		.byte	0
 4271 1572 28       		.uleb128 0x28
 4272 1573 CB0D0000 		.4byte	.LASF334
 4273 1577 05       		.byte	0x5
 4274 1578 5F04     		.2byte	0x45f
 4275 157a 68010000 		.4byte	0x168
 4276 157e 28       		.uleb128 0x28
 4277 157f 39130000 		.4byte	.LASF335
 4278 1583 05       		.byte	0x5
 4279 1584 DA04     		.2byte	0x4da
ARM GAS  C:\Users\jorti\AppData\Local\Temp\ccmiXXpF.s 			page 99


 4280 1586 AE0C0000 		.4byte	0xcae
 4281 158a 28       		.uleb128 0x28
 4282 158b C0110000 		.4byte	.LASF336
 4283 158f 05       		.byte	0x5
 4284 1590 DC04     		.2byte	0x4dc
 4285 1592 73010000 		.4byte	0x173
 4286 1596 28       		.uleb128 0x28
 4287 1597 B2020000 		.4byte	.LASF337
 4288 159b 05       		.byte	0x5
 4289 159c DD04     		.2byte	0x4dd
 4290 159e 25070000 		.4byte	0x725
 4291 15a2 28       		.uleb128 0x28
 4292 15a3 93110000 		.4byte	.LASF338
 4293 15a7 05       		.byte	0x5
 4294 15a8 DE04     		.2byte	0x4de
 4295 15aa 10010000 		.4byte	0x110
 4296 15ae 28       		.uleb128 0x28
 4297 15af B8030000 		.4byte	.LASF339
 4298 15b3 05       		.byte	0x5
 4299 15b4 DF04     		.2byte	0x4df
 4300 15b6 D6010000 		.4byte	0x1d6
 4301 15ba 28       		.uleb128 0x28
 4302 15bb CA120000 		.4byte	.LASF340
 4303 15bf 05       		.byte	0x5
 4304 15c0 E004     		.2byte	0x4e0
 4305 15c2 26010000 		.4byte	0x126
 4306 15c6 28       		.uleb128 0x28
 4307 15c7 23060000 		.4byte	.LASF341
 4308 15cb 05       		.byte	0x5
 4309 15cc E104     		.2byte	0x4e1
 4310 15ce 26010000 		.4byte	0x126
 4311 15d2 28       		.uleb128 0x28
 4312 15d3 B60C0000 		.4byte	.LASF342
 4313 15d7 05       		.byte	0x5
 4314 15d8 0D05     		.2byte	0x50d
 4315 15da DE150000 		.4byte	0x15de
 4316 15de 29       		.uleb128 0x29
 4317 15df D2000000 		.4byte	0xd2
 4318 15e3 28       		.uleb128 0x28
 4319 15e4 96150000 		.4byte	.LASF343
 4320 15e8 05       		.byte	0x5
 4321 15e9 0F05     		.2byte	0x50f
 4322 15eb EF150000 		.4byte	0x15ef
 4323 15ef 29       		.uleb128 0x29
 4324 15f0 9F010000 		.4byte	0x19f
 4325 15f4 28       		.uleb128 0x28
 4326 15f5 41110000 		.4byte	.LASF344
 4327 15f9 05       		.byte	0x5
 4328 15fa 1805     		.2byte	0x518
 4329 15fc 00160000 		.4byte	0x1600
 4330 1600 29       		.uleb128 0x29
 4331 1601 94010000 		.4byte	0x194
 4332 1605 28       		.uleb128 0x28
 4333 1606 C7040000 		.4byte	.LASF345
 4334 160a 05       		.byte	0x5
 4335 160b 1905     		.2byte	0x519
 4336 160d EF150000 		.4byte	0x15ef
ARM GAS  C:\Users\jorti\AppData\Local\Temp\ccmiXXpF.s 			page 100


 4337 1611 28       		.uleb128 0x28
 4338 1612 67090000 		.4byte	.LASF346
 4339 1616 05       		.byte	0x5
 4340 1617 1A05     		.2byte	0x51a
 4341 1619 1D160000 		.4byte	0x161d
 4342 161d 29       		.uleb128 0x29
 4343 161e 920C0000 		.4byte	0xc92
 4344 1622 28       		.uleb128 0x28
 4345 1623 E2030000 		.4byte	.LASF347
 4346 1627 05       		.byte	0x5
 4347 1628 1B05     		.2byte	0x51b
 4348 162a DE150000 		.4byte	0x15de
 4349 162e 28       		.uleb128 0x28
 4350 162f C5030000 		.4byte	.LASF348
 4351 1633 05       		.byte	0x5
 4352 1634 1C05     		.2byte	0x51c
 4353 1636 DE150000 		.4byte	0x15de
 4354 163a 28       		.uleb128 0x28
 4355 163b 5D140000 		.4byte	.LASF349
 4356 163f 05       		.byte	0x5
 4357 1640 1E05     		.2byte	0x51e
 4358 1642 46160000 		.4byte	0x1646
 4359 1646 29       		.uleb128 0x29
 4360 1647 73010000 		.4byte	0x173
 4361 164b 10       		.uleb128 0x10
 4362 164c 080B0000 		.4byte	0xb08
 4363 1650 56160000 		.4byte	0x1656
 4364 1654 2A       		.uleb128 0x2a
 4365 1655 00       		.byte	0
 4366 1656 28       		.uleb128 0x28
 4367 1657 0C0D0000 		.4byte	.LASF350
 4368 165b 05       		.byte	0x5
 4369 165c 3805     		.2byte	0x538
 4370 165e 4B160000 		.4byte	0x164b
 4371 1662 2B       		.uleb128 0x2b
 4372 1663 2D0A0000 		.4byte	.LASF351
 4373 1667 2D0A0000 		.4byte	.LASF351
 4374 166b 05       		.byte	0x5
 4375 166c 8007     		.2byte	0x780
 4376 166e 2B       		.uleb128 0x2b
 4377 166f 340B0000 		.4byte	.LASF352
 4378 1673 340B0000 		.4byte	.LASF352
 4379 1677 05       		.byte	0x5
 4380 1678 8107     		.2byte	0x781
 4381 167a 2B       		.uleb128 0x2b
 4382 167b 740E0000 		.4byte	.LASF353
 4383 167f 740E0000 		.4byte	.LASF353
 4384 1683 02       		.byte	0x2
 4385 1684 7C01     		.2byte	0x17c
 4386 1686 2B       		.uleb128 0x2b
 4387 1687 C2080000 		.4byte	.LASF354
 4388 168b C2080000 		.4byte	.LASF354
 4389 168f 02       		.byte	0x2
 4390 1690 7D01     		.2byte	0x17d
 4391 1692 2B       		.uleb128 0x2b
 4392 1693 07000000 		.4byte	.LASF355
 4393 1697 07000000 		.4byte	.LASF355
ARM GAS  C:\Users\jorti\AppData\Local\Temp\ccmiXXpF.s 			page 101


 4394 169b 05       		.byte	0x5
 4395 169c 6D06     		.2byte	0x66d
 4396 169e 2B       		.uleb128 0x2b
 4397 169f E1100000 		.4byte	.LASF356
 4398 16a3 E1100000 		.4byte	.LASF356
 4399 16a7 05       		.byte	0x5
 4400 16a8 AB06     		.2byte	0x6ab
 4401 16aa 2B       		.uleb128 0x2b
 4402 16ab 49130000 		.4byte	.LASF357
 4403 16af 49130000 		.4byte	.LASF357
 4404 16b3 03       		.byte	0x3
 4405 16b4 EC02     		.2byte	0x2ec
 4406 16b6 00       		.byte	0
 4407              		.section	.debug_abbrev,"",%progbits
 4408              	.Ldebug_abbrev0:
 4409 0000 01       		.uleb128 0x1
 4410 0001 11       		.uleb128 0x11
 4411 0002 01       		.byte	0x1
 4412 0003 25       		.uleb128 0x25
 4413 0004 0E       		.uleb128 0xe
 4414 0005 13       		.uleb128 0x13
 4415 0006 0B       		.uleb128 0xb
 4416 0007 03       		.uleb128 0x3
 4417 0008 0E       		.uleb128 0xe
 4418 0009 1B       		.uleb128 0x1b
 4419 000a 0E       		.uleb128 0xe
 4420 000b 55       		.uleb128 0x55
 4421 000c 17       		.uleb128 0x17
 4422 000d 11       		.uleb128 0x11
 4423 000e 01       		.uleb128 0x1
 4424 000f 10       		.uleb128 0x10
 4425 0010 17       		.uleb128 0x17
 4426 0011 00       		.byte	0
 4427 0012 00       		.byte	0
 4428 0013 02       		.uleb128 0x2
 4429 0014 16       		.uleb128 0x16
 4430 0015 00       		.byte	0
 4431 0016 03       		.uleb128 0x3
 4432 0017 0E       		.uleb128 0xe
 4433 0018 3A       		.uleb128 0x3a
 4434 0019 0B       		.uleb128 0xb
 4435 001a 3B       		.uleb128 0x3b
 4436 001b 0B       		.uleb128 0xb
 4437 001c 49       		.uleb128 0x49
 4438 001d 13       		.uleb128 0x13
 4439 001e 00       		.byte	0
 4440 001f 00       		.byte	0
 4441 0020 03       		.uleb128 0x3
 4442 0021 24       		.uleb128 0x24
 4443 0022 00       		.byte	0
 4444 0023 0B       		.uleb128 0xb
 4445 0024 0B       		.uleb128 0xb
 4446 0025 3E       		.uleb128 0x3e
 4447 0026 0B       		.uleb128 0xb
 4448 0027 03       		.uleb128 0x3
 4449 0028 0E       		.uleb128 0xe
 4450 0029 00       		.byte	0
ARM GAS  C:\Users\jorti\AppData\Local\Temp\ccmiXXpF.s 			page 102


 4451 002a 00       		.byte	0
 4452 002b 04       		.uleb128 0x4
 4453 002c 24       		.uleb128 0x24
 4454 002d 00       		.byte	0
 4455 002e 0B       		.uleb128 0xb
 4456 002f 0B       		.uleb128 0xb
 4457 0030 3E       		.uleb128 0x3e
 4458 0031 0B       		.uleb128 0xb
 4459 0032 03       		.uleb128 0x3
 4460 0033 08       		.uleb128 0x8
 4461 0034 00       		.byte	0
 4462 0035 00       		.byte	0
 4463 0036 05       		.uleb128 0x5
 4464 0037 0F       		.uleb128 0xf
 4465 0038 00       		.byte	0
 4466 0039 0B       		.uleb128 0xb
 4467 003a 0B       		.uleb128 0xb
 4468 003b 49       		.uleb128 0x49
 4469 003c 13       		.uleb128 0x13
 4470 003d 00       		.byte	0
 4471 003e 00       		.byte	0
 4472 003f 06       		.uleb128 0x6
 4473 0040 15       		.uleb128 0x15
 4474 0041 01       		.byte	0x1
 4475 0042 27       		.uleb128 0x27
 4476 0043 19       		.uleb128 0x19
 4477 0044 01       		.uleb128 0x1
 4478 0045 13       		.uleb128 0x13
 4479 0046 00       		.byte	0
 4480 0047 00       		.byte	0
 4481 0048 07       		.uleb128 0x7
 4482 0049 05       		.uleb128 0x5
 4483 004a 00       		.byte	0
 4484 004b 49       		.uleb128 0x49
 4485 004c 13       		.uleb128 0x13
 4486 004d 00       		.byte	0
 4487 004e 00       		.byte	0
 4488 004f 08       		.uleb128 0x8
 4489 0050 0F       		.uleb128 0xf
 4490 0051 00       		.byte	0
 4491 0052 0B       		.uleb128 0xb
 4492 0053 0B       		.uleb128 0xb
 4493 0054 00       		.byte	0
 4494 0055 00       		.byte	0
 4495 0056 09       		.uleb128 0x9
 4496 0057 16       		.uleb128 0x16
 4497 0058 00       		.byte	0
 4498 0059 03       		.uleb128 0x3
 4499 005a 0E       		.uleb128 0xe
 4500 005b 3A       		.uleb128 0x3a
 4501 005c 0B       		.uleb128 0xb
 4502 005d 3B       		.uleb128 0x3b
 4503 005e 05       		.uleb128 0x5
 4504 005f 49       		.uleb128 0x49
 4505 0060 13       		.uleb128 0x13
 4506 0061 00       		.byte	0
 4507 0062 00       		.byte	0
ARM GAS  C:\Users\jorti\AppData\Local\Temp\ccmiXXpF.s 			page 103


 4508 0063 0A       		.uleb128 0xa
 4509 0064 04       		.uleb128 0x4
 4510 0065 01       		.byte	0x1
 4511 0066 03       		.uleb128 0x3
 4512 0067 0E       		.uleb128 0xe
 4513 0068 0B       		.uleb128 0xb
 4514 0069 0B       		.uleb128 0xb
 4515 006a 49       		.uleb128 0x49
 4516 006b 13       		.uleb128 0x13
 4517 006c 3A       		.uleb128 0x3a
 4518 006d 0B       		.uleb128 0xb
 4519 006e 3B       		.uleb128 0x3b
 4520 006f 05       		.uleb128 0x5
 4521 0070 01       		.uleb128 0x1
 4522 0071 13       		.uleb128 0x13
 4523 0072 00       		.byte	0
 4524 0073 00       		.byte	0
 4525 0074 0B       		.uleb128 0xb
 4526 0075 28       		.uleb128 0x28
 4527 0076 00       		.byte	0
 4528 0077 03       		.uleb128 0x3
 4529 0078 0E       		.uleb128 0xe
 4530 0079 1C       		.uleb128 0x1c
 4531 007a 0B       		.uleb128 0xb
 4532 007b 00       		.byte	0
 4533 007c 00       		.byte	0
 4534 007d 0C       		.uleb128 0xc
 4535 007e 28       		.uleb128 0x28
 4536 007f 00       		.byte	0
 4537 0080 03       		.uleb128 0x3
 4538 0081 0E       		.uleb128 0xe
 4539 0082 1C       		.uleb128 0x1c
 4540 0083 05       		.uleb128 0x5
 4541 0084 00       		.byte	0
 4542 0085 00       		.byte	0
 4543 0086 0D       		.uleb128 0xd
 4544 0087 13       		.uleb128 0x13
 4545 0088 01       		.byte	0x1
 4546 0089 03       		.uleb128 0x3
 4547 008a 0E       		.uleb128 0xe
 4548 008b 0B       		.uleb128 0xb
 4549 008c 0B       		.uleb128 0xb
 4550 008d 3A       		.uleb128 0x3a
 4551 008e 0B       		.uleb128 0xb
 4552 008f 3B       		.uleb128 0x3b
 4553 0090 05       		.uleb128 0x5
 4554 0091 01       		.uleb128 0x1
 4555 0092 13       		.uleb128 0x13
 4556 0093 00       		.byte	0
 4557 0094 00       		.byte	0
 4558 0095 0E       		.uleb128 0xe
 4559 0096 0D       		.uleb128 0xd
 4560 0097 00       		.byte	0
 4561 0098 03       		.uleb128 0x3
 4562 0099 0E       		.uleb128 0xe
 4563 009a 3A       		.uleb128 0x3a
 4564 009b 0B       		.uleb128 0xb
ARM GAS  C:\Users\jorti\AppData\Local\Temp\ccmiXXpF.s 			page 104


 4565 009c 3B       		.uleb128 0x3b
 4566 009d 05       		.uleb128 0x5
 4567 009e 49       		.uleb128 0x49
 4568 009f 13       		.uleb128 0x13
 4569 00a0 38       		.uleb128 0x38
 4570 00a1 0B       		.uleb128 0xb
 4571 00a2 00       		.byte	0
 4572 00a3 00       		.byte	0
 4573 00a4 0F       		.uleb128 0xf
 4574 00a5 0D       		.uleb128 0xd
 4575 00a6 00       		.byte	0
 4576 00a7 03       		.uleb128 0x3
 4577 00a8 08       		.uleb128 0x8
 4578 00a9 3A       		.uleb128 0x3a
 4579 00aa 0B       		.uleb128 0xb
 4580 00ab 3B       		.uleb128 0x3b
 4581 00ac 05       		.uleb128 0x5
 4582 00ad 49       		.uleb128 0x49
 4583 00ae 13       		.uleb128 0x13
 4584 00af 38       		.uleb128 0x38
 4585 00b0 0B       		.uleb128 0xb
 4586 00b1 00       		.byte	0
 4587 00b2 00       		.byte	0
 4588 00b3 10       		.uleb128 0x10
 4589 00b4 01       		.uleb128 0x1
 4590 00b5 01       		.byte	0x1
 4591 00b6 49       		.uleb128 0x49
 4592 00b7 13       		.uleb128 0x13
 4593 00b8 01       		.uleb128 0x1
 4594 00b9 13       		.uleb128 0x13
 4595 00ba 00       		.byte	0
 4596 00bb 00       		.byte	0
 4597 00bc 11       		.uleb128 0x11
 4598 00bd 21       		.uleb128 0x21
 4599 00be 00       		.byte	0
 4600 00bf 49       		.uleb128 0x49
 4601 00c0 13       		.uleb128 0x13
 4602 00c1 2F       		.uleb128 0x2f
 4603 00c2 0B       		.uleb128 0xb
 4604 00c3 00       		.byte	0
 4605 00c4 00       		.byte	0
 4606 00c5 12       		.uleb128 0x12
 4607 00c6 2E       		.uleb128 0x2e
 4608 00c7 01       		.byte	0x1
 4609 00c8 3F       		.uleb128 0x3f
 4610 00c9 19       		.uleb128 0x19
 4611 00ca 03       		.uleb128 0x3
 4612 00cb 0E       		.uleb128 0xe
 4613 00cc 3A       		.uleb128 0x3a
 4614 00cd 0B       		.uleb128 0xb
 4615 00ce 3B       		.uleb128 0x3b
 4616 00cf 05       		.uleb128 0x5
 4617 00d0 27       		.uleb128 0x27
 4618 00d1 19       		.uleb128 0x19
 4619 00d2 49       		.uleb128 0x49
 4620 00d3 13       		.uleb128 0x13
 4621 00d4 11       		.uleb128 0x11
ARM GAS  C:\Users\jorti\AppData\Local\Temp\ccmiXXpF.s 			page 105


 4622 00d5 01       		.uleb128 0x1
 4623 00d6 12       		.uleb128 0x12
 4624 00d7 06       		.uleb128 0x6
 4625 00d8 40       		.uleb128 0x40
 4626 00d9 18       		.uleb128 0x18
 4627 00da 9742     		.uleb128 0x2117
 4628 00dc 19       		.uleb128 0x19
 4629 00dd 01       		.uleb128 0x1
 4630 00de 13       		.uleb128 0x13
 4631 00df 00       		.byte	0
 4632 00e0 00       		.byte	0
 4633 00e1 13       		.uleb128 0x13
 4634 00e2 05       		.uleb128 0x5
 4635 00e3 00       		.byte	0
 4636 00e4 03       		.uleb128 0x3
 4637 00e5 0E       		.uleb128 0xe
 4638 00e6 3A       		.uleb128 0x3a
 4639 00e7 0B       		.uleb128 0xb
 4640 00e8 3B       		.uleb128 0x3b
 4641 00e9 05       		.uleb128 0x5
 4642 00ea 49       		.uleb128 0x49
 4643 00eb 13       		.uleb128 0x13
 4644 00ec 02       		.uleb128 0x2
 4645 00ed 17       		.uleb128 0x17
 4646 00ee 00       		.byte	0
 4647 00ef 00       		.byte	0
 4648 00f0 14       		.uleb128 0x14
 4649 00f1 34       		.uleb128 0x34
 4650 00f2 00       		.byte	0
 4651 00f3 03       		.uleb128 0x3
 4652 00f4 0E       		.uleb128 0xe
 4653 00f5 3A       		.uleb128 0x3a
 4654 00f6 0B       		.uleb128 0xb
 4655 00f7 3B       		.uleb128 0x3b
 4656 00f8 05       		.uleb128 0x5
 4657 00f9 49       		.uleb128 0x49
 4658 00fa 13       		.uleb128 0x13
 4659 00fb 02       		.uleb128 0x2
 4660 00fc 17       		.uleb128 0x17
 4661 00fd 00       		.byte	0
 4662 00fe 00       		.byte	0
 4663 00ff 15       		.uleb128 0x15
 4664 0100 34       		.uleb128 0x34
 4665 0101 00       		.byte	0
 4666 0102 03       		.uleb128 0x3
 4667 0103 08       		.uleb128 0x8
 4668 0104 3A       		.uleb128 0x3a
 4669 0105 0B       		.uleb128 0xb
 4670 0106 3B       		.uleb128 0x3b
 4671 0107 05       		.uleb128 0x5
 4672 0108 49       		.uleb128 0x49
 4673 0109 13       		.uleb128 0x13
 4674 010a 02       		.uleb128 0x2
 4675 010b 18       		.uleb128 0x18
 4676 010c 00       		.byte	0
 4677 010d 00       		.byte	0
 4678 010e 16       		.uleb128 0x16
ARM GAS  C:\Users\jorti\AppData\Local\Temp\ccmiXXpF.s 			page 106


 4679 010f 898201   		.uleb128 0x4109
 4680 0112 01       		.byte	0x1
 4681 0113 11       		.uleb128 0x11
 4682 0114 01       		.uleb128 0x1
 4683 0115 31       		.uleb128 0x31
 4684 0116 13       		.uleb128 0x13
 4685 0117 01       		.uleb128 0x1
 4686 0118 13       		.uleb128 0x13
 4687 0119 00       		.byte	0
 4688 011a 00       		.byte	0
 4689 011b 17       		.uleb128 0x17
 4690 011c 8A8201   		.uleb128 0x410a
 4691 011f 00       		.byte	0
 4692 0120 02       		.uleb128 0x2
 4693 0121 18       		.uleb128 0x18
 4694 0122 9142     		.uleb128 0x2111
 4695 0124 18       		.uleb128 0x18
 4696 0125 00       		.byte	0
 4697 0126 00       		.byte	0
 4698 0127 18       		.uleb128 0x18
 4699 0128 898201   		.uleb128 0x4109
 4700 012b 01       		.byte	0x1
 4701 012c 11       		.uleb128 0x11
 4702 012d 01       		.uleb128 0x1
 4703 012e 31       		.uleb128 0x31
 4704 012f 13       		.uleb128 0x13
 4705 0130 00       		.byte	0
 4706 0131 00       		.byte	0
 4707 0132 19       		.uleb128 0x19
 4708 0133 898201   		.uleb128 0x4109
 4709 0136 00       		.byte	0
 4710 0137 11       		.uleb128 0x11
 4711 0138 01       		.uleb128 0x1
 4712 0139 31       		.uleb128 0x31
 4713 013a 13       		.uleb128 0x13
 4714 013b 00       		.byte	0
 4715 013c 00       		.byte	0
 4716 013d 1A       		.uleb128 0x1a
 4717 013e 2E       		.uleb128 0x2e
 4718 013f 01       		.byte	0x1
 4719 0140 3F       		.uleb128 0x3f
 4720 0141 19       		.uleb128 0x19
 4721 0142 03       		.uleb128 0x3
 4722 0143 0E       		.uleb128 0xe
 4723 0144 3A       		.uleb128 0x3a
 4724 0145 0B       		.uleb128 0xb
 4725 0146 3B       		.uleb128 0x3b
 4726 0147 05       		.uleb128 0x5
 4727 0148 27       		.uleb128 0x27
 4728 0149 19       		.uleb128 0x19
 4729 014a 11       		.uleb128 0x11
 4730 014b 01       		.uleb128 0x1
 4731 014c 12       		.uleb128 0x12
 4732 014d 06       		.uleb128 0x6
 4733 014e 40       		.uleb128 0x40
 4734 014f 18       		.uleb128 0x18
 4735 0150 9742     		.uleb128 0x2117
ARM GAS  C:\Users\jorti\AppData\Local\Temp\ccmiXXpF.s 			page 107


 4736 0152 19       		.uleb128 0x19
 4737 0153 01       		.uleb128 0x1
 4738 0154 13       		.uleb128 0x13
 4739 0155 00       		.byte	0
 4740 0156 00       		.byte	0
 4741 0157 1B       		.uleb128 0x1b
 4742 0158 05       		.uleb128 0x5
 4743 0159 00       		.byte	0
 4744 015a 03       		.uleb128 0x3
 4745 015b 0E       		.uleb128 0xe
 4746 015c 3A       		.uleb128 0x3a
 4747 015d 0B       		.uleb128 0xb
 4748 015e 3B       		.uleb128 0x3b
 4749 015f 05       		.uleb128 0x5
 4750 0160 49       		.uleb128 0x49
 4751 0161 13       		.uleb128 0x13
 4752 0162 02       		.uleb128 0x2
 4753 0163 18       		.uleb128 0x18
 4754 0164 00       		.byte	0
 4755 0165 00       		.byte	0
 4756 0166 1C       		.uleb128 0x1c
 4757 0167 2E       		.uleb128 0x2e
 4758 0168 01       		.byte	0x1
 4759 0169 3F       		.uleb128 0x3f
 4760 016a 19       		.uleb128 0x19
 4761 016b 03       		.uleb128 0x3
 4762 016c 0E       		.uleb128 0xe
 4763 016d 3A       		.uleb128 0x3a
 4764 016e 0B       		.uleb128 0xb
 4765 016f 3B       		.uleb128 0x3b
 4766 0170 0B       		.uleb128 0xb
 4767 0171 27       		.uleb128 0x27
 4768 0172 19       		.uleb128 0x19
 4769 0173 11       		.uleb128 0x11
 4770 0174 01       		.uleb128 0x1
 4771 0175 12       		.uleb128 0x12
 4772 0176 06       		.uleb128 0x6
 4773 0177 40       		.uleb128 0x40
 4774 0178 18       		.uleb128 0x18
 4775 0179 9742     		.uleb128 0x2117
 4776 017b 19       		.uleb128 0x19
 4777 017c 01       		.uleb128 0x1
 4778 017d 13       		.uleb128 0x13
 4779 017e 00       		.byte	0
 4780 017f 00       		.byte	0
 4781 0180 1D       		.uleb128 0x1d
 4782 0181 05       		.uleb128 0x5
 4783 0182 00       		.byte	0
 4784 0183 03       		.uleb128 0x3
 4785 0184 0E       		.uleb128 0xe
 4786 0185 3A       		.uleb128 0x3a
 4787 0186 0B       		.uleb128 0xb
 4788 0187 3B       		.uleb128 0x3b
 4789 0188 0B       		.uleb128 0xb
 4790 0189 49       		.uleb128 0x49
 4791 018a 13       		.uleb128 0x13
 4792 018b 02       		.uleb128 0x2
ARM GAS  C:\Users\jorti\AppData\Local\Temp\ccmiXXpF.s 			page 108


 4793 018c 17       		.uleb128 0x17
 4794 018d 00       		.byte	0
 4795 018e 00       		.byte	0
 4796 018f 1E       		.uleb128 0x1e
 4797 0190 05       		.uleb128 0x5
 4798 0191 00       		.byte	0
 4799 0192 03       		.uleb128 0x3
 4800 0193 08       		.uleb128 0x8
 4801 0194 3A       		.uleb128 0x3a
 4802 0195 0B       		.uleb128 0xb
 4803 0196 3B       		.uleb128 0x3b
 4804 0197 0B       		.uleb128 0xb
 4805 0198 49       		.uleb128 0x49
 4806 0199 13       		.uleb128 0x13
 4807 019a 02       		.uleb128 0x2
 4808 019b 17       		.uleb128 0x17
 4809 019c 00       		.byte	0
 4810 019d 00       		.byte	0
 4811 019e 1F       		.uleb128 0x1f
 4812 019f 34       		.uleb128 0x34
 4813 01a0 00       		.byte	0
 4814 01a1 03       		.uleb128 0x3
 4815 01a2 0E       		.uleb128 0xe
 4816 01a3 3A       		.uleb128 0x3a
 4817 01a4 0B       		.uleb128 0xb
 4818 01a5 3B       		.uleb128 0x3b
 4819 01a6 0B       		.uleb128 0xb
 4820 01a7 49       		.uleb128 0x49
 4821 01a8 13       		.uleb128 0x13
 4822 01a9 02       		.uleb128 0x2
 4823 01aa 17       		.uleb128 0x17
 4824 01ab 00       		.byte	0
 4825 01ac 00       		.byte	0
 4826 01ad 20       		.uleb128 0x20
 4827 01ae 34       		.uleb128 0x34
 4828 01af 00       		.byte	0
 4829 01b0 03       		.uleb128 0x3
 4830 01b1 08       		.uleb128 0x8
 4831 01b2 3A       		.uleb128 0x3a
 4832 01b3 0B       		.uleb128 0xb
 4833 01b4 3B       		.uleb128 0x3b
 4834 01b5 05       		.uleb128 0x5
 4835 01b6 49       		.uleb128 0x49
 4836 01b7 13       		.uleb128 0x13
 4837 01b8 02       		.uleb128 0x2
 4838 01b9 17       		.uleb128 0x17
 4839 01ba 00       		.byte	0
 4840 01bb 00       		.byte	0
 4841 01bc 21       		.uleb128 0x21
 4842 01bd 34       		.uleb128 0x34
 4843 01be 00       		.byte	0
 4844 01bf 03       		.uleb128 0x3
 4845 01c0 0E       		.uleb128 0xe
 4846 01c1 3A       		.uleb128 0x3a
 4847 01c2 0B       		.uleb128 0xb
 4848 01c3 3B       		.uleb128 0x3b
 4849 01c4 05       		.uleb128 0x5
ARM GAS  C:\Users\jorti\AppData\Local\Temp\ccmiXXpF.s 			page 109


 4850 01c5 49       		.uleb128 0x49
 4851 01c6 13       		.uleb128 0x13
 4852 01c7 00       		.byte	0
 4853 01c8 00       		.byte	0
 4854 01c9 22       		.uleb128 0x22
 4855 01ca 05       		.uleb128 0x5
 4856 01cb 00       		.byte	0
 4857 01cc 03       		.uleb128 0x3
 4858 01cd 08       		.uleb128 0x8
 4859 01ce 3A       		.uleb128 0x3a
 4860 01cf 0B       		.uleb128 0xb
 4861 01d0 3B       		.uleb128 0x3b
 4862 01d1 05       		.uleb128 0x5
 4863 01d2 49       		.uleb128 0x49
 4864 01d3 13       		.uleb128 0x13
 4865 01d4 02       		.uleb128 0x2
 4866 01d5 17       		.uleb128 0x17
 4867 01d6 00       		.byte	0
 4868 01d7 00       		.byte	0
 4869 01d8 23       		.uleb128 0x23
 4870 01d9 2E       		.uleb128 0x2e
 4871 01da 01       		.byte	0x1
 4872 01db 3F       		.uleb128 0x3f
 4873 01dc 19       		.uleb128 0x19
 4874 01dd 03       		.uleb128 0x3
 4875 01de 0E       		.uleb128 0xe
 4876 01df 3A       		.uleb128 0x3a
 4877 01e0 0B       		.uleb128 0xb
 4878 01e1 3B       		.uleb128 0x3b
 4879 01e2 0B       		.uleb128 0xb
 4880 01e3 27       		.uleb128 0x27
 4881 01e4 19       		.uleb128 0x19
 4882 01e5 49       		.uleb128 0x49
 4883 01e6 13       		.uleb128 0x13
 4884 01e7 11       		.uleb128 0x11
 4885 01e8 01       		.uleb128 0x1
 4886 01e9 12       		.uleb128 0x12
 4887 01ea 06       		.uleb128 0x6
 4888 01eb 40       		.uleb128 0x40
 4889 01ec 18       		.uleb128 0x18
 4890 01ed 9742     		.uleb128 0x2117
 4891 01ef 19       		.uleb128 0x19
 4892 01f0 01       		.uleb128 0x1
 4893 01f1 13       		.uleb128 0x13
 4894 01f2 00       		.byte	0
 4895 01f3 00       		.byte	0
 4896 01f4 24       		.uleb128 0x24
 4897 01f5 34       		.uleb128 0x34
 4898 01f6 00       		.byte	0
 4899 01f7 03       		.uleb128 0x3
 4900 01f8 08       		.uleb128 0x8
 4901 01f9 3A       		.uleb128 0x3a
 4902 01fa 0B       		.uleb128 0xb
 4903 01fb 3B       		.uleb128 0x3b
 4904 01fc 0B       		.uleb128 0xb
 4905 01fd 49       		.uleb128 0x49
 4906 01fe 13       		.uleb128 0x13
ARM GAS  C:\Users\jorti\AppData\Local\Temp\ccmiXXpF.s 			page 110


 4907 01ff 02       		.uleb128 0x2
 4908 0200 18       		.uleb128 0x18
 4909 0201 00       		.byte	0
 4910 0202 00       		.byte	0
 4911 0203 25       		.uleb128 0x25
 4912 0204 898201   		.uleb128 0x4109
 4913 0207 01       		.byte	0x1
 4914 0208 11       		.uleb128 0x11
 4915 0209 01       		.uleb128 0x1
 4916 020a 01       		.uleb128 0x1
 4917 020b 13       		.uleb128 0x13
 4918 020c 00       		.byte	0
 4919 020d 00       		.byte	0
 4920 020e 26       		.uleb128 0x26
 4921 020f 2E       		.uleb128 0x2e
 4922 0210 01       		.byte	0x1
 4923 0211 3F       		.uleb128 0x3f
 4924 0212 19       		.uleb128 0x19
 4925 0213 03       		.uleb128 0x3
 4926 0214 0E       		.uleb128 0xe
 4927 0215 3A       		.uleb128 0x3a
 4928 0216 0B       		.uleb128 0xb
 4929 0217 3B       		.uleb128 0x3b
 4930 0218 05       		.uleb128 0x5
 4931 0219 27       		.uleb128 0x27
 4932 021a 19       		.uleb128 0x19
 4933 021b 8701     		.uleb128 0x87
 4934 021d 19       		.uleb128 0x19
 4935 021e 11       		.uleb128 0x11
 4936 021f 01       		.uleb128 0x1
 4937 0220 12       		.uleb128 0x12
 4938 0221 06       		.uleb128 0x6
 4939 0222 40       		.uleb128 0x40
 4940 0223 18       		.uleb128 0x18
 4941 0224 9742     		.uleb128 0x2117
 4942 0226 19       		.uleb128 0x19
 4943 0227 01       		.uleb128 0x1
 4944 0228 13       		.uleb128 0x13
 4945 0229 00       		.byte	0
 4946 022a 00       		.byte	0
 4947 022b 27       		.uleb128 0x27
 4948 022c 34       		.uleb128 0x34
 4949 022d 00       		.byte	0
 4950 022e 03       		.uleb128 0x3
 4951 022f 0E       		.uleb128 0xe
 4952 0230 3A       		.uleb128 0x3a
 4953 0231 0B       		.uleb128 0xb
 4954 0232 3B       		.uleb128 0x3b
 4955 0233 05       		.uleb128 0x5
 4956 0234 49       		.uleb128 0x49
 4957 0235 13       		.uleb128 0x13
 4958 0236 02       		.uleb128 0x2
 4959 0237 18       		.uleb128 0x18
 4960 0238 00       		.byte	0
 4961 0239 00       		.byte	0
 4962 023a 28       		.uleb128 0x28
 4963 023b 34       		.uleb128 0x34
ARM GAS  C:\Users\jorti\AppData\Local\Temp\ccmiXXpF.s 			page 111


 4964 023c 00       		.byte	0
 4965 023d 03       		.uleb128 0x3
 4966 023e 0E       		.uleb128 0xe
 4967 023f 3A       		.uleb128 0x3a
 4968 0240 0B       		.uleb128 0xb
 4969 0241 3B       		.uleb128 0x3b
 4970 0242 05       		.uleb128 0x5
 4971 0243 49       		.uleb128 0x49
 4972 0244 13       		.uleb128 0x13
 4973 0245 3F       		.uleb128 0x3f
 4974 0246 19       		.uleb128 0x19
 4975 0247 3C       		.uleb128 0x3c
 4976 0248 19       		.uleb128 0x19
 4977 0249 00       		.byte	0
 4978 024a 00       		.byte	0
 4979 024b 29       		.uleb128 0x29
 4980 024c 26       		.uleb128 0x26
 4981 024d 00       		.byte	0
 4982 024e 49       		.uleb128 0x49
 4983 024f 13       		.uleb128 0x13
 4984 0250 00       		.byte	0
 4985 0251 00       		.byte	0
 4986 0252 2A       		.uleb128 0x2a
 4987 0253 21       		.uleb128 0x21
 4988 0254 00       		.byte	0
 4989 0255 00       		.byte	0
 4990 0256 00       		.byte	0
 4991 0257 2B       		.uleb128 0x2b
 4992 0258 2E       		.uleb128 0x2e
 4993 0259 00       		.byte	0
 4994 025a 3F       		.uleb128 0x3f
 4995 025b 19       		.uleb128 0x19
 4996 025c 3C       		.uleb128 0x3c
 4997 025d 19       		.uleb128 0x19
 4998 025e 6E       		.uleb128 0x6e
 4999 025f 0E       		.uleb128 0xe
 5000 0260 03       		.uleb128 0x3
 5001 0261 0E       		.uleb128 0xe
 5002 0262 3A       		.uleb128 0x3a
 5003 0263 0B       		.uleb128 0xb
 5004 0264 3B       		.uleb128 0x3b
 5005 0265 05       		.uleb128 0x5
 5006 0266 00       		.byte	0
 5007 0267 00       		.byte	0
 5008 0268 00       		.byte	0
 5009              		.section	.debug_loc,"",%progbits
 5010              	.Ldebug_loc0:
 5011              	.LLST0:
 5012 0000 00000000 		.4byte	.LVL0
 5013 0004 0E000000 		.4byte	.LVL1
 5014 0008 0100     		.2byte	0x1
 5015 000a 50       		.byte	0x50
 5016 000b 0E000000 		.4byte	.LVL1
 5017 000f 10000000 		.4byte	.LVL2
 5018 0013 0400     		.2byte	0x4
 5019 0015 F3       		.byte	0xf3
 5020 0016 01       		.uleb128 0x1
ARM GAS  C:\Users\jorti\AppData\Local\Temp\ccmiXXpF.s 			page 112


 5021 0017 50       		.byte	0x50
 5022 0018 9F       		.byte	0x9f
 5023 0019 10000000 		.4byte	.LVL2
 5024 001d 26000000 		.4byte	.LVL3
 5025 0021 0100     		.2byte	0x1
 5026 0023 50       		.byte	0x50
 5027 0024 26000000 		.4byte	.LVL3
 5028 0028 AA000000 		.4byte	.LVL22
 5029 002c 0100     		.2byte	0x1
 5030 002e 55       		.byte	0x55
 5031 002f AA000000 		.4byte	.LVL22
 5032 0033 B4000000 		.4byte	.LFE3
 5033 0037 0400     		.2byte	0x4
 5034 0039 F3       		.byte	0xf3
 5035 003a 01       		.uleb128 0x1
 5036 003b 50       		.byte	0x50
 5037 003c 9F       		.byte	0x9f
 5038 003d 00000000 		.4byte	0
 5039 0041 00000000 		.4byte	0
 5040              	.LLST1:
 5041 0045 00000000 		.4byte	.LVL0
 5042 0049 29000000 		.4byte	.LVL4-1
 5043 004d 0100     		.2byte	0x1
 5044 004f 51       		.byte	0x51
 5045 0050 29000000 		.4byte	.LVL4-1
 5046 0054 AA000000 		.4byte	.LVL22
 5047 0058 0100     		.2byte	0x1
 5048 005a 56       		.byte	0x56
 5049 005b AA000000 		.4byte	.LVL22
 5050 005f B4000000 		.4byte	.LFE3
 5051 0063 0400     		.2byte	0x4
 5052 0065 F3       		.byte	0xf3
 5053 0066 01       		.uleb128 0x1
 5054 0067 51       		.byte	0x51
 5055 0068 9F       		.byte	0x9f
 5056 0069 00000000 		.4byte	0
 5057 006d 00000000 		.4byte	0
 5058              	.LLST2:
 5059 0071 42000000 		.4byte	.LVL5
 5060 0075 54000000 		.4byte	.LVL7
 5061 0079 0100     		.2byte	0x1
 5062 007b 54       		.byte	0x54
 5063 007c 60000000 		.4byte	.LVL8
 5064 0080 62000000 		.4byte	.LVL9
 5065 0084 0100     		.2byte	0x1
 5066 0086 54       		.byte	0x54
 5067 0087 64000000 		.4byte	.LVL10
 5068 008b 76000000 		.4byte	.LVL12
 5069 008f 0100     		.2byte	0x1
 5070 0091 54       		.byte	0x54
 5071 0092 82000000 		.4byte	.LVL14
 5072 0096 84000000 		.4byte	.LVL15
 5073 009a 0200     		.2byte	0x2
 5074 009c 30       		.byte	0x30
 5075 009d 9F       		.byte	0x9f
 5076 009e 92000000 		.4byte	.LVL17
 5077 00a2 96000000 		.4byte	.LVL18
ARM GAS  C:\Users\jorti\AppData\Local\Temp\ccmiXXpF.s 			page 113


 5078 00a6 0200     		.2byte	0x2
 5079 00a8 30       		.byte	0x30
 5080 00a9 9F       		.byte	0x9f
 5081 00aa A4000000 		.4byte	.LVL20
 5082 00ae A6000000 		.4byte	.LVL21
 5083 00b2 0200     		.2byte	0x2
 5084 00b4 30       		.byte	0x30
 5085 00b5 9F       		.byte	0x9f
 5086 00b6 00000000 		.4byte	0
 5087 00ba 00000000 		.4byte	0
 5088              	.LLST3:
 5089 00be 00000000 		.4byte	.LVL23
 5090 00c2 23000000 		.4byte	.LVL25-1
 5091 00c6 0100     		.2byte	0x1
 5092 00c8 50       		.byte	0x50
 5093 00c9 23000000 		.4byte	.LVL25-1
 5094 00cd 28000000 		.4byte	.LVL26
 5095 00d1 0100     		.2byte	0x1
 5096 00d3 54       		.byte	0x54
 5097 00d4 28000000 		.4byte	.LVL26
 5098 00d8 48000000 		.4byte	.LFE5
 5099 00dc 0400     		.2byte	0x4
 5100 00de F3       		.byte	0xf3
 5101 00df 01       		.uleb128 0x1
 5102 00e0 50       		.byte	0x50
 5103 00e1 9F       		.byte	0x9f
 5104 00e2 00000000 		.4byte	0
 5105 00e6 00000000 		.4byte	0
 5106              	.LLST4:
 5107 00ea 00000000 		.4byte	.LVL23
 5108 00ee 23000000 		.4byte	.LVL25-1
 5109 00f2 0100     		.2byte	0x1
 5110 00f4 51       		.byte	0x51
 5111 00f5 23000000 		.4byte	.LVL25-1
 5112 00f9 3E000000 		.4byte	.LVL28
 5113 00fd 0100     		.2byte	0x1
 5114 00ff 55       		.byte	0x55
 5115 0100 3E000000 		.4byte	.LVL28
 5116 0104 48000000 		.4byte	.LFE5
 5117 0108 0400     		.2byte	0x4
 5118 010a F3       		.byte	0xf3
 5119 010b 01       		.uleb128 0x1
 5120 010c 51       		.byte	0x51
 5121 010d 9F       		.byte	0x9f
 5122 010e 00000000 		.4byte	0
 5123 0112 00000000 		.4byte	0
 5124              	.LLST5:
 5125 0116 28000000 		.4byte	.LVL26
 5126 011a 3E000000 		.4byte	.LVL28
 5127 011e 0100     		.2byte	0x1
 5128 0120 54       		.byte	0x54
 5129 0121 00000000 		.4byte	0
 5130 0125 00000000 		.4byte	0
 5131              	.LLST6:
 5132 0129 02000000 		.4byte	.LVL24
 5133 012d 24000000 		.4byte	.LVL25
 5134 0131 0200     		.2byte	0x2
ARM GAS  C:\Users\jorti\AppData\Local\Temp\ccmiXXpF.s 			page 114


 5135 0133 30       		.byte	0x30
 5136 0134 9F       		.byte	0x9f
 5137 0135 24000000 		.4byte	.LVL25
 5138 0139 3B000000 		.4byte	.LVL27-1
 5139 013d 0100     		.2byte	0x1
 5140 013f 50       		.byte	0x50
 5141 0140 00000000 		.4byte	0
 5142 0144 00000000 		.4byte	0
 5143              	.LLST7:
 5144 0148 00000000 		.4byte	.LVL31
 5145 014c 63000000 		.4byte	.LVL48-1
 5146 0150 0100     		.2byte	0x1
 5147 0152 50       		.byte	0x50
 5148 0153 63000000 		.4byte	.LVL48-1
 5149 0157 A8000000 		.4byte	.LVL54
 5150 015b 0100     		.2byte	0x1
 5151 015d 54       		.byte	0x54
 5152 015e A8000000 		.4byte	.LVL54
 5153 0162 B4000000 		.4byte	.LFE1
 5154 0166 0400     		.2byte	0x4
 5155 0168 F3       		.byte	0xf3
 5156 0169 01       		.uleb128 0x1
 5157 016a 50       		.byte	0x50
 5158 016b 9F       		.byte	0x9f
 5159 016c 00000000 		.4byte	0
 5160 0170 00000000 		.4byte	0
 5161              	.LLST8:
 5162 0174 00000000 		.4byte	.LVL31
 5163 0178 63000000 		.4byte	.LVL48-1
 5164 017c 0100     		.2byte	0x1
 5165 017e 51       		.byte	0x51
 5166 017f 63000000 		.4byte	.LVL48-1
 5167 0183 A8000000 		.4byte	.LVL54
 5168 0187 0100     		.2byte	0x1
 5169 0189 58       		.byte	0x58
 5170 018a A8000000 		.4byte	.LVL54
 5171 018e B4000000 		.4byte	.LFE1
 5172 0192 0400     		.2byte	0x4
 5173 0194 F3       		.byte	0xf3
 5174 0195 01       		.uleb128 0x1
 5175 0196 51       		.byte	0x51
 5176 0197 9F       		.byte	0x9f
 5177 0198 00000000 		.4byte	0
 5178 019c 00000000 		.4byte	0
 5179              	.LLST9:
 5180 01a0 00000000 		.4byte	.LVL31
 5181 01a4 14000000 		.4byte	.LVL34
 5182 01a8 0100     		.2byte	0x1
 5183 01aa 52       		.byte	0x52
 5184 01ab 14000000 		.4byte	.LVL34
 5185 01af 1A000000 		.4byte	.LVL35
 5186 01b3 0400     		.2byte	0x4
 5187 01b5 F3       		.byte	0xf3
 5188 01b6 01       		.uleb128 0x1
 5189 01b7 52       		.byte	0x52
 5190 01b8 9F       		.byte	0x9f
 5191 01b9 1A000000 		.4byte	.LVL35
ARM GAS  C:\Users\jorti\AppData\Local\Temp\ccmiXXpF.s 			page 115


 5192 01bd 22000000 		.4byte	.LVL37
 5193 01c1 0100     		.2byte	0x1
 5194 01c3 52       		.byte	0x52
 5195 01c4 22000000 		.4byte	.LVL37
 5196 01c8 28000000 		.4byte	.LVL38
 5197 01cc 0400     		.2byte	0x4
 5198 01ce F3       		.byte	0xf3
 5199 01cf 01       		.uleb128 0x1
 5200 01d0 52       		.byte	0x52
 5201 01d1 9F       		.byte	0x9f
 5202 01d2 28000000 		.4byte	.LVL38
 5203 01d6 38000000 		.4byte	.LVL40
 5204 01da 0100     		.2byte	0x1
 5205 01dc 52       		.byte	0x52
 5206 01dd 38000000 		.4byte	.LVL40
 5207 01e1 3E000000 		.4byte	.LVL41
 5208 01e5 0400     		.2byte	0x4
 5209 01e7 F3       		.byte	0xf3
 5210 01e8 01       		.uleb128 0x1
 5211 01e9 52       		.byte	0x52
 5212 01ea 9F       		.byte	0x9f
 5213 01eb 3E000000 		.4byte	.LVL41
 5214 01ef 46000000 		.4byte	.LVL43
 5215 01f3 0100     		.2byte	0x1
 5216 01f5 52       		.byte	0x52
 5217 01f6 46000000 		.4byte	.LVL43
 5218 01fa 4C000000 		.4byte	.LVL44
 5219 01fe 0400     		.2byte	0x4
 5220 0200 F3       		.byte	0xf3
 5221 0201 01       		.uleb128 0x1
 5222 0202 52       		.byte	0x52
 5223 0203 9F       		.byte	0x9f
 5224 0204 4C000000 		.4byte	.LVL44
 5225 0208 52000000 		.4byte	.LVL46
 5226 020c 0100     		.2byte	0x1
 5227 020e 52       		.byte	0x52
 5228 020f 52000000 		.4byte	.LVL46
 5229 0213 58000000 		.4byte	.LVL47
 5230 0217 0400     		.2byte	0x4
 5231 0219 F3       		.byte	0xf3
 5232 021a 01       		.uleb128 0x1
 5233 021b 52       		.byte	0x52
 5234 021c 9F       		.byte	0x9f
 5235 021d 58000000 		.4byte	.LVL47
 5236 0221 63000000 		.4byte	.LVL48-1
 5237 0225 0100     		.2byte	0x1
 5238 0227 52       		.byte	0x52
 5239 0228 63000000 		.4byte	.LVL48-1
 5240 022c 78000000 		.4byte	.LVL50
 5241 0230 0100     		.2byte	0x1
 5242 0232 55       		.byte	0x55
 5243 0233 78000000 		.4byte	.LVL50
 5244 0237 91000000 		.4byte	.LVL52-1
 5245 023b 0200     		.2byte	0x2
 5246 023d 74       		.byte	0x74
 5247 023e 20       		.sleb128 32
 5248 023f 91000000 		.4byte	.LVL52-1
ARM GAS  C:\Users\jorti\AppData\Local\Temp\ccmiXXpF.s 			page 116


 5249 0243 B4000000 		.4byte	.LFE1
 5250 0247 0400     		.2byte	0x4
 5251 0249 F3       		.byte	0xf3
 5252 024a 01       		.uleb128 0x1
 5253 024b 52       		.byte	0x52
 5254 024c 9F       		.byte	0x9f
 5255 024d 00000000 		.4byte	0
 5256 0251 00000000 		.4byte	0
 5257              	.LLST10:
 5258 0255 00000000 		.4byte	.LVL31
 5259 0259 12000000 		.4byte	.LVL33
 5260 025d 0100     		.2byte	0x1
 5261 025f 53       		.byte	0x53
 5262 0260 12000000 		.4byte	.LVL33
 5263 0264 1A000000 		.4byte	.LVL35
 5264 0268 0400     		.2byte	0x4
 5265 026a F3       		.byte	0xf3
 5266 026b 01       		.uleb128 0x1
 5267 026c 53       		.byte	0x53
 5268 026d 9F       		.byte	0x9f
 5269 026e 1A000000 		.4byte	.LVL35
 5270 0272 20000000 		.4byte	.LVL36
 5271 0276 0100     		.2byte	0x1
 5272 0278 53       		.byte	0x53
 5273 0279 20000000 		.4byte	.LVL36
 5274 027d 28000000 		.4byte	.LVL38
 5275 0281 0400     		.2byte	0x4
 5276 0283 F3       		.byte	0xf3
 5277 0284 01       		.uleb128 0x1
 5278 0285 53       		.byte	0x53
 5279 0286 9F       		.byte	0x9f
 5280 0287 28000000 		.4byte	.LVL38
 5281 028b 36000000 		.4byte	.LVL39
 5282 028f 0100     		.2byte	0x1
 5283 0291 53       		.byte	0x53
 5284 0292 36000000 		.4byte	.LVL39
 5285 0296 3E000000 		.4byte	.LVL41
 5286 029a 0400     		.2byte	0x4
 5287 029c F3       		.byte	0xf3
 5288 029d 01       		.uleb128 0x1
 5289 029e 53       		.byte	0x53
 5290 029f 9F       		.byte	0x9f
 5291 02a0 3E000000 		.4byte	.LVL41
 5292 02a4 44000000 		.4byte	.LVL42
 5293 02a8 0100     		.2byte	0x1
 5294 02aa 53       		.byte	0x53
 5295 02ab 44000000 		.4byte	.LVL42
 5296 02af 4C000000 		.4byte	.LVL44
 5297 02b3 0400     		.2byte	0x4
 5298 02b5 F3       		.byte	0xf3
 5299 02b6 01       		.uleb128 0x1
 5300 02b7 53       		.byte	0x53
 5301 02b8 9F       		.byte	0x9f
 5302 02b9 4C000000 		.4byte	.LVL44
 5303 02bd 50000000 		.4byte	.LVL45
 5304 02c1 0100     		.2byte	0x1
 5305 02c3 53       		.byte	0x53
ARM GAS  C:\Users\jorti\AppData\Local\Temp\ccmiXXpF.s 			page 117


 5306 02c4 50000000 		.4byte	.LVL45
 5307 02c8 58000000 		.4byte	.LVL47
 5308 02cc 0400     		.2byte	0x4
 5309 02ce F3       		.byte	0xf3
 5310 02cf 01       		.uleb128 0x1
 5311 02d0 53       		.byte	0x53
 5312 02d1 9F       		.byte	0x9f
 5313 02d2 58000000 		.4byte	.LVL47
 5314 02d6 63000000 		.4byte	.LVL48-1
 5315 02da 0100     		.2byte	0x1
 5316 02dc 53       		.byte	0x53
 5317 02dd 63000000 		.4byte	.LVL48-1
 5318 02e1 A8000000 		.4byte	.LVL54
 5319 02e5 0100     		.2byte	0x1
 5320 02e7 57       		.byte	0x57
 5321 02e8 A8000000 		.4byte	.LVL54
 5322 02ec B4000000 		.4byte	.LFE1
 5323 02f0 0400     		.2byte	0x4
 5324 02f2 F3       		.byte	0xf3
 5325 02f3 01       		.uleb128 0x1
 5326 02f4 53       		.byte	0x53
 5327 02f5 9F       		.byte	0x9f
 5328 02f6 00000000 		.4byte	0
 5329 02fa 00000000 		.4byte	0
 5330              	.LLST11:
 5331 02fe 00000000 		.4byte	.LVL31
 5332 0302 1A000000 		.4byte	.LVL35
 5333 0306 0200     		.2byte	0x2
 5334 0308 91       		.byte	0x91
 5335 0309 00       		.sleb128 0
 5336 030a 1A000000 		.4byte	.LVL35
 5337 030e A8000000 		.4byte	.LVL54
 5338 0312 0200     		.2byte	0x2
 5339 0314 91       		.byte	0x91
 5340 0315 00       		.sleb128 0
 5341 0316 A8000000 		.4byte	.LVL54
 5342 031a B4000000 		.4byte	.LFE1
 5343 031e 0200     		.2byte	0x2
 5344 0320 7D       		.byte	0x7d
 5345 0321 00       		.sleb128 0
 5346 0322 00000000 		.4byte	0
 5347 0326 00000000 		.4byte	0
 5348              	.LLST12:
 5349 032a 00000000 		.4byte	.LVL31
 5350 032e 1A000000 		.4byte	.LVL35
 5351 0332 0200     		.2byte	0x2
 5352 0334 91       		.byte	0x91
 5353 0335 04       		.sleb128 4
 5354 0336 1A000000 		.4byte	.LVL35
 5355 033a A8000000 		.4byte	.LVL54
 5356 033e 0200     		.2byte	0x2
 5357 0340 91       		.byte	0x91
 5358 0341 04       		.sleb128 4
 5359 0342 A8000000 		.4byte	.LVL54
 5360 0346 B4000000 		.4byte	.LFE1
 5361 034a 0200     		.2byte	0x2
 5362 034c 7D       		.byte	0x7d
ARM GAS  C:\Users\jorti\AppData\Local\Temp\ccmiXXpF.s 			page 118


 5363 034d 04       		.sleb128 4
 5364 034e 00000000 		.4byte	0
 5365 0352 00000000 		.4byte	0
 5366              	.LLST13:
 5367 0356 00000000 		.4byte	.LVL31
 5368 035a 1A000000 		.4byte	.LVL35
 5369 035e 0200     		.2byte	0x2
 5370 0360 91       		.byte	0x91
 5371 0361 08       		.sleb128 8
 5372 0362 1A000000 		.4byte	.LVL35
 5373 0366 A8000000 		.4byte	.LVL54
 5374 036a 0200     		.2byte	0x2
 5375 036c 91       		.byte	0x91
 5376 036d 08       		.sleb128 8
 5377 036e A8000000 		.4byte	.LVL54
 5378 0372 B4000000 		.4byte	.LFE1
 5379 0376 0200     		.2byte	0x2
 5380 0378 7D       		.byte	0x7d
 5381 0379 08       		.sleb128 8
 5382 037a 00000000 		.4byte	0
 5383 037e 00000000 		.4byte	0
 5384              	.LLST14:
 5385 0382 00000000 		.4byte	.LVL31
 5386 0386 1A000000 		.4byte	.LVL35
 5387 038a 0200     		.2byte	0x2
 5388 038c 91       		.byte	0x91
 5389 038d 0C       		.sleb128 12
 5390 038e 1A000000 		.4byte	.LVL35
 5391 0392 A8000000 		.4byte	.LVL54
 5392 0396 0200     		.2byte	0x2
 5393 0398 91       		.byte	0x91
 5394 0399 0C       		.sleb128 12
 5395 039a A8000000 		.4byte	.LVL54
 5396 039e B4000000 		.4byte	.LFE1
 5397 03a2 0200     		.2byte	0x2
 5398 03a4 7D       		.byte	0x7d
 5399 03a5 0C       		.sleb128 12
 5400 03a6 00000000 		.4byte	0
 5401 03aa 00000000 		.4byte	0
 5402              	.LLST15:
 5403 03ae 08000000 		.4byte	.LVL32
 5404 03b2 66000000 		.4byte	.LVL49
 5405 03b6 0200     		.2byte	0x2
 5406 03b8 30       		.byte	0x30
 5407 03b9 9F       		.byte	0x9f
 5408 03ba 66000000 		.4byte	.LVL49
 5409 03be 8E000000 		.4byte	.LVL51
 5410 03c2 0100     		.2byte	0x1
 5411 03c4 50       		.byte	0x50
 5412 03c5 8E000000 		.4byte	.LVL51
 5413 03c9 A8000000 		.4byte	.LVL54
 5414 03cd 0100     		.2byte	0x1
 5415 03cf 59       		.byte	0x59
 5416 03d0 00000000 		.4byte	0
 5417 03d4 00000000 		.4byte	0
 5418              	.LLST16:
 5419 03d8 04000000 		.4byte	.LVL57
ARM GAS  C:\Users\jorti\AppData\Local\Temp\ccmiXXpF.s 			page 119


 5420 03dc 12000000 		.4byte	.LVL60
 5421 03e0 0100     		.2byte	0x1
 5422 03e2 53       		.byte	0x53
 5423 03e3 16000000 		.4byte	.LVL61
 5424 03e7 24000000 		.4byte	.LVL62
 5425 03eb 0100     		.2byte	0x1
 5426 03ed 53       		.byte	0x53
 5427 03ee 00000000 		.4byte	0
 5428 03f2 00000000 		.4byte	0
 5429              	.LLST17:
 5430 03f6 02000000 		.4byte	.LVL56
 5431 03fa 08000000 		.4byte	.LVL58
 5432 03fe 0100     		.2byte	0x1
 5433 0400 52       		.byte	0x52
 5434 0401 08000000 		.4byte	.LVL58
 5435 0405 10000000 		.4byte	.LVL59
 5436 0409 0200     		.2byte	0x2
 5437 040b 70       		.byte	0x70
 5438 040c 2C       		.sleb128 44
 5439 040d 16000000 		.4byte	.LVL61
 5440 0411 30000000 		.4byte	.LFE9
 5441 0415 0100     		.2byte	0x1
 5442 0417 52       		.byte	0x52
 5443 0418 00000000 		.4byte	0
 5444 041c 00000000 		.4byte	0
 5445              	.LLST18:
 5446 0420 00000000 		.4byte	.LVL63
 5447 0424 B0000000 		.4byte	.LVL69
 5448 0428 0100     		.2byte	0x1
 5449 042a 50       		.byte	0x50
 5450 042b B0000000 		.4byte	.LVL69
 5451 042f B3000000 		.4byte	.LVL70-1
 5452 0433 0200     		.2byte	0x2
 5453 0435 91       		.byte	0x91
 5454 0436 70       		.sleb128 -16
 5455 0437 B3000000 		.4byte	.LVL70-1
 5456 043b 00010000 		.4byte	.LFE10
 5457 043f 0400     		.2byte	0x4
 5458 0441 F3       		.byte	0xf3
 5459 0442 01       		.uleb128 0x1
 5460 0443 50       		.byte	0x50
 5461 0444 9F       		.byte	0x9f
 5462 0445 00000000 		.4byte	0
 5463 0449 00000000 		.4byte	0
 5464              	.LLST19:
 5465 044d 40000000 		.4byte	.LVL64
 5466 0451 42000000 		.4byte	.LVL65
 5467 0455 0200     		.2byte	0x2
 5468 0457 30       		.byte	0x30
 5469 0458 9F       		.byte	0x9f
 5470 0459 42000000 		.4byte	.LVL65
 5471 045d 54000000 		.4byte	.LVL66
 5472 0461 0100     		.2byte	0x1
 5473 0463 53       		.byte	0x53
 5474 0464 56000000 		.4byte	.LVL67
 5475 0468 60000000 		.4byte	.LVL68
 5476 046c 0100     		.2byte	0x1
ARM GAS  C:\Users\jorti\AppData\Local\Temp\ccmiXXpF.s 			page 120


 5477 046e 53       		.byte	0x53
 5478 046f 00000000 		.4byte	0
 5479 0473 00000000 		.4byte	0
 5480              	.LLST20:
 5481 0477 00000000 		.4byte	.LVL71
 5482 047b 6E000000 		.4byte	.LVL75
 5483 047f 0100     		.2byte	0x1
 5484 0481 51       		.byte	0x51
 5485 0482 6E000000 		.4byte	.LVL75
 5486 0486 E8000000 		.4byte	.LFE11
 5487 048a 0400     		.2byte	0x4
 5488 048c F3       		.byte	0xf3
 5489 048d 01       		.uleb128 0x1
 5490 048e 51       		.byte	0x51
 5491 048f 9F       		.byte	0x9f
 5492 0490 00000000 		.4byte	0
 5493 0494 00000000 		.4byte	0
 5494              	.LLST21:
 5495 0498 A2000000 		.4byte	.LVL79
 5496 049c AE000000 		.4byte	.LVL81
 5497 04a0 0100     		.2byte	0x1
 5498 04a2 52       		.byte	0x52
 5499 04a3 00000000 		.4byte	0
 5500 04a7 00000000 		.4byte	0
 5501              	.LLST22:
 5502 04ab 6C000000 		.4byte	.LVL74
 5503 04af 8A000000 		.4byte	.LVL76
 5504 04b3 0100     		.2byte	0x1
 5505 04b5 53       		.byte	0x53
 5506 04b6 8A000000 		.4byte	.LVL76
 5507 04ba 8E000000 		.4byte	.LVL77
 5508 04be 0200     		.2byte	0x2
 5509 04c0 30       		.byte	0x30
 5510 04c1 9F       		.byte	0x9f
 5511 04c2 8E000000 		.4byte	.LVL77
 5512 04c6 9A000000 		.4byte	.LVL78
 5513 04ca 0100     		.2byte	0x1
 5514 04cc 53       		.byte	0x53
 5515 04cd A2000000 		.4byte	.LVL79
 5516 04d1 AC000000 		.4byte	.LVL80
 5517 04d5 0100     		.2byte	0x1
 5518 04d7 53       		.byte	0x53
 5519 04d8 AE000000 		.4byte	.LVL81
 5520 04dc B6000000 		.4byte	.LVL83
 5521 04e0 0100     		.2byte	0x1
 5522 04e2 53       		.byte	0x53
 5523 04e3 00000000 		.4byte	0
 5524 04e7 00000000 		.4byte	0
 5525              	.LLST23:
 5526 04eb 3E000000 		.4byte	.LVL72
 5527 04ef D4000000 		.4byte	.LVL84
 5528 04f3 0100     		.2byte	0x1
 5529 04f5 54       		.byte	0x54
 5530 04f6 00000000 		.4byte	0
 5531 04fa 00000000 		.4byte	0
 5532              	.LLST24:
 5533 04fe 00000000 		.4byte	.LVL85
ARM GAS  C:\Users\jorti\AppData\Local\Temp\ccmiXXpF.s 			page 121


 5534 0502 04000000 		.4byte	.LVL86
 5535 0506 0200     		.2byte	0x2
 5536 0508 30       		.byte	0x30
 5537 0509 9F       		.byte	0x9f
 5538 050a 04000000 		.4byte	.LVL86
 5539 050e 10000000 		.4byte	.LVL87
 5540 0512 0100     		.2byte	0x1
 5541 0514 53       		.byte	0x53
 5542 0515 12000000 		.4byte	.LVL88
 5543 0519 24000000 		.4byte	.LFE12
 5544 051d 0100     		.2byte	0x1
 5545 051f 53       		.byte	0x53
 5546 0520 00000000 		.4byte	0
 5547 0524 00000000 		.4byte	0
 5548              	.LLST25:
 5549 0528 1C000000 		.4byte	.LVL92
 5550 052c 2A000000 		.4byte	.LVL93
 5551 0530 0100     		.2byte	0x1
 5552 0532 52       		.byte	0x52
 5553 0533 2C000000 		.4byte	.LVL94
 5554 0537 34000000 		.4byte	.LVL96
 5555 053b 0100     		.2byte	0x1
 5556 053d 51       		.byte	0x51
 5557 053e 00000000 		.4byte	0
 5558 0542 00000000 		.4byte	0
 5559              	.LLST26:
 5560 0546 2E000000 		.4byte	.LVL95
 5561 054a 34000000 		.4byte	.LVL96
 5562 054e 0100     		.2byte	0x1
 5563 0550 52       		.byte	0x52
 5564 0551 00000000 		.4byte	0
 5565 0555 00000000 		.4byte	0
 5566              	.LLST27:
 5567 0559 0E000000 		.4byte	.LVL90
 5568 055d 46000000 		.4byte	.LVL97
 5569 0561 0100     		.2byte	0x1
 5570 0563 53       		.byte	0x53
 5571 0564 00000000 		.4byte	0
 5572 0568 00000000 		.4byte	0
 5573              	.LLST28:
 5574 056c 00000000 		.4byte	.LVL98
 5575 0570 26000000 		.4byte	.LVL99
 5576 0574 0100     		.2byte	0x1
 5577 0576 50       		.byte	0x50
 5578 0577 26000000 		.4byte	.LVL99
 5579 057b 9A000000 		.4byte	.LVL115
 5580 057f 0100     		.2byte	0x1
 5581 0581 54       		.byte	0x54
 5582 0582 9A000000 		.4byte	.LVL115
 5583 0586 A8000000 		.4byte	.LFE2
 5584 058a 0400     		.2byte	0x4
 5585 058c F3       		.byte	0xf3
 5586 058d 01       		.uleb128 0x1
 5587 058e 50       		.byte	0x50
 5588 058f 9F       		.byte	0x9f
 5589 0590 00000000 		.4byte	0
 5590 0594 00000000 		.4byte	0
ARM GAS  C:\Users\jorti\AppData\Local\Temp\ccmiXXpF.s 			page 122


 5591              	.LLST29:
 5592 0598 00000000 		.4byte	.LVL98
 5593 059c 29000000 		.4byte	.LVL100-1
 5594 05a0 0100     		.2byte	0x1
 5595 05a2 51       		.byte	0x51
 5596 05a3 29000000 		.4byte	.LVL100-1
 5597 05a7 9A000000 		.4byte	.LVL115
 5598 05ab 0100     		.2byte	0x1
 5599 05ad 56       		.byte	0x56
 5600 05ae 9A000000 		.4byte	.LVL115
 5601 05b2 A8000000 		.4byte	.LFE2
 5602 05b6 0400     		.2byte	0x4
 5603 05b8 F3       		.byte	0xf3
 5604 05b9 01       		.uleb128 0x1
 5605 05ba 51       		.byte	0x51
 5606 05bb 9F       		.byte	0x9f
 5607 05bc 00000000 		.4byte	0
 5608 05c0 00000000 		.4byte	0
 5609              	.LLST30:
 5610 05c4 60000000 		.4byte	.LVL105
 5611 05c8 64000000 		.4byte	.LVL106
 5612 05cc 0200     		.2byte	0x2
 5613 05ce 31       		.byte	0x31
 5614 05cf 9F       		.byte	0x9f
 5615 05d0 76000000 		.4byte	.LVL109
 5616 05d4 7A000000 		.4byte	.LVL110
 5617 05d8 0200     		.2byte	0x2
 5618 05da 31       		.byte	0x31
 5619 05db 9F       		.byte	0x9f
 5620 05dc 88000000 		.4byte	.LVL112
 5621 05e0 8C000000 		.4byte	.LVL113
 5622 05e4 0200     		.2byte	0x2
 5623 05e6 30       		.byte	0x30
 5624 05e7 9F       		.byte	0x9f
 5625 05e8 00000000 		.4byte	0
 5626 05ec 00000000 		.4byte	0
 5627              	.LLST31:
 5628 05f0 00000000 		.4byte	.LVL116
 5629 05f4 26000000 		.4byte	.LVL117
 5630 05f8 0100     		.2byte	0x1
 5631 05fa 50       		.byte	0x50
 5632 05fb 26000000 		.4byte	.LVL117
 5633 05ff 90000000 		.4byte	.LVL132
 5634 0603 0100     		.2byte	0x1
 5635 0605 55       		.byte	0x55
 5636 0606 90000000 		.4byte	.LVL132
 5637 060a 9C000000 		.4byte	.LFE4
 5638 060e 0400     		.2byte	0x4
 5639 0610 F3       		.byte	0xf3
 5640 0611 01       		.uleb128 0x1
 5641 0612 50       		.byte	0x50
 5642 0613 9F       		.byte	0x9f
 5643 0614 00000000 		.4byte	0
 5644 0618 00000000 		.4byte	0
 5645              	.LLST32:
 5646 061c 00000000 		.4byte	.LVL116
 5647 0620 29000000 		.4byte	.LVL118-1
ARM GAS  C:\Users\jorti\AppData\Local\Temp\ccmiXXpF.s 			page 123


 5648 0624 0100     		.2byte	0x1
 5649 0626 51       		.byte	0x51
 5650 0627 29000000 		.4byte	.LVL118-1
 5651 062b 90000000 		.4byte	.LVL132
 5652 062f 0100     		.2byte	0x1
 5653 0631 56       		.byte	0x56
 5654 0632 90000000 		.4byte	.LVL132
 5655 0636 9C000000 		.4byte	.LFE4
 5656 063a 0400     		.2byte	0x4
 5657 063c F3       		.byte	0xf3
 5658 063d 01       		.uleb128 0x1
 5659 063e 51       		.byte	0x51
 5660 063f 9F       		.byte	0x9f
 5661 0640 00000000 		.4byte	0
 5662 0644 00000000 		.4byte	0
 5663              	.LLST33:
 5664 0648 54000000 		.4byte	.LVL122
 5665 064c 58000000 		.4byte	.LVL123
 5666 0650 0200     		.2byte	0x2
 5667 0652 31       		.byte	0x31
 5668 0653 9F       		.byte	0x9f
 5669 0654 6C000000 		.4byte	.LVL126
 5670 0658 70000000 		.4byte	.LVL127
 5671 065c 0200     		.2byte	0x2
 5672 065e 31       		.byte	0x31
 5673 065f 9F       		.byte	0x9f
 5674 0660 7E000000 		.4byte	.LVL129
 5675 0664 82000000 		.4byte	.LVL130
 5676 0668 0200     		.2byte	0x2
 5677 066a 30       		.byte	0x30
 5678 066b 9F       		.byte	0x9f
 5679 066c 00000000 		.4byte	0
 5680 0670 00000000 		.4byte	0
 5681              	.LLST34:
 5682 0674 00000000 		.4byte	.LVL133
 5683 0678 2C000000 		.4byte	.LVL138
 5684 067c 0100     		.2byte	0x1
 5685 067e 50       		.byte	0x50
 5686 067f 2C000000 		.4byte	.LVL138
 5687 0683 CE000000 		.4byte	.LVL161
 5688 0687 0100     		.2byte	0x1
 5689 0689 56       		.byte	0x56
 5690 068a CE000000 		.4byte	.LVL161
 5691 068e DC000000 		.4byte	.LFE6
 5692 0692 0400     		.2byte	0x4
 5693 0694 F3       		.byte	0xf3
 5694 0695 01       		.uleb128 0x1
 5695 0696 50       		.byte	0x50
 5696 0697 9F       		.byte	0x9f
 5697 0698 00000000 		.4byte	0
 5698 069c 00000000 		.4byte	0
 5699              	.LLST35:
 5700 06a0 00000000 		.4byte	.LVL133
 5701 06a4 2F000000 		.4byte	.LVL139-1
 5702 06a8 0100     		.2byte	0x1
 5703 06aa 51       		.byte	0x51
 5704 06ab 2F000000 		.4byte	.LVL139-1
ARM GAS  C:\Users\jorti\AppData\Local\Temp\ccmiXXpF.s 			page 124


 5705 06af DC000000 		.4byte	.LFE6
 5706 06b3 0400     		.2byte	0x4
 5707 06b5 F3       		.byte	0xf3
 5708 06b6 01       		.uleb128 0x1
 5709 06b7 51       		.byte	0x51
 5710 06b8 9F       		.byte	0x9f
 5711 06b9 00000000 		.4byte	0
 5712 06bd 00000000 		.4byte	0
 5713              	.LLST36:
 5714 06c1 00000000 		.4byte	.LVL133
 5715 06c5 10000000 		.4byte	.LVL134
 5716 06c9 0100     		.2byte	0x1
 5717 06cb 52       		.byte	0x52
 5718 06cc 10000000 		.4byte	.LVL134
 5719 06d0 16000000 		.4byte	.LVL135
 5720 06d4 0400     		.2byte	0x4
 5721 06d6 F3       		.byte	0xf3
 5722 06d7 01       		.uleb128 0x1
 5723 06d8 52       		.byte	0x52
 5724 06d9 9F       		.byte	0x9f
 5725 06da 16000000 		.4byte	.LVL135
 5726 06de 1C000000 		.4byte	.LVL136
 5727 06e2 0100     		.2byte	0x1
 5728 06e4 52       		.byte	0x52
 5729 06e5 1C000000 		.4byte	.LVL136
 5730 06e9 20000000 		.4byte	.LVL137
 5731 06ed 0400     		.2byte	0x4
 5732 06ef F3       		.byte	0xf3
 5733 06f0 01       		.uleb128 0x1
 5734 06f1 52       		.byte	0x52
 5735 06f2 9F       		.byte	0x9f
 5736 06f3 20000000 		.4byte	.LVL137
 5737 06f7 2F000000 		.4byte	.LVL139-1
 5738 06fb 0100     		.2byte	0x1
 5739 06fd 52       		.byte	0x52
 5740 06fe 2F000000 		.4byte	.LVL139-1
 5741 0702 CE000000 		.4byte	.LVL161
 5742 0706 0100     		.2byte	0x1
 5743 0708 59       		.byte	0x59
 5744 0709 CE000000 		.4byte	.LVL161
 5745 070d DC000000 		.4byte	.LFE6
 5746 0711 0400     		.2byte	0x4
 5747 0713 F3       		.byte	0xf3
 5748 0714 01       		.uleb128 0x1
 5749 0715 52       		.byte	0x52
 5750 0716 9F       		.byte	0x9f
 5751 0717 00000000 		.4byte	0
 5752 071b 00000000 		.4byte	0
 5753              	.LLST37:
 5754 071f 00000000 		.4byte	.LVL133
 5755 0723 2F000000 		.4byte	.LVL139-1
 5756 0727 0100     		.2byte	0x1
 5757 0729 53       		.byte	0x53
 5758 072a 2F000000 		.4byte	.LVL139-1
 5759 072e CE000000 		.4byte	.LVL161
 5760 0732 0100     		.2byte	0x1
 5761 0734 57       		.byte	0x57
ARM GAS  C:\Users\jorti\AppData\Local\Temp\ccmiXXpF.s 			page 125


 5762 0735 CE000000 		.4byte	.LVL161
 5763 0739 DC000000 		.4byte	.LFE6
 5764 073d 0400     		.2byte	0x4
 5765 073f F3       		.byte	0xf3
 5766 0740 01       		.uleb128 0x1
 5767 0741 53       		.byte	0x53
 5768 0742 9F       		.byte	0x9f
 5769 0743 00000000 		.4byte	0
 5770 0747 00000000 		.4byte	0
 5771              	.LLST38:
 5772 074b 5A000000 		.4byte	.LVL141
 5773 074f 61000000 		.4byte	.LVL142-1
 5774 0753 0100     		.2byte	0x1
 5775 0755 53       		.byte	0x53
 5776 0756 64000000 		.4byte	.LVL143
 5777 075a 68000000 		.4byte	.LVL144
 5778 075e 0100     		.2byte	0x1
 5779 0760 53       		.byte	0x53
 5780 0761 68000000 		.4byte	.LVL144
 5781 0765 6A000000 		.4byte	.LVL145
 5782 0769 0200     		.2byte	0x2
 5783 076b 76       		.byte	0x76
 5784 076c 08       		.sleb128 8
 5785 076d 6E000000 		.4byte	.LVL146
 5786 0771 75000000 		.4byte	.LVL147-1
 5787 0775 0100     		.2byte	0x1
 5788 0777 53       		.byte	0x53
 5789 0778 78000000 		.4byte	.LVL148
 5790 077c 7C000000 		.4byte	.LVL149
 5791 0780 0100     		.2byte	0x1
 5792 0782 53       		.byte	0x53
 5793 0783 7C000000 		.4byte	.LVL149
 5794 0787 7E000000 		.4byte	.LVL150
 5795 078b 0200     		.2byte	0x2
 5796 078d 76       		.byte	0x76
 5797 078e 08       		.sleb128 8
 5798 078f 00000000 		.4byte	0
 5799 0793 00000000 		.4byte	0
 5800              	.LLST39:
 5801 0797 98000000 		.4byte	.LVL152
 5802 079b 9C000000 		.4byte	.LVL153
 5803 079f 0200     		.2byte	0x2
 5804 07a1 31       		.byte	0x31
 5805 07a2 9F       		.byte	0x9f
 5806 07a3 AA000000 		.4byte	.LVL155
 5807 07a7 AE000000 		.4byte	.LVL156
 5808 07ab 0200     		.2byte	0x2
 5809 07ad 31       		.byte	0x31
 5810 07ae 9F       		.byte	0x9f
 5811 07af BC000000 		.4byte	.LVL158
 5812 07b3 C0000000 		.4byte	.LVL159
 5813 07b7 0200     		.2byte	0x2
 5814 07b9 30       		.byte	0x30
 5815 07ba 9F       		.byte	0x9f
 5816 07bb 00000000 		.4byte	0
 5817 07bf 00000000 		.4byte	0
 5818              	.LLST40:
ARM GAS  C:\Users\jorti\AppData\Local\Temp\ccmiXXpF.s 			page 126


 5819 07c3 00000000 		.4byte	.LVL162
 5820 07c7 04000000 		.4byte	.LVL163
 5821 07cb 0100     		.2byte	0x1
 5822 07cd 50       		.byte	0x50
 5823 07ce 04000000 		.4byte	.LVL163
 5824 07d2 B0000000 		.4byte	.LFE14
 5825 07d6 0400     		.2byte	0x4
 5826 07d8 F3       		.byte	0xf3
 5827 07d9 01       		.uleb128 0x1
 5828 07da 50       		.byte	0x50
 5829 07db 9F       		.byte	0x9f
 5830 07dc 00000000 		.4byte	0
 5831 07e0 00000000 		.4byte	0
 5832              	.LLST41:
 5833 07e4 3C000000 		.4byte	.LVL170
 5834 07e8 40000000 		.4byte	.LVL172
 5835 07ec 0200     		.2byte	0x2
 5836 07ee 30       		.byte	0x30
 5837 07ef 9F       		.byte	0x9f
 5838 07f0 40000000 		.4byte	.LVL172
 5839 07f4 7A000000 		.4byte	.LVL179
 5840 07f8 0100     		.2byte	0x1
 5841 07fa 55       		.byte	0x55
 5842 07fb 7E000000 		.4byte	.LVL180
 5843 07ff B0000000 		.4byte	.LFE14
 5844 0803 0100     		.2byte	0x1
 5845 0805 55       		.byte	0x55
 5846 0806 00000000 		.4byte	0
 5847 080a 00000000 		.4byte	0
 5848              	.LLST42:
 5849 080e 6E000000 		.4byte	.LVL176
 5850 0812 75000000 		.4byte	.LVL177-1
 5851 0816 0100     		.2byte	0x1
 5852 0818 53       		.byte	0x53
 5853 0819 00000000 		.4byte	0
 5854 081d 00000000 		.4byte	0
 5855              	.LLST43:
 5856 0821 3C000000 		.4byte	.LVL170
 5857 0825 78000000 		.4byte	.LVL178
 5858 0829 0100     		.2byte	0x1
 5859 082b 54       		.byte	0x54
 5860 082c 7E000000 		.4byte	.LVL180
 5861 0830 B0000000 		.4byte	.LFE14
 5862 0834 0100     		.2byte	0x1
 5863 0836 54       		.byte	0x54
 5864 0837 00000000 		.4byte	0
 5865 083b 00000000 		.4byte	0
 5866              	.LLST44:
 5867 083f 44000000 		.4byte	.LVL173
 5868 0843 7A000000 		.4byte	.LVL179
 5869 0847 0100     		.2byte	0x1
 5870 0849 56       		.byte	0x56
 5871 084a 00000000 		.4byte	0
 5872 084e 00000000 		.4byte	0
 5873              	.LLST45:
 5874 0852 34000000 		.4byte	.LVL168
 5875 0856 3E000000 		.4byte	.LVL171
ARM GAS  C:\Users\jorti\AppData\Local\Temp\ccmiXXpF.s 			page 127


 5876 085a 0100     		.2byte	0x1
 5877 085c 53       		.byte	0x53
 5878 085d 00000000 		.4byte	0
 5879 0861 00000000 		.4byte	0
 5880              	.LLST46:
 5881 0865 20000000 		.4byte	.LVL167
 5882 0869 40000000 		.4byte	.LVL172
 5883 086d 0100     		.2byte	0x1
 5884 086f 50       		.byte	0x50
 5885 0870 40000000 		.4byte	.LVL172
 5886 0874 8A000000 		.4byte	.LVL183
 5887 0878 0100     		.2byte	0x1
 5888 087a 57       		.byte	0x57
 5889 087b 00000000 		.4byte	0
 5890 087f 00000000 		.4byte	0
 5891              		.section	.debug_aranges,"",%progbits
 5892 0000 84000000 		.4byte	0x84
 5893 0004 0200     		.2byte	0x2
 5894 0006 00000000 		.4byte	.Ldebug_info0
 5895 000a 04       		.byte	0x4
 5896 000b 00       		.byte	0
 5897 000c 0000     		.2byte	0
 5898 000e 0000     		.2byte	0
 5899 0010 00000000 		.4byte	.LFB3
 5900 0014 B4000000 		.4byte	.LFE3-.LFB3
 5901 0018 00000000 		.4byte	.LFB5
 5902 001c 48000000 		.4byte	.LFE5-.LFB5
 5903 0020 00000000 		.4byte	.LFB7
 5904 0024 2C000000 		.4byte	.LFE7-.LFB7
 5905 0028 00000000 		.4byte	.LFB8
 5906 002c 1C000000 		.4byte	.LFE8-.LFB8
 5907 0030 00000000 		.4byte	.LFB1
 5908 0034 B4000000 		.4byte	.LFE1-.LFB1
 5909 0038 00000000 		.4byte	.LFB9
 5910 003c 30000000 		.4byte	.LFE9-.LFB9
 5911 0040 00000000 		.4byte	.LFB10
 5912 0044 00010000 		.4byte	.LFE10-.LFB10
 5913 0048 00000000 		.4byte	.LFB11
 5914 004c E8000000 		.4byte	.LFE11-.LFB11
 5915 0050 00000000 		.4byte	.LFB12
 5916 0054 24000000 		.4byte	.LFE12-.LFB12
 5917 0058 00000000 		.4byte	.LFB13
 5918 005c 58000000 		.4byte	.LFE13-.LFB13
 5919 0060 00000000 		.4byte	.LFB2
 5920 0064 A8000000 		.4byte	.LFE2-.LFB2
 5921 0068 00000000 		.4byte	.LFB4
 5922 006c 9C000000 		.4byte	.LFE4-.LFB4
 5923 0070 00000000 		.4byte	.LFB6
 5924 0074 DC000000 		.4byte	.LFE6-.LFB6
 5925 0078 00000000 		.4byte	.LFB14
 5926 007c B0000000 		.4byte	.LFE14-.LFB14
 5927 0080 00000000 		.4byte	0
 5928 0084 00000000 		.4byte	0
 5929              		.section	.debug_ranges,"",%progbits
 5930              	.Ldebug_ranges0:
 5931 0000 00000000 		.4byte	.LFB3
 5932 0004 B4000000 		.4byte	.LFE3
ARM GAS  C:\Users\jorti\AppData\Local\Temp\ccmiXXpF.s 			page 128


 5933 0008 00000000 		.4byte	.LFB5
 5934 000c 48000000 		.4byte	.LFE5
 5935 0010 00000000 		.4byte	.LFB7
 5936 0014 2C000000 		.4byte	.LFE7
 5937 0018 00000000 		.4byte	.LFB8
 5938 001c 1C000000 		.4byte	.LFE8
 5939 0020 00000000 		.4byte	.LFB1
 5940 0024 B4000000 		.4byte	.LFE1
 5941 0028 00000000 		.4byte	.LFB9
 5942 002c 30000000 		.4byte	.LFE9
 5943 0030 00000000 		.4byte	.LFB10
 5944 0034 00010000 		.4byte	.LFE10
 5945 0038 00000000 		.4byte	.LFB11
 5946 003c E8000000 		.4byte	.LFE11
 5947 0040 00000000 		.4byte	.LFB12
 5948 0044 24000000 		.4byte	.LFE12
 5949 0048 00000000 		.4byte	.LFB13
 5950 004c 58000000 		.4byte	.LFE13
 5951 0050 00000000 		.4byte	.LFB2
 5952 0054 A8000000 		.4byte	.LFE2
 5953 0058 00000000 		.4byte	.LFB4
 5954 005c 9C000000 		.4byte	.LFE4
 5955 0060 00000000 		.4byte	.LFB6
 5956 0064 DC000000 		.4byte	.LFE6
 5957 0068 00000000 		.4byte	.LFB14
 5958 006c B0000000 		.4byte	.LFE14
 5959 0070 00000000 		.4byte	0
 5960 0074 00000000 		.4byte	0
 5961              		.section	.debug_line,"",%progbits
 5962              	.Ldebug_line0:
 5963 0000 13030000 		.section	.debug_str,"MS",%progbits,1
 5963      02009100 
 5963      00000201 
 5963      FB0E0D00 
 5963      01010101 
 5964              	.LASF221:
 5965 0000 6F735F74 		.ascii	"os_tcb\000"
 5965      636200
 5966              	.LASF355:
 5967 0007 4F535461 		.ascii	"OSTaskCreate\000"
 5967      736B4372 
 5967      65617465 
 5967      00
 5968              	.LASF112:
 5969 0014 4F535F45 		.ascii	"OS_ERR_PRIO_INVALID\000"
 5969      52525F50 
 5969      52494F5F 
 5969      494E5641 
 5969      4C494400 
 5970              	.LASF205:
 5971 0028 4F535F45 		.ascii	"OS_ERR\000"
 5971      525200
 5972              	.LASF27:
 5973 002f 4F535F43 		.ascii	"OS_CTX_SW_CTR\000"
 5973      54585F53 
 5973      575F4354 
 5973      5200
ARM GAS  C:\Users\jorti\AppData\Local\Temp\ccmiXXpF.s 			page 129


 5974              	.LASF321:
 5975 003d 4F535F54 		.ascii	"OS_TmrResetPeak\000"
 5975      6D725265 
 5975      73657450 
 5975      65616B00 
 5976              	.LASF329:
 5977 004d 4F535F54 		.ascii	"OS_TmrTask\000"
 5977      6D725461 
 5977      736B00
 5978              	.LASF191:
 5979 0058 4F535F45 		.ascii	"OS_ERR_TMR_ISR\000"
 5979      52525F54 
 5979      4D525F49 
 5979      535200
 5980              	.LASF178:
 5981 0067 4F535F45 		.ascii	"OS_ERR_TIME_INVALID_MINUTES\000"
 5981      52525F54 
 5981      494D455F 
 5981      494E5641 
 5981      4C49445F 
 5982              	.LASF45:
 5983 0083 4F535F45 		.ascii	"OS_ERR_A\000"
 5983      52525F41 
 5983      00
 5984              	.LASF47:
 5985 008c 4F535F45 		.ascii	"OS_ERR_B\000"
 5985      52525F42 
 5985      00
 5986              	.LASF48:
 5987 0095 4F535F45 		.ascii	"OS_ERR_C\000"
 5987      52525F43 
 5987      00
 5988              	.LASF50:
 5989 009e 4F535F45 		.ascii	"OS_ERR_D\000"
 5989      52525F44 
 5989      00
 5990              	.LASF52:
 5991 00a7 4F535F45 		.ascii	"OS_ERR_E\000"
 5991      52525F45 
 5991      00
 5992              	.LASF53:
 5993 00b0 4F535F45 		.ascii	"OS_ERR_F\000"
 5993      52525F46 
 5993      00
 5994              	.LASF59:
 5995 00b9 4F535F45 		.ascii	"OS_ERR_G\000"
 5995      52525F47 
 5995      00
 5996              	.LASF60:
 5997 00c2 4F535F45 		.ascii	"OS_ERR_H\000"
 5997      52525F48 
 5997      00
 5998              	.LASF61:
 5999 00cb 4F535F45 		.ascii	"OS_ERR_I\000"
 5999      52525F49 
 5999      00
 6000              	.LASF68:
ARM GAS  C:\Users\jorti\AppData\Local\Temp\ccmiXXpF.s 			page 130


 6001 00d4 4F535F45 		.ascii	"OS_ERR_J\000"
 6001      52525F4A 
 6001      00
 6002              	.LASF69:
 6003 00dd 4F535F45 		.ascii	"OS_ERR_K\000"
 6003      52525F4B 
 6003      00
 6004              	.LASF70:
 6005 00e6 4F535F45 		.ascii	"OS_ERR_L\000"
 6005      52525F4C 
 6005      00
 6006              	.LASF72:
 6007 00ef 4F535F45 		.ascii	"OS_ERR_M\000"
 6007      52525F4D 
 6007      00
 6008              	.LASF88:
 6009 00f8 4F535F45 		.ascii	"OS_ERR_N\000"
 6009      52525F4E 
 6009      00
 6010              	.LASF91:
 6011 0101 4F535F45 		.ascii	"OS_ERR_O\000"
 6011      52525F4F 
 6011      00
 6012              	.LASF99:
 6013 010a 4F535F45 		.ascii	"OS_ERR_P\000"
 6013      52525F50 
 6013      00
 6014              	.LASF114:
 6015 0113 4F535F45 		.ascii	"OS_ERR_Q\000"
 6015      52525F51 
 6015      00
 6016              	.LASF119:
 6017 011c 4F535F45 		.ascii	"OS_ERR_R\000"
 6017      52525F52 
 6017      00
 6018              	.LASF123:
 6019 0125 4F535F45 		.ascii	"OS_ERR_S\000"
 6019      52525F53 
 6019      00
 6020              	.LASF140:
 6021 012e 4F535F45 		.ascii	"OS_ERR_T\000"
 6021      52525F54 
 6021      00
 6022              	.LASF198:
 6023 0137 4F535F45 		.ascii	"OS_ERR_U\000"
 6023      52525F55 
 6023      00
 6024              	.LASF199:
 6025 0140 4F535F45 		.ascii	"OS_ERR_V\000"
 6025      52525F56 
 6025      00
 6026              	.LASF200:
 6027 0149 4F535F45 		.ascii	"OS_ERR_W\000"
 6027      52525F57 
 6027      00
 6028              	.LASF359:
 6029 0152 75434F53 		.ascii	"uCOS-III\\Source\\os_tmr.c\000"
ARM GAS  C:\Users\jorti\AppData\Local\Temp\ccmiXXpF.s 			page 131


 6029      2D494949 
 6029      5C536F75 
 6029      7263655C 
 6029      6F735F74 
 6030              	.LASF188:
 6031 016b 4F535F45 		.ascii	"OS_ERR_TMR_INVALID_PERIOD\000"
 6031      52525F54 
 6031      4D525F49 
 6031      4E56414C 
 6031      49445F50 
 6032              	.LASF361:
 6033 0185 6F735F65 		.ascii	"os_err\000"
 6033      727200
 6034              	.LASF217:
 6035 018c 4E627245 		.ascii	"NbrEntries\000"
 6035      6E747269 
 6035      657300
 6036              	.LASF331:
 6037 0197 646F6E65 		.ascii	"done\000"
 6037      00
 6038              	.LASF65:
 6039 019c 4F535F45 		.ascii	"OS_ERR_INT_Q_SIZE\000"
 6039      52525F49 
 6039      4E545F51 
 6039      5F53495A 
 6039      4500
 6040              	.LASF49:
 6041 01ae 4F535F45 		.ascii	"OS_ERR_CREATE_ISR\000"
 6041      52525F43 
 6041      52454154 
 6041      455F4953 
 6041      5200
 6042              	.LASF25:
 6043 01c0 4F535F43 		.ascii	"OS_CPU_USAGE\000"
 6043      50555F55 
 6043      53414745 
 6043      00
 6044              	.LASF172:
 6045 01cd 4F535F45 		.ascii	"OS_ERR_TICK_STK_SIZE_INVALID\000"
 6045      52525F54 
 6045      49434B5F 
 6045      53544B5F 
 6045      53495A45 
 6046              	.LASF9:
 6047 01ea 4350555F 		.ascii	"CPU_INT32U\000"
 6047      494E5433 
 6047      325500
 6048              	.LASF137:
 6049 01f5 4F535F45 		.ascii	"OS_ERR_STK_INVALID\000"
 6049      52525F53 
 6049      544B5F49 
 6049      4E56414C 
 6049      494400
 6050              	.LASF252:
 6051 0208 466C6167 		.ascii	"FlagsOpt\000"
 6051      734F7074 
 6051      00
ARM GAS  C:\Users\jorti\AppData\Local\Temp\ccmiXXpF.s 			page 132


 6052              	.LASF153:
 6053 0211 4F535F45 		.ascii	"OS_ERR_TASK_RESUME_ISR\000"
 6053      52525F54 
 6053      41534B5F 
 6053      52455355 
 6053      4D455F49 
 6054              	.LASF107:
 6055 0228 4F535F45 		.ascii	"OS_ERR_PEND_WOULD_BLOCK\000"
 6055      52525F50 
 6055      454E445F 
 6055      574F554C 
 6055      445F424C 
 6056              	.LASF316:
 6057 0240 4F535F54 		.ascii	"OS_TmrLink\000"
 6057      6D724C69 
 6057      6E6B00
 6058              	.LASF141:
 6059 024b 4F535F45 		.ascii	"OS_ERR_TASK_CHANGE_PRIO_ISR\000"
 6059      52525F54 
 6059      41534B5F 
 6059      4348414E 
 6059      47455F50 
 6060              	.LASF311:
 6061 0267 705F6361 		.ascii	"p_callback_arg\000"
 6061      6C6C6261 
 6061      636B5F61 
 6061      726700
 6062              	.LASF317:
 6063 0276 705F7370 		.ascii	"p_spoke\000"
 6063      6F6B6500 
 6064              	.LASF131:
 6065 027e 4F535F45 		.ascii	"OS_ERR_STAT_RESET_ISR\000"
 6065      52525F53 
 6065      5441545F 
 6065      52455345 
 6065      545F4953 
 6066              	.LASF106:
 6067 0294 4F535F45 		.ascii	"OS_ERR_PEND_LOCKED\000"
 6067      52525F50 
 6067      454E445F 
 6067      4C4F434B 
 6067      454400
 6068              	.LASF33:
 6069 02a7 4F535F4F 		.ascii	"OS_OBJ_QTY\000"
 6069      424A5F51 
 6069      545900
 6070              	.LASF337:
 6071 02b2 4F53546D 		.ascii	"OSTmrTaskTCB\000"
 6071      72546173 
 6071      6B544342 
 6071      00
 6072              	.LASF151:
 6073 02bf 4F535F45 		.ascii	"OS_ERR_TASK_NOT_SUSPENDED\000"
 6073      52525F54 
 6073      41534B5F 
 6073      4E4F545F 
 6073      53555350 
ARM GAS  C:\Users\jorti\AppData\Local\Temp\ccmiXXpF.s 			page 133


 6074              	.LASF149:
 6075 02d9 4F535F45 		.ascii	"OS_ERR_TASK_NOT_DLY\000"
 6075      52525F54 
 6075      41534B5F 
 6075      4E4F545F 
 6075      444C5900 
 6076              	.LASF265:
 6077 02ed 44626750 		.ascii	"DbgPrevPtr\000"
 6077      72657650 
 6077      747200
 6078              	.LASF63:
 6079 02f8 4F535F45 		.ascii	"OS_ERR_INT_Q\000"
 6079      52525F49 
 6079      4E545F51 
 6079      00
 6080              	.LASF266:
 6081 0305 4462674E 		.ascii	"DbgNextPtr\000"
 6081      65787450 
 6081      747200
 6082              	.LASF163:
 6083 0310 4F535F45 		.ascii	"OS_ERR_TASK_WAITING\000"
 6083      52525F54 
 6083      41534B5F 
 6083      57414954 
 6083      494E4700 
 6084              	.LASF280:
 6085 0324 53746174 		.ascii	"State\000"
 6085      6500
 6086              	.LASF46:
 6087 032a 4F535F45 		.ascii	"OS_ERR_ACCEPT_ISR\000"
 6087      52525F41 
 6087      43434550 
 6087      545F4953 
 6087      5200
 6088              	.LASF161:
 6089 033c 4F535F45 		.ascii	"OS_ERR_TASK_SUSPEND_ISR\000"
 6089      52525F54 
 6089      41534B5F 
 6089      53555350 
 6089      454E445F 
 6090              	.LASF87:
 6091 0354 4F535F45 		.ascii	"OS_ERR_MUTEX_NESTING\000"
 6091      52525F4D 
 6091      55544558 
 6091      5F4E4553 
 6091      54494E47 
 6092              	.LASF332:
 6093 0369 74735F73 		.ascii	"ts_start\000"
 6093      74617274 
 6093      00
 6094              	.LASF189:
 6095 0372 4F535F45 		.ascii	"OS_ERR_TMR_INVALID_STATE\000"
 6095      52525F54 
 6095      4D525F49 
 6095      4E56414C 
 6095      49445F53 
 6096              	.LASF234:
ARM GAS  C:\Users\jorti\AppData\Local\Temp\ccmiXXpF.s 			page 134


 6097 038b 50656E64 		.ascii	"PendOn\000"
 6097      4F6E00
 6098              	.LASF239:
 6099 0392 50656E64 		.ascii	"PendDataTblEntries\000"
 6099      44617461 
 6099      54626C45 
 6099      6E747269 
 6099      657300
 6100              	.LASF92:
 6101 03a5 4F535F45 		.ascii	"OS_ERR_OBJ_CREATED\000"
 6101      52525F4F 
 6101      424A5F43 
 6101      52454154 
 6101      454400
 6102              	.LASF339:
 6103 03b8 4F53546D 		.ascii	"OSTmrTickCtr\000"
 6103      72546963 
 6103      6B437472 
 6103      00
 6104              	.LASF348:
 6105 03c5 4F534366 		.ascii	"OSCfg_TmrTaskStkSize\000"
 6105      675F546D 
 6105      72546173 
 6105      6B53746B 
 6105      53697A65 
 6106              	.LASF294:
 6107 03da 5461696C 		.ascii	"TailPtr\000"
 6107      50747200 
 6108              	.LASF347:
 6109 03e2 4F534366 		.ascii	"OSCfg_TmrTaskStkLimit\000"
 6109      675F546D 
 6109      72546173 
 6109      6B53746B 
 6109      4C696D69 
 6110              	.LASF315:
 6111 03f8 4F535F54 		.ascii	"OS_TmrInit\000"
 6111      6D72496E 
 6111      697400
 6112              	.LASF159:
 6113 0403 4F535F45 		.ascii	"OS_ERR_TASK_SUSPEND_IDLE\000"
 6113      52525F54 
 6113      41534B5F 
 6113      53555350 
 6113      454E445F 
 6114              	.LASF64:
 6115 041c 4F535F45 		.ascii	"OS_ERR_INT_Q_FULL\000"
 6115      52525F49 
 6115      4E545F51 
 6115      5F46554C 
 6115      4C00
 6116              	.LASF242:
 6117 042e 5469636B 		.ascii	"TickCtrMatch\000"
 6117      4374724D 
 6117      61746368 
 6117      00
 6118              	.LASF326:
 6119 043b 4F53546D 		.ascii	"OSTmrStart\000"
ARM GAS  C:\Users\jorti\AppData\Local\Temp\ccmiXXpF.s 			page 135


 6119      72537461 
 6119      727400
 6120              	.LASF288:
 6121 0446 5264794D 		.ascii	"RdyMsgPtr\000"
 6121      73675074 
 6121      7200
 6122              	.LASF296:
 6123 0450 6F735F70 		.ascii	"os_pend_obj\000"
 6123      656E645F 
 6123      6F626A00 
 6124              	.LASF305:
 6125 045c 4F535F54 		.ascii	"OS_TmrClr\000"
 6125      6D72436C 
 6125      7200
 6126              	.LASF62:
 6127 0466 4F535F45 		.ascii	"OS_ERR_ILLEGAL_CREATE_RUN_TIME\000"
 6127      52525F49 
 6127      4C4C4547 
 6127      414C5F43 
 6127      52454154 
 6128              	.LASF250:
 6129 0485 466C6167 		.ascii	"FlagsPend\000"
 6129      7350656E 
 6129      6400
 6130              	.LASF187:
 6131 048f 4F535F45 		.ascii	"OS_ERR_TMR_INVALID_DLY\000"
 6131      52525F54 
 6131      4D525F49 
 6131      4E56414C 
 6131      49445F44 
 6132              	.LASF256:
 6133 04a6 43747853 		.ascii	"CtxSwCtr\000"
 6133      77437472 
 6133      00
 6134              	.LASF154:
 6135 04af 4F535F45 		.ascii	"OS_ERR_TASK_RESUME_PRIO\000"
 6135      52525F54 
 6135      41534B5F 
 6135      52455355 
 6135      4D455F50 
 6136              	.LASF345:
 6137 04c7 4F534366 		.ascii	"OSCfg_TmrTaskRate_Hz\000"
 6137      675F546D 
 6137      72546173 
 6137      6B526174 
 6137      655F487A 
 6138              	.LASF36:
 6139 04dc 4F535F50 		.ascii	"OS_PRIO\000"
 6139      52494F00 
 6140              	.LASF13:
 6141 04e4 666C6F61 		.ascii	"float\000"
 6141      7400
 6142              	.LASF327:
 6143 04ea 4F53546D 		.ascii	"OSTmrStop\000"
 6143      7253746F 
 6143      7000
 6144              	.LASF108:
ARM GAS  C:\Users\jorti\AppData\Local\Temp\ccmiXXpF.s 			page 136


 6145 04f4 4F535F45 		.ascii	"OS_ERR_POST_NULL_PTR\000"
 6145      52525F50 
 6145      4F53545F 
 6145      4E554C4C 
 6145      5F505452 
 6146              	.LASF90:
 6147 0509 4F535F45 		.ascii	"OS_ERR_NO_MORE_ID_AVAIL\000"
 6147      52525F4E 
 6147      4F5F4D4F 
 6147      52455F49 
 6147      445F4156 
 6148              	.LASF268:
 6149 0521 4F535F54 		.ascii	"OS_TICK_SPOKE\000"
 6149      49434B5F 
 6149      53504F4B 
 6149      4500
 6150              	.LASF80:
 6151 052f 4F535F45 		.ascii	"OS_ERR_MEM_INVALID_P_DATA\000"
 6151      52525F4D 
 6151      454D5F49 
 6151      4E56414C 
 6151      49445F50 
 6152              	.LASF304:
 6153 0549 6370755F 		.ascii	"cpu_sr\000"
 6153      737200
 6154              	.LASF192:
 6155 0550 4F535F45 		.ascii	"OS_ERR_TMR_NO_CALLBACK\000"
 6155      52525F54 
 6155      4D525F4E 
 6155      4F5F4341 
 6155      4C4C4241 
 6156              	.LASF185:
 6157 0567 4F535F45 		.ascii	"OS_ERR_TMR_INACTIVE\000"
 6157      52525F54 
 6157      4D525F49 
 6157      4E414354 
 6157      49564500 
 6158              	.LASF165:
 6159 057b 4F535F45 		.ascii	"OS_ERR_TLS_ID_INVALID\000"
 6159      52525F54 
 6159      4C535F49 
 6159      445F494E 
 6159      56414C49 
 6160              	.LASF11:
 6161 0591 6C6F6E67 		.ascii	"long long unsigned int\000"
 6161      206C6F6E 
 6161      6720756E 
 6161      7369676E 
 6161      65642069 
 6162              	.LASF156:
 6163 05a8 4F535F45 		.ascii	"OS_ERR_TASK_RUNNING\000"
 6163      52525F54 
 6163      41534B5F 
 6163      52554E4E 
 6163      494E4700 
 6164              	.LASF263:
 6165 05bc 53746B55 		.ascii	"StkUsed\000"
ARM GAS  C:\Users\jorti\AppData\Local\Temp\ccmiXXpF.s 			page 137


 6165      73656400 
 6166              	.LASF190:
 6167 05c4 4F535F45 		.ascii	"OS_ERR_TMR_INVALID\000"
 6167      52525F54 
 6167      4D525F49 
 6167      4E56414C 
 6167      494400
 6168              	.LASF283:
 6169 05d7 4F535F50 		.ascii	"OS_PEND_DATA\000"
 6169      454E445F 
 6169      44415441 
 6169      00
 6170              	.LASF160:
 6171 05e4 4F535F45 		.ascii	"OS_ERR_TASK_SUSPEND_INT_HANDLER\000"
 6171      52525F54 
 6171      41534B5F 
 6171      53555350 
 6171      454E445F 
 6172              	.LASF145:
 6173 0604 4F535F45 		.ascii	"OS_ERR_TASK_DEL_INVALID\000"
 6173      52525F54 
 6173      41534B5F 
 6173      44454C5F 
 6173      494E5641 
 6174              	.LASF278:
 6175 061c 52656D61 		.ascii	"Remain\000"
 6175      696E00
 6176              	.LASF341:
 6177 0623 4F53546D 		.ascii	"OSTmrUpdateCtr\000"
 6177      72557064 
 6177      61746543 
 6177      747200
 6178              	.LASF195:
 6179 0632 4F535F45 		.ascii	"OS_ERR_TMR_STK_INVALID\000"
 6179      52525F54 
 6179      4D525F53 
 6179      544B5F49 
 6179      4E56414C 
 6180              	.LASF310:
 6181 0649 705F6361 		.ascii	"p_callback\000"
 6181      6C6C6261 
 6181      636B00
 6182              	.LASF4:
 6183 0654 4350555F 		.ascii	"CPU_INT08U\000"
 6183      494E5430 
 6183      385500
 6184              	.LASF281:
 6185 065f 4F535F54 		.ascii	"OS_TMR_SPOKE\000"
 6185      4D525F53 
 6185      504F4B45 
 6185      00
 6186              	.LASF212:
 6187 066c 6F735F6D 		.ascii	"os_msg\000"
 6187      736700
 6188              	.LASF164:
 6189 0673 4F535F45 		.ascii	"OS_ERR_TCB_INVALID\000"
 6189      52525F54 
ARM GAS  C:\Users\jorti\AppData\Local\Temp\ccmiXXpF.s 			page 138


 6189      43425F49 
 6189      4E56414C 
 6189      494400
 6190              	.LASF238:
 6191 0686 53746B53 		.ascii	"StkSize\000"
 6191      697A6500 
 6192              	.LASF230:
 6193 068e 53746B42 		.ascii	"StkBasePtr\000"
 6193      61736550 
 6193      747200
 6194              	.LASF328:
 6195 0699 705F666E 		.ascii	"p_fnct\000"
 6195      637400
 6196              	.LASF116:
 6197 06a0 4F535F45 		.ascii	"OS_ERR_Q_EMPTY\000"
 6197      52525F51 
 6197      5F454D50 
 6197      545900
 6198              	.LASF180:
 6199 06af 4F535F45 		.ascii	"OS_ERR_TIME_INVALID_MILLISECONDS\000"
 6199      52525F54 
 6199      494D455F 
 6199      494E5641 
 6199      4C49445F 
 6200              	.LASF38:
 6201 06d0 4F535F52 		.ascii	"OS_REG\000"
 6201      454700
 6202              	.LASF358:
 6203 06d7 474E5520 		.ascii	"GNU C11 5.4.1 20160609 (release) [ARM/embedded-5-br"
 6203      43313120 
 6203      352E342E 
 6203      31203230 
 6203      31363036 
 6204 070a 616E6368 		.ascii	"anch revision 237715] -mcpu=cortex-m3 -mthumb -g -O"
 6204      20726576 
 6204      6973696F 
 6204      6E203233 
 6204      37373135 
 6205 073d 67202D66 		.ascii	"g -ffunction-sections -ffat-lto-objects\000"
 6205      66756E63 
 6205      74696F6E 
 6205      2D736563 
 6205      74696F6E 
 6206              	.LASF89:
 6207 0765 4F535F45 		.ascii	"OS_ERR_NAME\000"
 6207      52525F4E 
 6207      414D4500 
 6208              	.LASF41:
 6209 0771 4F535F53 		.ascii	"OS_STATUS\000"
 6209      54415455 
 6209      5300
 6210              	.LASF236:
 6211 077b 5461736B 		.ascii	"TaskState\000"
 6211      53746174 
 6211      6500
 6212              	.LASF169:
 6213 0785 4F535F45 		.ascii	"OS_ERR_TLS_DESTRUCT_ASSIGNED\000"
ARM GAS  C:\Users\jorti\AppData\Local\Temp\ccmiXXpF.s 			page 139


 6213      52525F54 
 6213      4C535F44 
 6213      45535452 
 6213      5543545F 
 6214              	.LASF85:
 6215 07a2 4F535F45 		.ascii	"OS_ERR_MUTEX_NOT_OWNER\000"
 6215      52525F4D 
 6215      55544558 
 6215      5F4E4F54 
 6215      5F4F574E 
 6216              	.LASF31:
 6217 07b9 4F535F4D 		.ascii	"OS_MSG_SIZE\000"
 6217      53475F53 
 6217      495A4500 
 6218              	.LASF177:
 6219 07c5 4F535F45 		.ascii	"OS_ERR_TIME_INVALID_HOURS\000"
 6219      52525F54 
 6219      494D455F 
 6219      494E5641 
 6219      4C49445F 
 6220              	.LASF193:
 6221 07df 4F535F45 		.ascii	"OS_ERR_TMR_NON_AVAIL\000"
 6221      52525F54 
 6221      4D525F4E 
 6221      4F4E5F41 
 6221      5641494C 
 6222              	.LASF0:
 6223 07f4 4350555F 		.ascii	"CPU_CHAR\000"
 6223      43484152 
 6223      00
 6224              	.LASF142:
 6225 07fd 4F535F45 		.ascii	"OS_ERR_TASK_CREATE_ISR\000"
 6225      52525F54 
 6225      41534B5F 
 6225      43524541 
 6225      54455F49 
 6226              	.LASF26:
 6227 0814 4F535F43 		.ascii	"OS_CTR\000"
 6227      545200
 6228              	.LASF282:
 6229 081b 6F735F74 		.ascii	"os_tmr_spoke\000"
 6229      6D725F73 
 6229      706F6B65 
 6229      00
 6230              	.LASF17:
 6231 0828 4350555F 		.ascii	"CPU_STK_SIZE\000"
 6231      53544B5F 
 6231      53495A45 
 6231      00
 6232              	.LASF30:
 6233 0835 4F535F4D 		.ascii	"OS_MSG_QTY\000"
 6233      53475F51 
 6233      545900
 6234              	.LASF98:
 6235 0840 4F535F45 		.ascii	"OS_ERR_OS_RUNNING\000"
 6235      52525F4F 
 6235      535F5255 
ARM GAS  C:\Users\jorti\AppData\Local\Temp\ccmiXXpF.s 			page 140


 6235      4E4E494E 
 6235      4700
 6236              	.LASF264:
 6237 0852 53746B46 		.ascii	"StkFree\000"
 6237      72656500 
 6238              	.LASF241:
 6239 085a 5469636B 		.ascii	"TickCtrPrev\000"
 6239      43747250 
 6239      72657600 
 6240              	.LASF216:
 6241 0866 4E627245 		.ascii	"NbrEntriesSize\000"
 6241      6E747269 
 6241      65735369 
 6241      7A6500
 6242              	.LASF313:
 6243 0875 705F746D 		.ascii	"p_tmr_next\000"
 6243      725F6E65 
 6243      787400
 6244              	.LASF183:
 6245 0880 4F535F45 		.ascii	"OS_ERR_TIME_ZERO_DLY\000"
 6245      52525F54 
 6245      494D455F 
 6245      5A45524F 
 6245      5F444C59 
 6246              	.LASF227:
 6247 0895 5469636B 		.ascii	"TickPrevPtr\000"
 6247      50726576 
 6247      50747200 
 6248              	.LASF251:
 6249 08a1 466C6167 		.ascii	"FlagsRdy\000"
 6249      73526479 
 6249      00
 6250              	.LASF133:
 6251 08aa 4F535F45 		.ascii	"OS_ERR_STAT_STK_INVALID\000"
 6251      52525F53 
 6251      5441545F 
 6251      53544B5F 
 6251      494E5641 
 6252              	.LASF354:
 6253 08c2 4350555F 		.ascii	"CPU_SR_Restore\000"
 6253      53525F52 
 6253      6573746F 
 6253      726500
 6254              	.LASF55:
 6255 08d1 4F535F45 		.ascii	"OS_ERR_FLAG_GRP_DEPLETED\000"
 6255      52525F46 
 6255      4C41475F 
 6255      4752505F 
 6255      4445504C 
 6256              	.LASF76:
 6257 08ea 4F535F45 		.ascii	"OS_ERR_MEM_INVALID_BLKS\000"
 6257      52525F4D 
 6257      454D5F49 
 6257      4E56414C 
 6257      49445F42 
 6258              	.LASF275:
 6259 0902 43616C6C 		.ascii	"CallbackPtr\000"
ARM GAS  C:\Users\jorti\AppData\Local\Temp\ccmiXXpF.s 			page 141


 6259      6261636B 
 6259      50747200 
 6260              	.LASF248:
 6261 090e 4D736751 		.ascii	"MsgQPendTimeMax\000"
 6261      50656E64 
 6261      54696D65 
 6261      4D617800 
 6262              	.LASF247:
 6263 091e 4D736751 		.ascii	"MsgQPendTime\000"
 6263      50656E64 
 6263      54696D65 
 6263      00
 6264              	.LASF206:
 6265 092b 4F535F4D 		.ascii	"OS_MSG\000"
 6265      534700
 6266              	.LASF308:
 6267 0932 705F6E61 		.ascii	"p_name\000"
 6267      6D6500
 6268              	.LASF186:
 6269 0939 4F535F45 		.ascii	"OS_ERR_TMR_INVALID_DEST\000"
 6269      52525F54 
 6269      4D525F49 
 6269      4E56414C 
 6269      49445F44 
 6270              	.LASF125:
 6271 0951 4F535F45 		.ascii	"OS_ERR_SCHED_LOCK_ISR\000"
 6271      52525F53 
 6271      43484544 
 6271      5F4C4F43 
 6271      4B5F4953 
 6272              	.LASF346:
 6273 0967 4F534366 		.ascii	"OSCfg_TmrTaskStkBasePtr\000"
 6273      675F546D 
 6273      72546173 
 6273      6B53746B 
 6273      42617365 
 6274              	.LASF51:
 6275 097f 4F535F45 		.ascii	"OS_ERR_DEL_ISR\000"
 6275      52525F44 
 6275      454C5F49 
 6275      535200
 6276              	.LASF299:
 6277 098e 705F6572 		.ascii	"p_err\000"
 6277      7200
 6278              	.LASF307:
 6279 0994 4F53546D 		.ascii	"OSTmrCreate\000"
 6279      72437265 
 6279      61746500 
 6280              	.LASF117:
 6281 09a0 4F535F45 		.ascii	"OS_ERR_Q_MAX\000"
 6281      52525F51 
 6281      5F4D4158 
 6281      00
 6282              	.LASF225:
 6283 09ad 50726576 		.ascii	"PrevPtr\000"
 6283      50747200 
 6284              	.LASF2:
ARM GAS  C:\Users\jorti\AppData\Local\Temp\ccmiXXpF.s 			page 142


 6285 09b5 63686172 		.ascii	"char\000"
 6285      00
 6286              	.LASF34:
 6287 09ba 4F535F4F 		.ascii	"OS_OBJ_TYPE\000"
 6287      424A5F54 
 6287      59504500 
 6288              	.LASF168:
 6289 09c6 4F535F45 		.ascii	"OS_ERR_TLS_NOT_EN\000"
 6289      52525F54 
 6289      4C535F4E 
 6289      4F545F45 
 6289      4E00
 6290              	.LASF96:
 6291 09d8 4F535F45 		.ascii	"OS_ERR_OPT_INVALID\000"
 6291      52525F4F 
 6291      50545F49 
 6291      4E56414C 
 6291      494400
 6292              	.LASF18:
 6293 09eb 4350555F 		.ascii	"CPU_SR\000"
 6293      535200
 6294              	.LASF43:
 6295 09f2 4F535F54 		.ascii	"OS_TMR_SPOKE_IX\000"
 6295      4D525F53 
 6295      504F4B45 
 6295      5F495800 
 6296              	.LASF314:
 6297 0a02 705F746D 		.ascii	"p_tmr_prev\000"
 6297      725F7072 
 6297      657600
 6298              	.LASF124:
 6299 0a0d 4F535F45 		.ascii	"OS_ERR_SCHED_INVALID_TIME_SLICE\000"
 6299      52525F53 
 6299      43484544 
 6299      5F494E56 
 6299      414C4944 
 6300              	.LASF351:
 6301 0a2d 4F535363 		.ascii	"OSSchedLock\000"
 6301      6865644C 
 6301      6F636B00 
 6302              	.LASF246:
 6303 0a39 4D736751 		.ascii	"MsgQ\000"
 6303      00
 6304              	.LASF37:
 6305 0a3e 4F535F52 		.ascii	"OS_RATE_HZ\000"
 6305      4154455F 
 6305      485A00
 6306              	.LASF231:
 6307 0a49 5461736B 		.ascii	"TaskEntryAddr\000"
 6307      456E7472 
 6307      79416464 
 6307      7200
 6308              	.LASF132:
 6309 0a57 4F535F45 		.ascii	"OS_ERR_STAT_PRIO_INVALID\000"
 6309      52525F53 
 6309      5441545F 
 6309      5052494F 
ARM GAS  C:\Users\jorti\AppData\Local\Temp\ccmiXXpF.s 			page 143


 6309      5F494E56 
 6310              	.LASF181:
 6311 0a70 4F535F45 		.ascii	"OS_ERR_TIME_NOT_DLY\000"
 6311      52525F54 
 6311      494D455F 
 6311      4E4F545F 
 6311      444C5900 
 6312              	.LASF229:
 6313 0a84 4E616D65 		.ascii	"NamePtr\000"
 6313      50747200 
 6314              	.LASF235:
 6315 0a8c 50656E64 		.ascii	"PendStatus\000"
 6315      53746174 
 6315      757300
 6316              	.LASF211:
 6317 0a97 4F535F4D 		.ascii	"OS_MSG_Q\000"
 6317      53475F51 
 6317      00
 6318              	.LASF245:
 6319 0aa0 54696D65 		.ascii	"TimeQuantaCtr\000"
 6319      5175616E 
 6319      74614374 
 6319      7200
 6320              	.LASF203:
 6321 0aae 4F535F45 		.ascii	"OS_ERR_YIELD_ISR\000"
 6321      52525F59 
 6321      49454C44 
 6321      5F495352 
 6321      00
 6322              	.LASF93:
 6323 0abf 4F535F45 		.ascii	"OS_ERR_OBJ_DEL\000"
 6323      52525F4F 
 6323      424A5F44 
 6323      454C00
 6324              	.LASF24:
 6325 0ace 4350555F 		.ascii	"CPU_TS\000"
 6325      545300
 6326              	.LASF12:
 6327 0ad5 6C6F6E67 		.ascii	"long long int\000"
 6327      206C6F6E 
 6327      6720696E 
 6327      7400
 6328              	.LASF57:
 6329 0ae3 4F535F45 		.ascii	"OS_ERR_FLAG_PEND_OPT\000"
 6329      52525F46 
 6329      4C41475F 
 6329      50454E44 
 6329      5F4F5054 
 6330              	.LASF222:
 6331 0af8 53746B50 		.ascii	"StkPtr\000"
 6331      747200
 6332              	.LASF323:
 6333 0aff 705F746D 		.ascii	"p_tmr2\000"
 6333      723200
 6334              	.LASF269:
 6335 0b06 6F735F74 		.ascii	"os_tick_spoke\000"
 6335      69636B5F 
ARM GAS  C:\Users\jorti\AppData\Local\Temp\ccmiXXpF.s 			page 144


 6335      73706F6B 
 6335      6500
 6336              	.LASF118:
 6337 0b14 4F535F45 		.ascii	"OS_ERR_Q_SIZE\000"
 6337      52525F51 
 6337      5F53495A 
 6337      4500
 6338              	.LASF258:
 6339 0b22 4379636C 		.ascii	"CyclesStart\000"
 6339      65735374 
 6339      61727400 
 6340              	.LASF320:
 6341 0b2e 73706F6B 		.ascii	"spoke\000"
 6341      6500
 6342              	.LASF352:
 6343 0b34 4F535363 		.ascii	"OSSchedUnlock\000"
 6343      68656455 
 6343      6E6C6F63 
 6343      6B00
 6344              	.LASF279:
 6345 0b42 50657269 		.ascii	"Period\000"
 6345      6F6400
 6346              	.LASF306:
 6347 0b49 4F535F54 		.ascii	"OS_TmrDbgListAdd\000"
 6347      6D724462 
 6347      674C6973 
 6347      74416464 
 6347      00
 6348              	.LASF285:
 6349 0b5a 54434250 		.ascii	"TCBPtr\000"
 6349      747200
 6350              	.LASF103:
 6351 0b61 4F535F45 		.ascii	"OS_ERR_PEND_ABORT_SELF\000"
 6351      52525F50 
 6351      454E445F 
 6351      41424F52 
 6351      545F5345 
 6352              	.LASF6:
 6353 0b78 4350555F 		.ascii	"CPU_INT16U\000"
 6353      494E5431 
 6353      365500
 6354              	.LASF122:
 6355 0b83 4F535F45 		.ascii	"OS_ERR_ROUND_ROBIN_DISABLED\000"
 6355      52525F52 
 6355      4F554E44 
 6355      5F524F42 
 6355      494E5F44 
 6356              	.LASF77:
 6357 0b9f 4F535F45 		.ascii	"OS_ERR_MEM_INVALID_PART\000"
 6357      52525F4D 
 6357      454D5F49 
 6357      4E56414C 
 6357      49445F50 
 6358              	.LASF94:
 6359 0bb7 4F535F45 		.ascii	"OS_ERR_OBJ_PTR_NULL\000"
 6359      52525F4F 
 6359      424A5F50 
ARM GAS  C:\Users\jorti\AppData\Local\Temp\ccmiXXpF.s 			page 145


 6359      54525F4E 
 6359      554C4C00 
 6360              	.LASF120:
 6361 0bcb 4F535F45 		.ascii	"OS_ERR_REG_ID_INVALID\000"
 6361      52525F52 
 6361      45475F49 
 6361      445F494E 
 6361      56414C49 
 6362              	.LASF42:
 6363 0be1 4F535F54 		.ascii	"OS_TICK\000"
 6363      49434B00 
 6364              	.LASF74:
 6365 0be9 4F535F45 		.ascii	"OS_ERR_MEM_FULL\000"
 6365      52525F4D 
 6365      454D5F46 
 6365      554C4C00 
 6366              	.LASF148:
 6367 0bf9 4F535F45 		.ascii	"OS_ERR_TASK_NO_MORE_TCB\000"
 6367      52525F54 
 6367      41534B5F 
 6367      4E4F5F4D 
 6367      4F52455F 
 6368              	.LASF79:
 6369 0c11 4F535F45 		.ascii	"OS_ERR_MEM_INVALID_P_MEM\000"
 6369      52525F4D 
 6369      454D5F49 
 6369      4E56414C 
 6369      49445F50 
 6370              	.LASF23:
 6371 0c2a 4350555F 		.ascii	"CPU_TS32\000"
 6371      54533332 
 6371      00
 6372              	.LASF253:
 6373 0c33 53757370 		.ascii	"SuspendCtr\000"
 6373      656E6443 
 6373      747200
 6374              	.LASF224:
 6375 0c3e 53746B4C 		.ascii	"StkLimitPtr\000"
 6375      696D6974 
 6375      50747200 
 6376              	.LASF257:
 6377 0c4a 4379636C 		.ascii	"CyclesDelta\000"
 6377      65734465 
 6377      6C746100 
 6378              	.LASF39:
 6379 0c56 4F535F53 		.ascii	"OS_SEM_CTR\000"
 6379      454D5F43 
 6379      545200
 6380              	.LASF196:
 6381 0c61 4F535F45 		.ascii	"OS_ERR_TMR_STK_SIZE_INVALID\000"
 6381      52525F54 
 6381      4D525F53 
 6381      544B5F53 
 6381      495A455F 
 6382              	.LASF173:
 6383 0c7d 4F535F45 		.ascii	"OS_ERR_TICK_WHEEL_SIZE\000"
 6383      52525F54 
ARM GAS  C:\Users\jorti\AppData\Local\Temp\ccmiXXpF.s 			page 146


 6383      49434B5F 
 6383      57484545 
 6383      4C5F5349 
 6384              	.LASF226:
 6385 0c94 5469636B 		.ascii	"TickNextPtr\000"
 6385      4E657874 
 6385      50747200 
 6386              	.LASF150:
 6387 0ca0 4F535F45 		.ascii	"OS_ERR_TASK_NOT_EXIST\000"
 6387      52525F54 
 6387      41534B5F 
 6387      4E4F545F 
 6387      45584953 
 6388              	.LASF342:
 6389 0cb6 4F534366 		.ascii	"OSCfg_StkSizeMin\000"
 6389      675F5374 
 6389      6B53697A 
 6389      654D696E 
 6389      00
 6390              	.LASF147:
 6391 0cc7 4F535F45 		.ascii	"OS_ERR_TASK_INVALID\000"
 6391      52525F54 
 6391      41534B5F 
 6391      494E5641 
 6391      4C494400 
 6392              	.LASF194:
 6393 0cdb 4F535F45 		.ascii	"OS_ERR_TMR_PRIO_INVALID\000"
 6393      52525F54 
 6393      4D525F50 
 6393      52494F5F 
 6393      494E5641 
 6394              	.LASF162:
 6395 0cf3 4F535F45 		.ascii	"OS_ERR_TASK_SUSPEND_PRIO\000"
 6395      52525F54 
 6395      41534B5F 
 6395      53555350 
 6395      454E445F 
 6396              	.LASF350:
 6397 0d0c 4F534366 		.ascii	"OSCfg_TmrWheel\000"
 6397      675F546D 
 6397      72576865 
 6397      656C00
 6398              	.LASF287:
 6399 0d1b 5264794F 		.ascii	"RdyObjPtr\000"
 6399      626A5074 
 6399      7200
 6400              	.LASF67:
 6401 0d25 4F535F45 		.ascii	"OS_ERR_INT_Q_STK_SIZE_INVALID\000"
 6401      52525F49 
 6401      4E545F51 
 6401      5F53544B 
 6401      5F53495A 
 6402              	.LASF166:
 6403 0d43 4F535F45 		.ascii	"OS_ERR_TLS_ISR\000"
 6403      52525F54 
 6403      4C535F49 
 6403      535200
ARM GAS  C:\Users\jorti\AppData\Local\Temp\ccmiXXpF.s 			page 147


 6404              	.LASF146:
 6405 0d52 4F535F45 		.ascii	"OS_ERR_TASK_DEL_ISR\000"
 6405      52525F54 
 6405      41534B5F 
 6405      44454C5F 
 6405      49535200 
 6406              	.LASF261:
 6407 0d66 53656D50 		.ascii	"SemPendTime\000"
 6407      656E6454 
 6407      696D6500 
 6408              	.LASF113:
 6409 0d72 4F535F45 		.ascii	"OS_ERR_PTR_INVALID\000"
 6409      52525F50 
 6409      54525F49 
 6409      4E56414C 
 6409      494400
 6410              	.LASF135:
 6411 0d85 4F535F45 		.ascii	"OS_ERR_STATE_INVALID\000"
 6411      52525F53 
 6411      54415445 
 6411      5F494E56 
 6411      414C4944 
 6412              	.LASF207:
 6413 0d9a 4E657874 		.ascii	"NextPtr\000"
 6413      50747200 
 6414              	.LASF21:
 6415 0da2 6C6F6E67 		.ascii	"long double\000"
 6415      20646F75 
 6415      626C6500 
 6416              	.LASF97:
 6417 0dae 4F535F45 		.ascii	"OS_ERR_OS_NOT_RUNNING\000"
 6417      52525F4F 
 6417      535F4E4F 
 6417      545F5255 
 6417      4E4E494E 
 6418              	.LASF272:
 6419 0dc4 4F535F54 		.ascii	"OS_TMR\000"
 6419      4D5200
 6420              	.LASF334:
 6421 0dcb 4F53496E 		.ascii	"OSIntNestingCtr\000"
 6421      744E6573 
 6421      74696E67 
 6421      43747200 
 6422              	.LASF300:
 6423 0ddb 72656D61 		.ascii	"remain\000"
 6423      696E00
 6424              	.LASF182:
 6425 0de2 4F535F45 		.ascii	"OS_ERR_TIME_SET_ISR\000"
 6425      52525F54 
 6425      494D455F 
 6425      5345545F 
 6425      49535200 
 6426              	.LASF121:
 6427 0df6 4F535F45 		.ascii	"OS_ERR_ROUND_ROBIN_1\000"
 6427      52525F52 
 6427      4F554E44 
 6427      5F524F42 
ARM GAS  C:\Users\jorti\AppData\Local\Temp\ccmiXXpF.s 			page 148


 6427      494E5F31 
 6428              	.LASF78:
 6429 0e0b 4F535F45 		.ascii	"OS_ERR_MEM_INVALID_P_BLK\000"
 6429      52525F4D 
 6429      454D5F49 
 6429      4E56414C 
 6429      49445F50 
 6430              	.LASF75:
 6431 0e24 4F535F45 		.ascii	"OS_ERR_MEM_INVALID_P_ADDR\000"
 6431      52525F4D 
 6431      454D5F49 
 6431      4E56414C 
 6431      49445F50 
 6432              	.LASF290:
 6433 0e3e 52647954 		.ascii	"RdyTS\000"
 6433      5300
 6434              	.LASF71:
 6435 0e44 4F535F45 		.ascii	"OS_ERR_LOCK_NESTING_OVF\000"
 6435      52525F4C 
 6435      4F434B5F 
 6435      4E455354 
 6435      494E475F 
 6436              	.LASF157:
 6437 0e5c 4F535F45 		.ascii	"OS_ERR_TASK_STK_CHK_ISR\000"
 6437      52525F54 
 6437      41534B5F 
 6437      53544B5F 
 6437      43484B5F 
 6438              	.LASF353:
 6439 0e74 4350555F 		.ascii	"CPU_SR_Save\000"
 6439      53525F53 
 6439      61766500 
 6440              	.LASF8:
 6441 0e80 73686F72 		.ascii	"short int\000"
 6441      7420696E 
 6441      7400
 6442              	.LASF289:
 6443 0e8a 5264794D 		.ascii	"RdyMsgSize\000"
 6443      73675369 
 6443      7A6500
 6444              	.LASF273:
 6445 0e95 6F735F74 		.ascii	"os_tmr\000"
 6445      6D7200
 6446              	.LASF83:
 6447 0e9c 4F535F45 		.ascii	"OS_ERR_MSG_POOL_EMPTY\000"
 6447      52525F4D 
 6447      53475F50 
 6447      4F4F4C5F 
 6447      454D5054 
 6448              	.LASF19:
 6449 0eb2 6C6F6E67 		.ascii	"long int\000"
 6449      20696E74 
 6449      00
 6450              	.LASF128:
 6451 0ebb 4F535F45 		.ascii	"OS_ERR_SCHED_UNLOCK_ISR\000"
 6451      52525F53 
 6451      43484544 
ARM GAS  C:\Users\jorti\AppData\Local\Temp\ccmiXXpF.s 			page 149


 6451      5F554E4C 
 6451      4F434B5F 
 6452              	.LASF262:
 6453 0ed3 53656D50 		.ascii	"SemPendTimeMax\000"
 6453      656E6454 
 6453      696D654D 
 6453      617800
 6454              	.LASF271:
 6455 0ee2 4F535F54 		.ascii	"OS_TMR_CALLBACK_PTR\000"
 6455      4D525F43 
 6455      414C4C42 
 6455      41434B5F 
 6455      50545200 
 6456              	.LASF260:
 6457 0ef6 4379636C 		.ascii	"CyclesTotalPrev\000"
 6457      6573546F 
 6457      74616C50 
 6457      72657600 
 6458              	.LASF171:
 6459 0f06 4F535F45 		.ascii	"OS_ERR_TICK_STK_INVALID\000"
 6459      52525F54 
 6459      49434B5F 
 6459      53544B5F 
 6459      494E5641 
 6460              	.LASF84:
 6461 0f1e 4F535F45 		.ascii	"OS_ERR_MSG_POOL_NULL_PTR\000"
 6461      52525F4D 
 6461      53475F50 
 6461      4F4F4C5F 
 6461      4E554C4C 
 6462              	.LASF32:
 6463 0f37 4F535F4E 		.ascii	"OS_NESTING_CTR\000"
 6463      45535449 
 6463      4E475F43 
 6463      545200
 6464              	.LASF259:
 6465 0f46 4379636C 		.ascii	"CyclesTotal\000"
 6465      6573546F 
 6465      74616C00 
 6466              	.LASF295:
 6467 0f52 4F535F50 		.ascii	"OS_PEND_OBJ\000"
 6467      454E445F 
 6467      4F424A00 
 6468              	.LASF155:
 6469 0f5e 4F535F45 		.ascii	"OS_ERR_TASK_RESUME_SELF\000"
 6469      52525F54 
 6469      41534B5F 
 6469      52455355 
 6469      4D455F53 
 6470              	.LASF255:
 6471 0f76 43505555 		.ascii	"CPUUsageMax\000"
 6471      73616765 
 6471      4D617800 
 6472              	.LASF297:
 6473 0f82 50656E64 		.ascii	"PendList\000"
 6473      4C697374 
 6473      00
ARM GAS  C:\Users\jorti\AppData\Local\Temp\ccmiXXpF.s 			page 150


 6474              	.LASF95:
 6475 0f8b 4F535F45 		.ascii	"OS_ERR_OBJ_TYPE\000"
 6475      52525F4F 
 6475      424A5F54 
 6475      59504500 
 6476              	.LASF233:
 6477 0f9b 50656E64 		.ascii	"PendDataTblPtr\000"
 6477      44617461 
 6477      54626C50 
 6477      747200
 6478              	.LASF240:
 6479 0faa 53656D43 		.ascii	"SemCtr\000"
 6479      747200
 6480              	.LASF214:
 6481 0fb1 496E5074 		.ascii	"InPtr\000"
 6481      7200
 6482              	.LASF243:
 6483 0fb7 5469636B 		.ascii	"TickRemain\000"
 6483      52656D61 
 6483      696E00
 6484              	.LASF293:
 6485 0fc2 48656164 		.ascii	"HeadPtr\000"
 6485      50747200 
 6486              	.LASF325:
 6487 0fca 73756363 		.ascii	"success\000"
 6487      65737300 
 6488              	.LASF102:
 6489 0fd2 4F535F45 		.ascii	"OS_ERR_PEND_ABORT_NONE\000"
 6489      52525F50 
 6489      454E445F 
 6489      41424F52 
 6489      545F4E4F 
 6490              	.LASF10:
 6491 0fe9 756E7369 		.ascii	"unsigned int\000"
 6491      676E6564 
 6491      20696E74 
 6491      00
 6492              	.LASF322:
 6493 0ff6 4F535F54 		.ascii	"OS_TmrUnlink\000"
 6493      6D72556E 
 6493      6C696E6B 
 6493      00
 6494              	.LASF209:
 6495 1003 4D736753 		.ascii	"MsgSize\000"
 6495      697A6500 
 6496              	.LASF86:
 6497 100b 4F535F45 		.ascii	"OS_ERR_MUTEX_OWNER\000"
 6497      52525F4D 
 6497      55544558 
 6497      5F4F574E 
 6497      455200
 6498              	.LASF270:
 6499 101e 46697273 		.ascii	"FirstPtr\000"
 6499      74507472 
 6499      00
 6500              	.LASF134:
 6501 1027 4F535F45 		.ascii	"OS_ERR_STAT_STK_SIZE_INVALID\000"
ARM GAS  C:\Users\jorti\AppData\Local\Temp\ccmiXXpF.s 			page 151


 6501      52525F53 
 6501      5441545F 
 6501      53544B5F 
 6501      53495A45 
 6502              	.LASF56:
 6503 1044 4F535F45 		.ascii	"OS_ERR_FLAG_NOT_RDY\000"
 6503      52525F46 
 6503      4C41475F 
 6503      4E4F545F 
 6503      52445900 
 6504              	.LASF330:
 6505 1058 705F6172 		.ascii	"p_arg\000"
 6505      6700
 6506              	.LASF223:
 6507 105e 45787450 		.ascii	"ExtPtr\000"
 6507      747200
 6508              	.LASF22:
 6509 1065 73697A65 		.ascii	"sizetype\000"
 6509      74797065 
 6509      00
 6510              	.LASF20:
 6511 106e 6C6F6E67 		.ascii	"long unsigned int\000"
 6511      20756E73 
 6511      69676E65 
 6511      6420696E 
 6511      7400
 6512              	.LASF274:
 6513 1080 54797065 		.ascii	"Type\000"
 6513      00
 6514              	.LASF101:
 6515 1085 4F535F45 		.ascii	"OS_ERR_PEND_ABORT_ISR\000"
 6515      52525F50 
 6515      454E445F 
 6515      41424F52 
 6515      545F4953 
 6516              	.LASF15:
 6517 109b 4350555F 		.ascii	"CPU_ADDR\000"
 6517      41444452 
 6517      00
 6518              	.LASF109:
 6519 10a4 4F535F45 		.ascii	"OS_ERR_POST_ISR\000"
 6519      52525F50 
 6519      4F53545F 
 6519      49535200 
 6520              	.LASF174:
 6521 10b4 4F535F45 		.ascii	"OS_ERR_TIME_DLY_ISR\000"
 6521      52525F54 
 6521      494D455F 
 6521      444C595F 
 6521      49535200 
 6522              	.LASF139:
 6523 10c8 4F535F45 		.ascii	"OS_ERR_STK_LIMIT_INVALID\000"
 6523      52525F53 
 6523      544B5F4C 
 6523      494D4954 
 6523      5F494E56 
 6524              	.LASF356:
ARM GAS  C:\Users\jorti\AppData\Local\Temp\ccmiXXpF.s 			page 152


 6525 10e1 4F535461 		.ascii	"OSTaskSemPend\000"
 6525      736B5365 
 6525      6D50656E 
 6525      6400
 6526              	.LASF312:
 6527 10ef 4F535F54 		.ascii	"OS_TmrDbgListRemove\000"
 6527      6D724462 
 6527      674C6973 
 6527      7452656D 
 6527      6F766500 
 6528              	.LASF1:
 6529 1103 4350555F 		.ascii	"CPU_BOOLEAN\000"
 6529      424F4F4C 
 6529      45414E00 
 6530              	.LASF28:
 6531 110f 4F535F43 		.ascii	"OS_CYCLES\000"
 6531      59434C45 
 6531      5300
 6532              	.LASF220:
 6533 1119 4F535F54 		.ascii	"OS_TCB\000"
 6533      434200
 6534              	.LASF138:
 6535 1120 4F535F45 		.ascii	"OS_ERR_STK_SIZE_INVALID\000"
 6535      52525F53 
 6535      544B5F53 
 6535      495A455F 
 6535      494E5641 
 6536              	.LASF324:
 6537 1138 4F53546D 		.ascii	"OSTmrDel\000"
 6537      7244656C 
 6537      00
 6538              	.LASF344:
 6539 1141 4F534366 		.ascii	"OSCfg_TmrTaskPrio\000"
 6539      675F546D 
 6539      72546173 
 6539      6B507269 
 6539      6F00
 6540              	.LASF197:
 6541 1153 4F535F45 		.ascii	"OS_ERR_TMR_STOPPED\000"
 6541      52525F54 
 6541      4D525F53 
 6541      544F5050 
 6541      454400
 6542              	.LASF3:
 6543 1166 756E7369 		.ascii	"unsigned char\000"
 6543      676E6564 
 6543      20636861 
 6543      7200
 6544              	.LASF152:
 6545 1174 4F535F45 		.ascii	"OS_ERR_TASK_OPT\000"
 6545      52525F54 
 6545      41534B5F 
 6545      4F505400 
 6546              	.LASF184:
 6547 1184 4F535F45 		.ascii	"OS_ERR_TIMEOUT\000"
 6547      52525F54 
 6547      494D454F 
ARM GAS  C:\Users\jorti\AppData\Local\Temp\ccmiXXpF.s 			page 153


 6547      555400
 6548              	.LASF338:
 6549 1193 4F53546D 		.ascii	"OSTmrTaskTimeMax\000"
 6549      72546173 
 6549      6B54696D 
 6549      654D6178 
 6549      00
 6550              	.LASF40:
 6551 11a4 4F535F53 		.ascii	"OS_STATE\000"
 6551      54415445 
 6551      00
 6552              	.LASF35:
 6553 11ad 4F535F4F 		.ascii	"OS_OPT\000"
 6553      505400
 6554              	.LASF219:
 6555 11b4 4F535F54 		.ascii	"OS_TASK_PTR\000"
 6555      41534B5F 
 6555      50545200 
 6556              	.LASF336:
 6557 11c0 4F53546D 		.ascii	"OSTmrQty\000"
 6557      72517479 
 6557      00
 6558              	.LASF73:
 6559 11c9 4F535F45 		.ascii	"OS_ERR_MEM_CREATE_ISR\000"
 6559      52525F4D 
 6559      454D5F43 
 6559      52454154 
 6559      455F4953 
 6560              	.LASF201:
 6561 11df 4F535F45 		.ascii	"OS_ERR_X\000"
 6561      52525F58 
 6561      00
 6562              	.LASF136:
 6563 11e8 4F535F45 		.ascii	"OS_ERR_STATUS_INVALID\000"
 6563      52525F53 
 6563      54415455 
 6563      535F494E 
 6563      56414C49 
 6564              	.LASF202:
 6565 11fe 4F535F45 		.ascii	"OS_ERR_Y\000"
 6565      52525F59 
 6565      00
 6566              	.LASF105:
 6567 1207 4F535F45 		.ascii	"OS_ERR_PEND_ISR\000"
 6567      52525F50 
 6567      454E445F 
 6567      49535200 
 6568              	.LASF204:
 6569 1217 4F535F45 		.ascii	"OS_ERR_Z\000"
 6569      52525F5A 
 6569      00
 6570              	.LASF228:
 6571 1220 5469636B 		.ascii	"TickSpokePtr\000"
 6571      53706F6B 
 6571      65507472 
 6571      00
 6572              	.LASF360:
ARM GAS  C:\Users\jorti\AppData\Local\Temp\ccmiXXpF.s 			page 154


 6573 122d 433A5C55 		.ascii	"C:\\Users\\jorti\\Documents\\FH_Technikum\\MES1\\Sy"
 6573      73657273 
 6573      5C6A6F72 
 6573      74695C44 
 6573      6F63756D 
 6574 125a 7374656D 		.ascii	"stem_Software_1\\cypress_bldc_motor\\esw_rtos_cykit"
 6574      5F536F66 
 6574      74776172 
 6574      655F315C 
 6574      63797072 
 6575 128b 5C657377 		.ascii	"\\esw_uCOS3_cykit.cydsn\000"
 6575      5F75434F 
 6575      53335F63 
 6575      796B6974 
 6575      2E637964 
 6576              	.LASF215:
 6577 12a2 4F757450 		.ascii	"OutPtr\000"
 6577      747200
 6578              	.LASF232:
 6579 12a9 5461736B 		.ascii	"TaskEntryArg\000"
 6579      456E7472 
 6579      79417267 
 6579      00
 6580              	.LASF115:
 6581 12b6 4F535F45 		.ascii	"OS_ERR_Q_FULL\000"
 6581      52525F51 
 6581      5F46554C 
 6581      4C00
 6582              	.LASF303:
 6583 12c4 73746174 		.ascii	"state\000"
 6583      6500
 6584              	.LASF340:
 6585 12ca 4F53546D 		.ascii	"OSTmrUpdateCnt\000"
 6585      72557064 
 6585      61746543 
 6585      6E7400
 6586              	.LASF318:
 6587 12d9 705F746D 		.ascii	"p_tmr0\000"
 6587      723000
 6588              	.LASF319:
 6589 12e0 705F746D 		.ascii	"p_tmr1\000"
 6589      723100
 6590              	.LASF66:
 6591 12e7 4F535F45 		.ascii	"OS_ERR_INT_Q_STK_INVALID\000"
 6591      52525F49 
 6591      4E545F51 
 6591      5F53544B 
 6591      5F494E56 
 6592              	.LASF179:
 6593 1300 4F535F45 		.ascii	"OS_ERR_TIME_INVALID_SECONDS\000"
 6593      52525F54 
 6593      494D455F 
 6593      494E5641 
 6593      4C49445F 
 6594              	.LASF143:
 6595 131c 4F535F45 		.ascii	"OS_ERR_TASK_DEL\000"
 6595      52525F54 
ARM GAS  C:\Users\jorti\AppData\Local\Temp\ccmiXXpF.s 			page 155


 6595      41534B5F 
 6595      44454C00 
 6596              	.LASF291:
 6597 132c 4F535F50 		.ascii	"OS_PEND_LIST\000"
 6597      454E445F 
 6597      4C495354 
 6597      00
 6598              	.LASF335:
 6599 1339 4F53546D 		.ascii	"OSTmrDbgListPtr\000"
 6599      72446267 
 6599      4C697374 
 6599      50747200 
 6600              	.LASF357:
 6601 1349 4350555F 		.ascii	"CPU_TS_TmrRd\000"
 6601      54535F54 
 6601      6D725264 
 6601      00
 6602              	.LASF5:
 6603 1356 7369676E 		.ascii	"signed char\000"
 6603      65642063 
 6603      68617200 
 6604              	.LASF309:
 6605 1362 70657269 		.ascii	"period\000"
 6605      6F6400
 6606              	.LASF210:
 6607 1369 4D736754 		.ascii	"MsgTS\000"
 6607      5300
 6608              	.LASF54:
 6609 136f 4F535F45 		.ascii	"OS_ERR_FATAL_RETURN\000"
 6609      52525F46 
 6609      4154414C 
 6609      5F524554 
 6609      55524E00 
 6610              	.LASF7:
 6611 1383 73686F72 		.ascii	"short unsigned int\000"
 6611      7420756E 
 6611      7369676E 
 6611      65642069 
 6611      6E7400
 6612              	.LASF29:
 6613 1396 4F535F46 		.ascii	"OS_FLAGS\000"
 6613      4C414753 
 6613      00
 6614              	.LASF208:
 6615 139f 4D736750 		.ascii	"MsgPtr\000"
 6615      747200
 6616              	.LASF167:
 6617 13a6 4F535F45 		.ascii	"OS_ERR_TLS_NO_MORE_AVAIL\000"
 6617      52525F54 
 6617      4C535F4E 
 6617      4F5F4D4F 
 6617      52455F41 
 6618              	.LASF44:
 6619 13bf 4F535F45 		.ascii	"OS_ERR_NONE\000"
 6619      52525F4E 
 6619      4F4E4500 
 6620              	.LASF302:
ARM GAS  C:\Users\jorti\AppData\Local\Temp\ccmiXXpF.s 			page 156


 6621 13cb 4F53546D 		.ascii	"OSTmrStateGet\000"
 6621      72537461 
 6621      74654765 
 6621      7400
 6622              	.LASF284:
 6623 13d9 6F735F70 		.ascii	"os_pend_data\000"
 6623      656E645F 
 6623      64617461 
 6623      00
 6624              	.LASF126:
 6625 13e6 4F535F45 		.ascii	"OS_ERR_SCHED_LOCKED\000"
 6625      52525F53 
 6625      43484544 
 6625      5F4C4F43 
 6625      4B454400 
 6626              	.LASF58:
 6627 13fa 4F535F45 		.ascii	"OS_ERR_FLUSH_ISR\000"
 6627      52525F46 
 6627      4C555348 
 6627      5F495352 
 6627      00
 6628              	.LASF237:
 6629 140b 5072696F 		.ascii	"Prio\000"
 6629      00
 6630              	.LASF333:
 6631 1410 74735F65 		.ascii	"ts_end\000"
 6631      6E6400
 6632              	.LASF14:
 6633 1417 646F7562 		.ascii	"double\000"
 6633      6C6500
 6634              	.LASF100:
 6635 141e 4F535F45 		.ascii	"OS_ERR_PEND_ABORT\000"
 6635      52525F50 
 6635      454E445F 
 6635      41424F52 
 6635      5400
 6636              	.LASF254:
 6637 1430 43505555 		.ascii	"CPUUsage\000"
 6637      73616765 
 6637      00
 6638              	.LASF127:
 6639 1439 4F535F45 		.ascii	"OS_ERR_SCHED_NOT_LOCKED\000"
 6639      52525F53 
 6639      43484544 
 6639      5F4E4F54 
 6639      5F4C4F43 
 6640              	.LASF111:
 6641 1451 4F535F45 		.ascii	"OS_ERR_PRIO\000"
 6641      52525F50 
 6641      52494F00 
 6642              	.LASF349:
 6643 145d 4F534366 		.ascii	"OSCfg_TmrWheelSize\000"
 6643      675F546D 
 6643      72576865 
 6643      656C5369 
 6643      7A6500
 6644              	.LASF104:
ARM GAS  C:\Users\jorti\AppData\Local\Temp\ccmiXXpF.s 			page 157


 6645 1470 4F535F45 		.ascii	"OS_ERR_PEND_DEL\000"
 6645      52525F50 
 6645      454E445F 
 6645      44454C00 
 6646              	.LASF286:
 6647 1480 50656E64 		.ascii	"PendObjPtr\000"
 6647      4F626A50 
 6647      747200
 6648              	.LASF218:
 6649 148b 4E627245 		.ascii	"NbrEntriesMax\000"
 6649      6E747269 
 6649      65734D61 
 6649      7800
 6650              	.LASF292:
 6651 1499 6F735F70 		.ascii	"os_pend_list\000"
 6651      656E645F 
 6651      6C697374 
 6651      00
 6652              	.LASF81:
 6653 14a6 4F535F45 		.ascii	"OS_ERR_MEM_INVALID_SIZE\000"
 6653      52525F4D 
 6653      454D5F49 
 6653      4E56414C 
 6653      49445F53 
 6654              	.LASF158:
 6655 14be 4F535F45 		.ascii	"OS_ERR_TASK_SUSPENDED\000"
 6655      52525F54 
 6655      41534B5F 
 6655      53555350 
 6655      454E4445 
 6656              	.LASF130:
 6657 14d4 4F535F45 		.ascii	"OS_ERR_SET_ISR\000"
 6657      52525F53 
 6657      45545F49 
 6657      535200
 6658              	.LASF267:
 6659 14e3 4462674E 		.ascii	"DbgNamePtr\000"
 6659      616D6550 
 6659      747200
 6660              	.LASF249:
 6661 14ee 52656754 		.ascii	"RegTbl\000"
 6661      626C00
 6662              	.LASF276:
 6663 14f5 43616C6C 		.ascii	"CallbackPtrArg\000"
 6663      6261636B 
 6663      50747241 
 6663      726700
 6664              	.LASF129:
 6665 1504 4F535F45 		.ascii	"OS_ERR_SEM_OVF\000"
 6665      52525F53 
 6665      454D5F4F 
 6665      564600
 6666              	.LASF144:
 6667 1513 4F535F45 		.ascii	"OS_ERR_TASK_DEL_IDLE\000"
 6667      52525F54 
 6667      41534B5F 
 6667      44454C5F 
ARM GAS  C:\Users\jorti\AppData\Local\Temp\ccmiXXpF.s 			page 158


 6667      49444C45 
 6668              	.LASF176:
 6669 1528 4F535F45 		.ascii	"OS_ERR_TIME_GET_ISR\000"
 6669      52525F54 
 6669      494D455F 
 6669      4745545F 
 6669      49535200 
 6670              	.LASF244:
 6671 153c 54696D65 		.ascii	"TimeQuanta\000"
 6671      5175616E 
 6671      746100
 6672              	.LASF175:
 6673 1547 4F535F45 		.ascii	"OS_ERR_TIME_DLY_RESUME_ISR\000"
 6673      52525F54 
 6673      494D455F 
 6673      444C595F 
 6673      52455355 
 6674              	.LASF170:
 6675 1562 4F535F45 		.ascii	"OS_ERR_TICK_PRIO_INVALID\000"
 6675      52525F54 
 6675      49434B5F 
 6675      5052494F 
 6675      5F494E56 
 6676              	.LASF110:
 6677 157b 4F535F45 		.ascii	"OS_ERR_PRIO_EXIST\000"
 6677      52525F50 
 6677      52494F5F 
 6677      45584953 
 6677      5400
 6678              	.LASF213:
 6679 158d 6F735F6D 		.ascii	"os_msg_q\000"
 6679      73675F71 
 6679      00
 6680              	.LASF343:
 6681 1596 4F534366 		.ascii	"OSCfg_TickRate_Hz\000"
 6681      675F5469 
 6681      636B5261 
 6681      74655F48 
 6681      7A00
 6682              	.LASF82:
 6683 15a8 4F535F45 		.ascii	"OS_ERR_MEM_NO_FREE_BLKS\000"
 6683      52525F4D 
 6683      454D5F4E 
 6683      4F5F4652 
 6683      45455F42 
 6684              	.LASF301:
 6685 15c0 4F53546D 		.ascii	"OSTmrRemainGet\000"
 6685      7252656D 
 6685      61696E47 
 6685      657400
 6686              	.LASF16:
 6687 15cf 4350555F 		.ascii	"CPU_STK\000"
 6687      53544B00 
 6688              	.LASF277:
 6689 15d7 4D617463 		.ascii	"Match\000"
 6689      6800
 6690              	.LASF298:
ARM GAS  C:\Users\jorti\AppData\Local\Temp\ccmiXXpF.s 			page 159


 6691 15dd 705F746D 		.ascii	"p_tmr\000"
 6691      7200
 6692              		.ident	"GCC: (GNU Tools for ARM Embedded Processors) 5.4.1 20160609 (release) [ARM/embedded-5-bran
