ARM GAS  C:\Users\jorti\AppData\Local\Temp\ccDtGf1z.s 			page 1


   1              		.syntax unified
   2              		.cpu cortex-m3
   3              		.fpu softvfp
   4              		.eabi_attribute 20, 1
   5              		.eabi_attribute 21, 1
   6              		.eabi_attribute 23, 3
   7              		.eabi_attribute 24, 1
   8              		.eabi_attribute 25, 1
   9              		.eabi_attribute 26, 1
  10              		.eabi_attribute 30, 1
  11              		.eabi_attribute 34, 1
  12              		.eabi_attribute 18, 4
  13              		.thumb
  14              		.syntax unified
  15              		.file	"os_task.c"
  16              		.text
  17              	.Ltext0:
  18              		.cfi_sections	.debug_frame
  19              		.section	.text.OSTaskChangePrio,"ax",%progbits
  20              		.align	2
  21              		.global	OSTaskChangePrio
  22              		.thumb
  23              		.thumb_func
  24              		.type	OSTaskChangePrio, %function
  25              	OSTaskChangePrio:
  26              	.LFB1:
  27              		.file 1 "uCOS-III\\Source\\os_task.c"
   1:uCOS-III\Source/os_task.c **** /*
   2:uCOS-III\Source/os_task.c **** ***************************************************************************************************
   3:uCOS-III\Source/os_task.c **** *                                                      uC/OS-III
   4:uCOS-III\Source/os_task.c **** *                                                 The Real-Time Kernel
   5:uCOS-III\Source/os_task.c **** *
   6:uCOS-III\Source/os_task.c **** *                                  (c) Copyright 2009-2012; Micrium, Inc.; Weston, FL
   7:uCOS-III\Source/os_task.c **** *                           All rights reserved.  Protected by international copyright laws.
   8:uCOS-III\Source/os_task.c **** *
   9:uCOS-III\Source/os_task.c **** *                                                   TASK MANAGEMENT
  10:uCOS-III\Source/os_task.c **** *
  11:uCOS-III\Source/os_task.c **** * File    : OS_TASK.C
  12:uCOS-III\Source/os_task.c **** * By      : JJL
  13:uCOS-III\Source/os_task.c **** * Version : V3.03.01
  14:uCOS-III\Source/os_task.c **** *
  15:uCOS-III\Source/os_task.c **** * LICENSING TERMS:
  16:uCOS-III\Source/os_task.c **** * ---------------
  17:uCOS-III\Source/os_task.c **** *           uC/OS-III is provided in source form for FREE short-term evaluation, for educational us
  18:uCOS-III\Source/os_task.c **** *           for peaceful research.  If you plan or intend to use uC/OS-III in a commercial applicat
  19:uCOS-III\Source/os_task.c **** *           product then, you need to contact Micrium to properly license uC/OS-III for its use in 
  20:uCOS-III\Source/os_task.c **** *           application/product.   We provide ALL the source code for your convenience and to help 
  21:uCOS-III\Source/os_task.c **** *           experience uC/OS-III.  The fact that the source is provided does NOT mean that you can 
  22:uCOS-III\Source/os_task.c **** *           it commercially without paying a licensing fee.
  23:uCOS-III\Source/os_task.c **** *
  24:uCOS-III\Source/os_task.c **** *           Knowledge of the source code may NOT be used to develop a similar product.
  25:uCOS-III\Source/os_task.c **** *
  26:uCOS-III\Source/os_task.c **** *           Please help us continue to provide the embedded community with the finest software avai
  27:uCOS-III\Source/os_task.c **** *           Your honesty is greatly appreciated.
  28:uCOS-III\Source/os_task.c **** *
  29:uCOS-III\Source/os_task.c **** *           You can contact us at www.micrium.com, or by phone at +1 (954) 217-2036.
  30:uCOS-III\Source/os_task.c **** ***************************************************************************************************
ARM GAS  C:\Users\jorti\AppData\Local\Temp\ccDtGf1z.s 			page 2


  31:uCOS-III\Source/os_task.c **** */
  32:uCOS-III\Source/os_task.c **** 
  33:uCOS-III\Source/os_task.c **** #define  MICRIUM_SOURCE
  34:uCOS-III\Source/os_task.c **** #include <os.h>
  35:uCOS-III\Source/os_task.c **** 
  36:uCOS-III\Source/os_task.c **** #ifdef VSC_INCLUDE_SOURCE_FILE_NAMES
  37:uCOS-III\Source/os_task.c **** const  CPU_CHAR  *os_task__c = "$Id: $";
  38:uCOS-III\Source/os_task.c **** #endif
  39:uCOS-III\Source/os_task.c **** 
  40:uCOS-III\Source/os_task.c **** /*
  41:uCOS-III\Source/os_task.c **** ***************************************************************************************************
  42:uCOS-III\Source/os_task.c **** *                                                CHANGE PRIORITY OF A TASK
  43:uCOS-III\Source/os_task.c **** *
  44:uCOS-III\Source/os_task.c **** * Description: This function allows you to change the priority of a task dynamically.  Note that th
  45:uCOS-III\Source/os_task.c **** *              priority MUST be available.
  46:uCOS-III\Source/os_task.c **** *
  47:uCOS-III\Source/os_task.c **** * Arguments  : p_tcb      is the TCB of the tack to change the priority for
  48:uCOS-III\Source/os_task.c **** *
  49:uCOS-III\Source/os_task.c **** *              prio_new   is the new priority
  50:uCOS-III\Source/os_task.c **** *
  51:uCOS-III\Source/os_task.c **** *              p_err      is a pointer to an error code returned by this function:
  52:uCOS-III\Source/os_task.c **** *
  53:uCOS-III\Source/os_task.c **** *                             OS_ERR_NONE                 is the call was successful
  54:uCOS-III\Source/os_task.c **** *                             OS_ERR_PRIO_INVALID         if the priority you specify is higher tha
  55:uCOS-III\Source/os_task.c **** *                                                         (i.e. >= (OS_CFG_PRIO_MAX-1))
  56:uCOS-III\Source/os_task.c **** *                             OS_ERR_STATE_INVALID        if the task is in an invalid state
  57:uCOS-III\Source/os_task.c **** *                             OS_ERR_TASK_CHANGE_PRIO_ISR if you tried to change the task's priorit
  58:uCOS-III\Source/os_task.c **** ***************************************************************************************************
  59:uCOS-III\Source/os_task.c **** */
  60:uCOS-III\Source/os_task.c **** 
  61:uCOS-III\Source/os_task.c **** #if OS_CFG_TASK_CHANGE_PRIO_EN > 0u
  62:uCOS-III\Source/os_task.c **** void  OSTaskChangePrio (OS_TCB   *p_tcb,
  63:uCOS-III\Source/os_task.c ****                         OS_PRIO   prio_new,
  64:uCOS-III\Source/os_task.c ****                         OS_ERR   *p_err)
  65:uCOS-III\Source/os_task.c **** {
  28              		.loc 1 65 0
  29              		.cfi_startproc
  30              		@ args = 0, pretend = 0, frame = 0
  31              		@ frame_needed = 0, uses_anonymous_args = 0
  32              	.LVL0:
  33 0000 2DE9F041 		push	{r4, r5, r6, r7, r8, lr}
  34              		.cfi_def_cfa_offset 24
  35              		.cfi_offset 4, -24
  36              		.cfi_offset 5, -20
  37              		.cfi_offset 6, -16
  38              		.cfi_offset 7, -12
  39              		.cfi_offset 8, -8
  40              		.cfi_offset 14, -4
  41 0004 1546     		mov	r5, r2
  42              	.LVL1:
  66:uCOS-III\Source/os_task.c ****     CPU_BOOLEAN   self;
  67:uCOS-III\Source/os_task.c ****     CPU_SR_ALLOC();
  68:uCOS-III\Source/os_task.c **** 
  69:uCOS-III\Source/os_task.c **** 
  70:uCOS-III\Source/os_task.c **** 
  71:uCOS-III\Source/os_task.c **** #ifdef OS_SAFETY_CRITICAL
  72:uCOS-III\Source/os_task.c ****     if (p_err == (OS_ERR *)0) {
ARM GAS  C:\Users\jorti\AppData\Local\Temp\ccDtGf1z.s 			page 3


  73:uCOS-III\Source/os_task.c ****         OS_SAFETY_CRITICAL_EXCEPTION();
  74:uCOS-III\Source/os_task.c ****         return;
  75:uCOS-III\Source/os_task.c ****     }
  76:uCOS-III\Source/os_task.c **** #endif
  77:uCOS-III\Source/os_task.c **** 
  78:uCOS-III\Source/os_task.c **** #if OS_CFG_CALLED_FROM_ISR_CHK_EN > 0u
  79:uCOS-III\Source/os_task.c ****     if (OSIntNestingCtr > (OS_NESTING_CTR)0) {              /* ---------- CANNOT CREATE A TASK FROM
  43              		.loc 1 79 0
  44 0006 314B     		ldr	r3, .L18
  45 0008 1B78     		ldrb	r3, [r3]	@ zero_extendqisi2
  46 000a 23B1     		cbz	r3, .L2
  80:uCOS-III\Source/os_task.c ****        *p_err = OS_ERR_TASK_CHANGE_PRIO_ISR;
  47              		.loc 1 80 0
  48 000c 47F24913 		movw	r3, #29001
  49 0010 1380     		strh	r3, [r2]	@ movhi
  81:uCOS-III\Source/os_task.c ****         return;
  50              		.loc 1 81 0
  51 0012 BDE8F081 		pop	{r4, r5, r6, r7, r8, pc}
  52              	.L2:
  53 0016 0446     		mov	r4, r0
  54 0018 0E46     		mov	r6, r1
  82:uCOS-III\Source/os_task.c ****     }
  83:uCOS-III\Source/os_task.c **** #endif
  84:uCOS-III\Source/os_task.c **** 
  85:uCOS-III\Source/os_task.c **** #if OS_CFG_ISR_POST_DEFERRED_EN > 0u
  86:uCOS-III\Source/os_task.c ****     if (prio_new == 0) {                                    /* Cannot set to IntQueue Task priority
  87:uCOS-III\Source/os_task.c ****        *p_err = OS_ERR_PRIO_INVALID;
  88:uCOS-III\Source/os_task.c ****         return;
  89:uCOS-III\Source/os_task.c ****     }
  90:uCOS-III\Source/os_task.c **** #endif
  91:uCOS-III\Source/os_task.c **** 
  92:uCOS-III\Source/os_task.c ****     if (prio_new >= (OS_CFG_PRIO_MAX - 1u)) {               /* Cannot set to Idle Task priority    
  55              		.loc 1 92 0
  56 001a 0629     		cmp	r1, #6
  57 001c 04D9     		bls	.L4
  93:uCOS-III\Source/os_task.c ****        *p_err = OS_ERR_PRIO_INVALID;
  58              		.loc 1 93 0
  59 001e 46F27323 		movw	r3, #25203
  60 0022 1380     		strh	r3, [r2]	@ movhi
  94:uCOS-III\Source/os_task.c ****         return;
  61              		.loc 1 94 0
  62 0024 BDE8F081 		pop	{r4, r5, r6, r7, r8, pc}
  63              	.L4:
  95:uCOS-III\Source/os_task.c ****     }
  96:uCOS-III\Source/os_task.c **** 
  97:uCOS-III\Source/os_task.c ****     if (p_tcb == (OS_TCB *)0) {                             /* See if want to change priority of 's
  64              		.loc 1 97 0
  65 0028 40B9     		cbnz	r0, .L16
  98:uCOS-III\Source/os_task.c ****         CPU_CRITICAL_ENTER();
  66              		.loc 1 98 0
  67 002a FFF7FEFF 		bl	CPU_SR_Save
  68              	.LVL2:
  99:uCOS-III\Source/os_task.c ****         p_tcb = OSTCBCurPtr;
  69              		.loc 1 99 0
  70 002e 284B     		ldr	r3, .L18+4
  71 0030 1C68     		ldr	r4, [r3]
  72              	.LVL3:
ARM GAS  C:\Users\jorti\AppData\Local\Temp\ccDtGf1z.s 			page 4


 100:uCOS-III\Source/os_task.c ****         CPU_CRITICAL_EXIT();
  73              		.loc 1 100 0
  74 0032 FFF7FEFF 		bl	CPU_SR_Restore
  75              	.LVL4:
 101:uCOS-III\Source/os_task.c ****         self  = DEF_TRUE;
  76              		.loc 1 101 0
  77 0036 4FF00108 		mov	r8, #1
  78 003a 01E0     		b	.L5
  79              	.LVL5:
  80              	.L16:
 102:uCOS-III\Source/os_task.c ****     } else {
 103:uCOS-III\Source/os_task.c ****         self  = DEF_FALSE;
  81              		.loc 1 103 0
  82 003c 4FF00008 		mov	r8, #0
  83              	.LVL6:
  84              	.L5:
 104:uCOS-III\Source/os_task.c ****     }
 105:uCOS-III\Source/os_task.c **** 
 106:uCOS-III\Source/os_task.c ****     OS_CRITICAL_ENTER();
  85              		.loc 1 106 0
  86 0040 FFF7FEFF 		bl	CPU_SR_Save
  87              	.LVL7:
  88 0044 0746     		mov	r7, r0
  89              	.LVL8:
 107:uCOS-III\Source/os_task.c ****     switch (p_tcb->TaskState) {
  90              		.loc 1 107 0
  91 0046 94F83630 		ldrb	r3, [r4, #54]	@ zero_extendqisi2
  92 004a 072B     		cmp	r3, #7
  93 004c 2ED8     		bhi	.L6
  94 004e DFE803F0 		tbb	[pc, r3]
  95              	.L8:
  96 0052 04       		.byte	(.L7-.L8)/2
  97 0053 17       		.byte	(.L9-.L8)/2
  98 0054 1A       		.byte	(.L10-.L8)/2
  99 0055 1A       		.byte	(.L10-.L8)/2
 100 0056 17       		.byte	(.L9-.L8)/2
 101 0057 17       		.byte	(.L9-.L8)/2
 102 0058 1A       		.byte	(.L10-.L8)/2
 103 0059 1A       		.byte	(.L10-.L8)/2
 104              		.p2align 1
 105              	.L7:
 108:uCOS-III\Source/os_task.c ****         case OS_TASK_STATE_RDY:
 109:uCOS-III\Source/os_task.c ****              OS_RdyListRemove(p_tcb);                       /* Remove from current priority        
 106              		.loc 1 109 0
 107 005a 2046     		mov	r0, r4
 108              	.LVL9:
 109 005c FFF7FEFF 		bl	OS_RdyListRemove
 110              	.LVL10:
 110:uCOS-III\Source/os_task.c ****              p_tcb->Prio = prio_new;                        /* Set new task priority               
 111              		.loc 1 110 0
 112 0060 84F83760 		strb	r6, [r4, #55]
 111:uCOS-III\Source/os_task.c ****              OS_PrioInsert(p_tcb->Prio);
 113              		.loc 1 111 0
 114 0064 3046     		mov	r0, r6
 115 0066 FFF7FEFF 		bl	OS_PrioInsert
 116              	.LVL11:
 112:uCOS-III\Source/os_task.c ****              if (self == DEF_TRUE) {
ARM GAS  C:\Users\jorti\AppData\Local\Temp\ccDtGf1z.s 			page 5


 117              		.loc 1 112 0
 118 006a B8F1000F 		cmp	r8, #0
 119 006e 03D0     		beq	.L11
 113:uCOS-III\Source/os_task.c ****                  OS_RdyListInsertHead(p_tcb);
 120              		.loc 1 113 0
 121 0070 2046     		mov	r0, r4
 122 0072 FFF7FEFF 		bl	OS_RdyListInsertHead
 123              	.LVL12:
 124 0076 20E0     		b	.L12
 125              	.L11:
 114:uCOS-III\Source/os_task.c ****              } else {
 115:uCOS-III\Source/os_task.c ****                  OS_RdyListInsertTail(p_tcb);
 126              		.loc 1 115 0
 127 0078 2046     		mov	r0, r4
 128 007a FFF7FEFF 		bl	OS_RdyListInsertTail
 129              	.LVL13:
 130 007e 1CE0     		b	.L12
 131              	.LVL14:
 132              	.L9:
 116:uCOS-III\Source/os_task.c ****              }
 117:uCOS-III\Source/os_task.c ****              break;
 118:uCOS-III\Source/os_task.c **** 
 119:uCOS-III\Source/os_task.c ****         case OS_TASK_STATE_DLY:                             /* Nothing to do except change the prio
 120:uCOS-III\Source/os_task.c ****         case OS_TASK_STATE_SUSPENDED:
 121:uCOS-III\Source/os_task.c ****         case OS_TASK_STATE_DLY_SUSPENDED:
 122:uCOS-III\Source/os_task.c ****              p_tcb->Prio = prio_new;                        /* Set new task priority               
 133              		.loc 1 122 0
 134 0080 84F83760 		strb	r6, [r4, #55]
 123:uCOS-III\Source/os_task.c ****              break;
 135              		.loc 1 123 0
 136 0084 19E0     		b	.L12
 137              	.L10:
 124:uCOS-III\Source/os_task.c **** 
 125:uCOS-III\Source/os_task.c ****         case OS_TASK_STATE_PEND:
 126:uCOS-III\Source/os_task.c ****         case OS_TASK_STATE_PEND_TIMEOUT:
 127:uCOS-III\Source/os_task.c ****         case OS_TASK_STATE_PEND_SUSPENDED:
 128:uCOS-III\Source/os_task.c ****         case OS_TASK_STATE_PEND_TIMEOUT_SUSPENDED:
 129:uCOS-III\Source/os_task.c ****              switch (p_tcb->PendOn) {                       /* What to do depends on what we are pe
 138              		.loc 1 129 0
 139 0086 94F83430 		ldrb	r3, [r4, #52]	@ zero_extendqisi2
 140 008a 013B     		subs	r3, r3, #1
 141 008c 062B     		cmp	r3, #6
 142 008e 14D8     		bhi	.L12
 143 0090 DFE803F0 		tbb	[pc, r3]
 144              	.L14:
 145 0094 04       		.byte	(.L13-.L14)/2
 146 0095 04       		.byte	(.L13-.L14)/2
 147 0096 07       		.byte	(.L15-.L14)/2
 148 0097 07       		.byte	(.L15-.L14)/2
 149 0098 07       		.byte	(.L15-.L14)/2
 150 0099 07       		.byte	(.L15-.L14)/2
 151 009a 04       		.byte	(.L13-.L14)/2
 152 009b 00       		.p2align 1
 153              	.L13:
 130:uCOS-III\Source/os_task.c ****                  case OS_TASK_PEND_ON_TASK_Q:               /* Nothing to do except change the prio
 131:uCOS-III\Source/os_task.c ****                  case OS_TASK_PEND_ON_TASK_SEM:
 132:uCOS-III\Source/os_task.c ****                  case OS_TASK_PEND_ON_FLAG:
ARM GAS  C:\Users\jorti\AppData\Local\Temp\ccDtGf1z.s 			page 6


 133:uCOS-III\Source/os_task.c ****                       p_tcb->Prio = prio_new;               /* Set new task priority               
 154              		.loc 1 133 0
 155 009c 84F83760 		strb	r6, [r4, #55]
 134:uCOS-III\Source/os_task.c ****                       break;
 156              		.loc 1 134 0
 157 00a0 0BE0     		b	.L12
 158              	.L15:
 135:uCOS-III\Source/os_task.c **** 
 136:uCOS-III\Source/os_task.c ****                  case OS_TASK_PEND_ON_MUTEX:
 137:uCOS-III\Source/os_task.c ****                  case OS_TASK_PEND_ON_MULTI:
 138:uCOS-III\Source/os_task.c ****                  case OS_TASK_PEND_ON_Q:
 139:uCOS-III\Source/os_task.c ****                  case OS_TASK_PEND_ON_SEM:
 140:uCOS-III\Source/os_task.c ****                       OS_PendListChangePrio(p_tcb,
 159              		.loc 1 140 0
 160 00a2 3146     		mov	r1, r6
 161 00a4 2046     		mov	r0, r4
 162              	.LVL15:
 163 00a6 FFF7FEFF 		bl	OS_PendListChangePrio
 164              	.LVL16:
 141:uCOS-III\Source/os_task.c ****                                             prio_new);
 142:uCOS-III\Source/os_task.c ****                       break;
 165              		.loc 1 142 0
 166 00aa 06E0     		b	.L12
 167              	.LVL17:
 168              	.L6:
 143:uCOS-III\Source/os_task.c **** 
 144:uCOS-III\Source/os_task.c ****                  default:
 145:uCOS-III\Source/os_task.c ****                       break;
 146:uCOS-III\Source/os_task.c ****             }
 147:uCOS-III\Source/os_task.c ****              break;
 148:uCOS-III\Source/os_task.c **** 
 149:uCOS-III\Source/os_task.c ****         default:
 150:uCOS-III\Source/os_task.c ****              OS_CRITICAL_EXIT();
 169              		.loc 1 150 0
 170 00ac FFF7FEFF 		bl	CPU_SR_Restore
 171              	.LVL18:
 151:uCOS-III\Source/os_task.c ****             *p_err = OS_ERR_STATE_INVALID;
 172              		.loc 1 151 0
 173 00b0 46F62D63 		movw	r3, #28205
 174 00b4 2B80     		strh	r3, [r5]	@ movhi
 152:uCOS-III\Source/os_task.c ****              return;
 175              		.loc 1 152 0
 176 00b6 BDE8F081 		pop	{r4, r5, r6, r7, r8, pc}
 177              	.LVL19:
 178              	.L12:
 153:uCOS-III\Source/os_task.c ****     }
 154:uCOS-III\Source/os_task.c **** 
 155:uCOS-III\Source/os_task.c ****     OS_CRITICAL_EXIT_NO_SCHED();
 179              		.loc 1 155 0
 180 00ba 3846     		mov	r0, r7
 181 00bc FFF7FEFF 		bl	CPU_SR_Restore
 182              	.LVL20:
 156:uCOS-III\Source/os_task.c **** 
 157:uCOS-III\Source/os_task.c ****     OSSched();                                              /* Run highest priority task ready     
 183              		.loc 1 157 0
 184 00c0 FFF7FEFF 		bl	OSSched
 185              	.LVL21:
ARM GAS  C:\Users\jorti\AppData\Local\Temp\ccDtGf1z.s 			page 7


 158:uCOS-III\Source/os_task.c **** 
 159:uCOS-III\Source/os_task.c ****    *p_err = OS_ERR_NONE;
 186              		.loc 1 159 0
 187 00c4 0023     		movs	r3, #0
 188 00c6 2B80     		strh	r3, [r5]	@ movhi
 189 00c8 BDE8F081 		pop	{r4, r5, r6, r7, r8, pc}
 190              	.LVL22:
 191              	.L19:
 192              		.align	2
 193              	.L18:
 194 00cc 00000000 		.word	OSIntNestingCtr
 195 00d0 00000000 		.word	OSTCBCurPtr
 196              		.cfi_endproc
 197              	.LFE1:
 198              		.size	OSTaskChangePrio, .-OSTaskChangePrio
 199              		.section	.text.OSTaskQFlush,"ax",%progbits
 200              		.align	2
 201              		.global	OSTaskQFlush
 202              		.thumb
 203              		.thumb_func
 204              		.type	OSTaskQFlush, %function
 205              	OSTaskQFlush:
 206              	.LFB4:
 160:uCOS-III\Source/os_task.c **** }
 161:uCOS-III\Source/os_task.c **** #endif
 162:uCOS-III\Source/os_task.c **** 
 163:uCOS-III\Source/os_task.c **** /*$PAGE*/
 164:uCOS-III\Source/os_task.c **** /*
 165:uCOS-III\Source/os_task.c **** ***************************************************************************************************
 166:uCOS-III\Source/os_task.c **** *                                                    CREATE A TASK
 167:uCOS-III\Source/os_task.c **** *
 168:uCOS-III\Source/os_task.c **** * Description: This function is used to have uC/OS-III manage the execution of a task.  Tasks can e
 169:uCOS-III\Source/os_task.c **** *              prior to the start of multitasking or by a running task.  A task cannot be created b
 170:uCOS-III\Source/os_task.c **** *
 171:uCOS-III\Source/os_task.c **** * Arguments  : p_tcb          is a pointer to the task's TCB
 172:uCOS-III\Source/os_task.c **** *
 173:uCOS-III\Source/os_task.c **** *              p_name         is a pointer to an ASCII string to provide a name to the task.
 174:uCOS-III\Source/os_task.c **** *
 175:uCOS-III\Source/os_task.c **** *              p_task         is a pointer to the task's code
 176:uCOS-III\Source/os_task.c **** *
 177:uCOS-III\Source/os_task.c **** *              p_arg          is a pointer to an optional data area which can be used to pass param
 178:uCOS-III\Source/os_task.c **** *                             the task when the task first executes.  Where the task is concerned i
 179:uCOS-III\Source/os_task.c **** *                             it was invoked and passed the argument 'p_arg' as follows:
 180:uCOS-III\Source/os_task.c **** *
 181:uCOS-III\Source/os_task.c **** *                                 void Task (void *p_arg)
 182:uCOS-III\Source/os_task.c **** *                                 {
 183:uCOS-III\Source/os_task.c **** *                                     for (;;) {
 184:uCOS-III\Source/os_task.c **** *                                         Task code;
 185:uCOS-III\Source/os_task.c **** *                                     }
 186:uCOS-III\Source/os_task.c **** *                                 }
 187:uCOS-III\Source/os_task.c **** *
 188:uCOS-III\Source/os_task.c **** *              prio           is the task's priority.  A unique priority MUST be assigned to each t
 189:uCOS-III\Source/os_task.c **** *                             lower the number, the higher the priority.
 190:uCOS-III\Source/os_task.c **** *
 191:uCOS-III\Source/os_task.c **** *              p_stk_base     is a pointer to the base address of the stack (i.e. low address).
 192:uCOS-III\Source/os_task.c **** *
 193:uCOS-III\Source/os_task.c **** *              stk_limit      is the number of stack elements to set as 'watermark' limit for the s
ARM GAS  C:\Users\jorti\AppData\Local\Temp\ccDtGf1z.s 			page 8


 194:uCOS-III\Source/os_task.c **** *                             represents the number of CPU_STK entries left before the stack is ful
 195:uCOS-III\Source/os_task.c **** *                             specifying 10% of the 'stk_size' value indicates that the stack limit
 196:uCOS-III\Source/os_task.c **** *                             when the stack reaches 90% full.
 197:uCOS-III\Source/os_task.c **** *
 198:uCOS-III\Source/os_task.c **** *              stk_size       is the size of the stack in number of elements.  If CPU_STK is set to
 199:uCOS-III\Source/os_task.c **** *                             'stk_size' corresponds to the number of bytes available.  If CPU_STK 
 200:uCOS-III\Source/os_task.c **** *                             CPU_INT16U, 'stk_size' contains the number of 16-bit entries availabl
 201:uCOS-III\Source/os_task.c **** *                             CPU_STK is set to CPU_INT32U, 'stk_size' contains the number of 32-bi
 202:uCOS-III\Source/os_task.c **** *                             available on the stack.
 203:uCOS-III\Source/os_task.c **** *
 204:uCOS-III\Source/os_task.c **** *              q_size         is the maximum number of messages that can be sent to the task
 205:uCOS-III\Source/os_task.c **** *
 206:uCOS-III\Source/os_task.c **** *              time_quanta    amount of time (in ticks) for time slice when round-robin between tas
 207:uCOS-III\Source/os_task.c **** *                             the default.
 208:uCOS-III\Source/os_task.c **** *
 209:uCOS-III\Source/os_task.c **** *              p_ext          is a pointer to a user supplied memory location which is used as a TC
 210:uCOS-III\Source/os_task.c **** *                             For example, this user memory can hold the contents of floating-point
 211:uCOS-III\Source/os_task.c **** *                             during a context switch, the time each task takes to execute, the num
 212:uCOS-III\Source/os_task.c **** *                             the task has been switched-in, etc.
 213:uCOS-III\Source/os_task.c **** *
 214:uCOS-III\Source/os_task.c **** *              opt            contains additional information (or options) about the behavior of th
 215:uCOS-III\Source/os_task.c **** *                             See OS_OPT_TASK_xxx in OS.H.  Current choices are:
 216:uCOS-III\Source/os_task.c **** *
 217:uCOS-III\Source/os_task.c **** *                                 OS_OPT_TASK_NONE            No option selected
 218:uCOS-III\Source/os_task.c **** *                                 OS_OPT_TASK_STK_CHK         Stack checking to be allowed for the 
 219:uCOS-III\Source/os_task.c **** *                                 OS_OPT_TASK_STK_CLR         Clear the stack when the task is crea
 220:uCOS-III\Source/os_task.c **** *                                 OS_OPT_TASK_SAVE_FP         If the CPU has floating-point registe
 221:uCOS-III\Source/os_task.c **** *                                                             during a context switch.
 222:uCOS-III\Source/os_task.c **** *                                 OS_OPT_TASK_NO_TLS          If the caller doesn't want or need TL
 223:uCOS-III\Source/os_task.c **** *                                                             Storage) support for the task.  If yo
 224:uCOS-III\Source/os_task.c **** *                                                             option, TLS will be supported by defa
 225:uCOS-III\Source/os_task.c **** *
 226:uCOS-III\Source/os_task.c **** *              p_err          is a pointer to an error code that will be set during this call.  The
 227:uCOS-III\Source/os_task.c **** *                             to by 'p_err' can be:
 228:uCOS-III\Source/os_task.c **** *
 229:uCOS-III\Source/os_task.c **** *                                 OS_ERR_NONE                    if the function was successful.
 230:uCOS-III\Source/os_task.c **** *                                 OS_ERR_ILLEGAL_CREATE_RUN_TIME if you are trying to create the ta
 231:uCOS-III\Source/os_task.c **** *                                                                   OSSafetyCriticalStart().
 232:uCOS-III\Source/os_task.c **** *                                 OS_ERR_NAME                    if 'p_name' is a NULL pointer
 233:uCOS-III\Source/os_task.c **** *                                 OS_ERR_PRIO_INVALID            if the priority you specify is hig
 234:uCOS-III\Source/os_task.c **** *                                                                   allowed (i.e. >= OS_CFG_PRIO_MA
 235:uCOS-III\Source/os_task.c **** *                                                                if OS_CFG_ISR_POST_DEFERRED_EN is 
 236:uCOS-III\Source/os_task.c **** *                                                                   to use priority 0 which is rese
 237:uCOS-III\Source/os_task.c **** *                                 OS_ERR_STK_INVALID             if you specified a NULL pointer fo
 238:uCOS-III\Source/os_task.c **** *                                 OS_ERR_STK_SIZE_INVALID        if you specified zero for the 'stk
 239:uCOS-III\Source/os_task.c **** *                                 OS_ERR_STK_LIMIT_INVALID       if you specified a 'stk_limit' gre
 240:uCOS-III\Source/os_task.c **** *                                                                   to 'stk_size'
 241:uCOS-III\Source/os_task.c **** *                                 OS_ERR_TASK_CREATE_ISR         if you tried to create a task from
 242:uCOS-III\Source/os_task.c **** *                                 OS_ERR_TASK_INVALID            if you specified a NULL pointer fo
 243:uCOS-III\Source/os_task.c **** *                                 OS_ERR_TCB_INVALID             if you specified a NULL pointer fo
 244:uCOS-III\Source/os_task.c **** *
 245:uCOS-III\Source/os_task.c **** * Returns    : A pointer to the TCB of the task created.  This pointer must be used as an ID (i.e h
 246:uCOS-III\Source/os_task.c **** ***************************************************************************************************
 247:uCOS-III\Source/os_task.c **** */
 248:uCOS-III\Source/os_task.c **** /*$PAGE*/
 249:uCOS-III\Source/os_task.c **** void  OSTaskCreate (OS_TCB        *p_tcb,
 250:uCOS-III\Source/os_task.c ****                     CPU_CHAR      *p_name,
ARM GAS  C:\Users\jorti\AppData\Local\Temp\ccDtGf1z.s 			page 9


 251:uCOS-III\Source/os_task.c ****                     OS_TASK_PTR    p_task,
 252:uCOS-III\Source/os_task.c ****                     void          *p_arg,
 253:uCOS-III\Source/os_task.c ****                     OS_PRIO        prio,
 254:uCOS-III\Source/os_task.c ****                     CPU_STK       *p_stk_base,
 255:uCOS-III\Source/os_task.c ****                     CPU_STK_SIZE   stk_limit,
 256:uCOS-III\Source/os_task.c ****                     CPU_STK_SIZE   stk_size,
 257:uCOS-III\Source/os_task.c ****                     OS_MSG_QTY     q_size,
 258:uCOS-III\Source/os_task.c ****                     OS_TICK        time_quanta,
 259:uCOS-III\Source/os_task.c ****                     void          *p_ext,
 260:uCOS-III\Source/os_task.c ****                     OS_OPT         opt,
 261:uCOS-III\Source/os_task.c ****                     OS_ERR        *p_err)
 262:uCOS-III\Source/os_task.c **** {
 263:uCOS-III\Source/os_task.c ****     CPU_STK_SIZE   i;
 264:uCOS-III\Source/os_task.c **** #if OS_CFG_TASK_REG_TBL_SIZE > 0u
 265:uCOS-III\Source/os_task.c ****     OS_REG_ID      reg_nbr;
 266:uCOS-III\Source/os_task.c **** #endif
 267:uCOS-III\Source/os_task.c **** #if defined(OS_CFG_TLS_TBL_SIZE) && (OS_CFG_TLS_TBL_SIZE > 0u)
 268:uCOS-III\Source/os_task.c ****     OS_TLS_ID      id;
 269:uCOS-III\Source/os_task.c **** #endif
 270:uCOS-III\Source/os_task.c **** 
 271:uCOS-III\Source/os_task.c ****     CPU_STK       *p_sp;
 272:uCOS-III\Source/os_task.c ****     CPU_STK       *p_stk_limit;
 273:uCOS-III\Source/os_task.c ****     CPU_SR_ALLOC();
 274:uCOS-III\Source/os_task.c **** 
 275:uCOS-III\Source/os_task.c **** 
 276:uCOS-III\Source/os_task.c **** 
 277:uCOS-III\Source/os_task.c **** #ifdef OS_SAFETY_CRITICAL
 278:uCOS-III\Source/os_task.c ****     if (p_err == (OS_ERR *)0) {
 279:uCOS-III\Source/os_task.c ****         OS_SAFETY_CRITICAL_EXCEPTION();
 280:uCOS-III\Source/os_task.c ****         return;
 281:uCOS-III\Source/os_task.c ****     }
 282:uCOS-III\Source/os_task.c **** #endif
 283:uCOS-III\Source/os_task.c **** 
 284:uCOS-III\Source/os_task.c **** #ifdef OS_SAFETY_CRITICAL_IEC61508
 285:uCOS-III\Source/os_task.c ****     if (OSSafetyCriticalStartFlag == DEF_TRUE) {
 286:uCOS-III\Source/os_task.c ****        *p_err = OS_ERR_ILLEGAL_CREATE_RUN_TIME;
 287:uCOS-III\Source/os_task.c ****         return;
 288:uCOS-III\Source/os_task.c ****     }
 289:uCOS-III\Source/os_task.c **** #endif
 290:uCOS-III\Source/os_task.c **** 
 291:uCOS-III\Source/os_task.c **** #if OS_CFG_CALLED_FROM_ISR_CHK_EN > 0u
 292:uCOS-III\Source/os_task.c ****     if (OSIntNestingCtr > (OS_NESTING_CTR)0) {              /* ---------- CANNOT CREATE A TASK FROM
 293:uCOS-III\Source/os_task.c ****        *p_err = OS_ERR_TASK_CREATE_ISR;
 294:uCOS-III\Source/os_task.c ****         return;
 295:uCOS-III\Source/os_task.c ****     }
 296:uCOS-III\Source/os_task.c **** #endif
 297:uCOS-III\Source/os_task.c **** 
 298:uCOS-III\Source/os_task.c **** #if OS_CFG_ARG_CHK_EN > 0u                                  /* ---------------- VALIDATE ARGUMENTS 
 299:uCOS-III\Source/os_task.c ****     if (p_tcb == (OS_TCB *)0) {                             /* User must supply a valid OS_TCB     
 300:uCOS-III\Source/os_task.c ****        *p_err = OS_ERR_TCB_INVALID;
 301:uCOS-III\Source/os_task.c ****         return;
 302:uCOS-III\Source/os_task.c ****     }
 303:uCOS-III\Source/os_task.c ****     if (p_task == (OS_TASK_PTR)0) {                         /* User must supply a valid task       
 304:uCOS-III\Source/os_task.c ****        *p_err = OS_ERR_TASK_INVALID;
 305:uCOS-III\Source/os_task.c ****         return;
 306:uCOS-III\Source/os_task.c ****     }
 307:uCOS-III\Source/os_task.c ****     if (p_stk_base == (CPU_STK *)0) {                       /* User must supply a valid stack base 
ARM GAS  C:\Users\jorti\AppData\Local\Temp\ccDtGf1z.s 			page 10


 308:uCOS-III\Source/os_task.c ****        *p_err = OS_ERR_STK_INVALID;
 309:uCOS-III\Source/os_task.c ****         return;
 310:uCOS-III\Source/os_task.c ****     }
 311:uCOS-III\Source/os_task.c ****     if (stk_size < OSCfg_StkSizeMin) {                      /* User must supply a valid minimum sta
 312:uCOS-III\Source/os_task.c ****        *p_err = OS_ERR_STK_SIZE_INVALID;
 313:uCOS-III\Source/os_task.c ****         return;
 314:uCOS-III\Source/os_task.c ****     }
 315:uCOS-III\Source/os_task.c ****     if (stk_limit >= stk_size) {                            /* User must supply a valid stack limit
 316:uCOS-III\Source/os_task.c ****        *p_err = OS_ERR_STK_LIMIT_INVALID;
 317:uCOS-III\Source/os_task.c ****         return;
 318:uCOS-III\Source/os_task.c ****     }
 319:uCOS-III\Source/os_task.c ****     if (prio >= OS_CFG_PRIO_MAX) {                          /* Priority must be within 0 and OS_CFG
 320:uCOS-III\Source/os_task.c ****        *p_err = OS_ERR_PRIO_INVALID;
 321:uCOS-III\Source/os_task.c ****         return;
 322:uCOS-III\Source/os_task.c ****     }
 323:uCOS-III\Source/os_task.c **** #endif
 324:uCOS-III\Source/os_task.c **** 
 325:uCOS-III\Source/os_task.c **** #if OS_CFG_ISR_POST_DEFERRED_EN > 0u
 326:uCOS-III\Source/os_task.c ****     if (prio == (OS_PRIO)0) {
 327:uCOS-III\Source/os_task.c ****         if (p_tcb != &OSIntQTaskTCB) {
 328:uCOS-III\Source/os_task.c ****            *p_err = OS_ERR_PRIO_INVALID;                    /* Not allowed to use priority 0       
 329:uCOS-III\Source/os_task.c ****             return;
 330:uCOS-III\Source/os_task.c ****         }
 331:uCOS-III\Source/os_task.c ****     }
 332:uCOS-III\Source/os_task.c **** #endif
 333:uCOS-III\Source/os_task.c **** 
 334:uCOS-III\Source/os_task.c ****     if (prio == (OS_CFG_PRIO_MAX - 1u)) {
 335:uCOS-III\Source/os_task.c ****         if (p_tcb != &OSIdleTaskTCB) {
 336:uCOS-III\Source/os_task.c ****            *p_err = OS_ERR_PRIO_INVALID;                    /* Not allowed to use same priority as 
 337:uCOS-III\Source/os_task.c ****             return;
 338:uCOS-III\Source/os_task.c ****         }
 339:uCOS-III\Source/os_task.c ****     }
 340:uCOS-III\Source/os_task.c **** 
 341:uCOS-III\Source/os_task.c ****     OS_TaskInitTCB(p_tcb);                                  /* Initialize the TCB to default values
 342:uCOS-III\Source/os_task.c **** 
 343:uCOS-III\Source/os_task.c ****    *p_err = OS_ERR_NONE;
 344:uCOS-III\Source/os_task.c ****                                                             /* --------------- CLEAR THE TASK'S STA
 345:uCOS-III\Source/os_task.c ****     if ((opt & OS_OPT_TASK_STK_CHK) != (OS_OPT)0) {         /* See if stack checking has been enabl
 346:uCOS-III\Source/os_task.c ****         if ((opt & OS_OPT_TASK_STK_CLR) != (OS_OPT)0) {     /* See if stack needs to be cleared    
 347:uCOS-III\Source/os_task.c ****             p_sp = p_stk_base;
 348:uCOS-III\Source/os_task.c ****             for (i = 0u; i < stk_size; i++) {               /* Stack grows from HIGH to LOW memory 
 349:uCOS-III\Source/os_task.c ****                *p_sp = (CPU_STK)0;                          /* Clear from bottom of stack and up!  
 350:uCOS-III\Source/os_task.c ****                 p_sp++;
 351:uCOS-III\Source/os_task.c ****             }
 352:uCOS-III\Source/os_task.c ****         }
 353:uCOS-III\Source/os_task.c ****     }
 354:uCOS-III\Source/os_task.c ****                                                             /* ------- INITIALIZE THE STACK FRAME O
 355:uCOS-III\Source/os_task.c **** #if (CPU_CFG_STK_GROWTH == CPU_STK_GROWTH_HI_TO_LO)
 356:uCOS-III\Source/os_task.c ****     p_stk_limit = p_stk_base + stk_limit;
 357:uCOS-III\Source/os_task.c **** #else
 358:uCOS-III\Source/os_task.c ****     p_stk_limit = p_stk_base + (stk_size - 1u) - stk_limit;
 359:uCOS-III\Source/os_task.c **** #endif
 360:uCOS-III\Source/os_task.c **** 
 361:uCOS-III\Source/os_task.c ****     p_sp = OSTaskStkInit(p_task,
 362:uCOS-III\Source/os_task.c ****                          p_arg,
 363:uCOS-III\Source/os_task.c ****                          p_stk_base,
 364:uCOS-III\Source/os_task.c ****                          p_stk_limit,
ARM GAS  C:\Users\jorti\AppData\Local\Temp\ccDtGf1z.s 			page 11


 365:uCOS-III\Source/os_task.c ****                          stk_size,
 366:uCOS-III\Source/os_task.c ****                          opt);
 367:uCOS-III\Source/os_task.c **** 
 368:uCOS-III\Source/os_task.c ****                                                             /* -------------- INITIALIZE THE TCB FI
 369:uCOS-III\Source/os_task.c ****     p_tcb->TaskEntryAddr = p_task;                          /* Save task entry point address       
 370:uCOS-III\Source/os_task.c ****     p_tcb->TaskEntryArg  = p_arg;                           /* Save task entry argument            
 371:uCOS-III\Source/os_task.c **** 
 372:uCOS-III\Source/os_task.c ****     p_tcb->NamePtr       = p_name;                          /* Save task name                      
 373:uCOS-III\Source/os_task.c **** 
 374:uCOS-III\Source/os_task.c ****     p_tcb->Prio          = prio;                            /* Save the task's priority            
 375:uCOS-III\Source/os_task.c **** 
 376:uCOS-III\Source/os_task.c ****     p_tcb->StkPtr        = p_sp;                            /* Save the new top-of-stack pointer   
 377:uCOS-III\Source/os_task.c ****     p_tcb->StkLimitPtr   = p_stk_limit;                     /* Save the stack limit pointer        
 378:uCOS-III\Source/os_task.c **** 
 379:uCOS-III\Source/os_task.c ****     p_tcb->TimeQuanta    = time_quanta;                     /* Save the #ticks for time slice (0 me
 380:uCOS-III\Source/os_task.c **** #if OS_CFG_SCHED_ROUND_ROBIN_EN > 0u
 381:uCOS-III\Source/os_task.c ****     if (time_quanta == (OS_TICK)0) {
 382:uCOS-III\Source/os_task.c ****         p_tcb->TimeQuantaCtr = OSSchedRoundRobinDfltTimeQuanta;
 383:uCOS-III\Source/os_task.c ****     } else {
 384:uCOS-III\Source/os_task.c ****         p_tcb->TimeQuantaCtr = time_quanta;
 385:uCOS-III\Source/os_task.c ****     }
 386:uCOS-III\Source/os_task.c **** #endif
 387:uCOS-III\Source/os_task.c ****     p_tcb->ExtPtr        = p_ext;                           /* Save pointer to TCB extension       
 388:uCOS-III\Source/os_task.c ****     p_tcb->StkBasePtr    = p_stk_base;                      /* Save pointer to the base address of 
 389:uCOS-III\Source/os_task.c ****     p_tcb->StkSize       = stk_size;                        /* Save the stack size (in number of CP
 390:uCOS-III\Source/os_task.c ****     p_tcb->Opt           = opt;                             /* Save task options                   
 391:uCOS-III\Source/os_task.c **** 
 392:uCOS-III\Source/os_task.c **** #if OS_CFG_TASK_REG_TBL_SIZE > 0u
 393:uCOS-III\Source/os_task.c ****     for (reg_nbr = 0u; reg_nbr < OS_CFG_TASK_REG_TBL_SIZE; reg_nbr++) {
 394:uCOS-III\Source/os_task.c ****         p_tcb->RegTbl[reg_nbr] = (OS_REG)0;
 395:uCOS-III\Source/os_task.c ****     }
 396:uCOS-III\Source/os_task.c **** #endif
 397:uCOS-III\Source/os_task.c **** 
 398:uCOS-III\Source/os_task.c **** #if OS_CFG_TASK_Q_EN > 0u
 399:uCOS-III\Source/os_task.c ****     OS_MsgQInit(&p_tcb->MsgQ,                               /* Initialize the task's message queue 
 400:uCOS-III\Source/os_task.c ****                 q_size);
 401:uCOS-III\Source/os_task.c **** #else
 402:uCOS-III\Source/os_task.c ****     (void)&q_size;
 403:uCOS-III\Source/os_task.c **** #endif
 404:uCOS-III\Source/os_task.c **** 
 405:uCOS-III\Source/os_task.c ****     OSTaskCreateHook(p_tcb);                                /* Call user defined hook              
 406:uCOS-III\Source/os_task.c **** 
 407:uCOS-III\Source/os_task.c **** #if defined(OS_CFG_TLS_TBL_SIZE) && (OS_CFG_TLS_TBL_SIZE > 0u)
 408:uCOS-III\Source/os_task.c ****     for (id = 0u; id < OS_CFG_TLS_TBL_SIZE; id++) {
 409:uCOS-III\Source/os_task.c ****         p_tcb->TLS_Tbl[id] = (OS_TLS)0;
 410:uCOS-III\Source/os_task.c ****     }
 411:uCOS-III\Source/os_task.c ****     OS_TLS_TaskCreate(p_tcb);                               /* Call TLS hook                       
 412:uCOS-III\Source/os_task.c **** #endif
 413:uCOS-III\Source/os_task.c ****                                                             /* --------------- ADD TASK TO READY LI
 414:uCOS-III\Source/os_task.c ****     OS_CRITICAL_ENTER();
 415:uCOS-III\Source/os_task.c ****     OS_PrioInsert(p_tcb->Prio);
 416:uCOS-III\Source/os_task.c ****     OS_RdyListInsertTail(p_tcb);
 417:uCOS-III\Source/os_task.c **** 
 418:uCOS-III\Source/os_task.c **** #if OS_CFG_DBG_EN > 0u
 419:uCOS-III\Source/os_task.c ****     OS_TaskDbgListAdd(p_tcb);
 420:uCOS-III\Source/os_task.c **** #endif
 421:uCOS-III\Source/os_task.c **** 
ARM GAS  C:\Users\jorti\AppData\Local\Temp\ccDtGf1z.s 			page 12


 422:uCOS-III\Source/os_task.c ****     OSTaskQty++;                                            /* Increment the #tasks counter        
 423:uCOS-III\Source/os_task.c **** 
 424:uCOS-III\Source/os_task.c ****     if (OSRunning != OS_STATE_OS_RUNNING) {                 /* Return if multitasking has not start
 425:uCOS-III\Source/os_task.c ****         OS_CRITICAL_EXIT();
 426:uCOS-III\Source/os_task.c ****         return;
 427:uCOS-III\Source/os_task.c ****     }
 428:uCOS-III\Source/os_task.c **** 
 429:uCOS-III\Source/os_task.c ****     OS_CRITICAL_EXIT_NO_SCHED();
 430:uCOS-III\Source/os_task.c **** 
 431:uCOS-III\Source/os_task.c ****     OSSched();
 432:uCOS-III\Source/os_task.c **** }
 433:uCOS-III\Source/os_task.c **** 
 434:uCOS-III\Source/os_task.c **** /*$PAGE*/
 435:uCOS-III\Source/os_task.c **** /*
 436:uCOS-III\Source/os_task.c **** ***************************************************************************************************
 437:uCOS-III\Source/os_task.c **** *                                                     DELETE A TASK
 438:uCOS-III\Source/os_task.c **** *
 439:uCOS-III\Source/os_task.c **** * Description: This function allows you to delete a task.  The calling task can delete itself by sp
 440:uCOS-III\Source/os_task.c **** *              pointer for 'p_tcb'.  The deleted task is returned to the dormant state and can be r
 441:uCOS-III\Source/os_task.c **** *              creating the deleted task again.
 442:uCOS-III\Source/os_task.c **** *
 443:uCOS-III\Source/os_task.c **** * Arguments  : p_tcb      is the TCB of the tack to delete
 444:uCOS-III\Source/os_task.c **** *
 445:uCOS-III\Source/os_task.c **** *              p_err      is a pointer to an error code returned by this function:
 446:uCOS-III\Source/os_task.c **** *
 447:uCOS-III\Source/os_task.c **** *                             OS_ERR_NONE                  if the call is successful
 448:uCOS-III\Source/os_task.c **** *                             OS_ERR_STATE_INVALID         if the state of the task is invalid
 449:uCOS-III\Source/os_task.c **** *                             OS_ERR_TASK_DEL_IDLE         if you attempted to delete uC/OS-III's i
 450:uCOS-III\Source/os_task.c **** *                             OS_ERR_TASK_DEL_INVALID      if you attempted to delete uC/OS-III's I
 451:uCOS-III\Source/os_task.c **** *                             OS_ERR_TASK_DEL_ISR          if you tried to delete a task from an IS
 452:uCOS-III\Source/os_task.c **** *
 453:uCOS-III\Source/os_task.c **** * Note(s)    : 1) 'p_err' gets set to OS_ERR_NONE before OSSched() to allow the returned error code
 454:uCOS-III\Source/os_task.c **** *                 for a task that is deleting itself. In this case, 'p_err' MUST point to a global 
 455:uCOS-III\Source/os_task.c **** *                 accessed by another task.
 456:uCOS-III\Source/os_task.c **** ***************************************************************************************************
 457:uCOS-III\Source/os_task.c **** */
 458:uCOS-III\Source/os_task.c **** 
 459:uCOS-III\Source/os_task.c **** #if OS_CFG_TASK_DEL_EN > 0u
 460:uCOS-III\Source/os_task.c **** void  OSTaskDel (OS_TCB  *p_tcb,
 461:uCOS-III\Source/os_task.c ****                  OS_ERR  *p_err)
 462:uCOS-III\Source/os_task.c **** {
 463:uCOS-III\Source/os_task.c ****     CPU_SR_ALLOC();
 464:uCOS-III\Source/os_task.c **** 
 465:uCOS-III\Source/os_task.c **** 
 466:uCOS-III\Source/os_task.c **** 
 467:uCOS-III\Source/os_task.c **** #ifdef OS_SAFETY_CRITICAL
 468:uCOS-III\Source/os_task.c ****     if (p_err == (OS_ERR *)0) {
 469:uCOS-III\Source/os_task.c ****         OS_SAFETY_CRITICAL_EXCEPTION();
 470:uCOS-III\Source/os_task.c ****         return;
 471:uCOS-III\Source/os_task.c ****     }
 472:uCOS-III\Source/os_task.c **** #endif
 473:uCOS-III\Source/os_task.c **** 
 474:uCOS-III\Source/os_task.c **** #if OS_CFG_CALLED_FROM_ISR_CHK_EN > 0u
 475:uCOS-III\Source/os_task.c ****     if (OSIntNestingCtr > (OS_NESTING_CTR)0) {              /* See if trying to delete from ISR    
 476:uCOS-III\Source/os_task.c ****        *p_err = OS_ERR_TASK_DEL_ISR;
 477:uCOS-III\Source/os_task.c ****         return;
 478:uCOS-III\Source/os_task.c ****     }
ARM GAS  C:\Users\jorti\AppData\Local\Temp\ccDtGf1z.s 			page 13


 479:uCOS-III\Source/os_task.c **** #endif
 480:uCOS-III\Source/os_task.c **** 
 481:uCOS-III\Source/os_task.c ****     if (p_tcb == &OSIdleTaskTCB) {                          /* Not allowed to delete the idle task 
 482:uCOS-III\Source/os_task.c ****        *p_err = OS_ERR_TASK_DEL_IDLE;
 483:uCOS-III\Source/os_task.c ****         return;
 484:uCOS-III\Source/os_task.c ****     }
 485:uCOS-III\Source/os_task.c **** 
 486:uCOS-III\Source/os_task.c **** #if OS_CFG_ISR_POST_DEFERRED_EN > 0u
 487:uCOS-III\Source/os_task.c ****     if (p_tcb == &OSIntQTaskTCB) {                          /* Cannot delete the ISR handler task  
 488:uCOS-III\Source/os_task.c ****        *p_err = OS_ERR_TASK_DEL_INVALID;
 489:uCOS-III\Source/os_task.c ****         return;
 490:uCOS-III\Source/os_task.c ****     }
 491:uCOS-III\Source/os_task.c **** #endif
 492:uCOS-III\Source/os_task.c **** 
 493:uCOS-III\Source/os_task.c ****     if (p_tcb == (OS_TCB *)0) {                             /* Delete 'Self'?                      
 494:uCOS-III\Source/os_task.c ****         CPU_CRITICAL_ENTER();
 495:uCOS-III\Source/os_task.c ****         p_tcb  = OSTCBCurPtr;                               /* Yes.                                
 496:uCOS-III\Source/os_task.c ****         CPU_CRITICAL_EXIT();
 497:uCOS-III\Source/os_task.c ****     }
 498:uCOS-III\Source/os_task.c **** 
 499:uCOS-III\Source/os_task.c ****     OS_CRITICAL_ENTER();
 500:uCOS-III\Source/os_task.c ****     switch (p_tcb->TaskState) {
 501:uCOS-III\Source/os_task.c ****         case OS_TASK_STATE_RDY:
 502:uCOS-III\Source/os_task.c ****              OS_RdyListRemove(p_tcb);
 503:uCOS-III\Source/os_task.c ****              break;
 504:uCOS-III\Source/os_task.c **** 
 505:uCOS-III\Source/os_task.c ****         case OS_TASK_STATE_SUSPENDED:
 506:uCOS-III\Source/os_task.c ****              break;
 507:uCOS-III\Source/os_task.c **** 
 508:uCOS-III\Source/os_task.c ****         case OS_TASK_STATE_DLY:                             /* Task is only delayed, not on any wai
 509:uCOS-III\Source/os_task.c ****         case OS_TASK_STATE_DLY_SUSPENDED:
 510:uCOS-III\Source/os_task.c ****              OS_TickListRemove(p_tcb);
 511:uCOS-III\Source/os_task.c ****              break;
 512:uCOS-III\Source/os_task.c **** 
 513:uCOS-III\Source/os_task.c ****         case OS_TASK_STATE_PEND:
 514:uCOS-III\Source/os_task.c ****         case OS_TASK_STATE_PEND_SUSPENDED:
 515:uCOS-III\Source/os_task.c ****         case OS_TASK_STATE_PEND_TIMEOUT:
 516:uCOS-III\Source/os_task.c ****         case OS_TASK_STATE_PEND_TIMEOUT_SUSPENDED:
 517:uCOS-III\Source/os_task.c ****              OS_TickListRemove(p_tcb);
 518:uCOS-III\Source/os_task.c ****              switch (p_tcb->PendOn) {                       /* See what we are pending on          
 519:uCOS-III\Source/os_task.c ****                  case OS_TASK_PEND_ON_NOTHING:
 520:uCOS-III\Source/os_task.c ****                  case OS_TASK_PEND_ON_TASK_Q:               /* There is no wait list for these two 
 521:uCOS-III\Source/os_task.c ****                  case OS_TASK_PEND_ON_TASK_SEM:
 522:uCOS-III\Source/os_task.c ****                       break;
 523:uCOS-III\Source/os_task.c **** 
 524:uCOS-III\Source/os_task.c ****                  case OS_TASK_PEND_ON_FLAG:                 /* Remove from wait list               
 525:uCOS-III\Source/os_task.c ****                  case OS_TASK_PEND_ON_MULTI:
 526:uCOS-III\Source/os_task.c ****                  case OS_TASK_PEND_ON_MUTEX:
 527:uCOS-III\Source/os_task.c ****                  case OS_TASK_PEND_ON_Q:
 528:uCOS-III\Source/os_task.c ****                  case OS_TASK_PEND_ON_SEM:
 529:uCOS-III\Source/os_task.c ****                       OS_PendListRemove(p_tcb);
 530:uCOS-III\Source/os_task.c ****                       break;
 531:uCOS-III\Source/os_task.c **** 
 532:uCOS-III\Source/os_task.c ****                  default:
 533:uCOS-III\Source/os_task.c ****                       break;
 534:uCOS-III\Source/os_task.c ****              }
 535:uCOS-III\Source/os_task.c ****              break;
ARM GAS  C:\Users\jorti\AppData\Local\Temp\ccDtGf1z.s 			page 14


 536:uCOS-III\Source/os_task.c **** 
 537:uCOS-III\Source/os_task.c ****         default:
 538:uCOS-III\Source/os_task.c ****             OS_CRITICAL_EXIT();
 539:uCOS-III\Source/os_task.c ****            *p_err = OS_ERR_STATE_INVALID;
 540:uCOS-III\Source/os_task.c ****             return;
 541:uCOS-III\Source/os_task.c ****     }
 542:uCOS-III\Source/os_task.c **** 
 543:uCOS-III\Source/os_task.c **** #if OS_CFG_TASK_Q_EN > 0u
 544:uCOS-III\Source/os_task.c ****     (void)OS_MsgQFreeAll(&p_tcb->MsgQ);                     /* Free task's message queue messages  
 545:uCOS-III\Source/os_task.c **** #endif
 546:uCOS-III\Source/os_task.c **** 
 547:uCOS-III\Source/os_task.c ****     OSTaskDelHook(p_tcb);                                   /* Call user defined hook              
 548:uCOS-III\Source/os_task.c **** 
 549:uCOS-III\Source/os_task.c **** #if defined(OS_CFG_TLS_TBL_SIZE) && (OS_CFG_TLS_TBL_SIZE > 0u)
 550:uCOS-III\Source/os_task.c ****     OS_TLS_TaskDel(p_tcb);                                  /* Call TLS hook                       
 551:uCOS-III\Source/os_task.c **** #endif
 552:uCOS-III\Source/os_task.c **** 
 553:uCOS-III\Source/os_task.c **** #if OS_CFG_DBG_EN > 0u
 554:uCOS-III\Source/os_task.c ****     OS_TaskDbgListRemove(p_tcb);
 555:uCOS-III\Source/os_task.c **** #endif
 556:uCOS-III\Source/os_task.c ****     OSTaskQty--;                                            /* One less task being managed         
 557:uCOS-III\Source/os_task.c **** 
 558:uCOS-III\Source/os_task.c ****     OS_TaskInitTCB(p_tcb);                                  /* Initialize the TCB to default values
 559:uCOS-III\Source/os_task.c ****     p_tcb->TaskState = (OS_STATE)OS_TASK_STATE_DEL;         /* Indicate that the task was deleted  
 560:uCOS-III\Source/os_task.c **** 
 561:uCOS-III\Source/os_task.c ****     OS_CRITICAL_EXIT_NO_SCHED();
 562:uCOS-III\Source/os_task.c **** 
 563:uCOS-III\Source/os_task.c ****    *p_err = OS_ERR_NONE;                                    /* See Note #1.                        
 564:uCOS-III\Source/os_task.c **** 
 565:uCOS-III\Source/os_task.c ****     OSSched();                                              /* Find new highest priority task      
 566:uCOS-III\Source/os_task.c **** }
 567:uCOS-III\Source/os_task.c **** #endif
 568:uCOS-III\Source/os_task.c **** 
 569:uCOS-III\Source/os_task.c **** /*$PAGE*/
 570:uCOS-III\Source/os_task.c **** /*
 571:uCOS-III\Source/os_task.c **** ***************************************************************************************************
 572:uCOS-III\Source/os_task.c **** *                                                    FLUSH TASK's QUEUE
 573:uCOS-III\Source/os_task.c **** *
 574:uCOS-III\Source/os_task.c **** * Description: This function is used to flush the task's internal message queue.
 575:uCOS-III\Source/os_task.c **** *
 576:uCOS-III\Source/os_task.c **** * Arguments  : p_tcb       is a pointer to the task's OS_TCB.  Specifying a NULL pointer indicates 
 577:uCOS-III\Source/os_task.c **** *                          flush the message queue of the calling task.
 578:uCOS-III\Source/os_task.c **** *
 579:uCOS-III\Source/os_task.c **** *              p_err       is a pointer to a variable that will contain an error code returned by t
 580:uCOS-III\Source/os_task.c **** *
 581:uCOS-III\Source/os_task.c **** *                              OS_ERR_NONE           upon success
 582:uCOS-III\Source/os_task.c **** *                              OS_ERR_FLUSH_ISR      if you called this function from an ISR
 583:uCOS-III\Source/os_task.c **** *
 584:uCOS-III\Source/os_task.c **** * Returns     : The number of entries freed from the queue
 585:uCOS-III\Source/os_task.c **** *
 586:uCOS-III\Source/os_task.c **** * Note(s)     : 1) You should use this function with great care because, when to flush the queue, y
 587:uCOS-III\Source/os_task.c **** *                  references to what the queue entries are pointing to and thus, you could cause '
 588:uCOS-III\Source/os_task.c **** *                  other words, the data you are pointing to that's being referenced by the queue e
 589:uCOS-III\Source/os_task.c **** *                  likely, need to be de-allocated (i.e. freed).
 590:uCOS-III\Source/os_task.c **** ***************************************************************************************************
 591:uCOS-III\Source/os_task.c **** */
 592:uCOS-III\Source/os_task.c **** 
ARM GAS  C:\Users\jorti\AppData\Local\Temp\ccDtGf1z.s 			page 15


 593:uCOS-III\Source/os_task.c **** #if OS_CFG_TASK_Q_EN > 0u
 594:uCOS-III\Source/os_task.c **** OS_MSG_QTY  OSTaskQFlush (OS_TCB  *p_tcb,
 595:uCOS-III\Source/os_task.c ****                           OS_ERR  *p_err)
 596:uCOS-III\Source/os_task.c **** {
 207              		.loc 1 596 0
 208              		.cfi_startproc
 209              		@ args = 0, pretend = 0, frame = 0
 210              		@ frame_needed = 0, uses_anonymous_args = 0
 211              	.LVL23:
 212 0000 70B5     		push	{r4, r5, r6, lr}
 213              		.cfi_def_cfa_offset 16
 214              		.cfi_offset 4, -16
 215              		.cfi_offset 5, -12
 216              		.cfi_offset 6, -8
 217              		.cfi_offset 14, -4
 218 0002 0D46     		mov	r5, r1
 219              	.LVL24:
 597:uCOS-III\Source/os_task.c ****     OS_MSG_QTY  entries;
 598:uCOS-III\Source/os_task.c ****     CPU_SR_ALLOC();
 599:uCOS-III\Source/os_task.c **** 
 600:uCOS-III\Source/os_task.c **** 
 601:uCOS-III\Source/os_task.c **** 
 602:uCOS-III\Source/os_task.c **** #ifdef OS_SAFETY_CRITICAL
 603:uCOS-III\Source/os_task.c ****     if (p_err == (OS_ERR *)0) {
 604:uCOS-III\Source/os_task.c ****         OS_SAFETY_CRITICAL_EXCEPTION();
 605:uCOS-III\Source/os_task.c ****         return ((OS_MSG_QTY)0);
 606:uCOS-III\Source/os_task.c ****     }
 607:uCOS-III\Source/os_task.c **** #endif
 608:uCOS-III\Source/os_task.c **** 
 609:uCOS-III\Source/os_task.c **** #if OS_CFG_CALLED_FROM_ISR_CHK_EN > 0u
 610:uCOS-III\Source/os_task.c ****     if (OSIntNestingCtr > (OS_NESTING_CTR)0) {              /* Can't flush a message queue from an 
 220              		.loc 1 610 0
 221 0004 0F4B     		ldr	r3, .L25
 222 0006 1B78     		ldrb	r3, [r3]	@ zero_extendqisi2
 223 0008 23B1     		cbz	r3, .L21
 611:uCOS-III\Source/os_task.c ****        *p_err = OS_ERR_FLUSH_ISR;
 224              		.loc 1 611 0
 225 000a 4FF46C53 		mov	r3, #15104
 226 000e 0B80     		strh	r3, [r1]	@ movhi
 612:uCOS-III\Source/os_task.c ****         return ((OS_MSG_QTY)0);
 227              		.loc 1 612 0
 228 0010 0020     		movs	r0, #0
 229              	.LVL25:
 230 0012 70BD     		pop	{r4, r5, r6, pc}
 231              	.LVL26:
 232              	.L21:
 233 0014 0446     		mov	r4, r0
 613:uCOS-III\Source/os_task.c ****     }
 614:uCOS-III\Source/os_task.c **** #endif
 615:uCOS-III\Source/os_task.c **** 
 616:uCOS-III\Source/os_task.c ****     if (p_tcb == (OS_TCB *)0) {                             /* Flush message queue of calling task?
 234              		.loc 1 616 0
 235 0016 28B9     		cbnz	r0, .L23
 617:uCOS-III\Source/os_task.c ****         CPU_CRITICAL_ENTER();
 236              		.loc 1 617 0
 237 0018 FFF7FEFF 		bl	CPU_SR_Save
 238              	.LVL27:
ARM GAS  C:\Users\jorti\AppData\Local\Temp\ccDtGf1z.s 			page 16


 618:uCOS-III\Source/os_task.c ****         p_tcb = OSTCBCurPtr;
 239              		.loc 1 618 0
 240 001c 0A4B     		ldr	r3, .L25+4
 241 001e 1C68     		ldr	r4, [r3]
 242              	.LVL28:
 619:uCOS-III\Source/os_task.c ****         CPU_CRITICAL_EXIT();
 243              		.loc 1 619 0
 244 0020 FFF7FEFF 		bl	CPU_SR_Restore
 245              	.LVL29:
 246              	.L23:
 620:uCOS-III\Source/os_task.c ****     }
 621:uCOS-III\Source/os_task.c **** 
 622:uCOS-III\Source/os_task.c ****     OS_CRITICAL_ENTER();
 247              		.loc 1 622 0
 248 0024 FFF7FEFF 		bl	CPU_SR_Save
 249              	.LVL30:
 250 0028 0646     		mov	r6, r0
 251              	.LVL31:
 623:uCOS-III\Source/os_task.c ****     entries = OS_MsgQFreeAll(&p_tcb->MsgQ);                 /* Return all OS_MSGs to the OS_MSG poo
 252              		.loc 1 623 0
 253 002a 04F16400 		add	r0, r4, #100
 254              	.LVL32:
 255 002e FFF7FEFF 		bl	OS_MsgQFreeAll
 256              	.LVL33:
 257 0032 0446     		mov	r4, r0
 258              	.LVL34:
 624:uCOS-III\Source/os_task.c ****     OS_CRITICAL_EXIT();
 259              		.loc 1 624 0
 260 0034 3046     		mov	r0, r6
 261 0036 FFF7FEFF 		bl	CPU_SR_Restore
 262              	.LVL35:
 625:uCOS-III\Source/os_task.c ****    *p_err   = OS_ERR_NONE;
 263              		.loc 1 625 0
 264 003a 0023     		movs	r3, #0
 265 003c 2B80     		strh	r3, [r5]	@ movhi
 626:uCOS-III\Source/os_task.c ****     return (entries);
 266              		.loc 1 626 0
 267 003e 2046     		mov	r0, r4
 627:uCOS-III\Source/os_task.c **** }
 268              		.loc 1 627 0
 269 0040 70BD     		pop	{r4, r5, r6, pc}
 270              	.LVL36:
 271              	.L26:
 272 0042 00BF     		.align	2
 273              	.L25:
 274 0044 00000000 		.word	OSIntNestingCtr
 275 0048 00000000 		.word	OSTCBCurPtr
 276              		.cfi_endproc
 277              	.LFE4:
 278              		.size	OSTaskQFlush, .-OSTaskQFlush
 279              		.section	.text.OSTaskQPend,"ax",%progbits
 280              		.align	2
 281              		.global	OSTaskQPend
 282              		.thumb
 283              		.thumb_func
 284              		.type	OSTaskQPend, %function
 285              	OSTaskQPend:
ARM GAS  C:\Users\jorti\AppData\Local\Temp\ccDtGf1z.s 			page 17


 286              	.LFB5:
 628:uCOS-III\Source/os_task.c **** #endif
 629:uCOS-III\Source/os_task.c **** 
 630:uCOS-III\Source/os_task.c **** /*$PAGE*/
 631:uCOS-III\Source/os_task.c **** /*
 632:uCOS-III\Source/os_task.c **** ***************************************************************************************************
 633:uCOS-III\Source/os_task.c **** *                                                  WAIT FOR A MESSAGE
 634:uCOS-III\Source/os_task.c **** *
 635:uCOS-III\Source/os_task.c **** * Description: This function causes the current task to wait for a message to be posted to it.
 636:uCOS-III\Source/os_task.c **** *
 637:uCOS-III\Source/os_task.c **** * Arguments  : timeout       is an optional timeout period (in clock ticks).  If non-zero, your tas
 638:uCOS-III\Source/os_task.c **** *                            message to arrive up to the amount of time specified by this argument.
 639:uCOS-III\Source/os_task.c **** *                            If you specify 0, however, your task will wait forever or, until a mes
 640:uCOS-III\Source/os_task.c **** *
 641:uCOS-III\Source/os_task.c **** *              opt           determines whether the user wants to block if the task's queue is empt
 642:uCOS-III\Source/os_task.c **** *
 643:uCOS-III\Source/os_task.c **** *                                OS_OPT_PEND_BLOCKING
 644:uCOS-III\Source/os_task.c **** *                                OS_OPT_PEND_NON_BLOCKING
 645:uCOS-III\Source/os_task.c **** *
 646:uCOS-III\Source/os_task.c **** *              p_msg_size    is a pointer to a variable that will receive the size of the message
 647:uCOS-III\Source/os_task.c **** *
 648:uCOS-III\Source/os_task.c **** *              p_ts          is a pointer to a variable that will receive the timestamp of when the
 649:uCOS-III\Source/os_task.c **** *                            received.  If you pass a NULL pointer (i.e. (CPU_TS *)0) then you will
 650:uCOS-III\Source/os_task.c **** *                            timestamp.  In other words, passing a NULL pointer is valid and indica
 651:uCOS-III\Source/os_task.c **** *                            need the timestamp.
 652:uCOS-III\Source/os_task.c **** *
 653:uCOS-III\Source/os_task.c **** *              p_err         is a pointer to where an error message will be deposited.  Possible er
 654:uCOS-III\Source/os_task.c **** *                            messages are:
 655:uCOS-III\Source/os_task.c **** *
 656:uCOS-III\Source/os_task.c **** *                                OS_ERR_NONE               The call was successful and your task re
 657:uCOS-III\Source/os_task.c **** *                                OS_ERR_PEND_ABORT
 658:uCOS-III\Source/os_task.c **** *                                OS_ERR_PEND_ISR           If you called this function from an ISR 
 659:uCOS-III\Source/os_task.c **** *                                OS_ERR_PEND_WOULD_BLOCK   If you specified non-blocking but the qu
 660:uCOS-III\Source/os_task.c **** *                                OS_ERR_Q_EMPTY
 661:uCOS-III\Source/os_task.c **** *                                OS_ERR_SCHED_LOCKED       If the scheduler is locked
 662:uCOS-III\Source/os_task.c **** *                                OS_ERR_TIMEOUT            A message was not received within the sp
 663:uCOS-III\Source/os_task.c **** *                                                          would lead to a suspension.
 664:uCOS-III\Source/os_task.c **** *
 665:uCOS-III\Source/os_task.c **** * Returns    : A pointer to the message received or a NULL pointer upon error.
 666:uCOS-III\Source/os_task.c **** *
 667:uCOS-III\Source/os_task.c **** * Note(s)    : 1) It is possible to receive NULL pointers when there are no errors.
 668:uCOS-III\Source/os_task.c **** ***************************************************************************************************
 669:uCOS-III\Source/os_task.c **** */
 670:uCOS-III\Source/os_task.c **** 
 671:uCOS-III\Source/os_task.c **** #if OS_CFG_TASK_Q_EN > 0u
 672:uCOS-III\Source/os_task.c **** void  *OSTaskQPend (OS_TICK       timeout,
 673:uCOS-III\Source/os_task.c ****                     OS_OPT        opt,
 674:uCOS-III\Source/os_task.c ****                     OS_MSG_SIZE  *p_msg_size,
 675:uCOS-III\Source/os_task.c ****                     CPU_TS       *p_ts,
 676:uCOS-III\Source/os_task.c ****                     OS_ERR       *p_err)
 677:uCOS-III\Source/os_task.c **** {
 287              		.loc 1 677 0
 288              		.cfi_startproc
 289              		@ args = 4, pretend = 0, frame = 0
 290              		@ frame_needed = 0, uses_anonymous_args = 0
 291              	.LVL37:
 292 0000 2DE9F047 		push	{r4, r5, r6, r7, r8, r9, r10, lr}
ARM GAS  C:\Users\jorti\AppData\Local\Temp\ccDtGf1z.s 			page 18


 293              		.cfi_def_cfa_offset 32
 294              		.cfi_offset 4, -32
 295              		.cfi_offset 5, -28
 296              		.cfi_offset 6, -24
 297              		.cfi_offset 7, -20
 298              		.cfi_offset 8, -16
 299              		.cfi_offset 9, -12
 300              		.cfi_offset 10, -8
 301              		.cfi_offset 14, -4
 302 0004 089F     		ldr	r7, [sp, #32]
 303              	.LVL38:
 678:uCOS-III\Source/os_task.c ****     OS_MSG_Q     *p_msg_q;
 679:uCOS-III\Source/os_task.c ****     void         *p_void;
 680:uCOS-III\Source/os_task.c ****     CPU_SR_ALLOC();
 681:uCOS-III\Source/os_task.c **** 
 682:uCOS-III\Source/os_task.c **** 
 683:uCOS-III\Source/os_task.c **** 
 684:uCOS-III\Source/os_task.c **** #ifdef OS_SAFETY_CRITICAL
 685:uCOS-III\Source/os_task.c ****     if (p_err == (OS_ERR *)0) {
 686:uCOS-III\Source/os_task.c ****         OS_SAFETY_CRITICAL_EXCEPTION();
 687:uCOS-III\Source/os_task.c ****         return ((void *)0);
 688:uCOS-III\Source/os_task.c ****     }
 689:uCOS-III\Source/os_task.c **** #endif
 690:uCOS-III\Source/os_task.c **** 
 691:uCOS-III\Source/os_task.c **** #if OS_CFG_CALLED_FROM_ISR_CHK_EN > 0u
 692:uCOS-III\Source/os_task.c ****     if (OSIntNestingCtr > (OS_NESTING_CTR)0) {              /* Can't Pend from an ISR              
 304              		.loc 1 692 0
 305 0006 534C     		ldr	r4, .L47
 306 0008 2478     		ldrb	r4, [r4]	@ zero_extendqisi2
 307 000a 2CB1     		cbz	r4, .L28
 693:uCOS-III\Source/os_task.c ****        *p_err = OS_ERR_PEND_ISR;
 308              		.loc 1 693 0
 309 000c 46F2AE13 		movw	r3, #25006
 310              	.LVL39:
 311 0010 3B80     		strh	r3, [r7]	@ movhi
 694:uCOS-III\Source/os_task.c ****         return ((void *)0);
 312              		.loc 1 694 0
 313 0012 0020     		movs	r0, #0
 314              	.LVL40:
 315 0014 BDE8F087 		pop	{r4, r5, r6, r7, r8, r9, r10, pc}
 316              	.LVL41:
 317              	.L28:
 695:uCOS-III\Source/os_task.c ****     }
 696:uCOS-III\Source/os_task.c **** #endif
 697:uCOS-III\Source/os_task.c **** 
 698:uCOS-III\Source/os_task.c **** #if OS_CFG_ARG_CHK_EN > 0u                                  /* ---------------- VALIDATE ARGUMENTS 
 699:uCOS-III\Source/os_task.c ****     if (p_msg_size == (OS_MSG_SIZE *)0) {                   /* User must supply a valid destination
 318              		.loc 1 699 0
 319 0018 2AB9     		cbnz	r2, .L30
 700:uCOS-III\Source/os_task.c ****        *p_err = OS_ERR_PTR_INVALID;
 320              		.loc 1 700 0
 321 001a 46F2D523 		movw	r3, #25301
 322              	.LVL42:
 323 001e 3B80     		strh	r3, [r7]	@ movhi
 701:uCOS-III\Source/os_task.c ****         return ((void *)0);
 324              		.loc 1 701 0
 325 0020 0020     		movs	r0, #0
ARM GAS  C:\Users\jorti\AppData\Local\Temp\ccDtGf1z.s 			page 19


 326              	.LVL43:
 327 0022 BDE8F087 		pop	{r4, r5, r6, r7, r8, r9, r10, pc}
 328              	.LVL44:
 329              	.L30:
 702:uCOS-III\Source/os_task.c ****     }
 703:uCOS-III\Source/os_task.c ****     switch (opt) {                                          /* User must supply a valid option     
 330              		.loc 1 703 0
 331 0026 41B1     		cbz	r1, .L32
 332 0028 B1F5004F 		cmp	r1, #32768
 333 002c 05D0     		beq	.L32
 704:uCOS-III\Source/os_task.c ****         case OS_OPT_PEND_BLOCKING:
 705:uCOS-III\Source/os_task.c ****         case OS_OPT_PEND_NON_BLOCKING:
 706:uCOS-III\Source/os_task.c ****              break;
 707:uCOS-III\Source/os_task.c **** 
 708:uCOS-III\Source/os_task.c ****         default:
 709:uCOS-III\Source/os_task.c ****             *p_err = OS_ERR_OPT_INVALID;
 334              		.loc 1 709 0
 335 002e 45F62563 		movw	r3, #24101
 336              	.LVL45:
 337 0032 3B80     		strh	r3, [r7]	@ movhi
 710:uCOS-III\Source/os_task.c ****              return ((void *)0);
 338              		.loc 1 710 0
 339 0034 0020     		movs	r0, #0
 340              	.LVL46:
 341 0036 BDE8F087 		pop	{r4, r5, r6, r7, r8, r9, r10, pc}
 342              	.LVL47:
 343              	.L32:
 711:uCOS-III\Source/os_task.c ****     }
 712:uCOS-III\Source/os_task.c **** #endif
 713:uCOS-III\Source/os_task.c **** 
 714:uCOS-III\Source/os_task.c ****     if (p_ts != (CPU_TS *)0) {
 344              		.loc 1 714 0
 345 003a 0BB1     		cbz	r3, .L33
 715:uCOS-III\Source/os_task.c ****        *p_ts  = (CPU_TS  )0;                                /* Initialize the returned timestamp   
 346              		.loc 1 715 0
 347 003c 0024     		movs	r4, #0
 348 003e 1C60     		str	r4, [r3]
 349              	.L33:
 350 0040 1D46     		mov	r5, r3
 351 0042 9046     		mov	r8, r2
 352 0044 0E46     		mov	r6, r1
 353 0046 8146     		mov	r9, r0
 716:uCOS-III\Source/os_task.c ****     }
 717:uCOS-III\Source/os_task.c **** 
 718:uCOS-III\Source/os_task.c ****     CPU_CRITICAL_ENTER();
 354              		.loc 1 718 0
 355 0048 FFF7FEFF 		bl	CPU_SR_Save
 356              	.LVL48:
 357 004c 8246     		mov	r10, r0
 358              	.LVL49:
 719:uCOS-III\Source/os_task.c ****     p_msg_q = &OSTCBCurPtr->MsgQ;                           /* Any message waiting in the message q
 359              		.loc 1 719 0
 360 004e 424B     		ldr	r3, .L47+4
 361 0050 1868     		ldr	r0, [r3]
 362              	.LVL50:
 720:uCOS-III\Source/os_task.c ****     p_void  = OS_MsgQGet(p_msg_q,
 363              		.loc 1 720 0
ARM GAS  C:\Users\jorti\AppData\Local\Temp\ccDtGf1z.s 			page 20


 364 0052 3B46     		mov	r3, r7
 365 0054 2A46     		mov	r2, r5
 366 0056 4146     		mov	r1, r8
 367 0058 6430     		adds	r0, r0, #100
 368              	.LVL51:
 369 005a FFF7FEFF 		bl	OS_MsgQGet
 370              	.LVL52:
 371 005e 0446     		mov	r4, r0
 372              	.LVL53:
 721:uCOS-III\Source/os_task.c ****                          p_msg_size,
 722:uCOS-III\Source/os_task.c ****                          p_ts,
 723:uCOS-III\Source/os_task.c ****                          p_err);
 724:uCOS-III\Source/os_task.c ****     if (*p_err == OS_ERR_NONE) {
 373              		.loc 1 724 0
 374 0060 3B88     		ldrh	r3, [r7]
 375 0062 9BB9     		cbnz	r3, .L34
 725:uCOS-III\Source/os_task.c **** #if OS_CFG_TASK_PROFILE_EN > 0u
 726:uCOS-III\Source/os_task.c ****         if (p_ts != (CPU_TS *)0) {
 376              		.loc 1 726 0
 377 0064 65B1     		cbz	r5, .L35
 727:uCOS-III\Source/os_task.c ****             OSTCBCurPtr->MsgQPendTime = OS_TS_GET() - *p_ts;
 378              		.loc 1 727 0
 379 0066 3C4E     		ldr	r6, .L47+4
 380 0068 3768     		ldr	r7, [r6]
 381 006a FFF7FEFF 		bl	CPU_TS_TmrRd
 382              	.LVL54:
 383 006e 2B68     		ldr	r3, [r5]
 384 0070 C01A     		subs	r0, r0, r3
 385 0072 7867     		str	r0, [r7, #116]
 728:uCOS-III\Source/os_task.c ****             if (OSTCBCurPtr->MsgQPendTimeMax < OSTCBCurPtr->MsgQPendTime) {
 386              		.loc 1 728 0
 387 0074 3368     		ldr	r3, [r6]
 388 0076 996F     		ldr	r1, [r3, #120]
 389 0078 5A6F     		ldr	r2, [r3, #116]
 390 007a 9142     		cmp	r1, r2
 391 007c 00D2     		bcs	.L35
 729:uCOS-III\Source/os_task.c ****                 OSTCBCurPtr->MsgQPendTimeMax = OSTCBCurPtr->MsgQPendTime;
 392              		.loc 1 729 0
 393 007e 9A67     		str	r2, [r3, #120]
 394              	.L35:
 730:uCOS-III\Source/os_task.c ****             }
 731:uCOS-III\Source/os_task.c ****         }
 732:uCOS-III\Source/os_task.c **** #endif
 733:uCOS-III\Source/os_task.c ****         CPU_CRITICAL_EXIT();
 395              		.loc 1 733 0
 396 0080 5046     		mov	r0, r10
 397 0082 FFF7FEFF 		bl	CPU_SR_Restore
 398              	.LVL55:
 734:uCOS-III\Source/os_task.c ****         return (p_void);                                    /* Yes, Return oldest message received 
 399              		.loc 1 734 0
 400 0086 2046     		mov	r0, r4
 401 0088 BDE8F087 		pop	{r4, r5, r6, r7, r8, r9, r10, pc}
 402              	.LVL56:
 403              	.L34:
 735:uCOS-III\Source/os_task.c ****     }
 736:uCOS-III\Source/os_task.c **** 
 737:uCOS-III\Source/os_task.c ****     if ((opt & OS_OPT_PEND_NON_BLOCKING) != (OS_OPT)0) {    /* Caller wants to block if not availab
ARM GAS  C:\Users\jorti\AppData\Local\Temp\ccDtGf1z.s 			page 21


 404              		.loc 1 737 0
 405 008c 16F4004F 		tst	r6, #32768
 406 0090 08D0     		beq	.L36
 738:uCOS-III\Source/os_task.c ****        *p_err = OS_ERR_PEND_WOULD_BLOCK;                    /* No                                  
 407              		.loc 1 738 0
 408 0092 46F2B013 		movw	r3, #25008
 409 0096 3B80     		strh	r3, [r7]	@ movhi
 739:uCOS-III\Source/os_task.c ****         CPU_CRITICAL_EXIT();
 410              		.loc 1 739 0
 411 0098 5046     		mov	r0, r10
 412              	.LVL57:
 413 009a FFF7FEFF 		bl	CPU_SR_Restore
 414              	.LVL58:
 740:uCOS-III\Source/os_task.c ****         return ((void *)0);
 415              		.loc 1 740 0
 416 009e 0020     		movs	r0, #0
 417 00a0 BDE8F087 		pop	{r4, r5, r6, r7, r8, r9, r10, pc}
 418              	.LVL59:
 419              	.L36:
 741:uCOS-III\Source/os_task.c ****     } else {                                                /* Yes                                 
 742:uCOS-III\Source/os_task.c ****         if (OSSchedLockNestingCtr > (OS_NESTING_CTR)0) {    /*     Can't block when the scheduler i
 420              		.loc 1 742 0
 421 00a4 2D4B     		ldr	r3, .L47+8
 422 00a6 1B78     		ldrb	r3, [r3]	@ zero_extendqisi2
 423 00a8 43B1     		cbz	r3, .L37
 743:uCOS-III\Source/os_task.c ****             CPU_CRITICAL_EXIT();
 424              		.loc 1 743 0
 425 00aa 5046     		mov	r0, r10
 426              	.LVL60:
 427 00ac FFF7FEFF 		bl	CPU_SR_Restore
 428              	.LVL61:
 744:uCOS-III\Source/os_task.c ****            *p_err = OS_ERR_SCHED_LOCKED;
 429              		.loc 1 744 0
 430 00b0 46F66353 		movw	r3, #28003
 431 00b4 3B80     		strh	r3, [r7]	@ movhi
 745:uCOS-III\Source/os_task.c ****             return ((void *)0);
 432              		.loc 1 745 0
 433 00b6 0020     		movs	r0, #0
 434 00b8 BDE8F087 		pop	{r4, r5, r6, r7, r8, r9, r10, pc}
 435              	.LVL62:
 436              	.L37:
 746:uCOS-III\Source/os_task.c ****         }
 747:uCOS-III\Source/os_task.c ****     }
 748:uCOS-III\Source/os_task.c ****                                                             /* Lock the scheduler/re-enable interru
 749:uCOS-III\Source/os_task.c ****     OS_CRITICAL_ENTER_CPU_EXIT();
 750:uCOS-III\Source/os_task.c ****     OS_Pend((OS_PEND_DATA *)0,                              /* Block task pending on Message       
 437              		.loc 1 750 0
 438 00bc 4B46     		mov	r3, r9
 439 00be 0222     		movs	r2, #2
 440 00c0 0021     		movs	r1, #0
 441 00c2 0846     		mov	r0, r1
 442              	.LVL63:
 443 00c4 FFF7FEFF 		bl	OS_Pend
 444              	.LVL64:
 751:uCOS-III\Source/os_task.c ****             (OS_PEND_OBJ  *)0,
 752:uCOS-III\Source/os_task.c ****             (OS_STATE      )OS_TASK_PEND_ON_TASK_Q,
 753:uCOS-III\Source/os_task.c ****             (OS_TICK       )timeout);
ARM GAS  C:\Users\jorti\AppData\Local\Temp\ccDtGf1z.s 			page 22


 754:uCOS-III\Source/os_task.c ****     OS_CRITICAL_EXIT_NO_SCHED();
 445              		.loc 1 754 0
 446 00c8 5046     		mov	r0, r10
 447 00ca FFF7FEFF 		bl	CPU_SR_Restore
 448              	.LVL65:
 755:uCOS-III\Source/os_task.c **** 
 756:uCOS-III\Source/os_task.c ****     OSSched();                                              /* Find the next highest priority task 
 449              		.loc 1 756 0
 450 00ce FFF7FEFF 		bl	OSSched
 451              	.LVL66:
 757:uCOS-III\Source/os_task.c **** 
 758:uCOS-III\Source/os_task.c ****     CPU_CRITICAL_ENTER();
 452              		.loc 1 758 0
 453 00d2 FFF7FEFF 		bl	CPU_SR_Save
 454              	.LVL67:
 455 00d6 0646     		mov	r6, r0
 456              	.LVL68:
 759:uCOS-III\Source/os_task.c ****     switch (OSTCBCurPtr->PendStatus) {
 457              		.loc 1 759 0
 458 00d8 1F4B     		ldr	r3, .L47+4
 459 00da 1B68     		ldr	r3, [r3]
 460 00dc 93F83520 		ldrb	r2, [r3, #53]	@ zero_extendqisi2
 461 00e0 12B1     		cbz	r2, .L39
 462 00e2 012A     		cmp	r2, #1
 463 00e4 1AD0     		beq	.L40
 464 00e6 23E0     		b	.L45
 465              	.L39:
 760:uCOS-III\Source/os_task.c ****         case OS_STATUS_PEND_OK:                             /* Extract message from TCB (Put there 
 761:uCOS-III\Source/os_task.c ****              p_void      = OSTCBCurPtr->MsgPtr;
 466              		.loc 1 761 0
 467 00e8 DC6D     		ldr	r4, [r3, #92]
 468              	.LVL69:
 762:uCOS-III\Source/os_task.c ****             *p_msg_size  = OSTCBCurPtr->MsgSize;
 469              		.loc 1 762 0
 470 00ea B3F86030 		ldrh	r3, [r3, #96]
 471 00ee A8F80030 		strh	r3, [r8]	@ movhi
 763:uCOS-III\Source/os_task.c ****              if (p_ts != (CPU_TS *)0) {
 472              		.loc 1 763 0
 473 00f2 85B1     		cbz	r5, .L41
 764:uCOS-III\Source/os_task.c ****                 *p_ts  = OSTCBCurPtr->TS;
 474              		.loc 1 764 0
 475 00f4 DFF86080 		ldr	r8, .L47+4
 476              	.LVL70:
 477 00f8 D8F80030 		ldr	r3, [r8]
 478 00fc 1B6C     		ldr	r3, [r3, #64]
 479 00fe 2B60     		str	r3, [r5]
 765:uCOS-III\Source/os_task.c **** #if OS_CFG_TASK_PROFILE_EN > 0u
 766:uCOS-III\Source/os_task.c ****                 OSTCBCurPtr->MsgQPendTime = OS_TS_GET() - OSTCBCurPtr->TS;
 480              		.loc 1 766 0
 481 0100 FFF7FEFF 		bl	CPU_TS_TmrRd
 482              	.LVL71:
 483 0104 D8F80020 		ldr	r2, [r8]
 484 0108 136C     		ldr	r3, [r2, #64]
 485 010a C01A     		subs	r0, r0, r3
 486 010c 5067     		str	r0, [r2, #116]
 767:uCOS-III\Source/os_task.c ****                 if (OSTCBCurPtr->MsgQPendTimeMax < OSTCBCurPtr->MsgQPendTime) {
 487              		.loc 1 767 0
ARM GAS  C:\Users\jorti\AppData\Local\Temp\ccDtGf1z.s 			page 23


 488 010e 936F     		ldr	r3, [r2, #120]
 489 0110 9842     		cmp	r0, r3
 490 0112 00D9     		bls	.L41
 768:uCOS-III\Source/os_task.c ****                     OSTCBCurPtr->MsgQPendTimeMax = OSTCBCurPtr->MsgQPendTime;
 491              		.loc 1 768 0
 492 0114 9067     		str	r0, [r2, #120]
 493              	.L41:
 769:uCOS-III\Source/os_task.c ****                 }
 770:uCOS-III\Source/os_task.c **** #endif
 771:uCOS-III\Source/os_task.c ****              }
 772:uCOS-III\Source/os_task.c ****             *p_err = OS_ERR_NONE;
 494              		.loc 1 772 0
 495 0116 0023     		movs	r3, #0
 496 0118 3B80     		strh	r3, [r7]	@ movhi
 773:uCOS-III\Source/os_task.c ****              break;
 497              		.loc 1 773 0
 498 011a 15E0     		b	.L42
 499              	.LVL72:
 500              	.L40:
 774:uCOS-III\Source/os_task.c **** 
 775:uCOS-III\Source/os_task.c ****         case OS_STATUS_PEND_ABORT:                          /* Indicate that we aborted            
 776:uCOS-III\Source/os_task.c ****              p_void     = (void      *)0;
 777:uCOS-III\Source/os_task.c ****             *p_msg_size = (OS_MSG_SIZE)0;
 501              		.loc 1 777 0
 502 011c 0023     		movs	r3, #0
 503 011e A8F80030 		strh	r3, [r8]	@ movhi
 778:uCOS-III\Source/os_task.c ****              if (p_ts  != (CPU_TS *)0) {
 504              		.loc 1 778 0
 505 0122 05B1     		cbz	r5, .L43
 779:uCOS-III\Source/os_task.c ****                 *p_ts   = (CPU_TS  )0;
 506              		.loc 1 779 0
 507 0124 2B60     		str	r3, [r5]
 508              	.L43:
 780:uCOS-III\Source/os_task.c ****              }
 781:uCOS-III\Source/os_task.c ****             *p_err      =  OS_ERR_PEND_ABORT;
 509              		.loc 1 781 0
 510 0126 46F2A913 		movw	r3, #25001
 511 012a 3B80     		strh	r3, [r7]	@ movhi
 776:uCOS-III\Source/os_task.c ****             *p_msg_size = (OS_MSG_SIZE)0;
 512              		.loc 1 776 0
 513 012c 0024     		movs	r4, #0
 782:uCOS-III\Source/os_task.c ****              break;
 514              		.loc 1 782 0
 515 012e 0BE0     		b	.L42
 516              	.LVL73:
 517              	.L45:
 783:uCOS-III\Source/os_task.c **** 
 784:uCOS-III\Source/os_task.c ****         case OS_STATUS_PEND_TIMEOUT:                        /* Indicate that we didn't get event wi
 785:uCOS-III\Source/os_task.c ****         default:
 786:uCOS-III\Source/os_task.c ****              p_void     = (void      *)0;
 787:uCOS-III\Source/os_task.c ****             *p_msg_size = (OS_MSG_SIZE)0;
 518              		.loc 1 787 0
 519 0130 0023     		movs	r3, #0
 520 0132 A8F80030 		strh	r3, [r8]	@ movhi
 788:uCOS-III\Source/os_task.c ****              if (p_ts  != (CPU_TS *)0) {
 521              		.loc 1 788 0
 522 0136 1DB1     		cbz	r5, .L44
ARM GAS  C:\Users\jorti\AppData\Local\Temp\ccDtGf1z.s 			page 24


 789:uCOS-III\Source/os_task.c ****                 *p_ts   =  OSTCBCurPtr->TS;
 523              		.loc 1 789 0
 524 0138 074B     		ldr	r3, .L47+4
 525 013a 1B68     		ldr	r3, [r3]
 526 013c 1B6C     		ldr	r3, [r3, #64]
 527 013e 2B60     		str	r3, [r5]
 528              	.L44:
 790:uCOS-III\Source/os_task.c ****              }
 791:uCOS-III\Source/os_task.c ****             *p_err      =  OS_ERR_TIMEOUT;
 529              		.loc 1 791 0
 530 0140 47F2D923 		movw	r3, #29401
 531 0144 3B80     		strh	r3, [r7]	@ movhi
 786:uCOS-III\Source/os_task.c ****             *p_msg_size = (OS_MSG_SIZE)0;
 532              		.loc 1 786 0
 533 0146 0024     		movs	r4, #0
 534              	.LVL74:
 535              	.L42:
 792:uCOS-III\Source/os_task.c ****              break;
 793:uCOS-III\Source/os_task.c ****     }
 794:uCOS-III\Source/os_task.c ****     CPU_CRITICAL_EXIT();
 536              		.loc 1 794 0
 537 0148 3046     		mov	r0, r6
 538 014a FFF7FEFF 		bl	CPU_SR_Restore
 539              	.LVL75:
 795:uCOS-III\Source/os_task.c ****     return (p_void);                                        /* Return received message             
 540              		.loc 1 795 0
 541 014e 2046     		mov	r0, r4
 796:uCOS-III\Source/os_task.c **** }
 542              		.loc 1 796 0
 543 0150 BDE8F087 		pop	{r4, r5, r6, r7, r8, r9, r10, pc}
 544              	.LVL76:
 545              	.L48:
 546              		.align	2
 547              	.L47:
 548 0154 00000000 		.word	OSIntNestingCtr
 549 0158 00000000 		.word	OSTCBCurPtr
 550 015c 00000000 		.word	OSSchedLockNestingCtr
 551              		.cfi_endproc
 552              	.LFE5:
 553              		.size	OSTaskQPend, .-OSTaskQPend
 554              		.section	.text.OSTaskQPendAbort,"ax",%progbits
 555              		.align	2
 556              		.global	OSTaskQPendAbort
 557              		.thumb
 558              		.thumb_func
 559              		.type	OSTaskQPendAbort, %function
 560              	OSTaskQPendAbort:
 561              	.LFB6:
 797:uCOS-III\Source/os_task.c **** #endif
 798:uCOS-III\Source/os_task.c **** 
 799:uCOS-III\Source/os_task.c **** /*$PAGE*/
 800:uCOS-III\Source/os_task.c **** /*
 801:uCOS-III\Source/os_task.c **** ***************************************************************************************************
 802:uCOS-III\Source/os_task.c **** *                                              ABORT WAITING FOR A MESSAGE
 803:uCOS-III\Source/os_task.c **** *
 804:uCOS-III\Source/os_task.c **** * Description: This function aborts & readies the task specified.  This function should be used to 
 805:uCOS-III\Source/os_task.c **** *              for a message, rather than to normally post the message to the task via OSTaskQPost(
ARM GAS  C:\Users\jorti\AppData\Local\Temp\ccDtGf1z.s 			page 25


 806:uCOS-III\Source/os_task.c **** *
 807:uCOS-III\Source/os_task.c **** * Arguments  : p_tcb     is a pointer to the task to pend abort
 808:uCOS-III\Source/os_task.c **** *
 809:uCOS-III\Source/os_task.c **** *              opt       provides options for this function:
 810:uCOS-III\Source/os_task.c **** *
 811:uCOS-III\Source/os_task.c **** *                            OS_OPT_POST_NONE         No option specified
 812:uCOS-III\Source/os_task.c **** *                            OS_OPT_POST_NO_SCHED     Indicates that the scheduler will not be call
 813:uCOS-III\Source/os_task.c **** *
 814:uCOS-III\Source/os_task.c **** *              p_err     is a pointer to a variable that will contain an error code returned by thi
 815:uCOS-III\Source/os_task.c **** *
 816:uCOS-III\Source/os_task.c **** *                            OS_ERR_NONE              If the task was readied and informed of the a
 817:uCOS-III\Source/os_task.c **** *                            OS_ERR_PEND_ABORT_ISR    If you called this function from an ISR
 818:uCOS-III\Source/os_task.c **** *                            OS_ERR_PEND_ABORT_NONE   If task was not pending on a message and thus
 819:uCOS-III\Source/os_task.c **** *                                                     abort.
 820:uCOS-III\Source/os_task.c **** *                            OS_ERR_PEND_ABORT_SELF   If you passed a NULL pointer for 'p_tcb'
 821:uCOS-III\Source/os_task.c **** *
 822:uCOS-III\Source/os_task.c **** * Returns    : == DEF_FALSE   if task was not waiting for a message, or upon error.
 823:uCOS-III\Source/os_task.c **** *              == DEF_TRUE    if task was waiting for a message and was readied and informed.
 824:uCOS-III\Source/os_task.c **** ***************************************************************************************************
 825:uCOS-III\Source/os_task.c **** */
 826:uCOS-III\Source/os_task.c **** 
 827:uCOS-III\Source/os_task.c **** #if (OS_CFG_TASK_Q_EN > 0u) && (OS_CFG_TASK_Q_PEND_ABORT_EN > 0u)
 828:uCOS-III\Source/os_task.c **** CPU_BOOLEAN  OSTaskQPendAbort (OS_TCB  *p_tcb,
 829:uCOS-III\Source/os_task.c ****                                OS_OPT   opt,
 830:uCOS-III\Source/os_task.c ****                                OS_ERR  *p_err)
 831:uCOS-III\Source/os_task.c **** {
 562              		.loc 1 831 0
 563              		.cfi_startproc
 564              		@ args = 0, pretend = 0, frame = 0
 565              		@ frame_needed = 0, uses_anonymous_args = 0
 566              	.LVL77:
 567 0000 2DE9F041 		push	{r4, r5, r6, r7, r8, lr}
 568              		.cfi_def_cfa_offset 24
 569              		.cfi_offset 4, -24
 570              		.cfi_offset 5, -20
 571              		.cfi_offset 6, -16
 572              		.cfi_offset 7, -12
 573              		.cfi_offset 8, -8
 574              		.cfi_offset 14, -4
 575              	.LVL78:
 832:uCOS-III\Source/os_task.c ****     CPU_TS         ts;
 833:uCOS-III\Source/os_task.c ****     CPU_SR_ALLOC();
 834:uCOS-III\Source/os_task.c **** 
 835:uCOS-III\Source/os_task.c **** 
 836:uCOS-III\Source/os_task.c **** 
 837:uCOS-III\Source/os_task.c **** #ifdef OS_SAFETY_CRITICAL
 838:uCOS-III\Source/os_task.c ****     if (p_err == (OS_ERR *)0) {
 839:uCOS-III\Source/os_task.c ****         OS_SAFETY_CRITICAL_EXCEPTION();
 840:uCOS-III\Source/os_task.c ****         return (DEF_FALSE);
 841:uCOS-III\Source/os_task.c ****     }
 842:uCOS-III\Source/os_task.c **** #endif
 843:uCOS-III\Source/os_task.c **** 
 844:uCOS-III\Source/os_task.c **** #if OS_CFG_CALLED_FROM_ISR_CHK_EN > 0u
 845:uCOS-III\Source/os_task.c ****     if (OSIntNestingCtr > (OS_NESTING_CTR)0) {              /* See if called from ISR ...          
 576              		.loc 1 845 0
 577 0004 204B     		ldr	r3, .L59
 578 0006 1C78     		ldrb	r4, [r3]	@ zero_extendqisi2
ARM GAS  C:\Users\jorti\AppData\Local\Temp\ccDtGf1z.s 			page 26


 579 0008 24B1     		cbz	r4, .L50
 846:uCOS-III\Source/os_task.c ****        *p_err = OS_ERR_PEND_ABORT_ISR;                      /* ... can't Pend Abort from an ISR    
 580              		.loc 1 846 0
 581 000a 46F2AA13 		movw	r3, #25002
 582 000e 1380     		strh	r3, [r2]	@ movhi
 847:uCOS-III\Source/os_task.c ****         return (DEF_FALSE);
 583              		.loc 1 847 0
 584 0010 0024     		movs	r4, #0
 585 0012 35E0     		b	.L51
 586              	.L50:
 848:uCOS-III\Source/os_task.c ****     }
 849:uCOS-III\Source/os_task.c **** #endif
 850:uCOS-III\Source/os_task.c **** 
 851:uCOS-III\Source/os_task.c **** #if OS_CFG_ARG_CHK_EN > 0u                                  /* ---------------- VALIDATE ARGUMENTS 
 852:uCOS-III\Source/os_task.c ****     switch (opt) {                                          /* User must supply a valid option     
 587              		.loc 1 852 0
 588 0014 31B1     		cbz	r1, .L53
 589 0016 B1F5004F 		cmp	r1, #32768
 590 001a 03D0     		beq	.L53
 853:uCOS-III\Source/os_task.c ****         case OS_OPT_POST_NONE:
 854:uCOS-III\Source/os_task.c ****         case OS_OPT_POST_NO_SCHED:
 855:uCOS-III\Source/os_task.c ****              break;
 856:uCOS-III\Source/os_task.c **** 
 857:uCOS-III\Source/os_task.c ****         default:
 858:uCOS-III\Source/os_task.c ****             *p_err = OS_ERR_OPT_INVALID;
 591              		.loc 1 858 0
 592 001c 45F62563 		movw	r3, #24101
 593 0020 1380     		strh	r3, [r2]	@ movhi
 859:uCOS-III\Source/os_task.c ****              return (DEF_FALSE);
 594              		.loc 1 859 0
 595 0022 2DE0     		b	.L51
 596              	.L53:
 597 0024 1746     		mov	r7, r2
 598 0026 0D46     		mov	r5, r1
 599 0028 0646     		mov	r6, r0
 860:uCOS-III\Source/os_task.c ****     }
 861:uCOS-III\Source/os_task.c **** #endif
 862:uCOS-III\Source/os_task.c **** 
 863:uCOS-III\Source/os_task.c ****     CPU_CRITICAL_ENTER();
 600              		.loc 1 863 0
 601 002a FFF7FEFF 		bl	CPU_SR_Save
 602              	.LVL79:
 603 002e 8046     		mov	r8, r0
 604              	.LVL80:
 864:uCOS-III\Source/os_task.c **** #if OS_CFG_ARG_CHK_EN > 0u
 865:uCOS-III\Source/os_task.c ****     if ((p_tcb == (OS_TCB *)0) ||                           /* Pend abort self?                    
 605              		.loc 1 865 0
 606 0030 1EB1     		cbz	r6, .L54
 866:uCOS-III\Source/os_task.c ****         (p_tcb == OSTCBCurPtr)) {
 607              		.loc 1 866 0 discriminator 1
 608 0032 164B     		ldr	r3, .L59+4
 609 0034 1B68     		ldr	r3, [r3]
 865:uCOS-III\Source/os_task.c ****         (p_tcb == OSTCBCurPtr)) {
 610              		.loc 1 865 0 discriminator 1
 611 0036 9E42     		cmp	r6, r3
 612 0038 06D1     		bne	.L55
 613              	.L54:
ARM GAS  C:\Users\jorti\AppData\Local\Temp\ccDtGf1z.s 			page 27


 867:uCOS-III\Source/os_task.c ****         CPU_CRITICAL_EXIT();
 614              		.loc 1 867 0
 615 003a 4046     		mov	r0, r8
 616              	.LVL81:
 617 003c FFF7FEFF 		bl	CPU_SR_Restore
 618              	.LVL82:
 868:uCOS-III\Source/os_task.c ****        *p_err = OS_ERR_PEND_ABORT_SELF;                     /* ... doesn't make sense              
 619              		.loc 1 868 0
 620 0040 46F2AC13 		movw	r3, #25004
 621 0044 3B80     		strh	r3, [r7]	@ movhi
 869:uCOS-III\Source/os_task.c ****         return (DEF_FALSE);
 622              		.loc 1 869 0
 623 0046 1BE0     		b	.L51
 624              	.LVL83:
 625              	.L55:
 870:uCOS-III\Source/os_task.c ****     }
 871:uCOS-III\Source/os_task.c **** #endif
 872:uCOS-III\Source/os_task.c **** 
 873:uCOS-III\Source/os_task.c ****     if (p_tcb->PendOn != OS_TASK_PEND_ON_TASK_Q) {          /* Is task waiting for a message?      
 626              		.loc 1 873 0
 627 0048 96F83430 		ldrb	r3, [r6, #52]	@ zero_extendqisi2
 628 004c 022B     		cmp	r3, #2
 629 004e 05D0     		beq	.L56
 874:uCOS-III\Source/os_task.c ****         CPU_CRITICAL_EXIT();                                /* No                                  
 630              		.loc 1 874 0
 631 0050 FFF7FEFF 		bl	CPU_SR_Restore
 632              	.LVL84:
 875:uCOS-III\Source/os_task.c ****        *p_err = OS_ERR_PEND_ABORT_NONE;
 633              		.loc 1 875 0
 634 0054 46F2AB13 		movw	r3, #25003
 635 0058 3B80     		strh	r3, [r7]	@ movhi
 876:uCOS-III\Source/os_task.c ****         return (DEF_FALSE);
 636              		.loc 1 876 0
 637 005a 11E0     		b	.L51
 638              	.LVL85:
 639              	.L56:
 877:uCOS-III\Source/os_task.c ****     }
 878:uCOS-III\Source/os_task.c **** 
 879:uCOS-III\Source/os_task.c ****     OS_CRITICAL_ENTER_CPU_EXIT();
 880:uCOS-III\Source/os_task.c ****     ts = OS_TS_GET();                                       /* Get timestamp of when the abort occu
 640              		.loc 1 880 0
 641 005c FFF7FEFF 		bl	CPU_TS_TmrRd
 642              	.LVL86:
 881:uCOS-III\Source/os_task.c ****     OS_PendAbort((OS_PEND_OBJ *)0,                          /* Abort the pend                      
 643              		.loc 1 881 0
 644 0060 0246     		mov	r2, r0
 645 0062 3146     		mov	r1, r6
 646 0064 0020     		movs	r0, #0
 647              	.LVL87:
 648 0066 FFF7FEFF 		bl	OS_PendAbort
 649              	.LVL88:
 882:uCOS-III\Source/os_task.c ****                  p_tcb,
 883:uCOS-III\Source/os_task.c ****                  ts);
 884:uCOS-III\Source/os_task.c ****     OS_CRITICAL_EXIT_NO_SCHED();
 650              		.loc 1 884 0
 651 006a 4046     		mov	r0, r8
 652 006c FFF7FEFF 		bl	CPU_SR_Restore
ARM GAS  C:\Users\jorti\AppData\Local\Temp\ccDtGf1z.s 			page 28


 653              	.LVL89:
 885:uCOS-III\Source/os_task.c ****     if ((opt & OS_OPT_POST_NO_SCHED) == (OS_OPT)0) {
 654              		.loc 1 885 0
 655 0070 15F4004F 		tst	r5, #32768
 656 0074 01D1     		bne	.L57
 886:uCOS-III\Source/os_task.c ****         OSSched();                                          /* Run the scheduler                   
 657              		.loc 1 886 0
 658 0076 FFF7FEFF 		bl	OSSched
 659              	.LVL90:
 660              	.L57:
 887:uCOS-III\Source/os_task.c ****     }
 888:uCOS-III\Source/os_task.c ****    *p_err = OS_ERR_NONE;
 661              		.loc 1 888 0
 662 007a 0023     		movs	r3, #0
 663 007c 3B80     		strh	r3, [r7]	@ movhi
 889:uCOS-III\Source/os_task.c ****     return (DEF_TRUE);
 664              		.loc 1 889 0
 665 007e 0124     		movs	r4, #1
 666              	.LVL91:
 667              	.L51:
 890:uCOS-III\Source/os_task.c **** }
 668              		.loc 1 890 0
 669 0080 2046     		mov	r0, r4
 670 0082 BDE8F081 		pop	{r4, r5, r6, r7, r8, pc}
 671              	.L60:
 672 0086 00BF     		.align	2
 673              	.L59:
 674 0088 00000000 		.word	OSIntNestingCtr
 675 008c 00000000 		.word	OSTCBCurPtr
 676              		.cfi_endproc
 677              	.LFE6:
 678              		.size	OSTaskQPendAbort, .-OSTaskQPendAbort
 679              		.section	.text.OSTaskRegGet,"ax",%progbits
 680              		.align	2
 681              		.global	OSTaskRegGet
 682              		.thumb
 683              		.thumb_func
 684              		.type	OSTaskRegGet, %function
 685              	OSTaskRegGet:
 686              	.LFB8:
 891:uCOS-III\Source/os_task.c **** #endif
 892:uCOS-III\Source/os_task.c **** 
 893:uCOS-III\Source/os_task.c **** /*$PAGE*/
 894:uCOS-III\Source/os_task.c **** /*
 895:uCOS-III\Source/os_task.c **** ***************************************************************************************************
 896:uCOS-III\Source/os_task.c **** *                                               POST MESSAGE TO A TASK
 897:uCOS-III\Source/os_task.c **** *
 898:uCOS-III\Source/os_task.c **** * Description: This function sends a message to a task
 899:uCOS-III\Source/os_task.c **** *
 900:uCOS-III\Source/os_task.c **** * Arguments  : p_tcb      is a pointer to the TCB of the task receiving a message.  If you specify 
 901:uCOS-III\Source/os_task.c **** *                         the message will be posted to the task's queue of the calling task.  In o
 902:uCOS-III\Source/os_task.c **** *                         posting a message to yourself.
 903:uCOS-III\Source/os_task.c **** *
 904:uCOS-III\Source/os_task.c **** *              p_void     is a pointer to the message to send.
 905:uCOS-III\Source/os_task.c **** *
 906:uCOS-III\Source/os_task.c **** *              msg_size   is the size of the message sent (in #bytes)
 907:uCOS-III\Source/os_task.c **** *
ARM GAS  C:\Users\jorti\AppData\Local\Temp\ccDtGf1z.s 			page 29


 908:uCOS-III\Source/os_task.c **** *              opt        specifies whether the post will be FIFO or LIFO:
 909:uCOS-III\Source/os_task.c **** *
 910:uCOS-III\Source/os_task.c **** *                             OS_OPT_POST_FIFO       Post at the end   of the queue
 911:uCOS-III\Source/os_task.c **** *                             OS_OPT_POST_LIFO       Post at the front of the queue
 912:uCOS-III\Source/os_task.c **** *
 913:uCOS-III\Source/os_task.c **** *                             OS_OPT_POST_NO_SCHED   Do not run the scheduler after the post
 914:uCOS-III\Source/os_task.c **** *
 915:uCOS-III\Source/os_task.c **** *                          Note(s): 1) OS_OPT_POST_NO_SCHED can be added with one of the other opti
 916:uCOS-III\Source/os_task.c **** *
 917:uCOS-III\Source/os_task.c **** *
 918:uCOS-III\Source/os_task.c **** *              p_err      is a pointer to a variable that will hold the error code associated
 919:uCOS-III\Source/os_task.c **** *                         with the outcome of this call.  Errors can be:
 920:uCOS-III\Source/os_task.c **** *
 921:uCOS-III\Source/os_task.c **** *                             OS_ERR_NONE            The call was successful and the message was se
 922:uCOS-III\Source/os_task.c **** *                             OS_ERR_Q_MAX           If the queue is full
 923:uCOS-III\Source/os_task.c **** *                             OS_ERR_MSG_POOL_EMPTY  If there are no more OS_MSGs available from th
 924:uCOS-III\Source/os_task.c **** *
 925:uCOS-III\Source/os_task.c **** * Returns    : none
 926:uCOS-III\Source/os_task.c **** ***************************************************************************************************
 927:uCOS-III\Source/os_task.c **** */
 928:uCOS-III\Source/os_task.c **** 
 929:uCOS-III\Source/os_task.c **** #if OS_CFG_TASK_Q_EN > 0u
 930:uCOS-III\Source/os_task.c **** void  OSTaskQPost (OS_TCB       *p_tcb,
 931:uCOS-III\Source/os_task.c ****                    void         *p_void,
 932:uCOS-III\Source/os_task.c ****                    OS_MSG_SIZE   msg_size,
 933:uCOS-III\Source/os_task.c ****                    OS_OPT        opt,
 934:uCOS-III\Source/os_task.c ****                    OS_ERR       *p_err)
 935:uCOS-III\Source/os_task.c **** {
 936:uCOS-III\Source/os_task.c ****     CPU_TS   ts;
 937:uCOS-III\Source/os_task.c **** 
 938:uCOS-III\Source/os_task.c **** 
 939:uCOS-III\Source/os_task.c **** 
 940:uCOS-III\Source/os_task.c **** #ifdef OS_SAFETY_CRITICAL
 941:uCOS-III\Source/os_task.c ****     if (p_err == (OS_ERR *)0) {
 942:uCOS-III\Source/os_task.c ****         OS_SAFETY_CRITICAL_EXCEPTION();
 943:uCOS-III\Source/os_task.c ****         return;
 944:uCOS-III\Source/os_task.c ****     }
 945:uCOS-III\Source/os_task.c **** #endif
 946:uCOS-III\Source/os_task.c **** 
 947:uCOS-III\Source/os_task.c **** #if OS_CFG_ARG_CHK_EN > 0u                                  /* ---------------- VALIDATE ARGUMENTS 
 948:uCOS-III\Source/os_task.c ****     switch (opt) {                                          /* User must supply a valid option     
 949:uCOS-III\Source/os_task.c ****         case OS_OPT_POST_FIFO:
 950:uCOS-III\Source/os_task.c ****         case OS_OPT_POST_LIFO:
 951:uCOS-III\Source/os_task.c ****         case OS_OPT_POST_FIFO | OS_OPT_POST_NO_SCHED:
 952:uCOS-III\Source/os_task.c ****         case OS_OPT_POST_LIFO | OS_OPT_POST_NO_SCHED:
 953:uCOS-III\Source/os_task.c ****              break;
 954:uCOS-III\Source/os_task.c **** 
 955:uCOS-III\Source/os_task.c ****         default:
 956:uCOS-III\Source/os_task.c ****             *p_err = OS_ERR_OPT_INVALID;
 957:uCOS-III\Source/os_task.c ****              return;
 958:uCOS-III\Source/os_task.c ****     }
 959:uCOS-III\Source/os_task.c **** #endif
 960:uCOS-III\Source/os_task.c **** 
 961:uCOS-III\Source/os_task.c ****     ts = OS_TS_GET();                                       /* Get timestamp                       
 962:uCOS-III\Source/os_task.c **** 
 963:uCOS-III\Source/os_task.c **** #if OS_CFG_ISR_POST_DEFERRED_EN > 0u
 964:uCOS-III\Source/os_task.c ****     if (OSIntNestingCtr > (OS_NESTING_CTR)0) {
ARM GAS  C:\Users\jorti\AppData\Local\Temp\ccDtGf1z.s 			page 30


 965:uCOS-III\Source/os_task.c ****         OS_IntQPost((OS_OBJ_TYPE)OS_OBJ_TYPE_TASK_MSG,      /* Post to ISR queue                   
 966:uCOS-III\Source/os_task.c ****                     (void      *)p_tcb,
 967:uCOS-III\Source/os_task.c ****                     (void      *)p_void,
 968:uCOS-III\Source/os_task.c ****                     (OS_MSG_SIZE)msg_size,
 969:uCOS-III\Source/os_task.c ****                     (OS_FLAGS   )0,
 970:uCOS-III\Source/os_task.c ****                     (OS_OPT     )opt,
 971:uCOS-III\Source/os_task.c ****                     (CPU_TS     )ts,
 972:uCOS-III\Source/os_task.c ****                     (OS_ERR    *)p_err);
 973:uCOS-III\Source/os_task.c ****         return;
 974:uCOS-III\Source/os_task.c ****     }
 975:uCOS-III\Source/os_task.c **** #endif
 976:uCOS-III\Source/os_task.c **** 
 977:uCOS-III\Source/os_task.c ****     OS_TaskQPost(p_tcb,
 978:uCOS-III\Source/os_task.c ****                  p_void,
 979:uCOS-III\Source/os_task.c ****                  msg_size,
 980:uCOS-III\Source/os_task.c ****                  opt,
 981:uCOS-III\Source/os_task.c ****                  ts,
 982:uCOS-III\Source/os_task.c ****                  p_err);
 983:uCOS-III\Source/os_task.c **** }
 984:uCOS-III\Source/os_task.c **** #endif
 985:uCOS-III\Source/os_task.c **** 
 986:uCOS-III\Source/os_task.c **** /*$PAGE*/
 987:uCOS-III\Source/os_task.c **** /*
 988:uCOS-III\Source/os_task.c **** ***************************************************************************************************
 989:uCOS-III\Source/os_task.c **** *                                       GET THE CURRENT VALUE OF A TASK REGISTER
 990:uCOS-III\Source/os_task.c **** *
 991:uCOS-III\Source/os_task.c **** * Description: This function is called to obtain the current value of a task register.  Task regist
 992:uCOS-III\Source/os_task.c **** *              specific and can be used to store task specific values such as 'error numbers' (i.e.
 993:uCOS-III\Source/os_task.c **** *              etc.
 994:uCOS-III\Source/os_task.c **** *
 995:uCOS-III\Source/os_task.c **** * Arguments  : p_tcb     is a pointer to the OS_TCB of the task you want to read the register from.
 996:uCOS-III\Source/os_task.c **** *                        NULL pointer then you will get the register of the current task.
 997:uCOS-III\Source/os_task.c **** *
 998:uCOS-III\Source/os_task.c **** *              id        is the 'id' of the desired task variable.  Note that the 'id' must be less
 999:uCOS-III\Source/os_task.c **** *                        OS_CFG_TASK_REG_TBL_SIZE
1000:uCOS-III\Source/os_task.c **** *
1001:uCOS-III\Source/os_task.c **** *              p_err     is a pointer to a variable that will hold an error code related to this ca
1002:uCOS-III\Source/os_task.c **** *
1003:uCOS-III\Source/os_task.c **** *                            OS_ERR_NONE            if the call was successful
1004:uCOS-III\Source/os_task.c **** *                            OS_ERR_REG_ID_INVALID  if the 'id' is not between 0 and OS_CFG_TASK_RE
1005:uCOS-III\Source/os_task.c **** *
1006:uCOS-III\Source/os_task.c **** * Returns    : The current value of the task's register or 0 if an error is detected.
1007:uCOS-III\Source/os_task.c **** ***************************************************************************************************
1008:uCOS-III\Source/os_task.c **** */
1009:uCOS-III\Source/os_task.c **** 
1010:uCOS-III\Source/os_task.c **** #if OS_CFG_TASK_REG_TBL_SIZE > 0u
1011:uCOS-III\Source/os_task.c **** OS_REG  OSTaskRegGet (OS_TCB     *p_tcb,
1012:uCOS-III\Source/os_task.c ****                       OS_REG_ID   id,
1013:uCOS-III\Source/os_task.c ****                       OS_ERR     *p_err)
1014:uCOS-III\Source/os_task.c **** {
 687              		.loc 1 1014 0
 688              		.cfi_startproc
 689              		@ args = 0, pretend = 0, frame = 0
 690              		@ frame_needed = 0, uses_anonymous_args = 0
 691              	.LVL92:
 692 0000 70B5     		push	{r4, r5, r6, lr}
 693              		.cfi_def_cfa_offset 16
ARM GAS  C:\Users\jorti\AppData\Local\Temp\ccDtGf1z.s 			page 31


 694              		.cfi_offset 4, -16
 695              		.cfi_offset 5, -12
 696              		.cfi_offset 6, -8
 697              		.cfi_offset 14, -4
 698 0002 1646     		mov	r6, r2
 699              	.LVL93:
1015:uCOS-III\Source/os_task.c ****     OS_REG     value;
1016:uCOS-III\Source/os_task.c ****     CPU_SR_ALLOC();
1017:uCOS-III\Source/os_task.c **** 
1018:uCOS-III\Source/os_task.c **** 
1019:uCOS-III\Source/os_task.c **** 
1020:uCOS-III\Source/os_task.c **** #ifdef OS_SAFETY_CRITICAL
1021:uCOS-III\Source/os_task.c ****     if (p_err == (OS_ERR *)0) {
1022:uCOS-III\Source/os_task.c ****         OS_SAFETY_CRITICAL_EXCEPTION();
1023:uCOS-III\Source/os_task.c ****         return ((OS_REG)0);
1024:uCOS-III\Source/os_task.c ****     }
1025:uCOS-III\Source/os_task.c **** #endif
1026:uCOS-III\Source/os_task.c **** 
1027:uCOS-III\Source/os_task.c **** #if OS_CFG_ARG_CHK_EN > 0u
1028:uCOS-III\Source/os_task.c ****     if (id >= OS_CFG_TASK_REG_TBL_SIZE) {
 700              		.loc 1 1028 0
 701 0004 21B1     		cbz	r1, .L62
1029:uCOS-III\Source/os_task.c ****        *p_err = OS_ERR_REG_ID_INVALID;
 702              		.loc 1 1029 0
 703 0006 46F67913 		movw	r3, #27001
 704 000a 1380     		strh	r3, [r2]	@ movhi
1030:uCOS-III\Source/os_task.c ****         return ((OS_REG)0);
 705              		.loc 1 1030 0
 706 000c 0020     		movs	r0, #0
 707              	.LVL94:
 708 000e 70BD     		pop	{r4, r5, r6, pc}
 709              	.LVL95:
 710              	.L62:
 711 0010 0446     		mov	r4, r0
 712 0012 0D46     		mov	r5, r1
1031:uCOS-III\Source/os_task.c ****     }
1032:uCOS-III\Source/os_task.c **** #endif
1033:uCOS-III\Source/os_task.c **** 
1034:uCOS-III\Source/os_task.c ****     CPU_CRITICAL_ENTER();
 713              		.loc 1 1034 0
 714 0014 FFF7FEFF 		bl	CPU_SR_Save
 715              	.LVL96:
1035:uCOS-III\Source/os_task.c ****     if (p_tcb == (OS_TCB *)0) {
 716              		.loc 1 1035 0
 717 0018 0CB9     		cbnz	r4, .L64
1036:uCOS-III\Source/os_task.c ****         p_tcb = OSTCBCurPtr;
 718              		.loc 1 1036 0
 719 001a 064B     		ldr	r3, .L66
 720 001c 1C68     		ldr	r4, [r3]
 721              	.LVL97:
 722              	.L64:
1037:uCOS-III\Source/os_task.c ****     }
1038:uCOS-III\Source/os_task.c ****     value = p_tcb->RegTbl[id];
 723              		.loc 1 1038 0
 724 001e 1E35     		adds	r5, r5, #30
 725 0020 04EB8504 		add	r4, r4, r5, lsl #2
 726              	.LVL98:
ARM GAS  C:\Users\jorti\AppData\Local\Temp\ccDtGf1z.s 			page 32


 727 0024 6468     		ldr	r4, [r4, #4]
 728              	.LVL99:
1039:uCOS-III\Source/os_task.c ****     CPU_CRITICAL_EXIT();
 729              		.loc 1 1039 0
 730 0026 FFF7FEFF 		bl	CPU_SR_Restore
 731              	.LVL100:
1040:uCOS-III\Source/os_task.c ****    *p_err = OS_ERR_NONE;
 732              		.loc 1 1040 0
 733 002a 0023     		movs	r3, #0
 734 002c 3380     		strh	r3, [r6]	@ movhi
1041:uCOS-III\Source/os_task.c ****     return ((OS_REG)value);
 735              		.loc 1 1041 0
 736 002e 2046     		mov	r0, r4
1042:uCOS-III\Source/os_task.c **** }
 737              		.loc 1 1042 0
 738 0030 70BD     		pop	{r4, r5, r6, pc}
 739              	.LVL101:
 740              	.L67:
 741 0032 00BF     		.align	2
 742              	.L66:
 743 0034 00000000 		.word	OSTCBCurPtr
 744              		.cfi_endproc
 745              	.LFE8:
 746              		.size	OSTaskRegGet, .-OSTaskRegGet
 747              		.section	.text.OSTaskRegGetID,"ax",%progbits
 748              		.align	2
 749              		.global	OSTaskRegGetID
 750              		.thumb
 751              		.thumb_func
 752              		.type	OSTaskRegGetID, %function
 753              	OSTaskRegGetID:
 754              	.LFB9:
1043:uCOS-III\Source/os_task.c **** #endif
1044:uCOS-III\Source/os_task.c **** 
1045:uCOS-III\Source/os_task.c **** /*$PAGE*/
1046:uCOS-III\Source/os_task.c **** /*
1047:uCOS-III\Source/os_task.c **** ***************************************************************************************************
1048:uCOS-III\Source/os_task.c **** *                                    ALLOCATE THE NEXT AVAILABLE TASK REGISTER ID
1049:uCOS-III\Source/os_task.c **** *
1050:uCOS-III\Source/os_task.c **** * Description: This function is called to obtain a task register ID.  This function thus allows tas
1051:uCOS-III\Source/os_task.c **** *              allocated dynamically instead of statically.
1052:uCOS-III\Source/os_task.c **** *
1053:uCOS-III\Source/os_task.c **** * Arguments  : p_err       is a pointer to a variable that will hold an error code related to this 
1054:uCOS-III\Source/os_task.c **** *
1055:uCOS-III\Source/os_task.c **** *                            OS_ERR_NONE               if the call was successful
1056:uCOS-III\Source/os_task.c **** *                            OS_ERR_NO_MORE_ID_AVAIL   if you are attempting to assign more task re
1057:uCOS-III\Source/os_task.c **** *                                                           have available through OS_CFG_TASK_REG_
1058:uCOS-III\Source/os_task.c **** *
1059:uCOS-III\Source/os_task.c **** * Returns    : The next available task register 'id' or OS_CFG_TASK_REG_TBL_SIZE if an error is det
1060:uCOS-III\Source/os_task.c **** ***************************************************************************************************
1061:uCOS-III\Source/os_task.c **** */
1062:uCOS-III\Source/os_task.c **** 
1063:uCOS-III\Source/os_task.c **** #if OS_CFG_TASK_REG_TBL_SIZE > 0u
1064:uCOS-III\Source/os_task.c **** OS_REG_ID  OSTaskRegGetID (OS_ERR  *p_err)
1065:uCOS-III\Source/os_task.c **** {
 755              		.loc 1 1065 0
 756              		.cfi_startproc
ARM GAS  C:\Users\jorti\AppData\Local\Temp\ccDtGf1z.s 			page 33


 757              		@ args = 0, pretend = 0, frame = 0
 758              		@ frame_needed = 0, uses_anonymous_args = 0
 759              	.LVL102:
 760 0000 38B5     		push	{r3, r4, r5, lr}
 761              		.cfi_def_cfa_offset 16
 762              		.cfi_offset 3, -16
 763              		.cfi_offset 4, -12
 764              		.cfi_offset 5, -8
 765              		.cfi_offset 14, -4
 766 0002 0546     		mov	r5, r0
 767              	.LVL103:
1066:uCOS-III\Source/os_task.c ****     OS_REG_ID  id;
1067:uCOS-III\Source/os_task.c ****     CPU_SR_ALLOC();
1068:uCOS-III\Source/os_task.c **** 
1069:uCOS-III\Source/os_task.c **** 
1070:uCOS-III\Source/os_task.c **** 
1071:uCOS-III\Source/os_task.c **** #ifdef OS_SAFETY_CRITICAL
1072:uCOS-III\Source/os_task.c ****     if (p_err == (OS_ERR *)0) {
1073:uCOS-III\Source/os_task.c ****         OS_SAFETY_CRITICAL_EXCEPTION();
1074:uCOS-III\Source/os_task.c ****         return ((OS_REG_ID)OS_CFG_TASK_REG_TBL_SIZE);
1075:uCOS-III\Source/os_task.c ****     }
1076:uCOS-III\Source/os_task.c **** #endif
1077:uCOS-III\Source/os_task.c **** 
1078:uCOS-III\Source/os_task.c ****     CPU_CRITICAL_ENTER();
 768              		.loc 1 1078 0
 769 0004 FFF7FEFF 		bl	CPU_SR_Save
 770              	.LVL104:
1079:uCOS-III\Source/os_task.c ****     if (OSTaskRegNextAvailID >= OS_CFG_TASK_REG_TBL_SIZE) {       /* See if we exceeded the number 
 771              		.loc 1 1079 0
 772 0008 094B     		ldr	r3, .L72
 773 000a 1C78     		ldrb	r4, [r3]	@ zero_extendqisi2
 774 000c 34B1     		cbz	r4, .L69
1080:uCOS-III\Source/os_task.c ****        *p_err = OS_ERR_NO_MORE_ID_AVAIL;                          /* Yes, cannot allocate more task
 775              		.loc 1 1080 0
 776 000e 45F6DA13 		movw	r3, #23002
 777 0012 2B80     		strh	r3, [r5]	@ movhi
1081:uCOS-III\Source/os_task.c ****         CPU_CRITICAL_EXIT();
 778              		.loc 1 1081 0
 779 0014 FFF7FEFF 		bl	CPU_SR_Restore
 780              	.LVL105:
1082:uCOS-III\Source/os_task.c ****         return ((OS_REG_ID)OS_CFG_TASK_REG_TBL_SIZE);
 781              		.loc 1 1082 0
 782 0018 0124     		movs	r4, #1
 783 001a 06E0     		b	.L70
 784              	.LVL106:
 785              	.L69:
1083:uCOS-III\Source/os_task.c ****     }
1084:uCOS-III\Source/os_task.c ****      
1085:uCOS-III\Source/os_task.c ****     id    = OSTaskRegNextAvailID;								  /* Assign the next available ID                     */
1086:uCOS-III\Source/os_task.c ****     OSTaskRegNextAvailID++;										  /* Increment available ID for next request          */
 786              		.loc 1 1086 0
 787 001c 631C     		adds	r3, r4, #1
 788 001e 044A     		ldr	r2, .L72
 789 0020 1370     		strb	r3, [r2]
1087:uCOS-III\Source/os_task.c ****     CPU_CRITICAL_EXIT();
 790              		.loc 1 1087 0
 791 0022 FFF7FEFF 		bl	CPU_SR_Restore
ARM GAS  C:\Users\jorti\AppData\Local\Temp\ccDtGf1z.s 			page 34


 792              	.LVL107:
1088:uCOS-III\Source/os_task.c ****    *p_err = OS_ERR_NONE;
 793              		.loc 1 1088 0
 794 0026 0023     		movs	r3, #0
 795 0028 2B80     		strh	r3, [r5]	@ movhi
 796              	.LVL108:
 797              	.L70:
1089:uCOS-III\Source/os_task.c ****     return (id);
1090:uCOS-III\Source/os_task.c **** }
 798              		.loc 1 1090 0
 799 002a 2046     		mov	r0, r4
 800 002c 38BD     		pop	{r3, r4, r5, pc}
 801              	.LVL109:
 802              	.L73:
 803 002e 00BF     		.align	2
 804              	.L72:
 805 0030 00000000 		.word	OSTaskRegNextAvailID
 806              		.cfi_endproc
 807              	.LFE9:
 808              		.size	OSTaskRegGetID, .-OSTaskRegGetID
 809              		.section	.text.OSTaskRegSet,"ax",%progbits
 810              		.align	2
 811              		.global	OSTaskRegSet
 812              		.thumb
 813              		.thumb_func
 814              		.type	OSTaskRegSet, %function
 815              	OSTaskRegSet:
 816              	.LFB10:
1091:uCOS-III\Source/os_task.c **** #endif
1092:uCOS-III\Source/os_task.c **** 
1093:uCOS-III\Source/os_task.c **** /*$PAGE*/
1094:uCOS-III\Source/os_task.c **** /*
1095:uCOS-III\Source/os_task.c **** ***************************************************************************************************
1096:uCOS-III\Source/os_task.c **** *                                       SET THE CURRENT VALUE OF A TASK REGISTER
1097:uCOS-III\Source/os_task.c **** *
1098:uCOS-III\Source/os_task.c **** * Description: This function is called to change the current value of a task register.  Task regist
1099:uCOS-III\Source/os_task.c **** *              specific and can be used to store task specific values such as 'error numbers' (i.e.
1100:uCOS-III\Source/os_task.c **** *              etc.
1101:uCOS-III\Source/os_task.c **** *
1102:uCOS-III\Source/os_task.c **** * Arguments  : p_tcb     is a pointer to the OS_TCB of the task you want to set the register for.  
1103:uCOS-III\Source/os_task.c **** *                        pointer then you will change the register of the current task.
1104:uCOS-III\Source/os_task.c **** *
1105:uCOS-III\Source/os_task.c **** *              id        is the 'id' of the desired task register.  Note that the 'id' must be less
1106:uCOS-III\Source/os_task.c **** *                        OS_CFG_TASK_REG_TBL_SIZE
1107:uCOS-III\Source/os_task.c **** *
1108:uCOS-III\Source/os_task.c **** *              value     is the desired value for the task register.
1109:uCOS-III\Source/os_task.c **** *
1110:uCOS-III\Source/os_task.c **** *              p_err     is a pointer to a variable that will hold an error code related to this ca
1111:uCOS-III\Source/os_task.c **** *
1112:uCOS-III\Source/os_task.c **** *                            OS_ERR_NONE            if the call was successful
1113:uCOS-III\Source/os_task.c **** *                            OS_ERR_REG_ID_INVALID  if the 'id' is not between 0 and OS_CFG_TASK_RE
1114:uCOS-III\Source/os_task.c **** *
1115:uCOS-III\Source/os_task.c **** * Returns    : none
1116:uCOS-III\Source/os_task.c **** ***************************************************************************************************
1117:uCOS-III\Source/os_task.c **** */
1118:uCOS-III\Source/os_task.c **** 
1119:uCOS-III\Source/os_task.c **** #if OS_CFG_TASK_REG_TBL_SIZE > 0u
ARM GAS  C:\Users\jorti\AppData\Local\Temp\ccDtGf1z.s 			page 35


1120:uCOS-III\Source/os_task.c **** void  OSTaskRegSet (OS_TCB     *p_tcb,
1121:uCOS-III\Source/os_task.c ****                     OS_REG_ID   id,
1122:uCOS-III\Source/os_task.c ****                     OS_REG      value,
1123:uCOS-III\Source/os_task.c ****                     OS_ERR     *p_err)
1124:uCOS-III\Source/os_task.c **** {
 817              		.loc 1 1124 0
 818              		.cfi_startproc
 819              		@ args = 0, pretend = 0, frame = 0
 820              		@ frame_needed = 0, uses_anonymous_args = 0
 821              	.LVL110:
 822 0000 F8B5     		push	{r3, r4, r5, r6, r7, lr}
 823              		.cfi_def_cfa_offset 24
 824              		.cfi_offset 3, -24
 825              		.cfi_offset 4, -20
 826              		.cfi_offset 5, -16
 827              		.cfi_offset 6, -12
 828              		.cfi_offset 7, -8
 829              		.cfi_offset 14, -4
 830 0002 1E46     		mov	r6, r3
 831              	.LVL111:
1125:uCOS-III\Source/os_task.c ****     CPU_SR_ALLOC();
1126:uCOS-III\Source/os_task.c **** 
1127:uCOS-III\Source/os_task.c **** 
1128:uCOS-III\Source/os_task.c **** 
1129:uCOS-III\Source/os_task.c **** #ifdef OS_SAFETY_CRITICAL
1130:uCOS-III\Source/os_task.c ****     if (p_err == (OS_ERR *)0) {
1131:uCOS-III\Source/os_task.c ****         OS_SAFETY_CRITICAL_EXCEPTION();
1132:uCOS-III\Source/os_task.c ****         return;
1133:uCOS-III\Source/os_task.c ****     }
1134:uCOS-III\Source/os_task.c **** #endif
1135:uCOS-III\Source/os_task.c **** 
1136:uCOS-III\Source/os_task.c **** #if OS_CFG_ARG_CHK_EN > 0u
1137:uCOS-III\Source/os_task.c ****     if (id >= OS_CFG_TASK_REG_TBL_SIZE) {
 832              		.loc 1 1137 0
 833 0004 19B1     		cbz	r1, .L75
1138:uCOS-III\Source/os_task.c ****        *p_err = OS_ERR_REG_ID_INVALID;
 834              		.loc 1 1138 0
 835 0006 46F67913 		movw	r3, #27001
 836              	.LVL112:
 837 000a 3380     		strh	r3, [r6]	@ movhi
1139:uCOS-III\Source/os_task.c ****         return;
 838              		.loc 1 1139 0
 839 000c F8BD     		pop	{r3, r4, r5, r6, r7, pc}
 840              	.LVL113:
 841              	.L75:
 842 000e 0446     		mov	r4, r0
 843 0010 1746     		mov	r7, r2
 844 0012 0D46     		mov	r5, r1
1140:uCOS-III\Source/os_task.c ****     }
1141:uCOS-III\Source/os_task.c **** #endif
1142:uCOS-III\Source/os_task.c **** 
1143:uCOS-III\Source/os_task.c ****     CPU_CRITICAL_ENTER();
 845              		.loc 1 1143 0
 846 0014 FFF7FEFF 		bl	CPU_SR_Save
 847              	.LVL114:
1144:uCOS-III\Source/os_task.c ****     if (p_tcb == (OS_TCB *)0) {
 848              		.loc 1 1144 0
ARM GAS  C:\Users\jorti\AppData\Local\Temp\ccDtGf1z.s 			page 36


 849 0018 0CB9     		cbnz	r4, .L77
1145:uCOS-III\Source/os_task.c ****         p_tcb = OSTCBCurPtr;
 850              		.loc 1 1145 0
 851 001a 054B     		ldr	r3, .L79
 852 001c 1C68     		ldr	r4, [r3]
 853              	.LVL115:
 854              	.L77:
1146:uCOS-III\Source/os_task.c ****     }
1147:uCOS-III\Source/os_task.c ****     p_tcb->RegTbl[id] = value;
 855              		.loc 1 1147 0
 856 001e 1E35     		adds	r5, r5, #30
 857 0020 04EB8504 		add	r4, r4, r5, lsl #2
 858              	.LVL116:
 859 0024 6760     		str	r7, [r4, #4]
1148:uCOS-III\Source/os_task.c ****     CPU_CRITICAL_EXIT();
 860              		.loc 1 1148 0
 861 0026 FFF7FEFF 		bl	CPU_SR_Restore
 862              	.LVL117:
1149:uCOS-III\Source/os_task.c ****    *p_err             = OS_ERR_NONE;
 863              		.loc 1 1149 0
 864 002a 0023     		movs	r3, #0
 865 002c 3380     		strh	r3, [r6]	@ movhi
 866 002e F8BD     		pop	{r3, r4, r5, r6, r7, pc}
 867              	.LVL118:
 868              	.L80:
 869              		.align	2
 870              	.L79:
 871 0030 00000000 		.word	OSTCBCurPtr
 872              		.cfi_endproc
 873              	.LFE10:
 874              		.size	OSTaskRegSet, .-OSTaskRegSet
 875              		.section	.text.OSTaskSemPend,"ax",%progbits
 876              		.align	2
 877              		.global	OSTaskSemPend
 878              		.thumb
 879              		.thumb_func
 880              		.type	OSTaskSemPend, %function
 881              	OSTaskSemPend:
 882              	.LFB12:
1150:uCOS-III\Source/os_task.c **** }
1151:uCOS-III\Source/os_task.c **** #endif
1152:uCOS-III\Source/os_task.c **** 
1153:uCOS-III\Source/os_task.c **** /*$PAGE*/
1154:uCOS-III\Source/os_task.c **** /*
1155:uCOS-III\Source/os_task.c **** ***************************************************************************************************
1156:uCOS-III\Source/os_task.c **** *                                               RESUME A SUSPENDED TASK
1157:uCOS-III\Source/os_task.c **** *
1158:uCOS-III\Source/os_task.c **** * Description: This function is called to resume a previously suspended task.  This is the only cal
1159:uCOS-III\Source/os_task.c **** *              explicit task suspension.
1160:uCOS-III\Source/os_task.c **** *
1161:uCOS-III\Source/os_task.c **** * Arguments  : p_tcb      Is a pointer to the task's OS_TCB to resume
1162:uCOS-III\Source/os_task.c **** *
1163:uCOS-III\Source/os_task.c **** *              p_err      Is a pointer to a variable that will contain an error code returned by th
1164:uCOS-III\Source/os_task.c **** *
1165:uCOS-III\Source/os_task.c **** *                             OS_ERR_NONE                  if the requested task is resumed
1166:uCOS-III\Source/os_task.c **** *                             OS_ERR_STATE_INVALID         if the task is in an invalid state
1167:uCOS-III\Source/os_task.c **** *                             OS_ERR_TASK_RESUME_ISR       if you called this function from an ISR
ARM GAS  C:\Users\jorti\AppData\Local\Temp\ccDtGf1z.s 			page 37


1168:uCOS-III\Source/os_task.c **** *                             OS_ERR_TASK_RESUME_SELF      You cannot resume 'self'
1169:uCOS-III\Source/os_task.c **** *                             OS_ERR_TASK_NOT_SUSPENDED    if the task to resume has not been suspe
1170:uCOS-III\Source/os_task.c **** *
1171:uCOS-III\Source/os_task.c **** * Returns    : none
1172:uCOS-III\Source/os_task.c **** ***************************************************************************************************
1173:uCOS-III\Source/os_task.c **** */
1174:uCOS-III\Source/os_task.c **** 
1175:uCOS-III\Source/os_task.c **** #if OS_CFG_TASK_SUSPEND_EN > 0u
1176:uCOS-III\Source/os_task.c **** void  OSTaskResume (OS_TCB  *p_tcb,
1177:uCOS-III\Source/os_task.c ****                     OS_ERR  *p_err)
1178:uCOS-III\Source/os_task.c **** {
1179:uCOS-III\Source/os_task.c ****     CPU_SR_ALLOC();
1180:uCOS-III\Source/os_task.c **** 
1181:uCOS-III\Source/os_task.c **** 
1182:uCOS-III\Source/os_task.c **** 
1183:uCOS-III\Source/os_task.c **** #ifdef OS_SAFETY_CRITICAL
1184:uCOS-III\Source/os_task.c ****     if (p_err == (OS_ERR *)0) {
1185:uCOS-III\Source/os_task.c ****         OS_SAFETY_CRITICAL_EXCEPTION();
1186:uCOS-III\Source/os_task.c ****         return;
1187:uCOS-III\Source/os_task.c ****     }
1188:uCOS-III\Source/os_task.c **** #endif
1189:uCOS-III\Source/os_task.c **** 
1190:uCOS-III\Source/os_task.c **** #if (OS_CFG_ISR_POST_DEFERRED_EN   == 0u) && \
1191:uCOS-III\Source/os_task.c ****     (OS_CFG_CALLED_FROM_ISR_CHK_EN >  0u)
1192:uCOS-III\Source/os_task.c ****     if (OSIntNestingCtr > (OS_NESTING_CTR)0) {              /* Not allowed to call from an ISR     
1193:uCOS-III\Source/os_task.c ****        *p_err = OS_ERR_TASK_RESUME_ISR;
1194:uCOS-III\Source/os_task.c ****         return;
1195:uCOS-III\Source/os_task.c ****     }
1196:uCOS-III\Source/os_task.c **** #endif
1197:uCOS-III\Source/os_task.c **** 
1198:uCOS-III\Source/os_task.c **** 
1199:uCOS-III\Source/os_task.c ****     CPU_CRITICAL_ENTER();
1200:uCOS-III\Source/os_task.c **** #if OS_CFG_ARG_CHK_EN > 0u
1201:uCOS-III\Source/os_task.c ****     if ((p_tcb == (OS_TCB *)0) ||                           /* We cannot resume 'self'             
1202:uCOS-III\Source/os_task.c ****         (p_tcb == OSTCBCurPtr)) {
1203:uCOS-III\Source/os_task.c ****         CPU_CRITICAL_EXIT();
1204:uCOS-III\Source/os_task.c ****        *p_err  = OS_ERR_TASK_RESUME_SELF;
1205:uCOS-III\Source/os_task.c ****         return;
1206:uCOS-III\Source/os_task.c ****     }
1207:uCOS-III\Source/os_task.c **** #endif
1208:uCOS-III\Source/os_task.c ****     CPU_CRITICAL_EXIT();
1209:uCOS-III\Source/os_task.c **** 
1210:uCOS-III\Source/os_task.c **** #if OS_CFG_ISR_POST_DEFERRED_EN > 0u
1211:uCOS-III\Source/os_task.c ****     if (OSIntNestingCtr > (OS_NESTING_CTR)0) {              /* See if called from an ISR           
1212:uCOS-III\Source/os_task.c ****         OS_IntQPost((OS_OBJ_TYPE)OS_OBJ_TYPE_TASK_RESUME,   /* Post to ISR queue                   
1213:uCOS-III\Source/os_task.c ****                     (void      *)p_tcb,
1214:uCOS-III\Source/os_task.c ****                     (void      *)0,
1215:uCOS-III\Source/os_task.c ****                     (OS_MSG_SIZE)0,
1216:uCOS-III\Source/os_task.c ****                     (OS_FLAGS   )0,
1217:uCOS-III\Source/os_task.c ****                     (OS_OPT     )0,
1218:uCOS-III\Source/os_task.c ****                     (CPU_TS     )0,
1219:uCOS-III\Source/os_task.c ****                     (OS_ERR    *)p_err);
1220:uCOS-III\Source/os_task.c ****         return;
1221:uCOS-III\Source/os_task.c ****     }
1222:uCOS-III\Source/os_task.c **** #endif
1223:uCOS-III\Source/os_task.c **** 
1224:uCOS-III\Source/os_task.c ****     OS_TaskResume(p_tcb, p_err);
ARM GAS  C:\Users\jorti\AppData\Local\Temp\ccDtGf1z.s 			page 38


1225:uCOS-III\Source/os_task.c **** }
1226:uCOS-III\Source/os_task.c **** #endif
1227:uCOS-III\Source/os_task.c **** 
1228:uCOS-III\Source/os_task.c **** /*$PAGE*/
1229:uCOS-III\Source/os_task.c **** /*
1230:uCOS-III\Source/os_task.c **** ***************************************************************************************************
1231:uCOS-III\Source/os_task.c **** *                                              WAIT FOR A TASK SEMAPHORE
1232:uCOS-III\Source/os_task.c **** *
1233:uCOS-III\Source/os_task.c **** * Description: This function is called to block the current task until a signal is sent by another 
1234:uCOS-III\Source/os_task.c **** *
1235:uCOS-III\Source/os_task.c **** * Arguments  : timeout       is the amount of time you are will to wait for the signal
1236:uCOS-III\Source/os_task.c **** *
1237:uCOS-III\Source/os_task.c **** *              opt           determines whether the user wants to block if a semaphore post was not
1238:uCOS-III\Source/os_task.c **** *
1239:uCOS-III\Source/os_task.c **** *                                OS_OPT_PEND_BLOCKING
1240:uCOS-III\Source/os_task.c **** *                                OS_OPT_PEND_NON_BLOCKING
1241:uCOS-III\Source/os_task.c **** *
1242:uCOS-III\Source/os_task.c **** *              p_ts          is a pointer to a variable that will receive the timestamp of when the
1243:uCOS-III\Source/os_task.c **** *                            or pend aborted.  If you pass a NULL pointer (i.e. (CPU_TS *)0) then y
1244:uCOS-III\Source/os_task.c **** *                            timestamp.  In other words, passing a NULL pointer is valid and indica
1245:uCOS-III\Source/os_task.c **** *                            need the timestamp.
1246:uCOS-III\Source/os_task.c **** *
1247:uCOS-III\Source/os_task.c **** *              p_err         is a pointer to an error code that will be set by this function
1248:uCOS-III\Source/os_task.c **** *
1249:uCOS-III\Source/os_task.c **** *                                OS_ERR_NONE               The call was successful and your task re
1250:uCOS-III\Source/os_task.c **** *                                OS_ERR_PEND_ABORT
1251:uCOS-III\Source/os_task.c **** *                                OS_ERR_PEND_ISR           If you called this function from an ISR 
1252:uCOS-III\Source/os_task.c **** *                                OS_ERR_PEND_WOULD_BLOCK   If you specified non-blocking but no sig
1253:uCOS-III\Source/os_task.c **** *                                OS_ERR_SCHED_LOCKED       If the scheduler is locked
1254:uCOS-III\Source/os_task.c **** *                                OS_ERR_STATUS_INVALID     If the pend status is invalid
1255:uCOS-III\Source/os_task.c **** *                                OS_ERR_TIMEOUT            A message was not received within the sp
1256:uCOS-III\Source/os_task.c **** *                                                          would lead to a suspension.
1257:uCOS-III\Source/os_task.c **** *
1258:uCOS-III\Source/os_task.c **** * Returns    : The current count of signals the task received, 0 if none.
1259:uCOS-III\Source/os_task.c **** ***************************************************************************************************
1260:uCOS-III\Source/os_task.c **** */
1261:uCOS-III\Source/os_task.c **** 
1262:uCOS-III\Source/os_task.c **** OS_SEM_CTR  OSTaskSemPend (OS_TICK   timeout,
1263:uCOS-III\Source/os_task.c ****                            OS_OPT    opt,
1264:uCOS-III\Source/os_task.c ****                            CPU_TS   *p_ts,
1265:uCOS-III\Source/os_task.c ****                            OS_ERR   *p_err)
1266:uCOS-III\Source/os_task.c **** {
 883              		.loc 1 1266 0
 884              		.cfi_startproc
 885              		@ args = 0, pretend = 0, frame = 0
 886              		@ frame_needed = 0, uses_anonymous_args = 0
 887              	.LVL119:
 888 0000 2DE9F843 		push	{r3, r4, r5, r6, r7, r8, r9, lr}
 889              		.cfi_def_cfa_offset 32
 890              		.cfi_offset 3, -32
 891              		.cfi_offset 4, -28
 892              		.cfi_offset 5, -24
 893              		.cfi_offset 6, -20
 894              		.cfi_offset 7, -16
 895              		.cfi_offset 8, -12
 896              		.cfi_offset 9, -8
 897              		.cfi_offset 14, -4
ARM GAS  C:\Users\jorti\AppData\Local\Temp\ccDtGf1z.s 			page 39


 898              	.LVL120:
1267:uCOS-III\Source/os_task.c ****     OS_SEM_CTR    ctr;
1268:uCOS-III\Source/os_task.c ****     CPU_SR_ALLOC();
1269:uCOS-III\Source/os_task.c **** 
1270:uCOS-III\Source/os_task.c **** 
1271:uCOS-III\Source/os_task.c **** 
1272:uCOS-III\Source/os_task.c **** #ifdef OS_SAFETY_CRITICAL
1273:uCOS-III\Source/os_task.c ****     if (p_err == (OS_ERR *)0) {
1274:uCOS-III\Source/os_task.c ****         OS_SAFETY_CRITICAL_EXCEPTION();
1275:uCOS-III\Source/os_task.c ****         return ((OS_SEM_CTR)0);
1276:uCOS-III\Source/os_task.c ****     }
1277:uCOS-III\Source/os_task.c **** #endif
1278:uCOS-III\Source/os_task.c **** 
1279:uCOS-III\Source/os_task.c **** #if OS_CFG_CALLED_FROM_ISR_CHK_EN > 0u
1280:uCOS-III\Source/os_task.c ****     if (OSIntNestingCtr > (OS_NESTING_CTR)0) {              /* Not allowed to call from an ISR     
 899              		.loc 1 1280 0
 900 0004 474C     		ldr	r4, .L102
 901 0006 2478     		ldrb	r4, [r4]	@ zero_extendqisi2
 902 0008 24B1     		cbz	r4, .L82
1281:uCOS-III\Source/os_task.c ****        *p_err = OS_ERR_PEND_ISR;
 903              		.loc 1 1281 0
 904 000a 46F2AE12 		movw	r2, #25006
 905              	.LVL121:
 906 000e 1A80     		strh	r2, [r3]	@ movhi
1282:uCOS-III\Source/os_task.c ****         return ((OS_SEM_CTR)0);
 907              		.loc 1 1282 0
 908 0010 0024     		movs	r4, #0
 909 0012 84E0     		b	.L83
 910              	.LVL122:
 911              	.L82:
1283:uCOS-III\Source/os_task.c ****     }
1284:uCOS-III\Source/os_task.c **** #endif
1285:uCOS-III\Source/os_task.c **** 
1286:uCOS-III\Source/os_task.c **** #if OS_CFG_ARG_CHK_EN > 0u
1287:uCOS-III\Source/os_task.c ****     switch (opt) {                                          /* Validate 'opt'                      
 912              		.loc 1 1287 0
 913 0014 39B1     		cbz	r1, .L85
 914 0016 B1F5004F 		cmp	r1, #32768
 915 001a 04D0     		beq	.L85
1288:uCOS-III\Source/os_task.c ****         case OS_OPT_PEND_BLOCKING:
1289:uCOS-III\Source/os_task.c ****         case OS_OPT_PEND_NON_BLOCKING:
1290:uCOS-III\Source/os_task.c ****              break;
1291:uCOS-III\Source/os_task.c **** 
1292:uCOS-III\Source/os_task.c ****         default:
1293:uCOS-III\Source/os_task.c ****             *p_err = OS_ERR_OPT_INVALID;
 916              		.loc 1 1293 0
 917 001c 45F62562 		movw	r2, #24101
 918              	.LVL123:
 919 0020 1A80     		strh	r2, [r3]	@ movhi
1294:uCOS-III\Source/os_task.c ****              return ((OS_SEM_CTR)0);
 920              		.loc 1 1294 0
 921 0022 0024     		movs	r4, #0
 922 0024 7BE0     		b	.L83
 923              	.LVL124:
 924              	.L85:
1295:uCOS-III\Source/os_task.c ****     }
1296:uCOS-III\Source/os_task.c **** #endif
ARM GAS  C:\Users\jorti\AppData\Local\Temp\ccDtGf1z.s 			page 40


1297:uCOS-III\Source/os_task.c **** 
1298:uCOS-III\Source/os_task.c ****     if (p_ts != (CPU_TS *)0) {
 925              		.loc 1 1298 0
 926 0026 0AB1     		cbz	r2, .L86
1299:uCOS-III\Source/os_task.c ****        *p_ts  = (CPU_TS  )0;                                /* Initialize the returned timestamp   
 927              		.loc 1 1299 0
 928 0028 0024     		movs	r4, #0
 929 002a 1460     		str	r4, [r2]
 930              	.L86:
 931 002c 1F46     		mov	r7, r3
 932 002e 1646     		mov	r6, r2
 933 0030 0D46     		mov	r5, r1
 934 0032 8046     		mov	r8, r0
1300:uCOS-III\Source/os_task.c ****     }
1301:uCOS-III\Source/os_task.c **** 
1302:uCOS-III\Source/os_task.c ****     CPU_CRITICAL_ENTER();
 935              		.loc 1 1302 0
 936 0034 FFF7FEFF 		bl	CPU_SR_Save
 937              	.LVL125:
 938 0038 8146     		mov	r9, r0
 939              	.LVL126:
1303:uCOS-III\Source/os_task.c ****     if (OSTCBCurPtr->SemCtr > (OS_SEM_CTR)0) {              /* See if task already been signaled   
 940              		.loc 1 1303 0
 941 003a 3B4B     		ldr	r3, .L102+4
 942 003c 1B68     		ldr	r3, [r3]
 943 003e 5C6C     		ldr	r4, [r3, #68]
 944 0040 C4B1     		cbz	r4, .L87
1304:uCOS-III\Source/os_task.c ****         OSTCBCurPtr->SemCtr--;
 945              		.loc 1 1304 0
 946 0042 013C     		subs	r4, r4, #1
 947 0044 5C64     		str	r4, [r3, #68]
 948              	.LVL127:
1305:uCOS-III\Source/os_task.c ****         ctr    = OSTCBCurPtr->SemCtr;
1306:uCOS-III\Source/os_task.c ****         if (p_ts != (CPU_TS *)0) {
 949              		.loc 1 1306 0
 950 0046 0EB1     		cbz	r6, .L88
1307:uCOS-III\Source/os_task.c ****            *p_ts  = OSTCBCurPtr->TS;
 951              		.loc 1 1307 0
 952 0048 1B6C     		ldr	r3, [r3, #64]
 953 004a 3360     		str	r3, [r6]
 954              	.L88:
1308:uCOS-III\Source/os_task.c ****         }
1309:uCOS-III\Source/os_task.c **** #if OS_CFG_TASK_PROFILE_EN > 0u
1310:uCOS-III\Source/os_task.c ****         OSTCBCurPtr->SemPendTime = OS_TS_GET() - OSTCBCurPtr->TS;
 955              		.loc 1 1310 0
 956 004c FFF7FEFF 		bl	CPU_TS_TmrRd
 957              	.LVL128:
 958 0050 354B     		ldr	r3, .L102+4
 959 0052 1A68     		ldr	r2, [r3]
 960 0054 136C     		ldr	r3, [r2, #64]
 961 0056 C01A     		subs	r0, r0, r3
 962 0058 C2F8A400 		str	r0, [r2, #164]
1311:uCOS-III\Source/os_task.c ****         if (OSTCBCurPtr->SemPendTimeMax < OSTCBCurPtr->SemPendTime) {
 963              		.loc 1 1311 0
 964 005c D2F8A830 		ldr	r3, [r2, #168]
 965 0060 9842     		cmp	r0, r3
 966 0062 01D9     		bls	.L89
ARM GAS  C:\Users\jorti\AppData\Local\Temp\ccDtGf1z.s 			page 41


1312:uCOS-III\Source/os_task.c ****             OSTCBCurPtr->SemPendTimeMax = OSTCBCurPtr->SemPendTime;
 967              		.loc 1 1312 0
 968 0064 C2F8A800 		str	r0, [r2, #168]
 969              	.L89:
1313:uCOS-III\Source/os_task.c ****         }
1314:uCOS-III\Source/os_task.c **** #endif
1315:uCOS-III\Source/os_task.c ****         CPU_CRITICAL_EXIT();
 970              		.loc 1 1315 0
 971 0068 4846     		mov	r0, r9
 972 006a FFF7FEFF 		bl	CPU_SR_Restore
 973              	.LVL129:
1316:uCOS-III\Source/os_task.c ****        *p_err = OS_ERR_NONE;
 974              		.loc 1 1316 0
 975 006e 0023     		movs	r3, #0
 976 0070 3B80     		strh	r3, [r7]	@ movhi
1317:uCOS-III\Source/os_task.c ****         return (ctr);
 977              		.loc 1 1317 0
 978 0072 54E0     		b	.L83
 979              	.LVL130:
 980              	.L87:
1318:uCOS-III\Source/os_task.c ****     }
1319:uCOS-III\Source/os_task.c **** 
1320:uCOS-III\Source/os_task.c ****     if ((opt & OS_OPT_PEND_NON_BLOCKING) != (OS_OPT)0) {    /* Caller wants to block if not availab
 981              		.loc 1 1320 0
 982 0074 15F4004F 		tst	r5, #32768
 983 0078 05D0     		beq	.L90
1321:uCOS-III\Source/os_task.c ****         CPU_CRITICAL_EXIT();
 984              		.loc 1 1321 0
 985 007a FFF7FEFF 		bl	CPU_SR_Restore
 986              	.LVL131:
1322:uCOS-III\Source/os_task.c ****        *p_err = OS_ERR_PEND_WOULD_BLOCK;                    /* No                                  
 987              		.loc 1 1322 0
 988 007e 46F2B013 		movw	r3, #25008
 989 0082 3B80     		strh	r3, [r7]	@ movhi
1323:uCOS-III\Source/os_task.c ****         return ((OS_SEM_CTR)0);
 990              		.loc 1 1323 0
 991 0084 4BE0     		b	.L83
 992              	.LVL132:
 993              	.L90:
1324:uCOS-III\Source/os_task.c ****     } else {                                                /* Yes                                 
1325:uCOS-III\Source/os_task.c ****         if (OSSchedLockNestingCtr > (OS_NESTING_CTR)0) {    /* Can't pend when the scheduler is loc
 994              		.loc 1 1325 0
 995 0086 294B     		ldr	r3, .L102+8
 996 0088 1B78     		ldrb	r3, [r3]	@ zero_extendqisi2
 997 008a 2BB1     		cbz	r3, .L91
1326:uCOS-III\Source/os_task.c ****             CPU_CRITICAL_EXIT();
 998              		.loc 1 1326 0
 999 008c FFF7FEFF 		bl	CPU_SR_Restore
 1000              	.LVL133:
1327:uCOS-III\Source/os_task.c ****            *p_err = OS_ERR_SCHED_LOCKED;
 1001              		.loc 1 1327 0
 1002 0090 46F66353 		movw	r3, #28003
 1003 0094 3B80     		strh	r3, [r7]	@ movhi
1328:uCOS-III\Source/os_task.c ****             return ((OS_SEM_CTR)0);
 1004              		.loc 1 1328 0
 1005 0096 42E0     		b	.L83
 1006              	.LVL134:
ARM GAS  C:\Users\jorti\AppData\Local\Temp\ccDtGf1z.s 			page 42


 1007              	.L91:
1329:uCOS-III\Source/os_task.c ****         }
1330:uCOS-III\Source/os_task.c ****     }
1331:uCOS-III\Source/os_task.c ****                                                             /* Lock the scheduler/re-enable interru
1332:uCOS-III\Source/os_task.c ****     OS_CRITICAL_ENTER_CPU_EXIT();                           
1333:uCOS-III\Source/os_task.c ****     OS_Pend((OS_PEND_DATA *)0,                              /* Block task pending on Signal        
 1008              		.loc 1 1333 0
 1009 0098 4346     		mov	r3, r8
 1010 009a 0722     		movs	r2, #7
 1011 009c 0021     		movs	r1, #0
 1012 009e 0846     		mov	r0, r1
 1013              	.LVL135:
 1014 00a0 FFF7FEFF 		bl	OS_Pend
 1015              	.LVL136:
1334:uCOS-III\Source/os_task.c ****             (OS_PEND_OBJ  *)0,
1335:uCOS-III\Source/os_task.c ****             (OS_STATE      )OS_TASK_PEND_ON_TASK_SEM,
1336:uCOS-III\Source/os_task.c ****             (OS_TICK       )timeout);
1337:uCOS-III\Source/os_task.c ****     OS_CRITICAL_EXIT_NO_SCHED();
 1016              		.loc 1 1337 0
 1017 00a4 4846     		mov	r0, r9
 1018 00a6 FFF7FEFF 		bl	CPU_SR_Restore
 1019              	.LVL137:
1338:uCOS-III\Source/os_task.c **** 
1339:uCOS-III\Source/os_task.c ****     OSSched();                                              /* Find next highest priority task read
 1020              		.loc 1 1339 0
 1021 00aa FFF7FEFF 		bl	OSSched
 1022              	.LVL138:
1340:uCOS-III\Source/os_task.c **** 
1341:uCOS-III\Source/os_task.c ****     CPU_CRITICAL_ENTER();
 1023              		.loc 1 1341 0
 1024 00ae FFF7FEFF 		bl	CPU_SR_Save
 1025              	.LVL139:
 1026 00b2 0546     		mov	r5, r0
 1027              	.LVL140:
1342:uCOS-III\Source/os_task.c ****     switch (OSTCBCurPtr->PendStatus) {                      /* See if we timed-out or aborted      
 1028              		.loc 1 1342 0
 1029 00b4 1C4B     		ldr	r3, .L102+4
 1030 00b6 1A68     		ldr	r2, [r3]
 1031 00b8 92F83530 		ldrb	r3, [r2, #53]	@ zero_extendqisi2
 1032 00bc 012B     		cmp	r3, #1
 1033 00be 17D0     		beq	.L93
 1034 00c0 13B1     		cbz	r3, .L94
 1035 00c2 032B     		cmp	r3, #3
 1036 00c4 1BD0     		beq	.L95
 1037 00c6 21E0     		b	.L100
 1038              	.L94:
1343:uCOS-III\Source/os_task.c ****         case OS_STATUS_PEND_OK:
1344:uCOS-III\Source/os_task.c ****              if (p_ts != (CPU_TS *)0) {
 1039              		.loc 1 1344 0
 1040 00c8 7EB1     		cbz	r6, .L96
1345:uCOS-III\Source/os_task.c ****                 *p_ts                    =  OSTCBCurPtr->TS;
 1041              		.loc 1 1345 0
 1042 00ca 136C     		ldr	r3, [r2, #64]
 1043 00cc 3360     		str	r3, [r6]
1346:uCOS-III\Source/os_task.c **** #if OS_CFG_TASK_PROFILE_EN > 0u
1347:uCOS-III\Source/os_task.c ****                 OSTCBCurPtr->SemPendTime = OS_TS_GET() - OSTCBCurPtr->TS;
 1044              		.loc 1 1347 0
ARM GAS  C:\Users\jorti\AppData\Local\Temp\ccDtGf1z.s 			page 43


 1045 00ce FFF7FEFF 		bl	CPU_TS_TmrRd
 1046              	.LVL141:
 1047 00d2 154B     		ldr	r3, .L102+4
 1048 00d4 1A68     		ldr	r2, [r3]
 1049 00d6 136C     		ldr	r3, [r2, #64]
 1050 00d8 C01A     		subs	r0, r0, r3
 1051 00da C2F8A400 		str	r0, [r2, #164]
1348:uCOS-III\Source/os_task.c ****                 if (OSTCBCurPtr->SemPendTimeMax < OSTCBCurPtr->SemPendTime) {
 1052              		.loc 1 1348 0
 1053 00de D2F8A830 		ldr	r3, [r2, #168]
 1054 00e2 9842     		cmp	r0, r3
 1055 00e4 01D9     		bls	.L96
1349:uCOS-III\Source/os_task.c ****                     OSTCBCurPtr->SemPendTimeMax = OSTCBCurPtr->SemPendTime;
 1056              		.loc 1 1349 0
 1057 00e6 C2F8A800 		str	r0, [r2, #168]
 1058              	.L96:
1350:uCOS-III\Source/os_task.c ****                 }
1351:uCOS-III\Source/os_task.c **** #endif
1352:uCOS-III\Source/os_task.c ****              }
1353:uCOS-III\Source/os_task.c ****             *p_err = OS_ERR_NONE;
 1059              		.loc 1 1353 0
 1060 00ea 0023     		movs	r3, #0
 1061 00ec 3B80     		strh	r3, [r7]	@ movhi
1354:uCOS-III\Source/os_task.c ****              break;
 1062              		.loc 1 1354 0
 1063 00ee 10E0     		b	.L97
 1064              	.LVL142:
 1065              	.L93:
1355:uCOS-III\Source/os_task.c **** 
1356:uCOS-III\Source/os_task.c ****         case OS_STATUS_PEND_ABORT:
1357:uCOS-III\Source/os_task.c ****              if (p_ts != (CPU_TS *)0) {
 1066              		.loc 1 1357 0
 1067 00f0 0EB1     		cbz	r6, .L98
1358:uCOS-III\Source/os_task.c ****                 *p_ts  =  OSTCBCurPtr->TS;
 1068              		.loc 1 1358 0
 1069 00f2 136C     		ldr	r3, [r2, #64]
 1070 00f4 3360     		str	r3, [r6]
 1071              	.L98:
1359:uCOS-III\Source/os_task.c ****              }
1360:uCOS-III\Source/os_task.c ****             *p_err = OS_ERR_PEND_ABORT;                     /* Indicate that we aborted            
 1072              		.loc 1 1360 0
 1073 00f6 46F2A913 		movw	r3, #25001
 1074 00fa 3B80     		strh	r3, [r7]	@ movhi
1361:uCOS-III\Source/os_task.c ****              break;
 1075              		.loc 1 1361 0
 1076 00fc 09E0     		b	.L97
 1077              	.L95:
1362:uCOS-III\Source/os_task.c **** 
1363:uCOS-III\Source/os_task.c ****         case OS_STATUS_PEND_TIMEOUT:
1364:uCOS-III\Source/os_task.c ****              if (p_ts != (CPU_TS *)0) {
 1078              		.loc 1 1364 0
 1079 00fe 0EB1     		cbz	r6, .L99
1365:uCOS-III\Source/os_task.c ****                 *p_ts  = (CPU_TS  )0;
 1080              		.loc 1 1365 0
 1081 0100 0023     		movs	r3, #0
 1082 0102 3360     		str	r3, [r6]
 1083              	.L99:
ARM GAS  C:\Users\jorti\AppData\Local\Temp\ccDtGf1z.s 			page 44


1366:uCOS-III\Source/os_task.c ****              }
1367:uCOS-III\Source/os_task.c ****             *p_err = OS_ERR_TIMEOUT;                        /* Indicate that we didn't get event wi
 1084              		.loc 1 1367 0
 1085 0104 47F2D923 		movw	r3, #29401
 1086 0108 3B80     		strh	r3, [r7]	@ movhi
1368:uCOS-III\Source/os_task.c ****              break;
 1087              		.loc 1 1368 0
 1088 010a 02E0     		b	.L97
 1089              	.L100:
1369:uCOS-III\Source/os_task.c **** 
1370:uCOS-III\Source/os_task.c ****         default:
1371:uCOS-III\Source/os_task.c ****             *p_err = OS_ERR_STATUS_INVALID;
 1090              		.loc 1 1371 0
 1091 010c 46F62E63 		movw	r3, #28206
 1092 0110 3B80     		strh	r3, [r7]	@ movhi
 1093              	.LVL143:
 1094              	.L97:
1372:uCOS-III\Source/os_task.c ****              break;
1373:uCOS-III\Source/os_task.c ****     }
1374:uCOS-III\Source/os_task.c ****     ctr = OSTCBCurPtr->SemCtr;
 1095              		.loc 1 1374 0
 1096 0112 054B     		ldr	r3, .L102+4
 1097 0114 1B68     		ldr	r3, [r3]
 1098 0116 5C6C     		ldr	r4, [r3, #68]
 1099              	.LVL144:
1375:uCOS-III\Source/os_task.c ****     CPU_CRITICAL_EXIT();
 1100              		.loc 1 1375 0
 1101 0118 2846     		mov	r0, r5
 1102 011a FFF7FEFF 		bl	CPU_SR_Restore
 1103              	.LVL145:
 1104              	.L83:
1376:uCOS-III\Source/os_task.c ****     return (ctr);
1377:uCOS-III\Source/os_task.c **** }
 1105              		.loc 1 1377 0
 1106 011e 2046     		mov	r0, r4
 1107 0120 BDE8F883 		pop	{r3, r4, r5, r6, r7, r8, r9, pc}
 1108              	.L103:
 1109              		.align	2
 1110              	.L102:
 1111 0124 00000000 		.word	OSIntNestingCtr
 1112 0128 00000000 		.word	OSTCBCurPtr
 1113 012c 00000000 		.word	OSSchedLockNestingCtr
 1114              		.cfi_endproc
 1115              	.LFE12:
 1116              		.size	OSTaskSemPend, .-OSTaskSemPend
 1117              		.section	.text.OSTaskSemPendAbort,"ax",%progbits
 1118              		.align	2
 1119              		.global	OSTaskSemPendAbort
 1120              		.thumb
 1121              		.thumb_func
 1122              		.type	OSTaskSemPendAbort, %function
 1123              	OSTaskSemPendAbort:
 1124              	.LFB13:
1378:uCOS-III\Source/os_task.c **** 
1379:uCOS-III\Source/os_task.c **** /*$PAGE*/
1380:uCOS-III\Source/os_task.c **** /*
1381:uCOS-III\Source/os_task.c **** ***************************************************************************************************
ARM GAS  C:\Users\jorti\AppData\Local\Temp\ccDtGf1z.s 			page 45


1382:uCOS-III\Source/os_task.c **** *                                               ABORT WAITING FOR A SIGNAL
1383:uCOS-III\Source/os_task.c **** *
1384:uCOS-III\Source/os_task.c **** * Description: This function aborts & readies the task specified.  This function should be used to 
1385:uCOS-III\Source/os_task.c **** *              for a signal, rather than to normally post the signal to the task via OSTaskSemPost(
1386:uCOS-III\Source/os_task.c **** *
1387:uCOS-III\Source/os_task.c **** * Arguments  : p_tcb     is a pointer to the task to pend abort
1388:uCOS-III\Source/os_task.c **** *
1389:uCOS-III\Source/os_task.c **** *              opt       provides options for this function:
1390:uCOS-III\Source/os_task.c **** *
1391:uCOS-III\Source/os_task.c **** *                            OS_OPT_POST_NONE         No option selected
1392:uCOS-III\Source/os_task.c **** *                            OS_OPT_POST_NO_SCHED     Indicates that the scheduler will not be call
1393:uCOS-III\Source/os_task.c **** *
1394:uCOS-III\Source/os_task.c **** *              p_err     is a pointer to a variable that will contain an error code returned by thi
1395:uCOS-III\Source/os_task.c **** *
1396:uCOS-III\Source/os_task.c **** *                            OS_ERR_NONE              If the task was readied and informed of the a
1397:uCOS-III\Source/os_task.c **** *                            OS_ERR_PEND_ABORT_ISR    If you tried calling this function from an IS
1398:uCOS-III\Source/os_task.c **** *                            OS_ERR_PEND_ABORT_NONE   If the task was not waiting for a signal
1399:uCOS-III\Source/os_task.c **** *                            OS_ERR_PEND_ABORT_SELF   If you attempted to pend abort the calling ta
1400:uCOS-III\Source/os_task.c **** *                                                     possible since the calling task cannot be pen
1401:uCOS-III\Source/os_task.c **** *                                                     running.
1402:uCOS-III\Source/os_task.c **** *
1403:uCOS-III\Source/os_task.c **** * Returns    : == DEF_FALSE   if task was not waiting for a message, or upon error.
1404:uCOS-III\Source/os_task.c **** *              == DEF_TRUE    if task was waiting for a message and was readied and informed.
1405:uCOS-III\Source/os_task.c **** ***************************************************************************************************
1406:uCOS-III\Source/os_task.c **** */
1407:uCOS-III\Source/os_task.c **** 
1408:uCOS-III\Source/os_task.c **** #if OS_CFG_TASK_SEM_PEND_ABORT_EN > 0u
1409:uCOS-III\Source/os_task.c **** CPU_BOOLEAN  OSTaskSemPendAbort (OS_TCB  *p_tcb,
1410:uCOS-III\Source/os_task.c ****                                  OS_OPT   opt,
1411:uCOS-III\Source/os_task.c ****                                  OS_ERR  *p_err)
1412:uCOS-III\Source/os_task.c **** {
 1125              		.loc 1 1412 0
 1126              		.cfi_startproc
 1127              		@ args = 0, pretend = 0, frame = 0
 1128              		@ frame_needed = 0, uses_anonymous_args = 0
 1129              	.LVL146:
 1130 0000 F8B5     		push	{r3, r4, r5, r6, r7, lr}
 1131              		.cfi_def_cfa_offset 24
 1132              		.cfi_offset 3, -24
 1133              		.cfi_offset 4, -20
 1134              		.cfi_offset 5, -16
 1135              		.cfi_offset 6, -12
 1136              		.cfi_offset 7, -8
 1137              		.cfi_offset 14, -4
 1138              	.LVL147:
1413:uCOS-III\Source/os_task.c ****     CPU_TS         ts;
1414:uCOS-III\Source/os_task.c ****     CPU_SR_ALLOC();
1415:uCOS-III\Source/os_task.c **** 
1416:uCOS-III\Source/os_task.c **** 
1417:uCOS-III\Source/os_task.c **** 
1418:uCOS-III\Source/os_task.c **** #ifdef OS_SAFETY_CRITICAL
1419:uCOS-III\Source/os_task.c ****     if (p_err == (OS_ERR *)0) {
1420:uCOS-III\Source/os_task.c ****         OS_SAFETY_CRITICAL_EXCEPTION();
1421:uCOS-III\Source/os_task.c ****         return (DEF_FALSE);
1422:uCOS-III\Source/os_task.c ****     }
1423:uCOS-III\Source/os_task.c **** #endif
1424:uCOS-III\Source/os_task.c **** 
ARM GAS  C:\Users\jorti\AppData\Local\Temp\ccDtGf1z.s 			page 46


1425:uCOS-III\Source/os_task.c **** #if OS_CFG_CALLED_FROM_ISR_CHK_EN > 0u
1426:uCOS-III\Source/os_task.c ****     if (OSIntNestingCtr > (OS_NESTING_CTR)0) {              /* See if called from ISR ...          
 1139              		.loc 1 1426 0
 1140 0002 214B     		ldr	r3, .L114
 1141 0004 1C78     		ldrb	r4, [r3]	@ zero_extendqisi2
 1142 0006 24B1     		cbz	r4, .L105
1427:uCOS-III\Source/os_task.c ****        *p_err = OS_ERR_PEND_ABORT_ISR;                      /* ... can't Pend Abort from an ISR    
 1143              		.loc 1 1427 0
 1144 0008 46F2AA13 		movw	r3, #25002
 1145 000c 1380     		strh	r3, [r2]	@ movhi
1428:uCOS-III\Source/os_task.c ****         return (DEF_FALSE);
 1146              		.loc 1 1428 0
 1147 000e 0024     		movs	r4, #0
 1148 0010 38E0     		b	.L106
 1149              	.L105:
1429:uCOS-III\Source/os_task.c ****     }
1430:uCOS-III\Source/os_task.c **** #endif
1431:uCOS-III\Source/os_task.c **** 
1432:uCOS-III\Source/os_task.c **** #if OS_CFG_ARG_CHK_EN > 0u
1433:uCOS-III\Source/os_task.c ****     switch (opt) {                                          /* Validate 'opt'                      
 1150              		.loc 1 1433 0
 1151 0012 31B1     		cbz	r1, .L108
 1152 0014 B1F5004F 		cmp	r1, #32768
 1153 0018 03D0     		beq	.L108
1434:uCOS-III\Source/os_task.c ****         case OS_OPT_POST_NONE:
1435:uCOS-III\Source/os_task.c ****         case OS_OPT_POST_NO_SCHED:
1436:uCOS-III\Source/os_task.c ****              break;
1437:uCOS-III\Source/os_task.c **** 
1438:uCOS-III\Source/os_task.c ****         default:
1439:uCOS-III\Source/os_task.c ****             *p_err =  OS_ERR_OPT_INVALID;
 1154              		.loc 1 1439 0
 1155 001a 45F62563 		movw	r3, #24101
 1156 001e 1380     		strh	r3, [r2]	@ movhi
1440:uCOS-III\Source/os_task.c ****              return (DEF_FALSE);
 1157              		.loc 1 1440 0
 1158 0020 30E0     		b	.L106
 1159              	.L108:
 1160 0022 1646     		mov	r6, r2
 1161 0024 0D46     		mov	r5, r1
 1162 0026 0746     		mov	r7, r0
1441:uCOS-III\Source/os_task.c ****     }
1442:uCOS-III\Source/os_task.c **** #endif
1443:uCOS-III\Source/os_task.c **** 
1444:uCOS-III\Source/os_task.c ****     CPU_CRITICAL_ENTER();
 1163              		.loc 1 1444 0
 1164 0028 FFF7FEFF 		bl	CPU_SR_Save
 1165              	.LVL148:
1445:uCOS-III\Source/os_task.c ****     if ((p_tcb == (OS_TCB *)0) ||                           /* Pend abort self?                    
 1166              		.loc 1 1445 0
 1167 002c 1FB1     		cbz	r7, .L109
1446:uCOS-III\Source/os_task.c ****         (p_tcb == OSTCBCurPtr)) {
 1168              		.loc 1 1446 0 discriminator 1
 1169 002e 174B     		ldr	r3, .L114+4
 1170 0030 1B68     		ldr	r3, [r3]
1445:uCOS-III\Source/os_task.c ****     if ((p_tcb == (OS_TCB *)0) ||                           /* Pend abort self?                    
 1171              		.loc 1 1445 0 discriminator 1
 1172 0032 9F42     		cmp	r7, r3
ARM GAS  C:\Users\jorti\AppData\Local\Temp\ccDtGf1z.s 			page 47


 1173 0034 05D1     		bne	.L110
 1174              	.L109:
1447:uCOS-III\Source/os_task.c ****         CPU_CRITICAL_EXIT();                                /* ... doesn't make sense!             
 1175              		.loc 1 1447 0
 1176 0036 FFF7FEFF 		bl	CPU_SR_Restore
 1177              	.LVL149:
1448:uCOS-III\Source/os_task.c ****        *p_err = OS_ERR_PEND_ABORT_SELF;
 1178              		.loc 1 1448 0
 1179 003a 46F2AC13 		movw	r3, #25004
 1180 003e 3380     		strh	r3, [r6]	@ movhi
1449:uCOS-III\Source/os_task.c ****         return (DEF_FALSE);
 1181              		.loc 1 1449 0
 1182 0040 20E0     		b	.L106
 1183              	.LVL150:
 1184              	.L110:
1450:uCOS-III\Source/os_task.c ****     }
1451:uCOS-III\Source/os_task.c **** 
1452:uCOS-III\Source/os_task.c ****     if (p_tcb->PendOn != OS_TASK_PEND_ON_TASK_SEM) {        /* Is task waiting for a signal?       
 1185              		.loc 1 1452 0
 1186 0042 97F83430 		ldrb	r3, [r7, #52]	@ zero_extendqisi2
 1187 0046 072B     		cmp	r3, #7
 1188 0048 05D0     		beq	.L111
1453:uCOS-III\Source/os_task.c ****         CPU_CRITICAL_EXIT();
 1189              		.loc 1 1453 0
 1190 004a FFF7FEFF 		bl	CPU_SR_Restore
 1191              	.LVL151:
1454:uCOS-III\Source/os_task.c ****        *p_err = OS_ERR_PEND_ABORT_NONE;
 1192              		.loc 1 1454 0
 1193 004e 46F2AB13 		movw	r3, #25003
 1194 0052 3380     		strh	r3, [r6]	@ movhi
1455:uCOS-III\Source/os_task.c ****         return (DEF_FALSE);
 1195              		.loc 1 1455 0
 1196 0054 16E0     		b	.L106
 1197              	.LVL152:
 1198              	.L111:
1456:uCOS-III\Source/os_task.c ****     }
1457:uCOS-III\Source/os_task.c ****     CPU_CRITICAL_EXIT();
 1199              		.loc 1 1457 0
 1200 0056 FFF7FEFF 		bl	CPU_SR_Restore
 1201              	.LVL153:
1458:uCOS-III\Source/os_task.c **** 
1459:uCOS-III\Source/os_task.c ****     OS_CRITICAL_ENTER();
 1202              		.loc 1 1459 0
 1203 005a FFF7FEFF 		bl	CPU_SR_Save
 1204              	.LVL154:
 1205 005e 0446     		mov	r4, r0
 1206              	.LVL155:
1460:uCOS-III\Source/os_task.c ****     ts = OS_TS_GET();
 1207              		.loc 1 1460 0
 1208 0060 FFF7FEFF 		bl	CPU_TS_TmrRd
 1209              	.LVL156:
1461:uCOS-III\Source/os_task.c ****     OS_PendAbort((OS_PEND_OBJ *)0,
 1210              		.loc 1 1461 0
 1211 0064 0246     		mov	r2, r0
 1212 0066 3946     		mov	r1, r7
 1213 0068 0020     		movs	r0, #0
 1214              	.LVL157:
ARM GAS  C:\Users\jorti\AppData\Local\Temp\ccDtGf1z.s 			page 48


 1215 006a FFF7FEFF 		bl	OS_PendAbort
 1216              	.LVL158:
1462:uCOS-III\Source/os_task.c ****                  p_tcb,
1463:uCOS-III\Source/os_task.c ****                  ts);
1464:uCOS-III\Source/os_task.c ****     OS_CRITICAL_EXIT_NO_SCHED();
 1217              		.loc 1 1464 0
 1218 006e 2046     		mov	r0, r4
 1219 0070 FFF7FEFF 		bl	CPU_SR_Restore
 1220              	.LVL159:
1465:uCOS-III\Source/os_task.c ****     if ((opt & OS_OPT_POST_NO_SCHED) == (OS_OPT)0) {
 1221              		.loc 1 1465 0
 1222 0074 15F4004F 		tst	r5, #32768
 1223 0078 01D1     		bne	.L112
1466:uCOS-III\Source/os_task.c ****         OSSched();                                          /* Run the scheduler                   
 1224              		.loc 1 1466 0
 1225 007a FFF7FEFF 		bl	OSSched
 1226              	.LVL160:
 1227              	.L112:
1467:uCOS-III\Source/os_task.c ****     }
1468:uCOS-III\Source/os_task.c ****    *p_err = OS_ERR_NONE;
 1228              		.loc 1 1468 0
 1229 007e 0023     		movs	r3, #0
 1230 0080 3380     		strh	r3, [r6]	@ movhi
1469:uCOS-III\Source/os_task.c ****     return (DEF_TRUE);
 1231              		.loc 1 1469 0
 1232 0082 0124     		movs	r4, #1
 1233              	.LVL161:
 1234              	.L106:
1470:uCOS-III\Source/os_task.c **** }
 1235              		.loc 1 1470 0
 1236 0084 2046     		mov	r0, r4
 1237 0086 F8BD     		pop	{r3, r4, r5, r6, r7, pc}
 1238              	.L115:
 1239              		.align	2
 1240              	.L114:
 1241 0088 00000000 		.word	OSIntNestingCtr
 1242 008c 00000000 		.word	OSTCBCurPtr
 1243              		.cfi_endproc
 1244              	.LFE13:
 1245              		.size	OSTaskSemPendAbort, .-OSTaskSemPendAbort
 1246              		.section	.text.OSTaskSemSet,"ax",%progbits
 1247              		.align	2
 1248              		.global	OSTaskSemSet
 1249              		.thumb
 1250              		.thumb_func
 1251              		.type	OSTaskSemSet, %function
 1252              	OSTaskSemSet:
 1253              	.LFB15:
1471:uCOS-III\Source/os_task.c **** #endif
1472:uCOS-III\Source/os_task.c **** 
1473:uCOS-III\Source/os_task.c **** /*$PAGE*/
1474:uCOS-III\Source/os_task.c **** /*
1475:uCOS-III\Source/os_task.c **** ***************************************************************************************************
1476:uCOS-III\Source/os_task.c **** *                                                    SIGNAL A TASK
1477:uCOS-III\Source/os_task.c **** *
1478:uCOS-III\Source/os_task.c **** * Description: This function is called to signal a task waiting for a signal.
1479:uCOS-III\Source/os_task.c **** *
ARM GAS  C:\Users\jorti\AppData\Local\Temp\ccDtGf1z.s 			page 49


1480:uCOS-III\Source/os_task.c **** * Arguments  : p_tcb     is the pointer to the TCB of the task to signal.  A NULL pointer indicates
1481:uCOS-III\Source/os_task.c **** *                        a signal to yourself.
1482:uCOS-III\Source/os_task.c **** *
1483:uCOS-III\Source/os_task.c **** *              opt       determines the type of POST performed:
1484:uCOS-III\Source/os_task.c **** *
1485:uCOS-III\Source/os_task.c **** *                             OS_OPT_POST_NONE         No option
1486:uCOS-III\Source/os_task.c **** *                             OS_OPT_POST_NO_SCHED     Do not call the scheduler
1487:uCOS-III\Source/os_task.c **** *
1488:uCOS-III\Source/os_task.c **** *              p_err     is a pointer to an error code returned by this function:
1489:uCOS-III\Source/os_task.c **** *
1490:uCOS-III\Source/os_task.c **** *                            OS_ERR_NONE              If the requested task is signaled
1491:uCOS-III\Source/os_task.c **** *                            OS_ERR_SEM_OVF           If the post would cause the semaphore count t
1492:uCOS-III\Source/os_task.c **** *
1493:uCOS-III\Source/os_task.c **** * Returns    : The current value of the task's signal counter or 0 if called from an ISR
1494:uCOS-III\Source/os_task.c **** ***************************************************************************************************
1495:uCOS-III\Source/os_task.c **** */
1496:uCOS-III\Source/os_task.c **** 
1497:uCOS-III\Source/os_task.c **** OS_SEM_CTR  OSTaskSemPost (OS_TCB  *p_tcb,
1498:uCOS-III\Source/os_task.c ****                            OS_OPT   opt,
1499:uCOS-III\Source/os_task.c ****                            OS_ERR  *p_err)
1500:uCOS-III\Source/os_task.c **** {
1501:uCOS-III\Source/os_task.c ****     OS_SEM_CTR  ctr;
1502:uCOS-III\Source/os_task.c ****     CPU_TS      ts;
1503:uCOS-III\Source/os_task.c **** 
1504:uCOS-III\Source/os_task.c **** 
1505:uCOS-III\Source/os_task.c **** 
1506:uCOS-III\Source/os_task.c **** #ifdef OS_SAFETY_CRITICAL
1507:uCOS-III\Source/os_task.c ****     if (p_err == (OS_ERR *)0) {
1508:uCOS-III\Source/os_task.c ****         OS_SAFETY_CRITICAL_EXCEPTION();
1509:uCOS-III\Source/os_task.c ****         return ((OS_SEM_CTR)0);
1510:uCOS-III\Source/os_task.c ****     }
1511:uCOS-III\Source/os_task.c **** #endif
1512:uCOS-III\Source/os_task.c **** 
1513:uCOS-III\Source/os_task.c **** #if OS_CFG_ARG_CHK_EN > 0u
1514:uCOS-III\Source/os_task.c ****     switch (opt) {                                          /* Validate 'opt'                      
1515:uCOS-III\Source/os_task.c ****         case OS_OPT_POST_NONE:
1516:uCOS-III\Source/os_task.c ****         case OS_OPT_POST_NO_SCHED:
1517:uCOS-III\Source/os_task.c ****              break;
1518:uCOS-III\Source/os_task.c **** 
1519:uCOS-III\Source/os_task.c ****         default:
1520:uCOS-III\Source/os_task.c ****             *p_err =  OS_ERR_OPT_INVALID;
1521:uCOS-III\Source/os_task.c ****              return ((OS_SEM_CTR)0u);
1522:uCOS-III\Source/os_task.c ****     }
1523:uCOS-III\Source/os_task.c **** #endif
1524:uCOS-III\Source/os_task.c **** 
1525:uCOS-III\Source/os_task.c ****     ts = OS_TS_GET();                                       /* Get timestamp                       
1526:uCOS-III\Source/os_task.c **** 
1527:uCOS-III\Source/os_task.c **** #if OS_CFG_ISR_POST_DEFERRED_EN > 0u
1528:uCOS-III\Source/os_task.c ****     if (OSIntNestingCtr > (OS_NESTING_CTR)0) {              /* See if called from an ISR           
1529:uCOS-III\Source/os_task.c ****         OS_IntQPost((OS_OBJ_TYPE)OS_OBJ_TYPE_TASK_SIGNAL,   /* Post to ISR queue                   
1530:uCOS-III\Source/os_task.c ****                     (void      *)p_tcb,
1531:uCOS-III\Source/os_task.c ****                     (void      *)0,
1532:uCOS-III\Source/os_task.c ****                     (OS_MSG_SIZE)0,
1533:uCOS-III\Source/os_task.c ****                     (OS_FLAGS   )0,
1534:uCOS-III\Source/os_task.c ****                     (OS_OPT     )0,
1535:uCOS-III\Source/os_task.c ****                     (CPU_TS     )ts,
1536:uCOS-III\Source/os_task.c ****                     (OS_ERR    *)p_err);
ARM GAS  C:\Users\jorti\AppData\Local\Temp\ccDtGf1z.s 			page 50


1537:uCOS-III\Source/os_task.c ****         return ((OS_SEM_CTR)0);
1538:uCOS-III\Source/os_task.c ****     }
1539:uCOS-III\Source/os_task.c **** #endif
1540:uCOS-III\Source/os_task.c **** 
1541:uCOS-III\Source/os_task.c ****     ctr = OS_TaskSemPost(p_tcb,
1542:uCOS-III\Source/os_task.c ****                          opt,
1543:uCOS-III\Source/os_task.c ****                          ts,
1544:uCOS-III\Source/os_task.c ****                          p_err);
1545:uCOS-III\Source/os_task.c **** 
1546:uCOS-III\Source/os_task.c ****     return (ctr);
1547:uCOS-III\Source/os_task.c **** }
1548:uCOS-III\Source/os_task.c **** 
1549:uCOS-III\Source/os_task.c **** /*$PAGE*/
1550:uCOS-III\Source/os_task.c **** /*
1551:uCOS-III\Source/os_task.c **** ***************************************************************************************************
1552:uCOS-III\Source/os_task.c **** *                                            SET THE SIGNAL COUNTER OF A TASK
1553:uCOS-III\Source/os_task.c **** *
1554:uCOS-III\Source/os_task.c **** * Description: This function is called to clear the signal counter
1555:uCOS-III\Source/os_task.c **** *
1556:uCOS-III\Source/os_task.c **** * Arguments  : p_tcb      is the pointer to the TCB of the task to clear the counter.  If you speci
1557:uCOS-III\Source/os_task.c **** *                         then the signal counter of the current task will be cleared.
1558:uCOS-III\Source/os_task.c **** *
1559:uCOS-III\Source/os_task.c **** *              cnt        is the desired value of the semaphore counter
1560:uCOS-III\Source/os_task.c **** *
1561:uCOS-III\Source/os_task.c **** *              p_err      is a pointer to an error code returned by this function
1562:uCOS-III\Source/os_task.c **** *
1563:uCOS-III\Source/os_task.c **** *                             OS_ERR_NONE        if the signal counter of the requested task is cle
1564:uCOS-III\Source/os_task.c **** *                             OS_ERR_SET_ISR     if the function was called from an ISR
1565:uCOS-III\Source/os_task.c **** *
1566:uCOS-III\Source/os_task.c **** * Returns    : none
1567:uCOS-III\Source/os_task.c **** ***************************************************************************************************
1568:uCOS-III\Source/os_task.c **** */
1569:uCOS-III\Source/os_task.c **** 
1570:uCOS-III\Source/os_task.c **** OS_SEM_CTR  OSTaskSemSet (OS_TCB      *p_tcb,
1571:uCOS-III\Source/os_task.c ****                           OS_SEM_CTR   cnt,
1572:uCOS-III\Source/os_task.c ****                           OS_ERR      *p_err)
1573:uCOS-III\Source/os_task.c **** {
 1254              		.loc 1 1573 0
 1255              		.cfi_startproc
 1256              		@ args = 0, pretend = 0, frame = 0
 1257              		@ frame_needed = 0, uses_anonymous_args = 0
 1258              	.LVL162:
 1259 0000 F8B5     		push	{r3, r4, r5, r6, r7, lr}
 1260              		.cfi_def_cfa_offset 24
 1261              		.cfi_offset 3, -24
 1262              		.cfi_offset 4, -20
 1263              		.cfi_offset 5, -16
 1264              		.cfi_offset 6, -12
 1265              		.cfi_offset 7, -8
 1266              		.cfi_offset 14, -4
 1267 0002 1646     		mov	r6, r2
 1268              	.LVL163:
1574:uCOS-III\Source/os_task.c ****     OS_SEM_CTR  ctr;
1575:uCOS-III\Source/os_task.c ****     CPU_SR_ALLOC();
1576:uCOS-III\Source/os_task.c **** 
1577:uCOS-III\Source/os_task.c **** 
1578:uCOS-III\Source/os_task.c **** 
ARM GAS  C:\Users\jorti\AppData\Local\Temp\ccDtGf1z.s 			page 51


1579:uCOS-III\Source/os_task.c **** #ifdef OS_SAFETY_CRITICAL
1580:uCOS-III\Source/os_task.c ****     if (p_err == (OS_ERR *)0) {
1581:uCOS-III\Source/os_task.c ****         OS_SAFETY_CRITICAL_EXCEPTION();
1582:uCOS-III\Source/os_task.c ****         return ((OS_SEM_CTR)0);
1583:uCOS-III\Source/os_task.c ****     }
1584:uCOS-III\Source/os_task.c **** #endif
1585:uCOS-III\Source/os_task.c **** 
1586:uCOS-III\Source/os_task.c **** #if OS_CFG_CALLED_FROM_ISR_CHK_EN > 0u
1587:uCOS-III\Source/os_task.c ****     if (OSIntNestingCtr > (OS_NESTING_CTR)0) {              /* Not allowed to call from an ISR     
 1269              		.loc 1 1587 0
 1270 0004 0B4B     		ldr	r3, .L121
 1271 0006 1B78     		ldrb	r3, [r3]	@ zero_extendqisi2
 1272 0008 23B1     		cbz	r3, .L117
1588:uCOS-III\Source/os_task.c ****        *p_err = OS_ERR_SET_ISR;
 1273              		.loc 1 1588 0
 1274 000a 46F6C653 		movw	r3, #28102
 1275 000e 1380     		strh	r3, [r2]	@ movhi
1589:uCOS-III\Source/os_task.c ****         return ((OS_SEM_CTR)0);
 1276              		.loc 1 1589 0
 1277 0010 0020     		movs	r0, #0
 1278              	.LVL164:
 1279 0012 F8BD     		pop	{r3, r4, r5, r6, r7, pc}
 1280              	.LVL165:
 1281              	.L117:
 1282 0014 0546     		mov	r5, r0
 1283 0016 0F46     		mov	r7, r1
1590:uCOS-III\Source/os_task.c ****     }
1591:uCOS-III\Source/os_task.c **** #endif
1592:uCOS-III\Source/os_task.c **** 
1593:uCOS-III\Source/os_task.c ****     CPU_CRITICAL_ENTER();
 1284              		.loc 1 1593 0
 1285 0018 FFF7FEFF 		bl	CPU_SR_Save
 1286              	.LVL166:
1594:uCOS-III\Source/os_task.c ****     if (p_tcb == (OS_TCB *)0) {
 1287              		.loc 1 1594 0
 1288 001c 0DB9     		cbnz	r5, .L119
1595:uCOS-III\Source/os_task.c ****         p_tcb = OSTCBCurPtr;
 1289              		.loc 1 1595 0
 1290 001e 064B     		ldr	r3, .L121+4
 1291 0020 1D68     		ldr	r5, [r3]
 1292              	.LVL167:
 1293              	.L119:
1596:uCOS-III\Source/os_task.c ****     }
1597:uCOS-III\Source/os_task.c ****     ctr           = p_tcb->SemCtr;
 1294              		.loc 1 1597 0
 1295 0022 6C6C     		ldr	r4, [r5, #68]
 1296              	.LVL168:
1598:uCOS-III\Source/os_task.c ****     p_tcb->SemCtr = (OS_SEM_CTR)cnt;
 1297              		.loc 1 1598 0
 1298 0024 6F64     		str	r7, [r5, #68]
1599:uCOS-III\Source/os_task.c ****     CPU_CRITICAL_EXIT();
 1299              		.loc 1 1599 0
 1300 0026 FFF7FEFF 		bl	CPU_SR_Restore
 1301              	.LVL169:
1600:uCOS-III\Source/os_task.c ****    *p_err         =  OS_ERR_NONE;
 1302              		.loc 1 1600 0
 1303 002a 0023     		movs	r3, #0
ARM GAS  C:\Users\jorti\AppData\Local\Temp\ccDtGf1z.s 			page 52


 1304 002c 3380     		strh	r3, [r6]	@ movhi
1601:uCOS-III\Source/os_task.c ****     return (ctr);
 1305              		.loc 1 1601 0
 1306 002e 2046     		mov	r0, r4
1602:uCOS-III\Source/os_task.c **** }
 1307              		.loc 1 1602 0
 1308 0030 F8BD     		pop	{r3, r4, r5, r6, r7, pc}
 1309              	.LVL170:
 1310              	.L122:
 1311 0032 00BF     		.align	2
 1312              	.L121:
 1313 0034 00000000 		.word	OSIntNestingCtr
 1314 0038 00000000 		.word	OSTCBCurPtr
 1315              		.cfi_endproc
 1316              	.LFE15:
 1317              		.size	OSTaskSemSet, .-OSTaskSemSet
 1318              		.section	.text.OSTaskStkChk,"ax",%progbits
 1319              		.align	2
 1320              		.global	OSTaskStkChk
 1321              		.thumb
 1322              		.thumb_func
 1323              		.type	OSTaskStkChk, %function
 1324              	OSTaskStkChk:
 1325              	.LFB16:
1603:uCOS-III\Source/os_task.c **** 
1604:uCOS-III\Source/os_task.c **** /*$PAGE*/
1605:uCOS-III\Source/os_task.c **** /*
1606:uCOS-III\Source/os_task.c **** ***************************************************************************************************
1607:uCOS-III\Source/os_task.c **** *                                                    STACK CHECKING
1608:uCOS-III\Source/os_task.c **** *
1609:uCOS-III\Source/os_task.c **** * Description: This function is called to calculate the amount of free memory left on the specified
1610:uCOS-III\Source/os_task.c **** *
1611:uCOS-III\Source/os_task.c **** * Arguments  : p_tcb       is a pointer to the TCB of the task to check.  If you specify a NULL poi
1612:uCOS-III\Source/os_task.c **** *                          you are specifying that you want to check the stack of the current task.
1613:uCOS-III\Source/os_task.c **** *
1614:uCOS-III\Source/os_task.c **** *              p_free      is a pointer to a variable that will receive the number of free 'entries
1615:uCOS-III\Source/os_task.c **** *
1616:uCOS-III\Source/os_task.c **** *              p_used      is a pointer to a variable that will receive the number of used 'entries
1617:uCOS-III\Source/os_task.c **** *
1618:uCOS-III\Source/os_task.c **** *              p_err       is a pointer to a variable that will contain an error code.
1619:uCOS-III\Source/os_task.c **** *
1620:uCOS-III\Source/os_task.c **** *                              OS_ERR_NONE               upon success
1621:uCOS-III\Source/os_task.c **** *                              OS_ERR_PTR_INVALID        if either 'p_free' or 'p_used' are NULL po
1622:uCOS-III\Source/os_task.c **** *                              OS_ERR_TASK_NOT_EXIST     if the stack pointer of the task is a NULL
1623:uCOS-III\Source/os_task.c **** *                              OS_ERR_TASK_OPT           if you did NOT specified OS_OPT_TASK_STK_C
1624:uCOS-III\Source/os_task.c **** *                                                        was created
1625:uCOS-III\Source/os_task.c **** *                              OS_ERR_TASK_STK_CHK_ISR   you called this function from an ISR
1626:uCOS-III\Source/os_task.c **** ***************************************************************************************************
1627:uCOS-III\Source/os_task.c **** */
1628:uCOS-III\Source/os_task.c **** 
1629:uCOS-III\Source/os_task.c **** #if OS_CFG_STAT_TASK_STK_CHK_EN > 0u
1630:uCOS-III\Source/os_task.c **** void  OSTaskStkChk (OS_TCB        *p_tcb,
1631:uCOS-III\Source/os_task.c ****                     CPU_STK_SIZE  *p_free,
1632:uCOS-III\Source/os_task.c ****                     CPU_STK_SIZE  *p_used,
1633:uCOS-III\Source/os_task.c ****                     OS_ERR        *p_err)
1634:uCOS-III\Source/os_task.c **** {
 1326              		.loc 1 1634 0
ARM GAS  C:\Users\jorti\AppData\Local\Temp\ccDtGf1z.s 			page 53


 1327              		.cfi_startproc
 1328              		@ args = 0, pretend = 0, frame = 0
 1329              		@ frame_needed = 0, uses_anonymous_args = 0
 1330              	.LVL171:
 1331 0000 F8B5     		push	{r3, r4, r5, r6, r7, lr}
 1332              		.cfi_def_cfa_offset 24
 1333              		.cfi_offset 3, -24
 1334              		.cfi_offset 4, -20
 1335              		.cfi_offset 5, -16
 1336              		.cfi_offset 6, -12
 1337              		.cfi_offset 7, -8
 1338              		.cfi_offset 14, -4
 1339 0002 1E46     		mov	r6, r3
 1340              	.LVL172:
1635:uCOS-III\Source/os_task.c ****     CPU_STK_SIZE  free_stk;
1636:uCOS-III\Source/os_task.c ****     CPU_STK      *p_stk;
1637:uCOS-III\Source/os_task.c ****     CPU_SR_ALLOC();
1638:uCOS-III\Source/os_task.c **** 
1639:uCOS-III\Source/os_task.c **** 
1640:uCOS-III\Source/os_task.c **** 
1641:uCOS-III\Source/os_task.c **** #ifdef OS_SAFETY_CRITICAL
1642:uCOS-III\Source/os_task.c ****     if (p_err == (OS_ERR *)0) {
1643:uCOS-III\Source/os_task.c ****         OS_SAFETY_CRITICAL_EXCEPTION();
1644:uCOS-III\Source/os_task.c ****         return;
1645:uCOS-III\Source/os_task.c ****     }
1646:uCOS-III\Source/os_task.c **** #endif
1647:uCOS-III\Source/os_task.c **** 
1648:uCOS-III\Source/os_task.c **** #if OS_CFG_CALLED_FROM_ISR_CHK_EN > 0u
1649:uCOS-III\Source/os_task.c ****     if (OSIntNestingCtr > (OS_NESTING_CTR)0) {              /* See if trying to check stack from IS
 1341              		.loc 1 1649 0
 1342 0004 204B     		ldr	r3, .L134
 1343              	.LVL173:
 1344 0006 1B78     		ldrb	r3, [r3]	@ zero_extendqisi2
 1345 0008 1BB1     		cbz	r3, .L124
1650:uCOS-III\Source/os_task.c ****        *p_err = OS_ERR_TASK_STK_CHK_ISR;
 1346              		.loc 1 1650 0
 1347 000a 47F25913 		movw	r3, #29017
 1348 000e 3380     		strh	r3, [r6]	@ movhi
1651:uCOS-III\Source/os_task.c ****         return;
 1349              		.loc 1 1651 0
 1350 0010 F8BD     		pop	{r3, r4, r5, r6, r7, pc}
 1351              	.LVL174:
 1352              	.L124:
 1353 0012 0446     		mov	r4, r0
 1354 0014 0D46     		mov	r5, r1
 1355 0016 1746     		mov	r7, r2
1652:uCOS-III\Source/os_task.c ****     }
1653:uCOS-III\Source/os_task.c **** #endif
1654:uCOS-III\Source/os_task.c **** 
1655:uCOS-III\Source/os_task.c **** #if OS_CFG_ARG_CHK_EN > 0u
1656:uCOS-III\Source/os_task.c ****     if (p_free == (CPU_STK_SIZE*)0) {                       /* User must specify valid destinations
 1356              		.loc 1 1656 0
 1357 0018 19B9     		cbnz	r1, .L126
1657:uCOS-III\Source/os_task.c ****        *p_err  = OS_ERR_PTR_INVALID;
 1358              		.loc 1 1657 0
 1359 001a 46F2D523 		movw	r3, #25301
 1360 001e 3380     		strh	r3, [r6]	@ movhi
ARM GAS  C:\Users\jorti\AppData\Local\Temp\ccDtGf1z.s 			page 54


1658:uCOS-III\Source/os_task.c ****         return;
 1361              		.loc 1 1658 0
 1362 0020 F8BD     		pop	{r3, r4, r5, r6, r7, pc}
 1363              	.LVL175:
 1364              	.L126:
1659:uCOS-III\Source/os_task.c ****     }
1660:uCOS-III\Source/os_task.c **** 
1661:uCOS-III\Source/os_task.c ****     if (p_used == (CPU_STK_SIZE*)0) {
 1365              		.loc 1 1661 0
 1366 0022 1AB9     		cbnz	r2, .L127
1662:uCOS-III\Source/os_task.c ****        *p_err  = OS_ERR_PTR_INVALID;
 1367              		.loc 1 1662 0
 1368 0024 46F2D523 		movw	r3, #25301
 1369 0028 3380     		strh	r3, [r6]	@ movhi
1663:uCOS-III\Source/os_task.c ****         return;
 1370              		.loc 1 1663 0
 1371 002a F8BD     		pop	{r3, r4, r5, r6, r7, pc}
 1372              	.LVL176:
 1373              	.L127:
1664:uCOS-III\Source/os_task.c ****     }
1665:uCOS-III\Source/os_task.c **** #endif
1666:uCOS-III\Source/os_task.c **** 
1667:uCOS-III\Source/os_task.c ****     CPU_CRITICAL_ENTER();
 1374              		.loc 1 1667 0
 1375 002c FFF7FEFF 		bl	CPU_SR_Save
 1376              	.LVL177:
1668:uCOS-III\Source/os_task.c ****     if (p_tcb == (OS_TCB *)0) {                             /* Check the stack of the current task?
 1377              		.loc 1 1668 0
 1378 0030 0CB9     		cbnz	r4, .L128
1669:uCOS-III\Source/os_task.c ****         p_tcb = OSTCBCurPtr;                                /* Yes                                 
 1379              		.loc 1 1669 0
 1380 0032 164B     		ldr	r3, .L134+4
 1381 0034 1C68     		ldr	r4, [r3]
 1382              	.LVL178:
 1383              	.L128:
1670:uCOS-III\Source/os_task.c ****     }
1671:uCOS-III\Source/os_task.c **** 
1672:uCOS-III\Source/os_task.c ****     if (p_tcb->StkPtr == (CPU_STK*)0) {                     /* Make sure task exist                
 1384              		.loc 1 1672 0
 1385 0036 2368     		ldr	r3, [r4]
 1386 0038 43B9     		cbnz	r3, .L129
1673:uCOS-III\Source/os_task.c ****         CPU_CRITICAL_EXIT();
 1387              		.loc 1 1673 0
 1388 003a FFF7FEFF 		bl	CPU_SR_Restore
 1389              	.LVL179:
1674:uCOS-III\Source/os_task.c ****        *p_free = (CPU_STK_SIZE)0;
 1390              		.loc 1 1674 0
 1391 003e 0023     		movs	r3, #0
 1392 0040 2B60     		str	r3, [r5]
1675:uCOS-III\Source/os_task.c ****        *p_used = (CPU_STK_SIZE)0;
 1393              		.loc 1 1675 0
 1394 0042 3B60     		str	r3, [r7]
1676:uCOS-III\Source/os_task.c ****        *p_err  =  OS_ERR_TASK_NOT_EXIST;
 1395              		.loc 1 1676 0
 1396 0044 47F25213 		movw	r3, #29010
 1397 0048 3380     		strh	r3, [r6]	@ movhi
1677:uCOS-III\Source/os_task.c ****         return;
ARM GAS  C:\Users\jorti\AppData\Local\Temp\ccDtGf1z.s 			page 55


 1398              		.loc 1 1677 0
 1399 004a F8BD     		pop	{r3, r4, r5, r6, r7, pc}
 1400              	.LVL180:
 1401              	.L129:
1678:uCOS-III\Source/os_task.c ****     }
1679:uCOS-III\Source/os_task.c **** 
1680:uCOS-III\Source/os_task.c ****     if ((p_tcb->Opt & OS_OPT_TASK_STK_CHK) == (OS_OPT)0) {  /* Make sure stack checking option is s
 1402              		.loc 1 1680 0
 1403 004c A38F     		ldrh	r3, [r4, #60]
 1404 004e 13F0010F 		tst	r3, #1
 1405 0052 08D1     		bne	.L130
1681:uCOS-III\Source/os_task.c ****         CPU_CRITICAL_EXIT();
 1406              		.loc 1 1681 0
 1407 0054 FFF7FEFF 		bl	CPU_SR_Restore
 1408              	.LVL181:
1682:uCOS-III\Source/os_task.c ****        *p_free = (CPU_STK_SIZE)0;
 1409              		.loc 1 1682 0
 1410 0058 0023     		movs	r3, #0
 1411 005a 2B60     		str	r3, [r5]
1683:uCOS-III\Source/os_task.c ****        *p_used = (CPU_STK_SIZE)0;
 1412              		.loc 1 1683 0
 1413 005c 3B60     		str	r3, [r7]
1684:uCOS-III\Source/os_task.c ****        *p_err  =  OS_ERR_TASK_OPT;
 1414              		.loc 1 1684 0
 1415 005e 47F25413 		movw	r3, #29012
 1416 0062 3380     		strh	r3, [r6]	@ movhi
1685:uCOS-III\Source/os_task.c ****         return;
 1417              		.loc 1 1685 0
 1418 0064 F8BD     		pop	{r3, r4, r5, r6, r7, pc}
 1419              	.LVL182:
 1420              	.L130:
1686:uCOS-III\Source/os_task.c ****     }
1687:uCOS-III\Source/os_task.c ****     CPU_CRITICAL_EXIT();
 1421              		.loc 1 1687 0
 1422 0066 FFF7FEFF 		bl	CPU_SR_Restore
 1423              	.LVL183:
1688:uCOS-III\Source/os_task.c **** 
1689:uCOS-III\Source/os_task.c ****     free_stk  = 0u;
1690:uCOS-III\Source/os_task.c **** #if CPU_CFG_STK_GROWTH == CPU_STK_GROWTH_HI_TO_LO
1691:uCOS-III\Source/os_task.c ****     p_stk = p_tcb->StkBasePtr;                              /* Start at the lowest memory and go up
 1424              		.loc 1 1691 0
 1425 006a 636A     		ldr	r3, [r4, #36]
 1426              	.LVL184:
1689:uCOS-III\Source/os_task.c **** #if CPU_CFG_STK_GROWTH == CPU_STK_GROWTH_HI_TO_LO
 1427              		.loc 1 1689 0
 1428 006c 0022     		movs	r2, #0
1692:uCOS-III\Source/os_task.c ****     while (*p_stk == (CPU_STK)0) {                          /* Compute the number of zero entries o
 1429              		.loc 1 1692 0
 1430 006e 01E0     		b	.L131
 1431              	.LVL185:
 1432              	.L132:
1693:uCOS-III\Source/os_task.c ****         p_stk++;
 1433              		.loc 1 1693 0
 1434 0070 0433     		adds	r3, r3, #4
 1435              	.LVL186:
1694:uCOS-III\Source/os_task.c ****         free_stk++;
 1436              		.loc 1 1694 0
ARM GAS  C:\Users\jorti\AppData\Local\Temp\ccDtGf1z.s 			page 56


 1437 0072 0132     		adds	r2, r2, #1
 1438              	.LVL187:
 1439              	.L131:
1692:uCOS-III\Source/os_task.c ****     while (*p_stk == (CPU_STK)0) {                          /* Compute the number of zero entries o
 1440              		.loc 1 1692 0
 1441 0074 1968     		ldr	r1, [r3]
 1442 0076 0029     		cmp	r1, #0
 1443 0078 FAD0     		beq	.L132
1695:uCOS-III\Source/os_task.c ****     }
1696:uCOS-III\Source/os_task.c **** #else
1697:uCOS-III\Source/os_task.c ****     p_stk = p_tcb->StkBasePtr + p_tcb->StkSize - 1u;        /* Start at the highest memory and go d
1698:uCOS-III\Source/os_task.c ****     while (*p_stk == (CPU_STK)0) {
1699:uCOS-III\Source/os_task.c ****         free_stk++;
1700:uCOS-III\Source/os_task.c ****         p_stk--;
1701:uCOS-III\Source/os_task.c ****     }
1702:uCOS-III\Source/os_task.c **** #endif
1703:uCOS-III\Source/os_task.c ****    *p_free = free_stk;
 1444              		.loc 1 1703 0
 1445 007a 2A60     		str	r2, [r5]
1704:uCOS-III\Source/os_task.c ****    *p_used = (p_tcb->StkSize - free_stk);                   /* Compute number of entries used on th
 1446              		.loc 1 1704 0
 1447 007c A36B     		ldr	r3, [r4, #56]
 1448              	.LVL188:
 1449 007e 9A1A     		subs	r2, r3, r2
 1450              	.LVL189:
 1451 0080 3A60     		str	r2, [r7]
 1452              	.LVL190:
1705:uCOS-III\Source/os_task.c ****    *p_err  = OS_ERR_NONE;
 1453              		.loc 1 1705 0
 1454 0082 0023     		movs	r3, #0
 1455 0084 3380     		strh	r3, [r6]	@ movhi
 1456 0086 F8BD     		pop	{r3, r4, r5, r6, r7, pc}
 1457              	.LVL191:
 1458              	.L135:
 1459              		.align	2
 1460              	.L134:
 1461 0088 00000000 		.word	OSIntNestingCtr
 1462 008c 00000000 		.word	OSTCBCurPtr
 1463              		.cfi_endproc
 1464              	.LFE16:
 1465              		.size	OSTaskStkChk, .-OSTaskStkChk
 1466              		.section	.text.OSTaskTimeQuantaSet,"ax",%progbits
 1467              		.align	2
 1468              		.global	OSTaskTimeQuantaSet
 1469              		.thumb
 1470              		.thumb_func
 1471              		.type	OSTaskTimeQuantaSet, %function
 1472              	OSTaskTimeQuantaSet:
 1473              	.LFB18:
1706:uCOS-III\Source/os_task.c **** }
1707:uCOS-III\Source/os_task.c **** #endif
1708:uCOS-III\Source/os_task.c **** 
1709:uCOS-III\Source/os_task.c **** /*$PAGE*/
1710:uCOS-III\Source/os_task.c **** /*
1711:uCOS-III\Source/os_task.c **** ***************************************************************************************************
1712:uCOS-III\Source/os_task.c **** *                                                   SUSPEND A TASK
1713:uCOS-III\Source/os_task.c **** *
ARM GAS  C:\Users\jorti\AppData\Local\Temp\ccDtGf1z.s 			page 57


1714:uCOS-III\Source/os_task.c **** * Description: This function is called to suspend a task.  The task can be the calling task if 'p_t
1715:uCOS-III\Source/os_task.c **** *              or the pointer to the TCB of the calling task.
1716:uCOS-III\Source/os_task.c **** *
1717:uCOS-III\Source/os_task.c **** * Arguments  : p_tcb    is a pointer to the TCB to suspend.
1718:uCOS-III\Source/os_task.c **** *                       If p_tcb is a NULL pointer then, suspend the current task.
1719:uCOS-III\Source/os_task.c **** *
1720:uCOS-III\Source/os_task.c **** *              p_err    is a pointer to a variable that will receive an error code from this functi
1721:uCOS-III\Source/os_task.c **** *
1722:uCOS-III\Source/os_task.c **** *                           OS_ERR_NONE                      if the requested task is suspended
1723:uCOS-III\Source/os_task.c **** *                           OS_ERR_SCHED_LOCKED              you can't suspend the current task is 
1724:uCOS-III\Source/os_task.c **** *                                                            locked
1725:uCOS-III\Source/os_task.c **** *                           OS_ERR_TASK_SUSPEND_ISR          if you called this function from an IS
1726:uCOS-III\Source/os_task.c **** *                           OS_ERR_TASK_SUSPEND_IDLE         if you attempted to suspend the idle t
1727:uCOS-III\Source/os_task.c **** *                                                            allowed.
1728:uCOS-III\Source/os_task.c **** *                           OS_ERR_TASK_SUSPEND_INT_HANDLER  if you attempted to suspend the idle t
1729:uCOS-III\Source/os_task.c **** *                                                            allowed.
1730:uCOS-III\Source/os_task.c **** *
1731:uCOS-III\Source/os_task.c **** * Note(s)    : 1) You should use this function with great care.  If you suspend a task that is wait
1732:uCOS-III\Source/os_task.c **** *                 (i.e. a message, a semaphore, a queue ...) you will prevent this task from runnin
1733:uCOS-III\Source/os_task.c **** *                 arrives.
1734:uCOS-III\Source/os_task.c **** ***************************************************************************************************
1735:uCOS-III\Source/os_task.c **** */
1736:uCOS-III\Source/os_task.c **** 
1737:uCOS-III\Source/os_task.c **** #if OS_CFG_TASK_SUSPEND_EN > 0u
1738:uCOS-III\Source/os_task.c **** void   OSTaskSuspend (OS_TCB  *p_tcb,
1739:uCOS-III\Source/os_task.c ****                       OS_ERR  *p_err)
1740:uCOS-III\Source/os_task.c **** {
1741:uCOS-III\Source/os_task.c **** #ifdef OS_SAFETY_CRITICAL
1742:uCOS-III\Source/os_task.c ****     if (p_err == (OS_ERR *)0) {
1743:uCOS-III\Source/os_task.c ****         OS_SAFETY_CRITICAL_EXCEPTION();
1744:uCOS-III\Source/os_task.c ****         return;
1745:uCOS-III\Source/os_task.c ****     }
1746:uCOS-III\Source/os_task.c **** #endif
1747:uCOS-III\Source/os_task.c **** 
1748:uCOS-III\Source/os_task.c **** #if (OS_CFG_ISR_POST_DEFERRED_EN   == 0u) && \
1749:uCOS-III\Source/os_task.c ****     (OS_CFG_CALLED_FROM_ISR_CHK_EN >  0u)
1750:uCOS-III\Source/os_task.c ****     if (OSIntNestingCtr > (OS_NESTING_CTR)0) {              /* Not allowed to call from an ISR     
1751:uCOS-III\Source/os_task.c ****        *p_err = OS_ERR_TASK_SUSPEND_ISR;
1752:uCOS-III\Source/os_task.c ****         return;
1753:uCOS-III\Source/os_task.c ****     }
1754:uCOS-III\Source/os_task.c **** #endif
1755:uCOS-III\Source/os_task.c **** 
1756:uCOS-III\Source/os_task.c ****     if (p_tcb == &OSIdleTaskTCB) {                          /* Make sure not suspending the idle ta
1757:uCOS-III\Source/os_task.c ****        *p_err = OS_ERR_TASK_SUSPEND_IDLE;
1758:uCOS-III\Source/os_task.c ****         return;
1759:uCOS-III\Source/os_task.c ****     }
1760:uCOS-III\Source/os_task.c **** 
1761:uCOS-III\Source/os_task.c **** #if OS_CFG_ISR_POST_DEFERRED_EN > 0u
1762:uCOS-III\Source/os_task.c ****     if (p_tcb == &OSIntQTaskTCB) {                          /* Not allowed to suspend the ISR handl
1763:uCOS-III\Source/os_task.c ****        *p_err = OS_ERR_TASK_SUSPEND_INT_HANDLER;
1764:uCOS-III\Source/os_task.c ****         return;
1765:uCOS-III\Source/os_task.c ****     }
1766:uCOS-III\Source/os_task.c **** 
1767:uCOS-III\Source/os_task.c ****     if (OSIntNestingCtr > (OS_NESTING_CTR)0) {              /* See if called from an ISR           
1768:uCOS-III\Source/os_task.c ****         OS_IntQPost((OS_OBJ_TYPE)OS_OBJ_TYPE_TASK_SUSPEND,  /* Post to ISR queue                   
1769:uCOS-III\Source/os_task.c ****                     (void      *)p_tcb,
1770:uCOS-III\Source/os_task.c ****                     (void      *)0,
ARM GAS  C:\Users\jorti\AppData\Local\Temp\ccDtGf1z.s 			page 58


1771:uCOS-III\Source/os_task.c ****                     (OS_MSG_SIZE)0,
1772:uCOS-III\Source/os_task.c ****                     (OS_FLAGS   )0,
1773:uCOS-III\Source/os_task.c ****                     (OS_OPT     )0,
1774:uCOS-III\Source/os_task.c ****                     (CPU_TS     )0,
1775:uCOS-III\Source/os_task.c ****                     (OS_ERR    *)p_err);
1776:uCOS-III\Source/os_task.c ****         return;
1777:uCOS-III\Source/os_task.c ****     }
1778:uCOS-III\Source/os_task.c **** #endif
1779:uCOS-III\Source/os_task.c **** 
1780:uCOS-III\Source/os_task.c ****     OS_TaskSuspend(p_tcb, p_err);
1781:uCOS-III\Source/os_task.c **** }
1782:uCOS-III\Source/os_task.c **** #endif
1783:uCOS-III\Source/os_task.c **** 
1784:uCOS-III\Source/os_task.c **** /*$PAGE*/
1785:uCOS-III\Source/os_task.c **** /*
1786:uCOS-III\Source/os_task.c **** ***************************************************************************************************
1787:uCOS-III\Source/os_task.c **** *                                                CHANGE A TASK'S TIME SLICE
1788:uCOS-III\Source/os_task.c **** *
1789:uCOS-III\Source/os_task.c **** * Description: This function is called to change the value of the task's specific time slice.
1790:uCOS-III\Source/os_task.c **** *
1791:uCOS-III\Source/os_task.c **** * Arguments  : p_tcb        is the pointer to the TCB of the task to change. If you specify an NULL
1792:uCOS-III\Source/os_task.c **** *                           task is assumed.
1793:uCOS-III\Source/os_task.c **** *
1794:uCOS-III\Source/os_task.c **** *              time_quanta  is the number of ticks before the CPU is taken away when round-robin sc
1795:uCOS-III\Source/os_task.c **** *
1796:uCOS-III\Source/os_task.c **** *              p_err        is a pointer to an error code returned by this function:
1797:uCOS-III\Source/os_task.c **** *
1798:uCOS-III\Source/os_task.c **** *                               OS_ERR_NONE       upon success
1799:uCOS-III\Source/os_task.c **** *                               OS_ERR_SET_ISR    if you called this function from an ISR
1800:uCOS-III\Source/os_task.c **** *
1801:uCOS-III\Source/os_task.c **** * Returns    : none
1802:uCOS-III\Source/os_task.c **** ***************************************************************************************************
1803:uCOS-III\Source/os_task.c **** */
1804:uCOS-III\Source/os_task.c **** 
1805:uCOS-III\Source/os_task.c **** #if OS_CFG_SCHED_ROUND_ROBIN_EN > 0u
1806:uCOS-III\Source/os_task.c **** void  OSTaskTimeQuantaSet (OS_TCB   *p_tcb,
1807:uCOS-III\Source/os_task.c ****                            OS_TICK   time_quanta,
1808:uCOS-III\Source/os_task.c ****                            OS_ERR   *p_err)
1809:uCOS-III\Source/os_task.c **** {
 1474              		.loc 1 1809 0
 1475              		.cfi_startproc
 1476              		@ args = 0, pretend = 0, frame = 0
 1477              		@ frame_needed = 0, uses_anonymous_args = 0
 1478              	.LVL192:
 1479 0000 70B5     		push	{r4, r5, r6, lr}
 1480              		.cfi_def_cfa_offset 16
 1481              		.cfi_offset 4, -16
 1482              		.cfi_offset 5, -12
 1483              		.cfi_offset 6, -8
 1484              		.cfi_offset 14, -4
 1485 0002 1546     		mov	r5, r2
 1486              	.LVL193:
1810:uCOS-III\Source/os_task.c ****     CPU_SR_ALLOC();
1811:uCOS-III\Source/os_task.c **** 
1812:uCOS-III\Source/os_task.c **** 
1813:uCOS-III\Source/os_task.c **** 
1814:uCOS-III\Source/os_task.c **** #ifdef OS_SAFETY_CRITICAL
ARM GAS  C:\Users\jorti\AppData\Local\Temp\ccDtGf1z.s 			page 59


1815:uCOS-III\Source/os_task.c ****     if (p_err == (OS_ERR *)0) {
1816:uCOS-III\Source/os_task.c ****         OS_SAFETY_CRITICAL_EXCEPTION();
1817:uCOS-III\Source/os_task.c ****         return;
1818:uCOS-III\Source/os_task.c ****     }
1819:uCOS-III\Source/os_task.c **** #endif
1820:uCOS-III\Source/os_task.c **** 
1821:uCOS-III\Source/os_task.c **** #if OS_CFG_CALLED_FROM_ISR_CHK_EN > 0u
1822:uCOS-III\Source/os_task.c ****     if (OSIntNestingCtr > (OS_NESTING_CTR)0) {              /* Can't call this function from an ISR
 1487              		.loc 1 1822 0
 1488 0004 0E4B     		ldr	r3, .L144
 1489 0006 1B78     		ldrb	r3, [r3]	@ zero_extendqisi2
 1490 0008 1BB1     		cbz	r3, .L137
1823:uCOS-III\Source/os_task.c ****        *p_err = OS_ERR_SET_ISR;
 1491              		.loc 1 1823 0
 1492 000a 46F6C653 		movw	r3, #28102
 1493 000e 1380     		strh	r3, [r2]	@ movhi
1824:uCOS-III\Source/os_task.c ****         return;
 1494              		.loc 1 1824 0
 1495 0010 70BD     		pop	{r4, r5, r6, pc}
 1496              	.L137:
 1497 0012 0446     		mov	r4, r0
 1498 0014 0E46     		mov	r6, r1
1825:uCOS-III\Source/os_task.c ****     }
1826:uCOS-III\Source/os_task.c **** #endif
1827:uCOS-III\Source/os_task.c **** 
1828:uCOS-III\Source/os_task.c ****     CPU_CRITICAL_ENTER();
 1499              		.loc 1 1828 0
 1500 0016 FFF7FEFF 		bl	CPU_SR_Save
 1501              	.LVL194:
1829:uCOS-III\Source/os_task.c ****     if (p_tcb == (OS_TCB *)0) {
 1502              		.loc 1 1829 0
 1503 001a 0CB9     		cbnz	r4, .L139
1830:uCOS-III\Source/os_task.c ****         p_tcb = OSTCBCurPtr;
 1504              		.loc 1 1830 0
 1505 001c 094B     		ldr	r3, .L144+4
 1506 001e 1C68     		ldr	r4, [r3]
 1507              	.LVL195:
 1508              	.L139:
1831:uCOS-III\Source/os_task.c ****     }
1832:uCOS-III\Source/os_task.c **** 
1833:uCOS-III\Source/os_task.c ****     if (time_quanta == 0u) {
 1509              		.loc 1 1833 0
 1510 0020 1EB9     		cbnz	r6, .L140
1834:uCOS-III\Source/os_task.c ****         p_tcb->TimeQuanta    = OSSchedRoundRobinDfltTimeQuanta;
 1511              		.loc 1 1834 0
 1512 0022 094B     		ldr	r3, .L144+8
 1513 0024 1B68     		ldr	r3, [r3]
 1514 0026 6365     		str	r3, [r4, #84]
 1515 0028 00E0     		b	.L141
 1516              	.L140:
1835:uCOS-III\Source/os_task.c ****     } else {
1836:uCOS-III\Source/os_task.c ****         p_tcb->TimeQuanta    = time_quanta;
 1517              		.loc 1 1836 0
 1518 002a 6665     		str	r6, [r4, #84]
 1519              	.L141:
1837:uCOS-III\Source/os_task.c ****     }
1838:uCOS-III\Source/os_task.c ****     if (p_tcb->TimeQuanta > p_tcb->TimeQuantaCtr) {
ARM GAS  C:\Users\jorti\AppData\Local\Temp\ccDtGf1z.s 			page 60


 1520              		.loc 1 1838 0
 1521 002c 636D     		ldr	r3, [r4, #84]
 1522 002e A26D     		ldr	r2, [r4, #88]
 1523 0030 9342     		cmp	r3, r2
 1524 0032 00D9     		bls	.L142
1839:uCOS-III\Source/os_task.c ****         p_tcb->TimeQuantaCtr = p_tcb->TimeQuanta;
 1525              		.loc 1 1839 0
 1526 0034 A365     		str	r3, [r4, #88]
 1527              	.L142:
1840:uCOS-III\Source/os_task.c ****     }
1841:uCOS-III\Source/os_task.c ****     CPU_CRITICAL_EXIT();
 1528              		.loc 1 1841 0
 1529 0036 FFF7FEFF 		bl	CPU_SR_Restore
 1530              	.LVL196:
1842:uCOS-III\Source/os_task.c ****    *p_err = OS_ERR_NONE;
 1531              		.loc 1 1842 0
 1532 003a 0023     		movs	r3, #0
 1533 003c 2B80     		strh	r3, [r5]	@ movhi
 1534 003e 70BD     		pop	{r4, r5, r6, pc}
 1535              	.LVL197:
 1536              	.L145:
 1537              		.align	2
 1538              	.L144:
 1539 0040 00000000 		.word	OSIntNestingCtr
 1540 0044 00000000 		.word	OSTCBCurPtr
 1541 0048 00000000 		.word	OSSchedRoundRobinDfltTimeQuanta
 1542              		.cfi_endproc
 1543              	.LFE18:
 1544              		.size	OSTaskTimeQuantaSet, .-OSTaskTimeQuantaSet
 1545              		.section	.text.OS_TaskDbgListAdd,"ax",%progbits
 1546              		.align	2
 1547              		.global	OS_TaskDbgListAdd
 1548              		.thumb
 1549              		.thumb_func
 1550              		.type	OS_TaskDbgListAdd, %function
 1551              	OS_TaskDbgListAdd:
 1552              	.LFB19:
1843:uCOS-III\Source/os_task.c **** }
1844:uCOS-III\Source/os_task.c **** #endif
1845:uCOS-III\Source/os_task.c **** 
1846:uCOS-III\Source/os_task.c **** /*$PAGE*/
1847:uCOS-III\Source/os_task.c **** /*
1848:uCOS-III\Source/os_task.c **** ***************************************************************************************************
1849:uCOS-III\Source/os_task.c **** *                                            ADD/REMOVE TASK TO/FROM DEBUG LIST
1850:uCOS-III\Source/os_task.c **** *
1851:uCOS-III\Source/os_task.c **** * Description: These functions are called by uC/OS-III to add or remove an OS_TCB from the debug li
1852:uCOS-III\Source/os_task.c **** *
1853:uCOS-III\Source/os_task.c **** * Arguments  : p_tcb     is a pointer to the OS_TCB to add/remove
1854:uCOS-III\Source/os_task.c **** *
1855:uCOS-III\Source/os_task.c **** * Returns    : none
1856:uCOS-III\Source/os_task.c **** *
1857:uCOS-III\Source/os_task.c **** * Note(s)    : These functions are INTERNAL to uC/OS-III and your application should not call it.
1858:uCOS-III\Source/os_task.c **** ***************************************************************************************************
1859:uCOS-III\Source/os_task.c **** */
1860:uCOS-III\Source/os_task.c **** 
1861:uCOS-III\Source/os_task.c **** #if OS_CFG_DBG_EN > 0u
1862:uCOS-III\Source/os_task.c **** void  OS_TaskDbgListAdd (OS_TCB  *p_tcb)
ARM GAS  C:\Users\jorti\AppData\Local\Temp\ccDtGf1z.s 			page 61


1863:uCOS-III\Source/os_task.c **** {
 1553              		.loc 1 1863 0
 1554              		.cfi_startproc
 1555              		@ args = 0, pretend = 0, frame = 0
 1556              		@ frame_needed = 0, uses_anonymous_args = 0
 1557              		@ link register save eliminated.
 1558              	.LVL198:
1864:uCOS-III\Source/os_task.c ****     p_tcb->DbgPrevPtr                = (OS_TCB *)0;
 1559              		.loc 1 1864 0
 1560 0000 0023     		movs	r3, #0
 1561 0002 C0F8B430 		str	r3, [r0, #180]
1865:uCOS-III\Source/os_task.c ****     if (OSTaskDbgListPtr == (OS_TCB *)0) {
 1562              		.loc 1 1865 0
 1563 0006 064B     		ldr	r3, .L149
 1564 0008 1B68     		ldr	r3, [r3]
 1565 000a 13B9     		cbnz	r3, .L147
1866:uCOS-III\Source/os_task.c ****         p_tcb->DbgNextPtr            = (OS_TCB *)0;
 1566              		.loc 1 1866 0
 1567 000c C0F8B830 		str	r3, [r0, #184]
 1568 0010 03E0     		b	.L148
 1569              	.L147:
1867:uCOS-III\Source/os_task.c ****     } else {
1868:uCOS-III\Source/os_task.c ****         p_tcb->DbgNextPtr            =  OSTaskDbgListPtr;
 1570              		.loc 1 1868 0
 1571 0012 C0F8B830 		str	r3, [r0, #184]
1869:uCOS-III\Source/os_task.c ****         OSTaskDbgListPtr->DbgPrevPtr =  p_tcb;
 1572              		.loc 1 1869 0
 1573 0016 C3F8B400 		str	r0, [r3, #180]
 1574              	.L148:
1870:uCOS-III\Source/os_task.c ****     }
1871:uCOS-III\Source/os_task.c ****     OSTaskDbgListPtr                 =  p_tcb;
 1575              		.loc 1 1871 0
 1576 001a 014B     		ldr	r3, .L149
 1577 001c 1860     		str	r0, [r3]
 1578 001e 7047     		bx	lr
 1579              	.L150:
 1580              		.align	2
 1581              	.L149:
 1582 0020 00000000 		.word	OSTaskDbgListPtr
 1583              		.cfi_endproc
 1584              	.LFE19:
 1585              		.size	OS_TaskDbgListAdd, .-OS_TaskDbgListAdd
 1586              		.section	.text.OS_TaskDbgListRemove,"ax",%progbits
 1587              		.align	2
 1588              		.global	OS_TaskDbgListRemove
 1589              		.thumb
 1590              		.thumb_func
 1591              		.type	OS_TaskDbgListRemove, %function
 1592              	OS_TaskDbgListRemove:
 1593              	.LFB20:
1872:uCOS-III\Source/os_task.c **** }
1873:uCOS-III\Source/os_task.c **** 
1874:uCOS-III\Source/os_task.c **** 
1875:uCOS-III\Source/os_task.c **** 
1876:uCOS-III\Source/os_task.c **** void  OS_TaskDbgListRemove (OS_TCB  *p_tcb)
1877:uCOS-III\Source/os_task.c **** {
 1594              		.loc 1 1877 0
ARM GAS  C:\Users\jorti\AppData\Local\Temp\ccDtGf1z.s 			page 62


 1595              		.cfi_startproc
 1596              		@ args = 0, pretend = 0, frame = 0
 1597              		@ frame_needed = 0, uses_anonymous_args = 0
 1598              		@ link register save eliminated.
 1599              	.LVL199:
1878:uCOS-III\Source/os_task.c ****     OS_TCB  *p_tcb_next;
1879:uCOS-III\Source/os_task.c ****     OS_TCB  *p_tcb_prev;
1880:uCOS-III\Source/os_task.c **** 
1881:uCOS-III\Source/os_task.c **** 
1882:uCOS-III\Source/os_task.c ****     p_tcb_prev = p_tcb->DbgPrevPtr;
 1600              		.loc 1 1882 0
 1601 0000 D0F8B420 		ldr	r2, [r0, #180]
 1602              	.LVL200:
1883:uCOS-III\Source/os_task.c ****     p_tcb_next = p_tcb->DbgNextPtr;
 1603              		.loc 1 1883 0
 1604 0004 D0F8B830 		ldr	r3, [r0, #184]
 1605              	.LVL201:
1884:uCOS-III\Source/os_task.c **** 
1885:uCOS-III\Source/os_task.c ****     if (p_tcb_prev == (OS_TCB *)0) {
 1606              		.loc 1 1885 0
 1607 0008 4AB9     		cbnz	r2, .L152
1886:uCOS-III\Source/os_task.c ****         OSTaskDbgListPtr = p_tcb_next;
 1608              		.loc 1 1886 0
 1609 000a 0D4A     		ldr	r2, .L156
 1610              	.LVL202:
 1611 000c 1360     		str	r3, [r2]
1887:uCOS-III\Source/os_task.c ****         if (p_tcb_next != (OS_TCB *)0) {
 1612              		.loc 1 1887 0
 1613 000e 13B1     		cbz	r3, .L153
1888:uCOS-III\Source/os_task.c ****             p_tcb_next->DbgPrevPtr = (OS_TCB *)0;
 1614              		.loc 1 1888 0
 1615 0010 0022     		movs	r2, #0
 1616 0012 C3F8B420 		str	r2, [r3, #180]
 1617              	.LVL203:
 1618              	.L153:
1889:uCOS-III\Source/os_task.c ****         }
1890:uCOS-III\Source/os_task.c ****         p_tcb->DbgNextPtr = (OS_TCB *)0;
 1619              		.loc 1 1890 0
 1620 0016 0023     		movs	r3, #0
 1621              	.LVL204:
 1622 0018 C0F8B830 		str	r3, [r0, #184]
 1623 001c 7047     		bx	lr
 1624              	.LVL205:
 1625              	.L152:
1891:uCOS-III\Source/os_task.c **** 
1892:uCOS-III\Source/os_task.c ****     } else if (p_tcb_next == (OS_TCB *)0) {
 1626              		.loc 1 1892 0
 1627 001e 23B9     		cbnz	r3, .L155
1893:uCOS-III\Source/os_task.c ****         p_tcb_prev->DbgNextPtr = (OS_TCB *)0;
 1628              		.loc 1 1893 0
 1629 0020 C2F8B830 		str	r3, [r2, #184]
1894:uCOS-III\Source/os_task.c ****         p_tcb->DbgPrevPtr      = (OS_TCB *)0;
 1630              		.loc 1 1894 0
 1631 0024 C0F8B430 		str	r3, [r0, #180]
 1632 0028 7047     		bx	lr
 1633              	.L155:
1895:uCOS-III\Source/os_task.c **** 
ARM GAS  C:\Users\jorti\AppData\Local\Temp\ccDtGf1z.s 			page 63


1896:uCOS-III\Source/os_task.c ****     } else {
1897:uCOS-III\Source/os_task.c ****         p_tcb_prev->DbgNextPtr =  p_tcb_next;
 1634              		.loc 1 1897 0
 1635 002a C2F8B830 		str	r3, [r2, #184]
1898:uCOS-III\Source/os_task.c ****         p_tcb_next->DbgPrevPtr =  p_tcb_prev;
 1636              		.loc 1 1898 0
 1637 002e C3F8B420 		str	r2, [r3, #180]
1899:uCOS-III\Source/os_task.c ****         p_tcb->DbgNextPtr      = (OS_TCB *)0;
 1638              		.loc 1 1899 0
 1639 0032 0023     		movs	r3, #0
 1640              	.LVL206:
 1641 0034 C0F8B830 		str	r3, [r0, #184]
1900:uCOS-III\Source/os_task.c ****         p_tcb->DbgPrevPtr      = (OS_TCB *)0;
 1642              		.loc 1 1900 0
 1643 0038 C0F8B430 		str	r3, [r0, #180]
 1644 003c 7047     		bx	lr
 1645              	.L157:
 1646 003e 00BF     		.align	2
 1647              	.L156:
 1648 0040 00000000 		.word	OSTaskDbgListPtr
 1649              		.cfi_endproc
 1650              	.LFE20:
 1651              		.size	OS_TaskDbgListRemove, .-OS_TaskDbgListRemove
 1652              		.section	.text.OS_TaskInit,"ax",%progbits
 1653              		.align	2
 1654              		.global	OS_TaskInit
 1655              		.thumb
 1656              		.thumb_func
 1657              		.type	OS_TaskInit, %function
 1658              	OS_TaskInit:
 1659              	.LFB21:
1901:uCOS-III\Source/os_task.c ****     }
1902:uCOS-III\Source/os_task.c **** }
1903:uCOS-III\Source/os_task.c **** #endif
1904:uCOS-III\Source/os_task.c **** 
1905:uCOS-III\Source/os_task.c **** /*$PAGE*/
1906:uCOS-III\Source/os_task.c **** /*
1907:uCOS-III\Source/os_task.c **** ***************************************************************************************************
1908:uCOS-III\Source/os_task.c **** *                                             TASK MANAGER INITIALIZATION
1909:uCOS-III\Source/os_task.c **** *
1910:uCOS-III\Source/os_task.c **** * Description: This function is called by OSInit() to initialize the task management.
1911:uCOS-III\Source/os_task.c **** *
1912:uCOS-III\Source/os_task.c **** 
1913:uCOS-III\Source/os_task.c **** * Argument(s): p_err        is a pointer to a variable that will contain an error code returned by 
1914:uCOS-III\Source/os_task.c **** *
1915:uCOS-III\Source/os_task.c **** *                                OS_ERR_NONE     the call was successful
1916:uCOS-III\Source/os_task.c **** *
1917:uCOS-III\Source/os_task.c **** * Returns    : none
1918:uCOS-III\Source/os_task.c **** *
1919:uCOS-III\Source/os_task.c **** * Note(s)    : This function is INTERNAL to uC/OS-III and your application should not call it.
1920:uCOS-III\Source/os_task.c **** ***************************************************************************************************
1921:uCOS-III\Source/os_task.c **** */
1922:uCOS-III\Source/os_task.c **** 
1923:uCOS-III\Source/os_task.c **** void  OS_TaskInit (OS_ERR  *p_err)
1924:uCOS-III\Source/os_task.c **** {
 1660              		.loc 1 1924 0
 1661              		.cfi_startproc
ARM GAS  C:\Users\jorti\AppData\Local\Temp\ccDtGf1z.s 			page 64


 1662              		@ args = 0, pretend = 0, frame = 0
 1663              		@ frame_needed = 0, uses_anonymous_args = 0
 1664              		@ link register save eliminated.
 1665              	.LVL207:
1925:uCOS-III\Source/os_task.c **** #ifdef OS_SAFETY_CRITICAL
1926:uCOS-III\Source/os_task.c ****     if (p_err == (OS_ERR *)0) {
1927:uCOS-III\Source/os_task.c ****         OS_SAFETY_CRITICAL_EXCEPTION();
1928:uCOS-III\Source/os_task.c ****         return;
1929:uCOS-III\Source/os_task.c ****     }
1930:uCOS-III\Source/os_task.c **** #endif
1931:uCOS-III\Source/os_task.c **** 
1932:uCOS-III\Source/os_task.c **** #if OS_CFG_DBG_EN > 0u
1933:uCOS-III\Source/os_task.c ****     OSTaskDbgListPtr = (OS_TCB      *)0;
 1666              		.loc 1 1933 0
 1667 0000 0023     		movs	r3, #0
 1668 0002 044A     		ldr	r2, .L159
 1669 0004 1360     		str	r3, [r2]
1934:uCOS-III\Source/os_task.c **** #endif
1935:uCOS-III\Source/os_task.c **** 
1936:uCOS-III\Source/os_task.c ****     OSTaskQty        = (OS_OBJ_QTY   )0;                    /* Clear the number of tasks           
 1670              		.loc 1 1936 0
 1671 0006 044A     		ldr	r2, .L159+4
 1672 0008 1380     		strh	r3, [r2]	@ movhi
1937:uCOS-III\Source/os_task.c ****     OSTaskCtxSwCtr   = (OS_CTX_SW_CTR)0;                    /* Clear the context switch counter    
 1673              		.loc 1 1937 0
 1674 000a 044A     		ldr	r2, .L159+8
 1675 000c 1360     		str	r3, [r2]
1938:uCOS-III\Source/os_task.c **** 
1939:uCOS-III\Source/os_task.c ****    *p_err            = OS_ERR_NONE;
 1676              		.loc 1 1939 0
 1677 000e 0380     		strh	r3, [r0]	@ movhi
 1678 0010 7047     		bx	lr
 1679              	.L160:
 1680 0012 00BF     		.align	2
 1681              	.L159:
 1682 0014 00000000 		.word	OSTaskDbgListPtr
 1683 0018 00000000 		.word	OSTaskQty
 1684 001c 00000000 		.word	OSTaskCtxSwCtr
 1685              		.cfi_endproc
 1686              	.LFE21:
 1687              		.size	OS_TaskInit, .-OS_TaskInit
 1688              		.section	.text.OS_TaskInitTCB,"ax",%progbits
 1689              		.align	2
 1690              		.global	OS_TaskInitTCB
 1691              		.thumb
 1692              		.thumb_func
 1693              		.type	OS_TaskInitTCB, %function
 1694              	OS_TaskInitTCB:
 1695              	.LFB22:
1940:uCOS-III\Source/os_task.c **** }
1941:uCOS-III\Source/os_task.c **** 
1942:uCOS-III\Source/os_task.c **** /*$PAGE*/
1943:uCOS-III\Source/os_task.c **** /*
1944:uCOS-III\Source/os_task.c **** ***************************************************************************************************
1945:uCOS-III\Source/os_task.c **** *                                               INITIALIZE TCB FIELDS
1946:uCOS-III\Source/os_task.c **** *
1947:uCOS-III\Source/os_task.c **** * Description: This function is called to initialize a TCB to default values
ARM GAS  C:\Users\jorti\AppData\Local\Temp\ccDtGf1z.s 			page 65


1948:uCOS-III\Source/os_task.c **** *
1949:uCOS-III\Source/os_task.c **** * Arguments  : p_tcb    is a pointer to the TCB to initialize
1950:uCOS-III\Source/os_task.c **** *
1951:uCOS-III\Source/os_task.c **** * Returns    : none
1952:uCOS-III\Source/os_task.c **** *
1953:uCOS-III\Source/os_task.c **** * Note(s)    : This function is INTERNAL to uC/OS-III and your application should not call it.
1954:uCOS-III\Source/os_task.c **** ***************************************************************************************************
1955:uCOS-III\Source/os_task.c **** */
1956:uCOS-III\Source/os_task.c **** 
1957:uCOS-III\Source/os_task.c **** void  OS_TaskInitTCB (OS_TCB  *p_tcb)
1958:uCOS-III\Source/os_task.c **** {
 1696              		.loc 1 1958 0
 1697              		.cfi_startproc
 1698              		@ args = 0, pretend = 0, frame = 0
 1699              		@ frame_needed = 0, uses_anonymous_args = 0
 1700              	.LVL208:
 1701 0000 38B5     		push	{r3, r4, r5, lr}
 1702              		.cfi_def_cfa_offset 16
 1703              		.cfi_offset 3, -16
 1704              		.cfi_offset 4, -12
 1705              		.cfi_offset 5, -8
 1706              		.cfi_offset 14, -4
 1707 0002 0446     		mov	r4, r0
1959:uCOS-III\Source/os_task.c **** #if OS_CFG_TASK_REG_TBL_SIZE > 0u
1960:uCOS-III\Source/os_task.c ****     OS_REG_ID   reg_id;
1961:uCOS-III\Source/os_task.c **** #endif
1962:uCOS-III\Source/os_task.c **** #if defined(OS_CFG_TLS_TBL_SIZE) && (OS_CFG_TLS_TBL_SIZE > 0u)
1963:uCOS-III\Source/os_task.c ****     OS_TLS_ID   id;
1964:uCOS-III\Source/os_task.c **** #endif
1965:uCOS-III\Source/os_task.c **** #if OS_CFG_TASK_PROFILE_EN > 0u
1966:uCOS-III\Source/os_task.c ****     CPU_TS      ts;
1967:uCOS-III\Source/os_task.c **** #endif
1968:uCOS-III\Source/os_task.c **** 
1969:uCOS-III\Source/os_task.c **** 
1970:uCOS-III\Source/os_task.c ****     p_tcb->StkPtr             = (CPU_STK       *)0;
 1708              		.loc 1 1970 0
 1709 0004 0025     		movs	r5, #0
 1710 0006 0560     		str	r5, [r0]
1971:uCOS-III\Source/os_task.c ****     p_tcb->StkLimitPtr        = (CPU_STK       *)0;
 1711              		.loc 1 1971 0
 1712 0008 8560     		str	r5, [r0, #8]
1972:uCOS-III\Source/os_task.c **** 
1973:uCOS-III\Source/os_task.c ****     p_tcb->ExtPtr             = (void          *)0;
 1713              		.loc 1 1973 0
 1714 000a 4560     		str	r5, [r0, #4]
1974:uCOS-III\Source/os_task.c **** 
1975:uCOS-III\Source/os_task.c ****     p_tcb->NextPtr            = (OS_TCB        *)0;
 1715              		.loc 1 1975 0
 1716 000c C560     		str	r5, [r0, #12]
1976:uCOS-III\Source/os_task.c ****     p_tcb->PrevPtr            = (OS_TCB        *)0;
 1717              		.loc 1 1976 0
 1718 000e 0561     		str	r5, [r0, #16]
1977:uCOS-III\Source/os_task.c **** 
1978:uCOS-III\Source/os_task.c ****     p_tcb->TickNextPtr        = (OS_TCB        *)0;
 1719              		.loc 1 1978 0
 1720 0010 4561     		str	r5, [r0, #20]
1979:uCOS-III\Source/os_task.c ****     p_tcb->TickPrevPtr        = (OS_TCB        *)0;
ARM GAS  C:\Users\jorti\AppData\Local\Temp\ccDtGf1z.s 			page 66


 1721              		.loc 1 1979 0
 1722 0012 8561     		str	r5, [r0, #24]
1980:uCOS-III\Source/os_task.c ****     p_tcb->TickSpokePtr       = (OS_TICK_SPOKE *)0;
 1723              		.loc 1 1980 0
 1724 0014 C561     		str	r5, [r0, #28]
1981:uCOS-III\Source/os_task.c **** 
1982:uCOS-III\Source/os_task.c ****     p_tcb->NamePtr            = (CPU_CHAR      *)((void *)"?Task");
 1725              		.loc 1 1982 0
 1726 0016 2B4B     		ldr	r3, .L165
 1727 0018 0362     		str	r3, [r0, #32]
1983:uCOS-III\Source/os_task.c **** 
1984:uCOS-III\Source/os_task.c ****     p_tcb->StkBasePtr         = (CPU_STK       *)0;
 1728              		.loc 1 1984 0
 1729 001a 4562     		str	r5, [r0, #36]
1985:uCOS-III\Source/os_task.c **** 
1986:uCOS-III\Source/os_task.c ****     p_tcb->TaskEntryAddr      = (OS_TASK_PTR    )0;
 1730              		.loc 1 1986 0
 1731 001c 8562     		str	r5, [r0, #40]
1987:uCOS-III\Source/os_task.c ****     p_tcb->TaskEntryArg       = (void          *)0;
 1732              		.loc 1 1987 0
 1733 001e C562     		str	r5, [r0, #44]
1988:uCOS-III\Source/os_task.c **** 
1989:uCOS-III\Source/os_task.c **** #if (OS_CFG_PEND_MULTI_EN > 0u)
1990:uCOS-III\Source/os_task.c ****     p_tcb->PendDataTblPtr     = (OS_PEND_DATA  *)0;
 1734              		.loc 1 1990 0
 1735 0020 0563     		str	r5, [r0, #48]
1991:uCOS-III\Source/os_task.c ****     p_tcb->PendDataTblEntries = (OS_OBJ_QTY     )0u;
 1736              		.loc 1 1991 0
 1737 0022 C587     		strh	r5, [r0, #62]	@ movhi
1992:uCOS-III\Source/os_task.c **** #endif
1993:uCOS-III\Source/os_task.c **** 
1994:uCOS-III\Source/os_task.c ****     p_tcb->TS                 = (CPU_TS         )0u;
 1738              		.loc 1 1994 0
 1739 0024 0564     		str	r5, [r0, #64]
1995:uCOS-III\Source/os_task.c **** 
1996:uCOS-III\Source/os_task.c **** #if (OS_MSG_EN > 0u)
1997:uCOS-III\Source/os_task.c ****     p_tcb->MsgPtr             = (void          *)0;
 1740              		.loc 1 1997 0
 1741 0026 C565     		str	r5, [r0, #92]
1998:uCOS-III\Source/os_task.c ****     p_tcb->MsgSize            = (OS_MSG_SIZE    )0u;
 1742              		.loc 1 1998 0
 1743 0028 A0F86050 		strh	r5, [r0, #96]	@ movhi
1999:uCOS-III\Source/os_task.c **** #endif
2000:uCOS-III\Source/os_task.c **** 
2001:uCOS-III\Source/os_task.c **** #if OS_CFG_TASK_Q_EN > 0u
2002:uCOS-III\Source/os_task.c ****     OS_MsgQInit(&p_tcb->MsgQ,
 1744              		.loc 1 2002 0
 1745 002c 2946     		mov	r1, r5
 1746 002e 6430     		adds	r0, r0, #100
 1747              	.LVL209:
 1748 0030 FFF7FEFF 		bl	OS_MsgQInit
 1749              	.LVL210:
2003:uCOS-III\Source/os_task.c ****                 (OS_MSG_QTY)0u);
2004:uCOS-III\Source/os_task.c **** #if OS_CFG_TASK_PROFILE_EN > 0u
2005:uCOS-III\Source/os_task.c ****     p_tcb->MsgQPendTime       = (CPU_TS         )0u;
 1750              		.loc 1 2005 0
 1751 0034 6567     		str	r5, [r4, #116]
ARM GAS  C:\Users\jorti\AppData\Local\Temp\ccDtGf1z.s 			page 67


2006:uCOS-III\Source/os_task.c ****     p_tcb->MsgQPendTimeMax    = (CPU_TS         )0u;
 1752              		.loc 1 2006 0
 1753 0036 A567     		str	r5, [r4, #120]
2007:uCOS-III\Source/os_task.c **** #endif
2008:uCOS-III\Source/os_task.c **** #endif
2009:uCOS-III\Source/os_task.c **** 
2010:uCOS-III\Source/os_task.c **** #if OS_CFG_FLAG_EN > 0u
2011:uCOS-III\Source/os_task.c ****     p_tcb->FlagsPend          = (OS_FLAGS       )0u;
 1754              		.loc 1 2011 0
 1755 0038 C4F88050 		str	r5, [r4, #128]
2012:uCOS-III\Source/os_task.c ****     p_tcb->FlagsOpt           = (OS_OPT         )0u;
 1756              		.loc 1 2012 0
 1757 003c A4F88850 		strh	r5, [r4, #136]	@ movhi
2013:uCOS-III\Source/os_task.c ****     p_tcb->FlagsRdy           = (OS_FLAGS       )0u;
 1758              		.loc 1 2013 0
 1759 0040 C4F88450 		str	r5, [r4, #132]
 1760              	.LVL211:
2014:uCOS-III\Source/os_task.c **** #endif
2015:uCOS-III\Source/os_task.c **** 
2016:uCOS-III\Source/os_task.c **** #if OS_CFG_TASK_REG_TBL_SIZE > 0u
2017:uCOS-III\Source/os_task.c ****     for (reg_id = 0u; reg_id < OS_CFG_TASK_REG_TBL_SIZE; reg_id++) {
 1761              		.loc 1 2017 0
 1762 0044 07E0     		b	.L162
 1763              	.LVL212:
 1764              	.L163:
2018:uCOS-III\Source/os_task.c ****         p_tcb->RegTbl[reg_id] = (OS_REG)0u;
 1765              		.loc 1 2018 0 discriminator 3
 1766 0046 05F11E03 		add	r3, r5, #30
 1767 004a 04EB8303 		add	r3, r4, r3, lsl #2
 1768 004e 0022     		movs	r2, #0
 1769 0050 5A60     		str	r2, [r3, #4]
2017:uCOS-III\Source/os_task.c ****         p_tcb->RegTbl[reg_id] = (OS_REG)0u;
 1770              		.loc 1 2017 0 discriminator 3
 1771 0052 0135     		adds	r5, r5, #1
 1772              	.LVL213:
 1773 0054 EDB2     		uxtb	r5, r5
 1774              	.LVL214:
 1775              	.L162:
2017:uCOS-III\Source/os_task.c ****         p_tcb->RegTbl[reg_id] = (OS_REG)0u;
 1776              		.loc 1 2017 0 is_stmt 0 discriminator 1
 1777 0056 002D     		cmp	r5, #0
 1778 0058 F5D0     		beq	.L163
2019:uCOS-III\Source/os_task.c ****     }
2020:uCOS-III\Source/os_task.c **** #endif
2021:uCOS-III\Source/os_task.c **** 
2022:uCOS-III\Source/os_task.c **** #if defined(OS_CFG_TLS_TBL_SIZE) && (OS_CFG_TLS_TBL_SIZE > 0u)
2023:uCOS-III\Source/os_task.c ****     for (id = 0u; id < OS_CFG_TLS_TBL_SIZE; id++) {
2024:uCOS-III\Source/os_task.c ****         p_tcb->TLS_Tbl[id]    = (OS_TLS)0;
2025:uCOS-III\Source/os_task.c ****     }
2026:uCOS-III\Source/os_task.c **** #endif
2027:uCOS-III\Source/os_task.c **** 
2028:uCOS-III\Source/os_task.c ****     p_tcb->SemCtr             = (OS_SEM_CTR     )0u;
 1779              		.loc 1 2028 0 is_stmt 1
 1780 005a 0025     		movs	r5, #0
 1781              	.LVL215:
 1782 005c 6564     		str	r5, [r4, #68]
2029:uCOS-III\Source/os_task.c **** #if OS_CFG_TASK_PROFILE_EN > 0u
ARM GAS  C:\Users\jorti\AppData\Local\Temp\ccDtGf1z.s 			page 68


2030:uCOS-III\Source/os_task.c ****     p_tcb->SemPendTime        = (CPU_TS         )0u;
 1783              		.loc 1 2030 0
 1784 005e C4F8A450 		str	r5, [r4, #164]
2031:uCOS-III\Source/os_task.c ****     p_tcb->SemPendTimeMax     = (CPU_TS         )0u;
 1785              		.loc 1 2031 0
 1786 0062 C4F8A850 		str	r5, [r4, #168]
2032:uCOS-III\Source/os_task.c **** #endif
2033:uCOS-III\Source/os_task.c **** 
2034:uCOS-III\Source/os_task.c ****     p_tcb->StkSize            = (CPU_STK_SIZE   )0u;
 1787              		.loc 1 2034 0
 1788 0066 A563     		str	r5, [r4, #56]
2035:uCOS-III\Source/os_task.c **** 
2036:uCOS-III\Source/os_task.c **** 
2037:uCOS-III\Source/os_task.c **** #if OS_CFG_TASK_SUSPEND_EN > 0u
2038:uCOS-III\Source/os_task.c ****     p_tcb->SuspendCtr         = (OS_NESTING_CTR )0u;
 1789              		.loc 1 2038 0
 1790 0068 84F88A50 		strb	r5, [r4, #138]
2039:uCOS-III\Source/os_task.c **** #endif
2040:uCOS-III\Source/os_task.c **** 
2041:uCOS-III\Source/os_task.c **** #if OS_CFG_STAT_TASK_STK_CHK_EN > 0u
2042:uCOS-III\Source/os_task.c ****     p_tcb->StkFree            = (CPU_STK_SIZE   )0u;
 1791              		.loc 1 2042 0
 1792 006c C4F8B050 		str	r5, [r4, #176]
2043:uCOS-III\Source/os_task.c ****     p_tcb->StkUsed            = (CPU_STK_SIZE   )0u;
 1793              		.loc 1 2043 0
 1794 0070 C4F8AC50 		str	r5, [r4, #172]
2044:uCOS-III\Source/os_task.c **** #endif
2045:uCOS-III\Source/os_task.c **** 
2046:uCOS-III\Source/os_task.c ****     p_tcb->Opt                = (OS_OPT         )0u;
 1795              		.loc 1 2046 0
 1796 0074 A587     		strh	r5, [r4, #60]	@ movhi
2047:uCOS-III\Source/os_task.c **** 
2048:uCOS-III\Source/os_task.c ****     p_tcb->TickCtrPrev        = (OS_TICK        )OS_TICK_TH_INIT;
 1797              		.loc 1 2048 0
 1798 0076 4FF00043 		mov	r3, #-2147483648
 1799 007a A364     		str	r3, [r4, #72]
2049:uCOS-III\Source/os_task.c ****     p_tcb->TickCtrMatch       = (OS_TICK        )0u;
 1800              		.loc 1 2049 0
 1801 007c E564     		str	r5, [r4, #76]
2050:uCOS-III\Source/os_task.c ****     p_tcb->TickRemain         = (OS_TICK        )0u;
 1802              		.loc 1 2050 0
 1803 007e 2565     		str	r5, [r4, #80]
2051:uCOS-III\Source/os_task.c **** 
2052:uCOS-III\Source/os_task.c ****     p_tcb->TimeQuanta         = (OS_TICK        )0u;
 1804              		.loc 1 2052 0
 1805 0080 6565     		str	r5, [r4, #84]
2053:uCOS-III\Source/os_task.c ****     p_tcb->TimeQuantaCtr      = (OS_TICK        )0u;
 1806              		.loc 1 2053 0
 1807 0082 A565     		str	r5, [r4, #88]
2054:uCOS-III\Source/os_task.c **** 
2055:uCOS-III\Source/os_task.c **** #if OS_CFG_TASK_PROFILE_EN > 0u
2056:uCOS-III\Source/os_task.c ****     p_tcb->CPUUsage           = (OS_CPU_USAGE   )0u;
 1808              		.loc 1 2056 0
 1809 0084 A4F88C50 		strh	r5, [r4, #140]	@ movhi
2057:uCOS-III\Source/os_task.c ****     p_tcb->CPUUsageMax        = (OS_CPU_USAGE   )0u;
 1810              		.loc 1 2057 0
 1811 0088 A4F88E50 		strh	r5, [r4, #142]	@ movhi
ARM GAS  C:\Users\jorti\AppData\Local\Temp\ccDtGf1z.s 			page 69


2058:uCOS-III\Source/os_task.c ****     p_tcb->CtxSwCtr           = (OS_CTX_SW_CTR  )0u;
 1812              		.loc 1 2058 0
 1813 008c C4F89050 		str	r5, [r4, #144]
2059:uCOS-III\Source/os_task.c ****     p_tcb->CyclesDelta        = (CPU_TS         )0u;
 1814              		.loc 1 2059 0
 1815 0090 C4F89450 		str	r5, [r4, #148]
2060:uCOS-III\Source/os_task.c ****     ts                        = OS_TS_GET();                /* Read the current timestamp and save 
 1816              		.loc 1 2060 0
 1817 0094 FFF7FEFF 		bl	CPU_TS_TmrRd
 1818              	.LVL216:
2061:uCOS-III\Source/os_task.c ****     p_tcb->CyclesStart        = ts;
 1819              		.loc 1 2061 0
 1820 0098 C4F89800 		str	r0, [r4, #152]
2062:uCOS-III\Source/os_task.c ****     p_tcb->CyclesTotal        = (OS_CYCLES      )0u;
 1821              		.loc 1 2062 0
 1822 009c C4F89C50 		str	r5, [r4, #156]
2063:uCOS-III\Source/os_task.c **** #endif
2064:uCOS-III\Source/os_task.c **** #ifdef CPU_CFG_INT_DIS_MEAS_EN
2065:uCOS-III\Source/os_task.c ****     p_tcb->IntDisTimeMax      = (CPU_TS         )0u;
2066:uCOS-III\Source/os_task.c **** #endif
2067:uCOS-III\Source/os_task.c **** #if OS_CFG_SCHED_LOCK_TIME_MEAS_EN > 0u
2068:uCOS-III\Source/os_task.c ****     p_tcb->SchedLockTimeMax   = (CPU_TS         )0u;
2069:uCOS-III\Source/os_task.c **** #endif
2070:uCOS-III\Source/os_task.c **** 
2071:uCOS-III\Source/os_task.c ****     p_tcb->PendOn             = (OS_STATE       )OS_TASK_PEND_ON_NOTHING;
 1823              		.loc 1 2071 0
 1824 00a0 84F83450 		strb	r5, [r4, #52]
2072:uCOS-III\Source/os_task.c ****     p_tcb->PendStatus         = (OS_STATUS      )OS_STATUS_PEND_OK;
 1825              		.loc 1 2072 0
 1826 00a4 84F83550 		strb	r5, [r4, #53]
2073:uCOS-III\Source/os_task.c ****     p_tcb->TaskState          = (OS_STATE       )OS_TASK_STATE_RDY;
 1827              		.loc 1 2073 0
 1828 00a8 84F83650 		strb	r5, [r4, #54]
2074:uCOS-III\Source/os_task.c **** 
2075:uCOS-III\Source/os_task.c ****     p_tcb->Prio               = (OS_PRIO        )OS_PRIO_INIT;
 1829              		.loc 1 2075 0
 1830 00ac 0823     		movs	r3, #8
 1831 00ae 84F83730 		strb	r3, [r4, #55]
2076:uCOS-III\Source/os_task.c **** 
2077:uCOS-III\Source/os_task.c **** #if OS_CFG_DBG_EN > 0u
2078:uCOS-III\Source/os_task.c ****     p_tcb->DbgPrevPtr         = (OS_TCB        *)0;
 1832              		.loc 1 2078 0
 1833 00b2 C4F8B450 		str	r5, [r4, #180]
2079:uCOS-III\Source/os_task.c ****     p_tcb->DbgNextPtr         = (OS_TCB        *)0;
 1834              		.loc 1 2079 0
 1835 00b6 C4F8B850 		str	r5, [r4, #184]
2080:uCOS-III\Source/os_task.c ****     p_tcb->DbgNamePtr         = (CPU_CHAR      *)((void *)" ");
 1836              		.loc 1 2080 0
 1837 00ba 034B     		ldr	r3, .L165+4
 1838 00bc C4F8BC30 		str	r3, [r4, #188]
 1839 00c0 38BD     		pop	{r3, r4, r5, pc}
 1840              	.LVL217:
 1841              	.L166:
 1842 00c2 00BF     		.align	2
 1843              	.L165:
 1844 00c4 00000000 		.word	.LC0
 1845 00c8 08000000 		.word	.LC1
ARM GAS  C:\Users\jorti\AppData\Local\Temp\ccDtGf1z.s 			page 70


 1846              		.cfi_endproc
 1847              	.LFE22:
 1848              		.size	OS_TaskInitTCB, .-OS_TaskInitTCB
 1849              		.section	.text.OSTaskCreate,"ax",%progbits
 1850              		.align	2
 1851              		.global	OSTaskCreate
 1852              		.thumb
 1853              		.thumb_func
 1854              		.type	OSTaskCreate, %function
 1855              	OSTaskCreate:
 1856              	.LFB2:
 262:uCOS-III\Source/os_task.c ****     CPU_STK_SIZE   i;
 1857              		.loc 1 262 0
 1858              		.cfi_startproc
 1859              		@ args = 36, pretend = 0, frame = 0
 1860              		@ frame_needed = 0, uses_anonymous_args = 0
 1861              	.LVL218:
 1862 0000 2DE9F04E 		push	{r4, r5, r6, r7, r9, r10, fp, lr}
 1863              		.cfi_def_cfa_offset 32
 1864              		.cfi_offset 4, -32
 1865              		.cfi_offset 5, -28
 1866              		.cfi_offset 6, -24
 1867              		.cfi_offset 7, -20
 1868              		.cfi_offset 9, -16
 1869              		.cfi_offset 10, -12
 1870              		.cfi_offset 11, -8
 1871              		.cfi_offset 14, -4
 1872 0004 82B0     		sub	sp, sp, #8
 1873              		.cfi_def_cfa_offset 40
 1874 0006 9DF82860 		ldrb	r6, [sp, #40]	@ zero_extendqisi2
 1875 000a BDF84470 		ldrh	r7, [sp, #68]
 1876              	.LVL219:
 292:uCOS-III\Source/os_task.c ****        *p_err = OS_ERR_TASK_CREATE_ISR;
 1877              		.loc 1 292 0
 1878 000e 604D     		ldr	r5, .L187
 1879 0010 2D78     		ldrb	r5, [r5]	@ zero_extendqisi2
 1880 0012 25B1     		cbz	r5, .L168
 293:uCOS-III\Source/os_task.c ****         return;
 1881              		.loc 1 293 0
 1882 0014 47F24A13 		movw	r3, #29002
 1883              	.LVL220:
 1884 0018 129A     		ldr	r2, [sp, #72]
 1885              	.LVL221:
 1886 001a 1380     		strh	r3, [r2]	@ movhi
 294:uCOS-III\Source/os_task.c ****     }
 1887              		.loc 1 294 0
 1888 001c B4E0     		b	.L167
 1889              	.LVL222:
 1890              	.L168:
 299:uCOS-III\Source/os_task.c ****        *p_err = OS_ERR_TCB_INVALID;
 1891              		.loc 1 299 0
 1892 001e 20B9     		cbnz	r0, .L170
 300:uCOS-III\Source/os_task.c ****         return;
 1893              		.loc 1 300 0
 1894 0020 47F2AD13 		movw	r3, #29101
 1895              	.LVL223:
 1896 0024 129A     		ldr	r2, [sp, #72]
ARM GAS  C:\Users\jorti\AppData\Local\Temp\ccDtGf1z.s 			page 71


 1897              	.LVL224:
 1898 0026 1380     		strh	r3, [r2]	@ movhi
 301:uCOS-III\Source/os_task.c ****     }
 1899              		.loc 1 301 0
 1900 0028 AEE0     		b	.L167
 1901              	.LVL225:
 1902              	.L170:
 303:uCOS-III\Source/os_task.c ****        *p_err = OS_ERR_TASK_INVALID;
 1903              		.loc 1 303 0
 1904 002a 22B9     		cbnz	r2, .L171
 304:uCOS-III\Source/os_task.c ****         return;
 1905              		.loc 1 304 0
 1906 002c 47F24F13 		movw	r3, #29007
 1907              	.LVL226:
 1908 0030 129A     		ldr	r2, [sp, #72]
 1909              	.LVL227:
 1910 0032 1380     		strh	r3, [r2]	@ movhi
 305:uCOS-III\Source/os_task.c ****     }
 1911              		.loc 1 305 0
 1912 0034 A8E0     		b	.L167
 1913              	.LVL228:
 1914              	.L171:
 307:uCOS-III\Source/os_task.c ****        *p_err = OS_ERR_STK_INVALID;
 1915              		.loc 1 307 0
 1916 0036 0B9C     		ldr	r4, [sp, #44]
 1917 0038 24B9     		cbnz	r4, .L172
 308:uCOS-III\Source/os_task.c ****         return;
 1918              		.loc 1 308 0
 1919 003a 46F62F63 		movw	r3, #28207
 1920              	.LVL229:
 1921 003e 129A     		ldr	r2, [sp, #72]
 1922              	.LVL230:
 1923 0040 1380     		strh	r3, [r2]	@ movhi
 309:uCOS-III\Source/os_task.c ****     }
 1924              		.loc 1 309 0
 1925 0042 A1E0     		b	.L167
 1926              	.LVL231:
 1927              	.L172:
 311:uCOS-III\Source/os_task.c ****        *p_err = OS_ERR_STK_SIZE_INVALID;
 1928              		.loc 1 311 0
 1929 0044 534D     		ldr	r5, .L187+4
 1930 0046 2D68     		ldr	r5, [r5]
 1931 0048 0D9C     		ldr	r4, [sp, #52]
 1932 004a A542     		cmp	r5, r4
 1933 004c 04D9     		bls	.L173
 312:uCOS-III\Source/os_task.c ****         return;
 1934              		.loc 1 312 0
 1935 004e 46F63063 		movw	r3, #28208
 1936              	.LVL232:
 1937 0052 129A     		ldr	r2, [sp, #72]
 1938              	.LVL233:
 1939 0054 1380     		strh	r3, [r2]	@ movhi
 313:uCOS-III\Source/os_task.c ****     }
 1940              		.loc 1 313 0
 1941 0056 97E0     		b	.L167
 1942              	.LVL234:
 1943              	.L173:
ARM GAS  C:\Users\jorti\AppData\Local\Temp\ccDtGf1z.s 			page 72


 315:uCOS-III\Source/os_task.c ****        *p_err = OS_ERR_STK_LIMIT_INVALID;
 1944              		.loc 1 315 0
 1945 0058 0D9C     		ldr	r4, [sp, #52]
 1946 005a 0C9D     		ldr	r5, [sp, #48]
 1947 005c AC42     		cmp	r4, r5
 1948 005e 04D8     		bhi	.L174
 316:uCOS-III\Source/os_task.c ****         return;
 1949              		.loc 1 316 0
 1950 0060 46F63163 		movw	r3, #28209
 1951              	.LVL235:
 1952 0064 129A     		ldr	r2, [sp, #72]
 1953              	.LVL236:
 1954 0066 1380     		strh	r3, [r2]	@ movhi
 317:uCOS-III\Source/os_task.c ****     }
 1955              		.loc 1 317 0
 1956 0068 8EE0     		b	.L167
 1957              	.LVL237:
 1958              	.L174:
 319:uCOS-III\Source/os_task.c ****        *p_err = OS_ERR_PRIO_INVALID;
 1959              		.loc 1 319 0
 1960 006a 072E     		cmp	r6, #7
 1961 006c 04D9     		bls	.L175
 320:uCOS-III\Source/os_task.c ****         return;
 1962              		.loc 1 320 0
 1963 006e 46F27323 		movw	r3, #25203
 1964              	.LVL238:
 1965 0072 129A     		ldr	r2, [sp, #72]
 1966              	.LVL239:
 1967 0074 1380     		strh	r3, [r2]	@ movhi
 321:uCOS-III\Source/os_task.c ****     }
 1968              		.loc 1 321 0
 1969 0076 87E0     		b	.L167
 1970              	.LVL240:
 1971              	.L175:
 334:uCOS-III\Source/os_task.c ****         if (p_tcb != &OSIdleTaskTCB) {
 1972              		.loc 1 334 0
 1973 0078 072E     		cmp	r6, #7
 1974 007a 07D1     		bne	.L176
 335:uCOS-III\Source/os_task.c ****            *p_err = OS_ERR_PRIO_INVALID;                    /* Not allowed to use same priority as 
 1975              		.loc 1 335 0
 1976 007c 464D     		ldr	r5, .L187+8
 1977 007e A842     		cmp	r0, r5
 1978 0080 04D0     		beq	.L176
 336:uCOS-III\Source/os_task.c ****             return;
 1979              		.loc 1 336 0
 1980 0082 46F27323 		movw	r3, #25203
 1981              	.LVL241:
 1982 0086 129A     		ldr	r2, [sp, #72]
 1983              	.LVL242:
 1984 0088 1380     		strh	r3, [r2]	@ movhi
 337:uCOS-III\Source/os_task.c ****         }
 1985              		.loc 1 337 0
 1986 008a 7DE0     		b	.L167
 1987              	.LVL243:
 1988              	.L176:
 1989 008c 9946     		mov	r9, r3
 1990 008e 1546     		mov	r5, r2
ARM GAS  C:\Users\jorti\AppData\Local\Temp\ccDtGf1z.s 			page 73


 1991 0090 8A46     		mov	r10, r1
 1992 0092 8346     		mov	fp, r0
 341:uCOS-III\Source/os_task.c **** 
 1993              		.loc 1 341 0
 1994 0094 FFF7FEFF 		bl	OS_TaskInitTCB
 1995              	.LVL244:
 343:uCOS-III\Source/os_task.c ****                                                             /* --------------- CLEAR THE TASK'S STA
 1996              		.loc 1 343 0
 1997 0098 0023     		movs	r3, #0
 1998 009a 129A     		ldr	r2, [sp, #72]
 1999 009c 1380     		strh	r3, [r2]	@ movhi
 345:uCOS-III\Source/os_task.c ****         if ((opt & OS_OPT_TASK_STK_CLR) != (OS_OPT)0) {     /* See if stack needs to be cleared    
 2000              		.loc 1 345 0
 2001 009e 17F0010F 		tst	r7, #1
 2002 00a2 0ED0     		beq	.L177
 346:uCOS-III\Source/os_task.c ****             p_sp = p_stk_base;
 2003              		.loc 1 346 0
 2004 00a4 07F00203 		and	r3, r7, #2
 2005 00a8 9BB2     		uxth	r3, r3
 2006 00aa 2BB9     		cbnz	r3, .L185
 2007 00ac 09E0     		b	.L177
 2008              	.LVL245:
 2009              	.L179:
 349:uCOS-III\Source/os_task.c ****                 p_sp++;
 2010              		.loc 1 349 0 discriminator 3
 2011 00ae 0021     		movs	r1, #0
 2012 00b0 42F8041B 		str	r1, [r2], #4
 2013              	.LVL246:
 348:uCOS-III\Source/os_task.c ****                *p_sp = (CPU_STK)0;                          /* Clear from bottom of stack and up!  
 2014              		.loc 1 348 0 discriminator 3
 2015 00b4 0133     		adds	r3, r3, #1
 2016              	.LVL247:
 2017 00b6 01E0     		b	.L178
 2018              	.LVL248:
 2019              	.L185:
 2020 00b8 0B9A     		ldr	r2, [sp, #44]
 2021 00ba 0023     		movs	r3, #0
 2022              	.L178:
 2023              	.LVL249:
 348:uCOS-III\Source/os_task.c ****                *p_sp = (CPU_STK)0;                          /* Clear from bottom of stack and up!  
 2024              		.loc 1 348 0 is_stmt 0 discriminator 1
 2025 00bc 0D99     		ldr	r1, [sp, #52]
 2026 00be 8B42     		cmp	r3, r1
 2027 00c0 F5D3     		bcc	.L179
 2028              	.LVL250:
 2029              	.L177:
 356:uCOS-III\Source/os_task.c **** #else
 2030              		.loc 1 356 0 is_stmt 1
 2031 00c2 0B9B     		ldr	r3, [sp, #44]
 2032 00c4 0C9A     		ldr	r2, [sp, #48]
 2033 00c6 03EB8204 		add	r4, r3, r2, lsl #2
 2034              	.LVL251:
 361:uCOS-III\Source/os_task.c ****                          p_arg,
 2035              		.loc 1 361 0
 2036 00ca 0197     		str	r7, [sp, #4]
 2037 00cc 0D9B     		ldr	r3, [sp, #52]
 2038 00ce 0093     		str	r3, [sp]
ARM GAS  C:\Users\jorti\AppData\Local\Temp\ccDtGf1z.s 			page 74


 2039 00d0 2346     		mov	r3, r4
 2040 00d2 0B9A     		ldr	r2, [sp, #44]
 2041 00d4 4946     		mov	r1, r9
 2042 00d6 2846     		mov	r0, r5
 2043 00d8 FFF7FEFF 		bl	OSTaskStkInit
 2044              	.LVL252:
 369:uCOS-III\Source/os_task.c ****     p_tcb->TaskEntryArg  = p_arg;                           /* Save task entry argument            
 2045              		.loc 1 369 0
 2046 00dc CBF82850 		str	r5, [fp, #40]
 370:uCOS-III\Source/os_task.c **** 
 2047              		.loc 1 370 0
 2048 00e0 CBF82C90 		str	r9, [fp, #44]
 372:uCOS-III\Source/os_task.c **** 
 2049              		.loc 1 372 0
 2050 00e4 CBF820A0 		str	r10, [fp, #32]
 374:uCOS-III\Source/os_task.c **** 
 2051              		.loc 1 374 0
 2052 00e8 8BF83760 		strb	r6, [fp, #55]
 376:uCOS-III\Source/os_task.c ****     p_tcb->StkLimitPtr   = p_stk_limit;                     /* Save the stack limit pointer        
 2053              		.loc 1 376 0
 2054 00ec CBF80000 		str	r0, [fp]
 377:uCOS-III\Source/os_task.c **** 
 2055              		.loc 1 377 0
 2056 00f0 CBF80840 		str	r4, [fp, #8]
 379:uCOS-III\Source/os_task.c **** #if OS_CFG_SCHED_ROUND_ROBIN_EN > 0u
 2057              		.loc 1 379 0
 2058 00f4 0F9B     		ldr	r3, [sp, #60]
 2059 00f6 CBF85430 		str	r3, [fp, #84]
 381:uCOS-III\Source/os_task.c ****         p_tcb->TimeQuantaCtr = OSSchedRoundRobinDfltTimeQuanta;
 2060              		.loc 1 381 0
 2061 00fa 23B9     		cbnz	r3, .L180
 382:uCOS-III\Source/os_task.c ****     } else {
 2062              		.loc 1 382 0
 2063 00fc 274B     		ldr	r3, .L187+12
 2064 00fe 1B68     		ldr	r3, [r3]
 2065 0100 CBF85830 		str	r3, [fp, #88]
 2066 0104 02E0     		b	.L181
 2067              	.L180:
 384:uCOS-III\Source/os_task.c ****     }
 2068              		.loc 1 384 0
 2069 0106 0F9B     		ldr	r3, [sp, #60]
 2070 0108 CBF85830 		str	r3, [fp, #88]
 2071              	.L181:
 387:uCOS-III\Source/os_task.c ****     p_tcb->StkBasePtr    = p_stk_base;                      /* Save pointer to the base address of 
 2072              		.loc 1 387 0
 2073 010c 109B     		ldr	r3, [sp, #64]
 2074 010e CBF80430 		str	r3, [fp, #4]
 388:uCOS-III\Source/os_task.c ****     p_tcb->StkSize       = stk_size;                        /* Save the stack size (in number of CP
 2075              		.loc 1 388 0
 2076 0112 0B9B     		ldr	r3, [sp, #44]
 2077 0114 CBF82430 		str	r3, [fp, #36]
 389:uCOS-III\Source/os_task.c ****     p_tcb->Opt           = opt;                             /* Save task options                   
 2078              		.loc 1 389 0
 2079 0118 0D9B     		ldr	r3, [sp, #52]
 2080 011a CBF83830 		str	r3, [fp, #56]
 390:uCOS-III\Source/os_task.c **** 
 2081              		.loc 1 390 0
ARM GAS  C:\Users\jorti\AppData\Local\Temp\ccDtGf1z.s 			page 75


 2082 011e ABF83C70 		strh	r7, [fp, #60]	@ movhi
 2083              	.LVL253:
 393:uCOS-III\Source/os_task.c ****         p_tcb->RegTbl[reg_nbr] = (OS_REG)0;
 2084              		.loc 1 393 0
 2085 0122 0023     		movs	r3, #0
 2086 0124 07E0     		b	.L182
 2087              	.LVL254:
 2088              	.L183:
 394:uCOS-III\Source/os_task.c ****     }
 2089              		.loc 1 394 0 discriminator 3
 2090 0126 03F11E02 		add	r2, r3, #30
 2091 012a 0BEB8202 		add	r2, fp, r2, lsl #2
 2092 012e 0021     		movs	r1, #0
 2093 0130 5160     		str	r1, [r2, #4]
 393:uCOS-III\Source/os_task.c ****         p_tcb->RegTbl[reg_nbr] = (OS_REG)0;
 2094              		.loc 1 393 0 discriminator 3
 2095 0132 0133     		adds	r3, r3, #1
 2096              	.LVL255:
 2097 0134 DBB2     		uxtb	r3, r3
 2098              	.LVL256:
 2099              	.L182:
 393:uCOS-III\Source/os_task.c ****         p_tcb->RegTbl[reg_nbr] = (OS_REG)0;
 2100              		.loc 1 393 0 is_stmt 0 discriminator 1
 2101 0136 002B     		cmp	r3, #0
 2102 0138 F5D0     		beq	.L183
 399:uCOS-III\Source/os_task.c ****                 q_size);
 2103              		.loc 1 399 0 is_stmt 1
 2104 013a BDF83810 		ldrh	r1, [sp, #56]
 2105 013e 0BF16400 		add	r0, fp, #100
 2106              	.LVL257:
 2107 0142 FFF7FEFF 		bl	OS_MsgQInit
 2108              	.LVL258:
 405:uCOS-III\Source/os_task.c **** 
 2109              		.loc 1 405 0
 2110 0146 5846     		mov	r0, fp
 2111 0148 FFF7FEFF 		bl	OSTaskCreateHook
 2112              	.LVL259:
 414:uCOS-III\Source/os_task.c ****     OS_PrioInsert(p_tcb->Prio);
 2113              		.loc 1 414 0
 2114 014c FFF7FEFF 		bl	CPU_SR_Save
 2115              	.LVL260:
 2116 0150 0446     		mov	r4, r0
 2117              	.LVL261:
 415:uCOS-III\Source/os_task.c ****     OS_RdyListInsertTail(p_tcb);
 2118              		.loc 1 415 0
 2119 0152 9BF83700 		ldrb	r0, [fp, #55]	@ zero_extendqisi2
 2120              	.LVL262:
 2121 0156 FFF7FEFF 		bl	OS_PrioInsert
 2122              	.LVL263:
 416:uCOS-III\Source/os_task.c **** 
 2123              		.loc 1 416 0
 2124 015a 5846     		mov	r0, fp
 2125 015c FFF7FEFF 		bl	OS_RdyListInsertTail
 2126              	.LVL264:
 419:uCOS-III\Source/os_task.c **** #endif
 2127              		.loc 1 419 0
 2128 0160 5846     		mov	r0, fp
ARM GAS  C:\Users\jorti\AppData\Local\Temp\ccDtGf1z.s 			page 76


 2129 0162 FFF7FEFF 		bl	OS_TaskDbgListAdd
 2130              	.LVL265:
 422:uCOS-III\Source/os_task.c **** 
 2131              		.loc 1 422 0
 2132 0166 0E4A     		ldr	r2, .L187+16
 2133 0168 1388     		ldrh	r3, [r2]
 2134 016a 0133     		adds	r3, r3, #1
 2135 016c 1380     		strh	r3, [r2]	@ movhi
 424:uCOS-III\Source/os_task.c ****         OS_CRITICAL_EXIT();
 2136              		.loc 1 424 0
 2137 016e 0D4B     		ldr	r3, .L187+20
 2138 0170 1B78     		ldrb	r3, [r3]	@ zero_extendqisi2
 2139 0172 012B     		cmp	r3, #1
 2140 0174 03D0     		beq	.L184
 425:uCOS-III\Source/os_task.c ****         return;
 2141              		.loc 1 425 0
 2142 0176 2046     		mov	r0, r4
 2143 0178 FFF7FEFF 		bl	CPU_SR_Restore
 2144              	.LVL266:
 426:uCOS-III\Source/os_task.c ****     }
 2145              		.loc 1 426 0
 2146 017c 04E0     		b	.L167
 2147              	.L184:
 429:uCOS-III\Source/os_task.c **** 
 2148              		.loc 1 429 0
 2149 017e 2046     		mov	r0, r4
 2150 0180 FFF7FEFF 		bl	CPU_SR_Restore
 2151              	.LVL267:
 431:uCOS-III\Source/os_task.c **** }
 2152              		.loc 1 431 0
 2153 0184 FFF7FEFF 		bl	OSSched
 2154              	.LVL268:
 2155              	.L167:
 432:uCOS-III\Source/os_task.c **** 
 2156              		.loc 1 432 0
 2157 0188 02B0     		add	sp, sp, #8
 2158              		.cfi_def_cfa_offset 32
 2159              		@ sp needed
 2160 018a BDE8F08E 		pop	{r4, r5, r6, r7, r9, r10, fp, pc}
 2161              	.LVL269:
 2162              	.L188:
 2163 018e 00BF     		.align	2
 2164              	.L187:
 2165 0190 00000000 		.word	OSIntNestingCtr
 2166 0194 00000000 		.word	OSCfg_StkSizeMin
 2167 0198 00000000 		.word	OSIdleTaskTCB
 2168 019c 00000000 		.word	OSSchedRoundRobinDfltTimeQuanta
 2169 01a0 00000000 		.word	OSTaskQty
 2170 01a4 00000000 		.word	OSRunning
 2171              		.cfi_endproc
 2172              	.LFE2:
 2173              		.size	OSTaskCreate, .-OSTaskCreate
 2174              		.section	.text.OSTaskDel,"ax",%progbits
 2175              		.align	2
 2176              		.global	OSTaskDel
 2177              		.thumb
 2178              		.thumb_func
ARM GAS  C:\Users\jorti\AppData\Local\Temp\ccDtGf1z.s 			page 77


 2179              		.type	OSTaskDel, %function
 2180              	OSTaskDel:
 2181              	.LFB3:
 462:uCOS-III\Source/os_task.c ****     CPU_SR_ALLOC();
 2182              		.loc 1 462 0
 2183              		.cfi_startproc
 2184              		@ args = 0, pretend = 0, frame = 0
 2185              		@ frame_needed = 0, uses_anonymous_args = 0
 2186              	.LVL270:
 2187 0000 70B5     		push	{r4, r5, r6, lr}
 2188              		.cfi_def_cfa_offset 16
 2189              		.cfi_offset 4, -16
 2190              		.cfi_offset 5, -12
 2191              		.cfi_offset 6, -8
 2192              		.cfi_offset 14, -4
 2193 0002 0D46     		mov	r5, r1
 2194              	.LVL271:
 475:uCOS-III\Source/os_task.c ****        *p_err = OS_ERR_TASK_DEL_ISR;
 2195              		.loc 1 475 0
 2196 0004 2D4B     		ldr	r3, .L202
 2197 0006 1B78     		ldrb	r3, [r3]	@ zero_extendqisi2
 2198 0008 1BB1     		cbz	r3, .L190
 476:uCOS-III\Source/os_task.c ****         return;
 2199              		.loc 1 476 0
 2200 000a 47F24E13 		movw	r3, #29006
 2201 000e 0B80     		strh	r3, [r1]	@ movhi
 477:uCOS-III\Source/os_task.c ****     }
 2202              		.loc 1 477 0
 2203 0010 70BD     		pop	{r4, r5, r6, pc}
 2204              	.L190:
 2205 0012 0446     		mov	r4, r0
 481:uCOS-III\Source/os_task.c ****        *p_err = OS_ERR_TASK_DEL_IDLE;
 2206              		.loc 1 481 0
 2207 0014 2A4B     		ldr	r3, .L202+4
 2208 0016 9842     		cmp	r0, r3
 2209 0018 03D1     		bne	.L192
 482:uCOS-III\Source/os_task.c ****         return;
 2210              		.loc 1 482 0
 2211 001a 47F24C13 		movw	r3, #29004
 2212 001e 0B80     		strh	r3, [r1]	@ movhi
 483:uCOS-III\Source/os_task.c ****     }
 2213              		.loc 1 483 0
 2214 0020 70BD     		pop	{r4, r5, r6, pc}
 2215              	.L192:
 493:uCOS-III\Source/os_task.c ****         CPU_CRITICAL_ENTER();
 2216              		.loc 1 493 0
 2217 0022 28B9     		cbnz	r0, .L193
 494:uCOS-III\Source/os_task.c ****         p_tcb  = OSTCBCurPtr;                               /* Yes.                                
 2218              		.loc 1 494 0
 2219 0024 FFF7FEFF 		bl	CPU_SR_Save
 2220              	.LVL272:
 495:uCOS-III\Source/os_task.c ****         CPU_CRITICAL_EXIT();
 2221              		.loc 1 495 0
 2222 0028 264B     		ldr	r3, .L202+8
 2223 002a 1C68     		ldr	r4, [r3]
 2224              	.LVL273:
 496:uCOS-III\Source/os_task.c ****     }
ARM GAS  C:\Users\jorti\AppData\Local\Temp\ccDtGf1z.s 			page 78


 2225              		.loc 1 496 0
 2226 002c FFF7FEFF 		bl	CPU_SR_Restore
 2227              	.LVL274:
 2228              	.L193:
 499:uCOS-III\Source/os_task.c ****     switch (p_tcb->TaskState) {
 2229              		.loc 1 499 0
 2230 0030 FFF7FEFF 		bl	CPU_SR_Save
 2231              	.LVL275:
 2232 0034 0646     		mov	r6, r0
 2233              	.LVL276:
 500:uCOS-III\Source/os_task.c ****         case OS_TASK_STATE_RDY:
 2234              		.loc 1 500 0
 2235 0036 94F83630 		ldrb	r3, [r4, #54]	@ zero_extendqisi2
 2236 003a 072B     		cmp	r3, #7
 2237 003c 1CD8     		bhi	.L194
 2238 003e DFE803F0 		tbb	[pc, r3]
 2239              	.L196:
 2240 0042 04       		.byte	(.L195-.L196)/2
 2241 0043 08       		.byte	(.L197-.L196)/2
 2242 0044 0C       		.byte	(.L198-.L196)/2
 2243 0045 0C       		.byte	(.L198-.L196)/2
 2244 0046 21       		.byte	(.L199-.L196)/2
 2245 0047 08       		.byte	(.L197-.L196)/2
 2246 0048 0C       		.byte	(.L198-.L196)/2
 2247 0049 0C       		.byte	(.L198-.L196)/2
 2248              		.p2align 1
 2249              	.L195:
 502:uCOS-III\Source/os_task.c ****              break;
 2250              		.loc 1 502 0
 2251 004a 2046     		mov	r0, r4
 2252              	.LVL277:
 2253 004c FFF7FEFF 		bl	OS_RdyListRemove
 2254              	.LVL278:
 503:uCOS-III\Source/os_task.c **** 
 2255              		.loc 1 503 0
 2256 0050 18E0     		b	.L199
 2257              	.LVL279:
 2258              	.L197:
 510:uCOS-III\Source/os_task.c ****              break;
 2259              		.loc 1 510 0
 2260 0052 2046     		mov	r0, r4
 2261              	.LVL280:
 2262 0054 FFF7FEFF 		bl	OS_TickListRemove
 2263              	.LVL281:
 511:uCOS-III\Source/os_task.c **** 
 2264              		.loc 1 511 0
 2265 0058 14E0     		b	.L199
 2266              	.LVL282:
 2267              	.L198:
 517:uCOS-III\Source/os_task.c ****              switch (p_tcb->PendOn) {                       /* See what we are pending on          
 2268              		.loc 1 517 0
 2269 005a 2046     		mov	r0, r4
 2270              	.LVL283:
 2271 005c FFF7FEFF 		bl	OS_TickListRemove
 2272              	.LVL284:
 518:uCOS-III\Source/os_task.c ****                  case OS_TASK_PEND_ON_NOTHING:
 2273              		.loc 1 518 0
ARM GAS  C:\Users\jorti\AppData\Local\Temp\ccDtGf1z.s 			page 79


 2274 0060 94F83430 		ldrb	r3, [r4, #52]	@ zero_extendqisi2
 2275 0064 012B     		cmp	r3, #1
 2276 0066 03D0     		beq	.L200
 2277 0068 63B1     		cbz	r3, .L199
 2278 006a 033B     		subs	r3, r3, #3
 2279 006c 032B     		cmp	r3, #3
 2280 006e 09D8     		bhi	.L199
 2281              	.L200:
 529:uCOS-III\Source/os_task.c ****                       break;
 2282              		.loc 1 529 0
 2283 0070 2046     		mov	r0, r4
 2284 0072 FFF7FEFF 		bl	OS_PendListRemove
 2285              	.LVL285:
 530:uCOS-III\Source/os_task.c **** 
 2286              		.loc 1 530 0
 2287 0076 05E0     		b	.L199
 2288              	.LVL286:
 2289              	.L194:
 538:uCOS-III\Source/os_task.c ****            *p_err = OS_ERR_STATE_INVALID;
 2290              		.loc 1 538 0
 2291 0078 FFF7FEFF 		bl	CPU_SR_Restore
 2292              	.LVL287:
 539:uCOS-III\Source/os_task.c ****             return;
 2293              		.loc 1 539 0
 2294 007c 46F62D63 		movw	r3, #28205
 2295 0080 2B80     		strh	r3, [r5]	@ movhi
 540:uCOS-III\Source/os_task.c ****     }
 2296              		.loc 1 540 0
 2297 0082 70BD     		pop	{r4, r5, r6, pc}
 2298              	.LVL288:
 2299              	.L199:
 544:uCOS-III\Source/os_task.c **** #endif
 2300              		.loc 1 544 0
 2301 0084 04F16400 		add	r0, r4, #100
 2302 0088 FFF7FEFF 		bl	OS_MsgQFreeAll
 2303              	.LVL289:
 547:uCOS-III\Source/os_task.c **** 
 2304              		.loc 1 547 0
 2305 008c 2046     		mov	r0, r4
 2306 008e FFF7FEFF 		bl	OSTaskDelHook
 2307              	.LVL290:
 554:uCOS-III\Source/os_task.c **** #endif
 2308              		.loc 1 554 0
 2309 0092 2046     		mov	r0, r4
 2310 0094 FFF7FEFF 		bl	OS_TaskDbgListRemove
 2311              	.LVL291:
 556:uCOS-III\Source/os_task.c **** 
 2312              		.loc 1 556 0
 2313 0098 0B4A     		ldr	r2, .L202+12
 2314 009a 1388     		ldrh	r3, [r2]
 2315 009c 013B     		subs	r3, r3, #1
 2316 009e 1380     		strh	r3, [r2]	@ movhi
 558:uCOS-III\Source/os_task.c ****     p_tcb->TaskState = (OS_STATE)OS_TASK_STATE_DEL;         /* Indicate that the task was deleted  
 2317              		.loc 1 558 0
 2318 00a0 2046     		mov	r0, r4
 2319 00a2 FFF7FEFF 		bl	OS_TaskInitTCB
 2320              	.LVL292:
ARM GAS  C:\Users\jorti\AppData\Local\Temp\ccDtGf1z.s 			page 80


 559:uCOS-III\Source/os_task.c **** 
 2321              		.loc 1 559 0
 2322 00a6 FF23     		movs	r3, #255
 2323 00a8 84F83630 		strb	r3, [r4, #54]
 561:uCOS-III\Source/os_task.c **** 
 2324              		.loc 1 561 0
 2325 00ac 3046     		mov	r0, r6
 2326 00ae FFF7FEFF 		bl	CPU_SR_Restore
 2327              	.LVL293:
 563:uCOS-III\Source/os_task.c **** 
 2328              		.loc 1 563 0
 2329 00b2 0023     		movs	r3, #0
 2330 00b4 2B80     		strh	r3, [r5]	@ movhi
 565:uCOS-III\Source/os_task.c **** }
 2331              		.loc 1 565 0
 2332 00b6 FFF7FEFF 		bl	OSSched
 2333              	.LVL294:
 2334 00ba 70BD     		pop	{r4, r5, r6, pc}
 2335              	.LVL295:
 2336              	.L203:
 2337              		.align	2
 2338              	.L202:
 2339 00bc 00000000 		.word	OSIntNestingCtr
 2340 00c0 00000000 		.word	OSIdleTaskTCB
 2341 00c4 00000000 		.word	OSTCBCurPtr
 2342 00c8 00000000 		.word	OSTaskQty
 2343              		.cfi_endproc
 2344              	.LFE3:
 2345              		.size	OSTaskDel, .-OSTaskDel
 2346              		.section	.text.OS_TaskQPost,"ax",%progbits
 2347              		.align	2
 2348              		.global	OS_TaskQPost
 2349              		.thumb
 2350              		.thumb_func
 2351              		.type	OS_TaskQPost, %function
 2352              	OS_TaskQPost:
 2353              	.LFB23:
2081:uCOS-III\Source/os_task.c **** #endif
2082:uCOS-III\Source/os_task.c **** }
2083:uCOS-III\Source/os_task.c **** 
2084:uCOS-III\Source/os_task.c **** /*$PAGE*/
2085:uCOS-III\Source/os_task.c **** /*
2086:uCOS-III\Source/os_task.c **** ***************************************************************************************************
2087:uCOS-III\Source/os_task.c **** *                                               POST MESSAGE TO A TASK
2088:uCOS-III\Source/os_task.c **** *
2089:uCOS-III\Source/os_task.c **** * Description: This function sends a message to a task
2090:uCOS-III\Source/os_task.c **** *
2091:uCOS-III\Source/os_task.c **** * Arguments  : p_tcb      is a pointer to the TCB of the task receiving a message.  If you specify 
2092:uCOS-III\Source/os_task.c **** *                         the message will be posted to the task's queue of the calling task.  In o
2093:uCOS-III\Source/os_task.c **** *                         posting a message to yourself.
2094:uCOS-III\Source/os_task.c **** *
2095:uCOS-III\Source/os_task.c **** *              p_void     is a pointer to the message to send.
2096:uCOS-III\Source/os_task.c **** *
2097:uCOS-III\Source/os_task.c **** *              msg_size   is the size of the message sent (in #bytes)
2098:uCOS-III\Source/os_task.c **** *
2099:uCOS-III\Source/os_task.c **** *              opt        specifies whether the post will be FIFO or LIFO:
2100:uCOS-III\Source/os_task.c **** *
ARM GAS  C:\Users\jorti\AppData\Local\Temp\ccDtGf1z.s 			page 81


2101:uCOS-III\Source/os_task.c **** *                             OS_OPT_POST_FIFO       Post at the end   of the queue
2102:uCOS-III\Source/os_task.c **** *                             OS_OPT_POST_LIFO       Post at the front of the queue
2103:uCOS-III\Source/os_task.c **** *
2104:uCOS-III\Source/os_task.c **** *                             OS_OPT_POST_NO_SCHED   Do not run the scheduler after the post
2105:uCOS-III\Source/os_task.c **** *
2106:uCOS-III\Source/os_task.c **** *                          Note(s): 1) OS_OPT_POST_NO_SCHED can be added with one of the other opti
2107:uCOS-III\Source/os_task.c **** *
2108:uCOS-III\Source/os_task.c **** *
2109:uCOS-III\Source/os_task.c **** *              ts         is a timestamp indicating when the post occurred.
2110:uCOS-III\Source/os_task.c **** *
2111:uCOS-III\Source/os_task.c **** *              p_err      is a pointer to a variable that will hold the error code associated
2112:uCOS-III\Source/os_task.c **** *                         with the outcome of this call.  Errors can be:
2113:uCOS-III\Source/os_task.c **** *
2114:uCOS-III\Source/os_task.c **** *                             OS_ERR_NONE            The call was successful and the message was se
2115:uCOS-III\Source/os_task.c **** *                             OS_ERR_MSG_POOL_EMPTY  If there are no more OS_MSGs available from th
2116:uCOS-III\Source/os_task.c **** *                             OS_ERR_Q_MAX           If the queue is full
2117:uCOS-III\Source/os_task.c **** *                             OS_ERR_STATE_INVALID   If the task is in an invalid state.  This shou
2118:uCOS-III\Source/os_task.c **** *                                                    and if it does, would be considered a system f
2119:uCOS-III\Source/os_task.c **** *
2120:uCOS-III\Source/os_task.c **** * Returns    : none
2121:uCOS-III\Source/os_task.c **** *
2122:uCOS-III\Source/os_task.c **** * Note(s)    : This function is INTERNAL to uC/OS-III and your application should not call it.
2123:uCOS-III\Source/os_task.c **** ***************************************************************************************************
2124:uCOS-III\Source/os_task.c **** */
2125:uCOS-III\Source/os_task.c **** 
2126:uCOS-III\Source/os_task.c **** #if OS_CFG_TASK_Q_EN > 0u
2127:uCOS-III\Source/os_task.c **** void  OS_TaskQPost (OS_TCB       *p_tcb,
2128:uCOS-III\Source/os_task.c ****                     void         *p_void,
2129:uCOS-III\Source/os_task.c ****                     OS_MSG_SIZE   msg_size,
2130:uCOS-III\Source/os_task.c ****                     OS_OPT        opt,
2131:uCOS-III\Source/os_task.c ****                     CPU_TS        ts,
2132:uCOS-III\Source/os_task.c ****                     OS_ERR       *p_err)
2133:uCOS-III\Source/os_task.c **** {
 2354              		.loc 1 2133 0
 2355              		.cfi_startproc
 2356              		@ args = 8, pretend = 0, frame = 0
 2357              		@ frame_needed = 0, uses_anonymous_args = 0
 2358              	.LVL296:
 2359 0000 2DE9F043 		push	{r4, r5, r6, r7, r8, r9, lr}
 2360              		.cfi_def_cfa_offset 28
 2361              		.cfi_offset 4, -28
 2362              		.cfi_offset 5, -24
 2363              		.cfi_offset 6, -20
 2364              		.cfi_offset 7, -16
 2365              		.cfi_offset 8, -12
 2366              		.cfi_offset 9, -8
 2367              		.cfi_offset 14, -4
 2368 0004 83B0     		sub	sp, sp, #12
 2369              		.cfi_def_cfa_offset 40
 2370 0006 0446     		mov	r4, r0
 2371 0008 0F46     		mov	r7, r1
 2372 000a 9046     		mov	r8, r2
 2373 000c 9946     		mov	r9, r3
 2374 000e 0B9D     		ldr	r5, [sp, #44]
 2375              	.LVL297:
2134:uCOS-III\Source/os_task.c ****     CPU_SR_ALLOC();
2135:uCOS-III\Source/os_task.c **** 
ARM GAS  C:\Users\jorti\AppData\Local\Temp\ccDtGf1z.s 			page 82


2136:uCOS-III\Source/os_task.c **** 
2137:uCOS-III\Source/os_task.c **** 
2138:uCOS-III\Source/os_task.c ****     OS_CRITICAL_ENTER();
 2376              		.loc 1 2138 0
 2377 0010 FFF7FEFF 		bl	CPU_SR_Save
 2378              	.LVL298:
 2379 0014 0646     		mov	r6, r0
 2380              	.LVL299:
2139:uCOS-III\Source/os_task.c ****     if (p_tcb == (OS_TCB *)0) {                             /* Post msg to 'self'?                 
 2381              		.loc 1 2139 0
 2382 0016 0CB9     		cbnz	r4, .L205
2140:uCOS-III\Source/os_task.c ****         p_tcb = OSTCBCurPtr;
 2383              		.loc 1 2140 0
 2384 0018 234B     		ldr	r3, .L213
 2385 001a 1C68     		ldr	r4, [r3]
 2386              	.LVL300:
 2387              	.L205:
2141:uCOS-III\Source/os_task.c ****     }
2142:uCOS-III\Source/os_task.c ****    *p_err  = OS_ERR_NONE;                                   /* Assume we won't have any errors     
 2388              		.loc 1 2142 0
 2389 001c 0023     		movs	r3, #0
 2390 001e 2B80     		strh	r3, [r5]	@ movhi
2143:uCOS-III\Source/os_task.c ****     switch (p_tcb->TaskState) {
 2391              		.loc 1 2143 0
 2392 0020 94F83630 		ldrb	r3, [r4, #54]	@ zero_extendqisi2
 2393 0024 072B     		cmp	r3, #7
 2394 0026 36D8     		bhi	.L206
 2395 0028 DFE803F0 		tbb	[pc, r3]
 2396              	.L208:
 2397 002c 04       		.byte	(.L207-.L208)/2
 2398 002d 04       		.byte	(.L207-.L208)/2
 2399 002e 12       		.byte	(.L209-.L208)/2
 2400 002f 12       		.byte	(.L209-.L208)/2
 2401 0030 04       		.byte	(.L207-.L208)/2
 2402 0031 04       		.byte	(.L207-.L208)/2
 2403 0032 12       		.byte	(.L209-.L208)/2
 2404 0033 12       		.byte	(.L209-.L208)/2
 2405              		.p2align 1
 2406              	.L207:
2144:uCOS-III\Source/os_task.c ****         case OS_TASK_STATE_RDY:
2145:uCOS-III\Source/os_task.c ****         case OS_TASK_STATE_DLY:
2146:uCOS-III\Source/os_task.c ****         case OS_TASK_STATE_SUSPENDED:
2147:uCOS-III\Source/os_task.c ****         case OS_TASK_STATE_DLY_SUSPENDED:
2148:uCOS-III\Source/os_task.c ****              OS_MsgQPut(&p_tcb->MsgQ,                       /* Deposit the message in the queue    
 2407              		.loc 1 2148 0
 2408 0034 0195     		str	r5, [sp, #4]
 2409 0036 0A9B     		ldr	r3, [sp, #40]
 2410 0038 0093     		str	r3, [sp]
 2411 003a 4B46     		mov	r3, r9
 2412 003c 4246     		mov	r2, r8
 2413 003e 3946     		mov	r1, r7
 2414 0040 04F16400 		add	r0, r4, #100
 2415              	.LVL301:
 2416 0044 FFF7FEFF 		bl	OS_MsgQPut
 2417              	.LVL302:
2149:uCOS-III\Source/os_task.c ****                         p_void,
2150:uCOS-III\Source/os_task.c ****                         msg_size,
ARM GAS  C:\Users\jorti\AppData\Local\Temp\ccDtGf1z.s 			page 83


2151:uCOS-III\Source/os_task.c ****                         opt,
2152:uCOS-III\Source/os_task.c ****                         ts,
2153:uCOS-III\Source/os_task.c ****                         p_err);
2154:uCOS-III\Source/os_task.c ****              OS_CRITICAL_EXIT();
 2418              		.loc 1 2154 0
 2419 0048 3046     		mov	r0, r6
 2420 004a FFF7FEFF 		bl	CPU_SR_Restore
 2421              	.LVL303:
2155:uCOS-III\Source/os_task.c ****              break;
 2422              		.loc 1 2155 0
 2423 004e 28E0     		b	.L204
 2424              	.LVL304:
 2425              	.L209:
2156:uCOS-III\Source/os_task.c **** 
2157:uCOS-III\Source/os_task.c ****         case OS_TASK_STATE_PEND:
2158:uCOS-III\Source/os_task.c ****         case OS_TASK_STATE_PEND_TIMEOUT:
2159:uCOS-III\Source/os_task.c ****         case OS_TASK_STATE_PEND_SUSPENDED:
2160:uCOS-III\Source/os_task.c ****         case OS_TASK_STATE_PEND_TIMEOUT_SUSPENDED:
2161:uCOS-III\Source/os_task.c ****              if (p_tcb->PendOn == OS_TASK_PEND_ON_TASK_Q) { /* Is task waiting for a message to be 
 2426              		.loc 1 2161 0
 2427 0050 94F83430 		ldrb	r3, [r4, #52]	@ zero_extendqisi2
 2428 0054 022B     		cmp	r3, #2
 2429 0056 10D1     		bne	.L211
2162:uCOS-III\Source/os_task.c ****                  OS_Post((OS_PEND_OBJ *)0,
 2430              		.loc 1 2162 0
 2431 0058 0A9B     		ldr	r3, [sp, #40]
 2432 005a 0093     		str	r3, [sp]
 2433 005c 4346     		mov	r3, r8
 2434 005e 3A46     		mov	r2, r7
 2435 0060 2146     		mov	r1, r4
 2436 0062 0020     		movs	r0, #0
 2437              	.LVL305:
 2438 0064 FFF7FEFF 		bl	OS_Post
 2439              	.LVL306:
2163:uCOS-III\Source/os_task.c ****                          p_tcb,
2164:uCOS-III\Source/os_task.c ****                          p_void,
2165:uCOS-III\Source/os_task.c ****                          msg_size,
2166:uCOS-III\Source/os_task.c ****                          ts);
2167:uCOS-III\Source/os_task.c ****                  OS_CRITICAL_EXIT_NO_SCHED();
 2440              		.loc 1 2167 0
 2441 0068 3046     		mov	r0, r6
 2442 006a FFF7FEFF 		bl	CPU_SR_Restore
 2443              	.LVL307:
2168:uCOS-III\Source/os_task.c ****                  if ((opt & OS_OPT_POST_NO_SCHED) == (OS_OPT)0u) {
 2444              		.loc 1 2168 0
 2445 006e 19F4004F 		tst	r9, #32768
 2446 0072 16D1     		bne	.L204
2169:uCOS-III\Source/os_task.c ****                      OSSched();                             /* Run the scheduler                   
 2447              		.loc 1 2169 0
 2448 0074 FFF7FEFF 		bl	OSSched
 2449              	.LVL308:
 2450 0078 13E0     		b	.L204
 2451              	.LVL309:
 2452              	.L211:
2170:uCOS-III\Source/os_task.c ****                  }
2171:uCOS-III\Source/os_task.c ****              } else {
2172:uCOS-III\Source/os_task.c ****                  OS_MsgQPut(&p_tcb->MsgQ,                   /* No,  Task is pending on something el
ARM GAS  C:\Users\jorti\AppData\Local\Temp\ccDtGf1z.s 			page 84


 2453              		.loc 1 2172 0
 2454 007a 0195     		str	r5, [sp, #4]
 2455 007c 0A9B     		ldr	r3, [sp, #40]
 2456 007e 0093     		str	r3, [sp]
 2457 0080 4B46     		mov	r3, r9
 2458 0082 4246     		mov	r2, r8
 2459 0084 3946     		mov	r1, r7
 2460 0086 04F16400 		add	r0, r4, #100
 2461              	.LVL310:
 2462 008a FFF7FEFF 		bl	OS_MsgQPut
 2463              	.LVL311:
2173:uCOS-III\Source/os_task.c ****                             p_void,                         /*      ... Deposit the message in the 
2174:uCOS-III\Source/os_task.c ****                             msg_size,
2175:uCOS-III\Source/os_task.c ****                             opt,
2176:uCOS-III\Source/os_task.c ****                             ts,
2177:uCOS-III\Source/os_task.c ****                             p_err);
2178:uCOS-III\Source/os_task.c ****                  OS_CRITICAL_EXIT();
 2464              		.loc 1 2178 0
 2465 008e 3046     		mov	r0, r6
 2466 0090 FFF7FEFF 		bl	CPU_SR_Restore
 2467              	.LVL312:
 2468 0094 05E0     		b	.L204
 2469              	.LVL313:
 2470              	.L206:
2179:uCOS-III\Source/os_task.c ****              }
2180:uCOS-III\Source/os_task.c ****              break;
2181:uCOS-III\Source/os_task.c **** 
2182:uCOS-III\Source/os_task.c ****         default:
2183:uCOS-III\Source/os_task.c ****              OS_CRITICAL_EXIT();
 2471              		.loc 1 2183 0
 2472 0096 3046     		mov	r0, r6
 2473              	.LVL314:
 2474 0098 FFF7FEFF 		bl	CPU_SR_Restore
 2475              	.LVL315:
2184:uCOS-III\Source/os_task.c ****             *p_err = OS_ERR_STATE_INVALID;
 2476              		.loc 1 2184 0
 2477 009c 46F62D63 		movw	r3, #28205
 2478 00a0 2B80     		strh	r3, [r5]	@ movhi
 2479              	.L204:
2185:uCOS-III\Source/os_task.c ****              break;
2186:uCOS-III\Source/os_task.c ****     }
2187:uCOS-III\Source/os_task.c **** }
 2480              		.loc 1 2187 0
 2481 00a2 03B0     		add	sp, sp, #12
 2482              		.cfi_def_cfa_offset 28
 2483              		@ sp needed
 2484 00a4 BDE8F083 		pop	{r4, r5, r6, r7, r8, r9, pc}
 2485              	.LVL316:
 2486              	.L214:
 2487              		.align	2
 2488              	.L213:
 2489 00a8 00000000 		.word	OSTCBCurPtr
 2490              		.cfi_endproc
 2491              	.LFE23:
 2492              		.size	OS_TaskQPost, .-OS_TaskQPost
 2493              		.section	.text.OSTaskQPost,"ax",%progbits
 2494              		.align	2
ARM GAS  C:\Users\jorti\AppData\Local\Temp\ccDtGf1z.s 			page 85


 2495              		.global	OSTaskQPost
 2496              		.thumb
 2497              		.thumb_func
 2498              		.type	OSTaskQPost, %function
 2499              	OSTaskQPost:
 2500              	.LFB7:
 935:uCOS-III\Source/os_task.c ****     CPU_TS   ts;
 2501              		.loc 1 935 0
 2502              		.cfi_startproc
 2503              		@ args = 4, pretend = 0, frame = 0
 2504              		@ frame_needed = 0, uses_anonymous_args = 0
 2505              	.LVL317:
 2506 0000 F0B5     		push	{r4, r5, r6, r7, lr}
 2507              		.cfi_def_cfa_offset 20
 2508              		.cfi_offset 4, -20
 2509              		.cfi_offset 5, -16
 2510              		.cfi_offset 6, -12
 2511              		.cfi_offset 7, -8
 2512              		.cfi_offset 14, -4
 2513 0002 83B0     		sub	sp, sp, #12
 2514              		.cfi_def_cfa_offset 32
 948:uCOS-III\Source/os_task.c ****         case OS_OPT_POST_FIFO:
 2515              		.loc 1 948 0
 2516 0004 102B     		cmp	r3, #16
 2517 0006 0ED0     		beq	.L217
 2518 0008 01D8     		bhi	.L218
 2519 000a 3BB9     		cbnz	r3, .L216
 2520 000c 0BE0     		b	.L217
 2521              	.L218:
 2522 000e B3F5004F 		cmp	r3, #32768
 2523 0012 08D0     		beq	.L217
 2524 0014 48F21004 		movw	r4, #32784
 2525 0018 A342     		cmp	r3, r4
 2526 001a 04D0     		beq	.L217
 2527              	.L216:
 956:uCOS-III\Source/os_task.c ****              return;
 2528              		.loc 1 956 0
 2529 001c 45F62563 		movw	r3, #24101
 2530              	.LVL318:
 2531 0020 089A     		ldr	r2, [sp, #32]
 2532              	.LVL319:
 2533 0022 1380     		strh	r3, [r2]	@ movhi
 957:uCOS-III\Source/os_task.c ****     }
 2534              		.loc 1 957 0
 2535 0024 0EE0     		b	.L215
 2536              	.LVL320:
 2537              	.L217:
 2538 0026 1C46     		mov	r4, r3
 2539 0028 1746     		mov	r7, r2
 2540 002a 0E46     		mov	r6, r1
 2541 002c 0546     		mov	r5, r0
 961:uCOS-III\Source/os_task.c **** 
 2542              		.loc 1 961 0
 2543 002e FFF7FEFF 		bl	CPU_TS_TmrRd
 2544              	.LVL321:
 977:uCOS-III\Source/os_task.c ****                  p_void,
 2545              		.loc 1 977 0
ARM GAS  C:\Users\jorti\AppData\Local\Temp\ccDtGf1z.s 			page 86


 2546 0032 089B     		ldr	r3, [sp, #32]
 2547 0034 0193     		str	r3, [sp, #4]
 2548 0036 0090     		str	r0, [sp]
 2549 0038 2346     		mov	r3, r4
 2550 003a 3A46     		mov	r2, r7
 2551 003c 3146     		mov	r1, r6
 2552 003e 2846     		mov	r0, r5
 2553              	.LVL322:
 2554 0040 FFF7FEFF 		bl	OS_TaskQPost
 2555              	.LVL323:
 2556              	.L215:
 983:uCOS-III\Source/os_task.c **** #endif
 2557              		.loc 1 983 0
 2558 0044 03B0     		add	sp, sp, #12
 2559              		.cfi_def_cfa_offset 20
 2560              		@ sp needed
 2561 0046 F0BD     		pop	{r4, r5, r6, r7, pc}
 2562              		.cfi_endproc
 2563              	.LFE7:
 2564              		.size	OSTaskQPost, .-OSTaskQPost
 2565              		.section	.text.OS_TaskResume,"ax",%progbits
 2566              		.align	2
 2567              		.global	OS_TaskResume
 2568              		.thumb
 2569              		.thumb_func
 2570              		.type	OS_TaskResume, %function
 2571              	OS_TaskResume:
 2572              	.LFB24:
2188:uCOS-III\Source/os_task.c **** #endif
2189:uCOS-III\Source/os_task.c **** 
2190:uCOS-III\Source/os_task.c **** /*$PAGE*/
2191:uCOS-III\Source/os_task.c **** /*
2192:uCOS-III\Source/os_task.c **** ***************************************************************************************************
2193:uCOS-III\Source/os_task.c **** *                                               RESUME A SUSPENDED TASK
2194:uCOS-III\Source/os_task.c **** *
2195:uCOS-III\Source/os_task.c **** * Description: This function is called to resume a previously suspended task.  This is the only cal
2196:uCOS-III\Source/os_task.c **** *              explicit task suspension.
2197:uCOS-III\Source/os_task.c **** *
2198:uCOS-III\Source/os_task.c **** * Arguments  : p_tcb      Is a pointer to the task's OS_TCB to resume
2199:uCOS-III\Source/os_task.c **** *
2200:uCOS-III\Source/os_task.c **** *              p_err      Is a pointer to a variable that will contain an error code returned by th
2201:uCOS-III\Source/os_task.c **** *
2202:uCOS-III\Source/os_task.c **** *                             OS_ERR_NONE                  if the requested task is resumed
2203:uCOS-III\Source/os_task.c **** *                             OS_ERR_STATE_INVALID         if the task is in an invalid state
2204:uCOS-III\Source/os_task.c **** *                             OS_ERR_TASK_RESUME_ISR       if you called this function from an ISR
2205:uCOS-III\Source/os_task.c **** *                             OS_ERR_TASK_RESUME_SELF      You cannot resume 'self'
2206:uCOS-III\Source/os_task.c **** *                             OS_ERR_TASK_NOT_SUSPENDED    if the task to resume has not been suspe
2207:uCOS-III\Source/os_task.c **** *
2208:uCOS-III\Source/os_task.c **** * Returns    : none
2209:uCOS-III\Source/os_task.c **** *
2210:uCOS-III\Source/os_task.c **** * Note(s)    : This function is INTERNAL to uC/OS-III and your application should not call it.
2211:uCOS-III\Source/os_task.c **** ***************************************************************************************************
2212:uCOS-III\Source/os_task.c **** */
2213:uCOS-III\Source/os_task.c **** 
2214:uCOS-III\Source/os_task.c **** #if OS_CFG_TASK_SUSPEND_EN > 0u
2215:uCOS-III\Source/os_task.c **** void  OS_TaskResume (OS_TCB  *p_tcb,
2216:uCOS-III\Source/os_task.c ****                      OS_ERR  *p_err)
ARM GAS  C:\Users\jorti\AppData\Local\Temp\ccDtGf1z.s 			page 87


2217:uCOS-III\Source/os_task.c **** {
 2573              		.loc 1 2217 0
 2574              		.cfi_startproc
 2575              		@ args = 0, pretend = 0, frame = 0
 2576              		@ frame_needed = 0, uses_anonymous_args = 0
 2577              	.LVL324:
 2578 0000 70B5     		push	{r4, r5, r6, lr}
 2579              		.cfi_def_cfa_offset 16
 2580              		.cfi_offset 4, -16
 2581              		.cfi_offset 5, -12
 2582              		.cfi_offset 6, -8
 2583              		.cfi_offset 14, -4
 2584 0002 0446     		mov	r4, r0
 2585 0004 0D46     		mov	r5, r1
 2586              	.LVL325:
2218:uCOS-III\Source/os_task.c ****     CPU_SR_ALLOC();
2219:uCOS-III\Source/os_task.c **** 
2220:uCOS-III\Source/os_task.c **** 
2221:uCOS-III\Source/os_task.c ****     CPU_CRITICAL_ENTER();
 2587              		.loc 1 2221 0
 2588 0006 FFF7FEFF 		bl	CPU_SR_Save
 2589              	.LVL326:
 2590 000a 0646     		mov	r6, r0
 2591              	.LVL327:
2222:uCOS-III\Source/os_task.c ****    *p_err  = OS_ERR_NONE;
 2592              		.loc 1 2222 0
 2593 000c 0023     		movs	r3, #0
 2594 000e 2B80     		strh	r3, [r5]	@ movhi
2223:uCOS-III\Source/os_task.c ****     switch (p_tcb->TaskState) {
 2595              		.loc 1 2223 0
 2596 0010 94F83630 		ldrb	r3, [r4, #54]	@ zero_extendqisi2
 2597 0014 072B     		cmp	r3, #7
 2598 0016 45D8     		bhi	.L222
 2599 0018 DFE803F0 		tbb	[pc, r3]
 2600              	.L224:
 2601 001c 04       		.byte	(.L223-.L224)/2
 2602 001d 04       		.byte	(.L223-.L224)/2
 2603 001e 04       		.byte	(.L223-.L224)/2
 2604 001f 04       		.byte	(.L223-.L224)/2
 2605 0020 0A       		.byte	(.L225-.L224)/2
 2606 0021 1A       		.byte	(.L226-.L224)/2
 2607 0022 28       		.byte	(.L227-.L224)/2
 2608 0023 36       		.byte	(.L228-.L224)/2
 2609              		.p2align 1
 2610              	.L223:
2224:uCOS-III\Source/os_task.c ****         case OS_TASK_STATE_RDY:
2225:uCOS-III\Source/os_task.c ****         case OS_TASK_STATE_DLY:
2226:uCOS-III\Source/os_task.c ****         case OS_TASK_STATE_PEND:
2227:uCOS-III\Source/os_task.c ****         case OS_TASK_STATE_PEND_TIMEOUT:
2228:uCOS-III\Source/os_task.c ****              CPU_CRITICAL_EXIT();
 2611              		.loc 1 2228 0
 2612 0024 FFF7FEFF 		bl	CPU_SR_Restore
 2613              	.LVL328:
2229:uCOS-III\Source/os_task.c ****             *p_err = OS_ERR_TASK_NOT_SUSPENDED;
 2614              		.loc 1 2229 0
 2615 0028 47F25313 		movw	r3, #29011
 2616 002c 2B80     		strh	r3, [r5]	@ movhi
ARM GAS  C:\Users\jorti\AppData\Local\Temp\ccDtGf1z.s 			page 88


2230:uCOS-III\Source/os_task.c ****              break;
 2617              		.loc 1 2230 0
 2618 002e 3FE0     		b	.L229
 2619              	.LVL329:
 2620              	.L225:
2231:uCOS-III\Source/os_task.c **** 
2232:uCOS-III\Source/os_task.c ****         case OS_TASK_STATE_SUSPENDED:
2233:uCOS-III\Source/os_task.c ****              OS_CRITICAL_ENTER_CPU_EXIT();
2234:uCOS-III\Source/os_task.c ****              p_tcb->SuspendCtr--;
 2621              		.loc 1 2234 0
 2622 0030 94F88A30 		ldrb	r3, [r4, #138]	@ zero_extendqisi2
 2623 0034 013B     		subs	r3, r3, #1
 2624 0036 DBB2     		uxtb	r3, r3
 2625 0038 84F88A30 		strb	r3, [r4, #138]
2235:uCOS-III\Source/os_task.c ****              if (p_tcb->SuspendCtr == (OS_NESTING_CTR)0) {
 2626              		.loc 1 2235 0
 2627 003c 23B9     		cbnz	r3, .L230
2236:uCOS-III\Source/os_task.c ****                  p_tcb->TaskState = OS_TASK_STATE_RDY;
 2628              		.loc 1 2236 0
 2629 003e 84F83630 		strb	r3, [r4, #54]
2237:uCOS-III\Source/os_task.c ****                  OS_TaskRdy(p_tcb);
 2630              		.loc 1 2237 0
 2631 0042 2046     		mov	r0, r4
 2632              	.LVL330:
 2633 0044 FFF7FEFF 		bl	OS_TaskRdy
 2634              	.LVL331:
 2635              	.L230:
2238:uCOS-III\Source/os_task.c ****              }
2239:uCOS-III\Source/os_task.c ****              OS_CRITICAL_EXIT_NO_SCHED();
 2636              		.loc 1 2239 0
 2637 0048 3046     		mov	r0, r6
 2638 004a FFF7FEFF 		bl	CPU_SR_Restore
 2639              	.LVL332:
2240:uCOS-III\Source/os_task.c ****              break;
 2640              		.loc 1 2240 0
 2641 004e 2FE0     		b	.L229
 2642              	.LVL333:
 2643              	.L226:
2241:uCOS-III\Source/os_task.c **** 
2242:uCOS-III\Source/os_task.c ****         case OS_TASK_STATE_DLY_SUSPENDED:
2243:uCOS-III\Source/os_task.c ****              p_tcb->SuspendCtr--;
 2644              		.loc 1 2243 0
 2645 0050 94F88A30 		ldrb	r3, [r4, #138]	@ zero_extendqisi2
 2646 0054 013B     		subs	r3, r3, #1
 2647 0056 DBB2     		uxtb	r3, r3
 2648 0058 84F88A30 		strb	r3, [r4, #138]
2244:uCOS-III\Source/os_task.c ****              if (p_tcb->SuspendCtr == (OS_NESTING_CTR)0) {
 2649              		.loc 1 2244 0
 2650 005c 13B9     		cbnz	r3, .L231
2245:uCOS-III\Source/os_task.c ****                  p_tcb->TaskState = OS_TASK_STATE_DLY;
 2651              		.loc 1 2245 0
 2652 005e 0123     		movs	r3, #1
 2653 0060 84F83630 		strb	r3, [r4, #54]
 2654              	.L231:
2246:uCOS-III\Source/os_task.c ****              }
2247:uCOS-III\Source/os_task.c ****              CPU_CRITICAL_EXIT();
 2655              		.loc 1 2247 0
ARM GAS  C:\Users\jorti\AppData\Local\Temp\ccDtGf1z.s 			page 89


 2656 0064 3046     		mov	r0, r6
 2657              	.LVL334:
 2658 0066 FFF7FEFF 		bl	CPU_SR_Restore
 2659              	.LVL335:
2248:uCOS-III\Source/os_task.c ****              break;
 2660              		.loc 1 2248 0
 2661 006a 21E0     		b	.L229
 2662              	.LVL336:
 2663              	.L227:
2249:uCOS-III\Source/os_task.c **** 
2250:uCOS-III\Source/os_task.c ****         case OS_TASK_STATE_PEND_SUSPENDED:
2251:uCOS-III\Source/os_task.c ****              p_tcb->SuspendCtr--;
 2664              		.loc 1 2251 0
 2665 006c 94F88A30 		ldrb	r3, [r4, #138]	@ zero_extendqisi2
 2666 0070 013B     		subs	r3, r3, #1
 2667 0072 DBB2     		uxtb	r3, r3
 2668 0074 84F88A30 		strb	r3, [r4, #138]
2252:uCOS-III\Source/os_task.c ****              if (p_tcb->SuspendCtr == (OS_NESTING_CTR)0) {
 2669              		.loc 1 2252 0
 2670 0078 13B9     		cbnz	r3, .L232
2253:uCOS-III\Source/os_task.c ****                  p_tcb->TaskState = OS_TASK_STATE_PEND;
 2671              		.loc 1 2253 0
 2672 007a 0223     		movs	r3, #2
 2673 007c 84F83630 		strb	r3, [r4, #54]
 2674              	.L232:
2254:uCOS-III\Source/os_task.c ****              }
2255:uCOS-III\Source/os_task.c ****              CPU_CRITICAL_EXIT();
 2675              		.loc 1 2255 0
 2676 0080 3046     		mov	r0, r6
 2677              	.LVL337:
 2678 0082 FFF7FEFF 		bl	CPU_SR_Restore
 2679              	.LVL338:
2256:uCOS-III\Source/os_task.c ****              break;
 2680              		.loc 1 2256 0
 2681 0086 13E0     		b	.L229
 2682              	.LVL339:
 2683              	.L228:
2257:uCOS-III\Source/os_task.c **** 
2258:uCOS-III\Source/os_task.c ****         case OS_TASK_STATE_PEND_TIMEOUT_SUSPENDED:
2259:uCOS-III\Source/os_task.c ****              p_tcb->SuspendCtr--;
 2684              		.loc 1 2259 0
 2685 0088 94F88A30 		ldrb	r3, [r4, #138]	@ zero_extendqisi2
 2686 008c 013B     		subs	r3, r3, #1
 2687 008e DBB2     		uxtb	r3, r3
 2688 0090 84F88A30 		strb	r3, [r4, #138]
2260:uCOS-III\Source/os_task.c ****              if (p_tcb->SuspendCtr == (OS_NESTING_CTR)0) {
 2689              		.loc 1 2260 0
 2690 0094 13B9     		cbnz	r3, .L233
2261:uCOS-III\Source/os_task.c ****                  p_tcb->TaskState = OS_TASK_STATE_PEND_TIMEOUT;
 2691              		.loc 1 2261 0
 2692 0096 0323     		movs	r3, #3
 2693 0098 84F83630 		strb	r3, [r4, #54]
 2694              	.L233:
2262:uCOS-III\Source/os_task.c ****              }
2263:uCOS-III\Source/os_task.c ****              CPU_CRITICAL_EXIT();
 2695              		.loc 1 2263 0
 2696 009c 3046     		mov	r0, r6
ARM GAS  C:\Users\jorti\AppData\Local\Temp\ccDtGf1z.s 			page 90


 2697              	.LVL340:
 2698 009e FFF7FEFF 		bl	CPU_SR_Restore
 2699              	.LVL341:
2264:uCOS-III\Source/os_task.c ****              break;
 2700              		.loc 1 2264 0
 2701 00a2 05E0     		b	.L229
 2702              	.LVL342:
 2703              	.L222:
2265:uCOS-III\Source/os_task.c **** 
2266:uCOS-III\Source/os_task.c ****         default:
2267:uCOS-III\Source/os_task.c ****              CPU_CRITICAL_EXIT();
 2704              		.loc 1 2267 0
 2705 00a4 FFF7FEFF 		bl	CPU_SR_Restore
 2706              	.LVL343:
2268:uCOS-III\Source/os_task.c ****             *p_err = OS_ERR_STATE_INVALID;
 2707              		.loc 1 2268 0
 2708 00a8 46F62D63 		movw	r3, #28205
 2709 00ac 2B80     		strh	r3, [r5]	@ movhi
2269:uCOS-III\Source/os_task.c ****              return;
 2710              		.loc 1 2269 0
 2711 00ae 70BD     		pop	{r4, r5, r6, pc}
 2712              	.LVL344:
 2713              	.L229:
2270:uCOS-III\Source/os_task.c ****     }
2271:uCOS-III\Source/os_task.c **** 
2272:uCOS-III\Source/os_task.c ****     OSSched();
 2714              		.loc 1 2272 0
 2715 00b0 FFF7FEFF 		bl	OSSched
 2716              	.LVL345:
 2717 00b4 70BD     		pop	{r4, r5, r6, pc}
 2718              		.cfi_endproc
 2719              	.LFE24:
 2720              		.size	OS_TaskResume, .-OS_TaskResume
 2721              		.section	.text.OSTaskResume,"ax",%progbits
 2722              		.align	2
 2723              		.global	OSTaskResume
 2724              		.thumb
 2725              		.thumb_func
 2726              		.type	OSTaskResume, %function
 2727              	OSTaskResume:
 2728              	.LFB11:
1178:uCOS-III\Source/os_task.c ****     CPU_SR_ALLOC();
 2729              		.loc 1 1178 0
 2730              		.cfi_startproc
 2731              		@ args = 0, pretend = 0, frame = 0
 2732              		@ frame_needed = 0, uses_anonymous_args = 0
 2733              	.LVL346:
 2734 0000 38B5     		push	{r3, r4, r5, lr}
 2735              		.cfi_def_cfa_offset 16
 2736              		.cfi_offset 3, -16
 2737              		.cfi_offset 4, -12
 2738              		.cfi_offset 5, -8
 2739              		.cfi_offset 14, -4
 2740              	.LVL347:
1192:uCOS-III\Source/os_task.c ****        *p_err = OS_ERR_TASK_RESUME_ISR;
 2741              		.loc 1 1192 0
 2742 0002 0E4B     		ldr	r3, .L242
ARM GAS  C:\Users\jorti\AppData\Local\Temp\ccDtGf1z.s 			page 91


 2743 0004 1B78     		ldrb	r3, [r3]	@ zero_extendqisi2
 2744 0006 1BB1     		cbz	r3, .L237
1193:uCOS-III\Source/os_task.c ****         return;
 2745              		.loc 1 1193 0
 2746 0008 47F25513 		movw	r3, #29013
 2747 000c 0B80     		strh	r3, [r1]	@ movhi
1194:uCOS-III\Source/os_task.c ****     }
 2748              		.loc 1 1194 0
 2749 000e 38BD     		pop	{r3, r4, r5, pc}
 2750              	.L237:
 2751 0010 0D46     		mov	r5, r1
 2752 0012 0446     		mov	r4, r0
1199:uCOS-III\Source/os_task.c **** #if OS_CFG_ARG_CHK_EN > 0u
 2753              		.loc 1 1199 0
 2754 0014 FFF7FEFF 		bl	CPU_SR_Save
 2755              	.LVL348:
1201:uCOS-III\Source/os_task.c ****         (p_tcb == OSTCBCurPtr)) {
 2756              		.loc 1 1201 0
 2757 0018 1CB1     		cbz	r4, .L239
1202:uCOS-III\Source/os_task.c ****         CPU_CRITICAL_EXIT();
 2758              		.loc 1 1202 0 discriminator 1
 2759 001a 094B     		ldr	r3, .L242+4
 2760 001c 1B68     		ldr	r3, [r3]
1201:uCOS-III\Source/os_task.c ****         (p_tcb == OSTCBCurPtr)) {
 2761              		.loc 1 1201 0 discriminator 1
 2762 001e 9C42     		cmp	r4, r3
 2763 0020 05D1     		bne	.L240
 2764              	.L239:
1203:uCOS-III\Source/os_task.c ****        *p_err  = OS_ERR_TASK_RESUME_SELF;
 2765              		.loc 1 1203 0
 2766 0022 FFF7FEFF 		bl	CPU_SR_Restore
 2767              	.LVL349:
1204:uCOS-III\Source/os_task.c ****         return;
 2768              		.loc 1 1204 0
 2769 0026 47F25713 		movw	r3, #29015
 2770 002a 2B80     		strh	r3, [r5]	@ movhi
1205:uCOS-III\Source/os_task.c ****     }
 2771              		.loc 1 1205 0
 2772 002c 38BD     		pop	{r3, r4, r5, pc}
 2773              	.LVL350:
 2774              	.L240:
1208:uCOS-III\Source/os_task.c **** 
 2775              		.loc 1 1208 0
 2776 002e FFF7FEFF 		bl	CPU_SR_Restore
 2777              	.LVL351:
1224:uCOS-III\Source/os_task.c **** }
 2778              		.loc 1 1224 0
 2779 0032 2946     		mov	r1, r5
 2780 0034 2046     		mov	r0, r4
 2781 0036 FFF7FEFF 		bl	OS_TaskResume
 2782              	.LVL352:
 2783 003a 38BD     		pop	{r3, r4, r5, pc}
 2784              	.LVL353:
 2785              	.L243:
 2786              		.align	2
 2787              	.L242:
 2788 003c 00000000 		.word	OSIntNestingCtr
ARM GAS  C:\Users\jorti\AppData\Local\Temp\ccDtGf1z.s 			page 92


 2789 0040 00000000 		.word	OSTCBCurPtr
 2790              		.cfi_endproc
 2791              	.LFE11:
 2792              		.size	OSTaskResume, .-OSTaskResume
 2793              		.section	.text.OS_TaskReturn,"ax",%progbits
 2794              		.align	2
 2795              		.global	OS_TaskReturn
 2796              		.thumb
 2797              		.thumb_func
 2798              		.type	OS_TaskReturn, %function
 2799              	OS_TaskReturn:
 2800              	.LFB25:
2273:uCOS-III\Source/os_task.c **** }
2274:uCOS-III\Source/os_task.c **** #endif
2275:uCOS-III\Source/os_task.c **** 
2276:uCOS-III\Source/os_task.c **** /*$PAGE*/
2277:uCOS-III\Source/os_task.c **** /*
2278:uCOS-III\Source/os_task.c **** ***************************************************************************************************
2279:uCOS-III\Source/os_task.c **** *                                              CATCH ACCIDENTAL TASK RETURN
2280:uCOS-III\Source/os_task.c **** *
2281:uCOS-III\Source/os_task.c **** * Description: This function is called if a task accidentally returns without deleting itself.  In 
2282:uCOS-III\Source/os_task.c **** *              should either be an infinite loop or delete itself if it's done.
2283:uCOS-III\Source/os_task.c **** *
2284:uCOS-III\Source/os_task.c **** * Arguments  : none
2285:uCOS-III\Source/os_task.c **** *
2286:uCOS-III\Source/os_task.c **** * Returns    : none
2287:uCOS-III\Source/os_task.c **** *
2288:uCOS-III\Source/os_task.c **** * Note(s)    : This function is INTERNAL to uC/OS-III and your application should not call it.
2289:uCOS-III\Source/os_task.c **** ***************************************************************************************************
2290:uCOS-III\Source/os_task.c **** */
2291:uCOS-III\Source/os_task.c **** 
2292:uCOS-III\Source/os_task.c **** void  OS_TaskReturn (void)
2293:uCOS-III\Source/os_task.c **** {
 2801              		.loc 1 2293 0
 2802              		.cfi_startproc
 2803              		@ args = 0, pretend = 0, frame = 8
 2804              		@ frame_needed = 0, uses_anonymous_args = 0
 2805 0000 00B5     		push	{lr}
 2806              		.cfi_def_cfa_offset 4
 2807              		.cfi_offset 14, -4
 2808 0002 83B0     		sub	sp, sp, #12
 2809              		.cfi_def_cfa_offset 16
2294:uCOS-III\Source/os_task.c ****     OS_ERR  err;
2295:uCOS-III\Source/os_task.c **** 
2296:uCOS-III\Source/os_task.c **** 
2297:uCOS-III\Source/os_task.c **** 
2298:uCOS-III\Source/os_task.c ****     OSTaskReturnHook(OSTCBCurPtr);                          /* Call hook to let user decide on what
 2810              		.loc 1 2298 0
 2811 0004 054B     		ldr	r3, .L246
 2812 0006 1868     		ldr	r0, [r3]
 2813 0008 FFF7FEFF 		bl	OSTaskReturnHook
 2814              	.LVL354:
2299:uCOS-III\Source/os_task.c **** #if OS_CFG_TASK_DEL_EN > 0u
2300:uCOS-III\Source/os_task.c ****     OSTaskDel((OS_TCB *)0,                                  /* Delete task if it accidentally retur
 2815              		.loc 1 2300 0
 2816 000c 0DF10601 		add	r1, sp, #6
 2817 0010 0020     		movs	r0, #0
ARM GAS  C:\Users\jorti\AppData\Local\Temp\ccDtGf1z.s 			page 93


 2818 0012 FFF7FEFF 		bl	OSTaskDel
 2819              	.LVL355:
2301:uCOS-III\Source/os_task.c ****               (OS_ERR *)&err);
2302:uCOS-III\Source/os_task.c **** #else
2303:uCOS-III\Source/os_task.c ****     for (;;) {
2304:uCOS-III\Source/os_task.c ****         OSTimeDly((OS_TICK )OSCfg_TickRate_Hz,
2305:uCOS-III\Source/os_task.c ****                   (OS_OPT  )OS_OPT_TIME_DLY,
2306:uCOS-III\Source/os_task.c ****                   (OS_ERR *)&err);
2307:uCOS-III\Source/os_task.c ****     }
2308:uCOS-III\Source/os_task.c **** #endif
2309:uCOS-III\Source/os_task.c **** }
 2820              		.loc 1 2309 0
 2821 0016 03B0     		add	sp, sp, #12
 2822              		.cfi_def_cfa_offset 4
 2823              		@ sp needed
 2824 0018 5DF804FB 		ldr	pc, [sp], #4
 2825              	.L247:
 2826              		.align	2
 2827              	.L246:
 2828 001c 00000000 		.word	OSTCBCurPtr
 2829              		.cfi_endproc
 2830              	.LFE25:
 2831              		.size	OS_TaskReturn, .-OS_TaskReturn
 2832              		.section	.text.OS_TaskSemPost,"ax",%progbits
 2833              		.align	2
 2834              		.global	OS_TaskSemPost
 2835              		.thumb
 2836              		.thumb_func
 2837              		.type	OS_TaskSemPost, %function
 2838              	OS_TaskSemPost:
 2839              	.LFB26:
2310:uCOS-III\Source/os_task.c **** 
2311:uCOS-III\Source/os_task.c **** /*$PAGE*/
2312:uCOS-III\Source/os_task.c **** /*
2313:uCOS-III\Source/os_task.c **** ***************************************************************************************************
2314:uCOS-III\Source/os_task.c **** *                                                    SIGNAL A TASK
2315:uCOS-III\Source/os_task.c **** *
2316:uCOS-III\Source/os_task.c **** * Description: This function is called to signal a task waiting for a signal.
2317:uCOS-III\Source/os_task.c **** *
2318:uCOS-III\Source/os_task.c **** * Arguments  : p_tcb     is the pointer to the TCB of the task to signal.  A NULL pointer indicates
2319:uCOS-III\Source/os_task.c **** *                        a signal to yourself.
2320:uCOS-III\Source/os_task.c **** *
2321:uCOS-III\Source/os_task.c **** *              opt       determines the type of POST performed:
2322:uCOS-III\Source/os_task.c **** *
2323:uCOS-III\Source/os_task.c **** *                             OS_OPT_POST_NONE         No option
2324:uCOS-III\Source/os_task.c **** *
2325:uCOS-III\Source/os_task.c **** *                             OS_OPT_POST_NO_SCHED     Do not call the scheduler
2326:uCOS-III\Source/os_task.c **** *
2327:uCOS-III\Source/os_task.c **** *              ts        is a timestamp indicating when the post occurred.
2328:uCOS-III\Source/os_task.c **** *
2329:uCOS-III\Source/os_task.c **** *              p_err     is a pointer to an error code returned by this function:
2330:uCOS-III\Source/os_task.c **** *
2331:uCOS-III\Source/os_task.c **** *                            OS_ERR_NONE           If the requested task is signaled
2332:uCOS-III\Source/os_task.c **** *                            OS_ERR_SEM_OVF        If the post would cause the semaphore count to o
2333:uCOS-III\Source/os_task.c **** *                            OS_ERR_STATE_INVALID  If the task is in an invalid state.  This should
2334:uCOS-III\Source/os_task.c **** *                                                  and if it does, would be considered a system fai
2335:uCOS-III\Source/os_task.c **** *
ARM GAS  C:\Users\jorti\AppData\Local\Temp\ccDtGf1z.s 			page 94


2336:uCOS-III\Source/os_task.c **** * Returns    : The current value of the task's signal counter or 0 if called from an ISR
2337:uCOS-III\Source/os_task.c **** *
2338:uCOS-III\Source/os_task.c **** * Note(s)    : This function is INTERNAL to uC/OS-III and your application should not call it.
2339:uCOS-III\Source/os_task.c **** ***************************************************************************************************
2340:uCOS-III\Source/os_task.c **** */
2341:uCOS-III\Source/os_task.c **** 
2342:uCOS-III\Source/os_task.c **** OS_SEM_CTR  OS_TaskSemPost (OS_TCB  *p_tcb,
2343:uCOS-III\Source/os_task.c ****                             OS_OPT   opt,
2344:uCOS-III\Source/os_task.c ****                             CPU_TS   ts,
2345:uCOS-III\Source/os_task.c ****                             OS_ERR  *p_err)
2346:uCOS-III\Source/os_task.c **** {
 2840              		.loc 1 2346 0
 2841              		.cfi_startproc
 2842              		@ args = 0, pretend = 0, frame = 0
 2843              		@ frame_needed = 0, uses_anonymous_args = 0
 2844              	.LVL356:
 2845 0000 2DE9F041 		push	{r4, r5, r6, r7, r8, lr}
 2846              		.cfi_def_cfa_offset 24
 2847              		.cfi_offset 4, -24
 2848              		.cfi_offset 5, -20
 2849              		.cfi_offset 6, -16
 2850              		.cfi_offset 7, -12
 2851              		.cfi_offset 8, -8
 2852              		.cfi_offset 14, -4
 2853 0004 82B0     		sub	sp, sp, #8
 2854              		.cfi_def_cfa_offset 32
 2855 0006 0446     		mov	r4, r0
 2856 0008 8846     		mov	r8, r1
 2857 000a 1546     		mov	r5, r2
 2858 000c 1E46     		mov	r6, r3
 2859              	.LVL357:
2347:uCOS-III\Source/os_task.c ****     OS_SEM_CTR  ctr;
2348:uCOS-III\Source/os_task.c ****     CPU_SR_ALLOC();
2349:uCOS-III\Source/os_task.c **** 
2350:uCOS-III\Source/os_task.c **** 
2351:uCOS-III\Source/os_task.c **** 
2352:uCOS-III\Source/os_task.c ****     OS_CRITICAL_ENTER();
 2860              		.loc 1 2352 0
 2861 000e FFF7FEFF 		bl	CPU_SR_Save
 2862              	.LVL358:
 2863 0012 0746     		mov	r7, r0
 2864              	.LVL359:
2353:uCOS-III\Source/os_task.c ****     if (p_tcb == (OS_TCB *)0) {                             /* Post signal to 'self'?              
 2865              		.loc 1 2353 0
 2866 0014 0CB9     		cbnz	r4, .L249
2354:uCOS-III\Source/os_task.c ****         p_tcb = OSTCBCurPtr;
 2867              		.loc 1 2354 0
 2868 0016 294B     		ldr	r3, .L260
 2869 0018 1C68     		ldr	r4, [r3]
 2870              	.LVL360:
 2871              	.L249:
2355:uCOS-III\Source/os_task.c ****     }
2356:uCOS-III\Source/os_task.c ****     p_tcb->TS = ts;
 2872              		.loc 1 2356 0
 2873 001a 2564     		str	r5, [r4, #64]
2357:uCOS-III\Source/os_task.c ****    *p_err     = OS_ERR_NONE;                                /* Assume we won't have any errors     
 2874              		.loc 1 2357 0
ARM GAS  C:\Users\jorti\AppData\Local\Temp\ccDtGf1z.s 			page 95


 2875 001c 0023     		movs	r3, #0
 2876 001e 3380     		strh	r3, [r6]	@ movhi
2358:uCOS-III\Source/os_task.c ****     switch (p_tcb->TaskState) {
 2877              		.loc 1 2358 0
 2878 0020 94F83630 		ldrb	r3, [r4, #54]	@ zero_extendqisi2
 2879 0024 072B     		cmp	r3, #7
 2880 0026 3ED8     		bhi	.L250
 2881 0028 DFE803F0 		tbb	[pc, r3]
 2882              	.L252:
 2883 002c 04       		.byte	(.L251-.L252)/2
 2884 002d 04       		.byte	(.L251-.L252)/2
 2885 002e 16       		.byte	(.L253-.L252)/2
 2886 002f 16       		.byte	(.L253-.L252)/2
 2887 0030 04       		.byte	(.L251-.L252)/2
 2888 0031 04       		.byte	(.L251-.L252)/2
 2889 0032 16       		.byte	(.L253-.L252)/2
 2890 0033 16       		.byte	(.L253-.L252)/2
 2891              		.p2align 1
 2892              	.L251:
2359:uCOS-III\Source/os_task.c ****         case OS_TASK_STATE_RDY:
2360:uCOS-III\Source/os_task.c ****         case OS_TASK_STATE_DLY:
2361:uCOS-III\Source/os_task.c ****         case OS_TASK_STATE_SUSPENDED:
2362:uCOS-III\Source/os_task.c ****         case OS_TASK_STATE_DLY_SUSPENDED:
2363:uCOS-III\Source/os_task.c ****              switch (sizeof(OS_SEM_CTR)) {
2364:uCOS-III\Source/os_task.c ****                  case 1u:
2365:uCOS-III\Source/os_task.c ****                       if (p_tcb->SemCtr == DEF_INT_08U_MAX_VAL) {
2366:uCOS-III\Source/os_task.c ****                           OS_CRITICAL_EXIT();
2367:uCOS-III\Source/os_task.c ****                          *p_err = OS_ERR_SEM_OVF;
2368:uCOS-III\Source/os_task.c ****                           return ((OS_SEM_CTR)0);
2369:uCOS-III\Source/os_task.c ****                       }
2370:uCOS-III\Source/os_task.c ****                       break;
2371:uCOS-III\Source/os_task.c **** 
2372:uCOS-III\Source/os_task.c ****                  case 2u:
2373:uCOS-III\Source/os_task.c ****                       if (p_tcb->SemCtr == DEF_INT_16U_MAX_VAL) {
2374:uCOS-III\Source/os_task.c ****                           OS_CRITICAL_EXIT();
2375:uCOS-III\Source/os_task.c ****                          *p_err = OS_ERR_SEM_OVF;
2376:uCOS-III\Source/os_task.c ****                           return ((OS_SEM_CTR)0);
2377:uCOS-III\Source/os_task.c ****                       }
2378:uCOS-III\Source/os_task.c ****                       break;
2379:uCOS-III\Source/os_task.c **** 
2380:uCOS-III\Source/os_task.c ****                  case 4u:
2381:uCOS-III\Source/os_task.c ****                       if (p_tcb->SemCtr == DEF_INT_32U_MAX_VAL) {
 2893              		.loc 1 2381 0
 2894 0034 656C     		ldr	r5, [r4, #68]
 2895              	.LVL361:
 2896 0036 B5F1FF3F 		cmp	r5, #-1
 2897 003a 07D1     		bne	.L254
2382:uCOS-III\Source/os_task.c ****                           OS_CRITICAL_EXIT();
 2898              		.loc 1 2382 0
 2899 003c 3846     		mov	r0, r7
 2900              	.LVL362:
 2901 003e FFF7FEFF 		bl	CPU_SR_Restore
 2902              	.LVL363:
2383:uCOS-III\Source/os_task.c ****                          *p_err = OS_ERR_SEM_OVF;
 2903              		.loc 1 2383 0
 2904 0042 46F6C553 		movw	r3, #28101
 2905 0046 3380     		strh	r3, [r6]	@ movhi
ARM GAS  C:\Users\jorti\AppData\Local\Temp\ccDtGf1z.s 			page 96


2384:uCOS-III\Source/os_task.c ****                           return ((OS_SEM_CTR)0);
 2906              		.loc 1 2384 0
 2907 0048 0025     		movs	r5, #0
 2908 004a 33E0     		b	.L255
 2909              	.LVL364:
 2910              	.L254:
2385:uCOS-III\Source/os_task.c ****                       }
2386:uCOS-III\Source/os_task.c ****                       break;
2387:uCOS-III\Source/os_task.c **** 
2388:uCOS-III\Source/os_task.c ****                  default:
2389:uCOS-III\Source/os_task.c ****                       break;
2390:uCOS-III\Source/os_task.c ****              }
2391:uCOS-III\Source/os_task.c ****              p_tcb->SemCtr++;                               /* Task signaled is not pending on anyt
 2911              		.loc 1 2391 0
 2912 004c 0135     		adds	r5, r5, #1
 2913 004e 6564     		str	r5, [r4, #68]
 2914              	.LVL365:
2392:uCOS-III\Source/os_task.c ****              ctr = p_tcb->SemCtr;
2393:uCOS-III\Source/os_task.c ****              OS_CRITICAL_EXIT();
 2915              		.loc 1 2393 0
 2916 0050 3846     		mov	r0, r7
 2917              	.LVL366:
 2918 0052 FFF7FEFF 		bl	CPU_SR_Restore
 2919              	.LVL367:
2394:uCOS-III\Source/os_task.c ****              break;
 2920              		.loc 1 2394 0
 2921 0056 2DE0     		b	.L255
 2922              	.LVL368:
 2923              	.L253:
2395:uCOS-III\Source/os_task.c **** 
2396:uCOS-III\Source/os_task.c ****         case OS_TASK_STATE_PEND:
2397:uCOS-III\Source/os_task.c ****         case OS_TASK_STATE_PEND_TIMEOUT:
2398:uCOS-III\Source/os_task.c ****         case OS_TASK_STATE_PEND_SUSPENDED:
2399:uCOS-III\Source/os_task.c ****         case OS_TASK_STATE_PEND_TIMEOUT_SUSPENDED:
2400:uCOS-III\Source/os_task.c ****              if (p_tcb->PendOn == OS_TASK_PEND_ON_TASK_SEM) {   /* Is task signaled waiting for a s
 2924              		.loc 1 2400 0
 2925 0058 94F83430 		ldrb	r3, [r4, #52]	@ zero_extendqisi2
 2926 005c 072B     		cmp	r3, #7
 2927 005e 10D1     		bne	.L256
2401:uCOS-III\Source/os_task.c ****                  OS_Post((OS_PEND_OBJ *)0,                      /*      Task is pending on signal  
 2928              		.loc 1 2401 0
 2929 0060 0095     		str	r5, [sp]
 2930 0062 0023     		movs	r3, #0
 2931 0064 1A46     		mov	r2, r3
 2932 0066 2146     		mov	r1, r4
 2933 0068 1846     		mov	r0, r3
 2934              	.LVL369:
 2935 006a FFF7FEFF 		bl	OS_Post
 2936              	.LVL370:
2402:uCOS-III\Source/os_task.c ****                          (OS_TCB      *)p_tcb,
2403:uCOS-III\Source/os_task.c ****                          (void        *)0,
2404:uCOS-III\Source/os_task.c ****                          (OS_MSG_SIZE  )0u,
2405:uCOS-III\Source/os_task.c ****                          (CPU_TS       )ts);
2406:uCOS-III\Source/os_task.c ****                  ctr = p_tcb->SemCtr;
 2937              		.loc 1 2406 0
 2938 006e 656C     		ldr	r5, [r4, #68]
 2939              	.LVL371:
ARM GAS  C:\Users\jorti\AppData\Local\Temp\ccDtGf1z.s 			page 97


2407:uCOS-III\Source/os_task.c ****                  OS_CRITICAL_EXIT_NO_SCHED();
 2940              		.loc 1 2407 0
 2941 0070 3846     		mov	r0, r7
 2942 0072 FFF7FEFF 		bl	CPU_SR_Restore
 2943              	.LVL372:
2408:uCOS-III\Source/os_task.c ****                  if ((opt & OS_OPT_POST_NO_SCHED) == (OS_OPT)0) {
 2944              		.loc 1 2408 0
 2945 0076 18F4004F 		tst	r8, #32768
 2946 007a 1BD1     		bne	.L255
2409:uCOS-III\Source/os_task.c ****                      OSSched();                                 /* Run the scheduler               
 2947              		.loc 1 2409 0
 2948 007c FFF7FEFF 		bl	OSSched
 2949              	.LVL373:
 2950 0080 18E0     		b	.L255
 2951              	.LVL374:
 2952              	.L256:
2410:uCOS-III\Source/os_task.c ****                  }
2411:uCOS-III\Source/os_task.c ****              } else {
2412:uCOS-III\Source/os_task.c ****                  switch (sizeof(OS_SEM_CTR)) {
2413:uCOS-III\Source/os_task.c ****                      case 1u:
2414:uCOS-III\Source/os_task.c ****                           if (p_tcb->SemCtr == DEF_INT_08U_MAX_VAL) {
2415:uCOS-III\Source/os_task.c ****                               OS_CRITICAL_EXIT();
2416:uCOS-III\Source/os_task.c ****                              *p_err = OS_ERR_SEM_OVF;
2417:uCOS-III\Source/os_task.c ****                               return ((OS_SEM_CTR)0);
2418:uCOS-III\Source/os_task.c ****                           }
2419:uCOS-III\Source/os_task.c ****                           break;
2420:uCOS-III\Source/os_task.c **** 
2421:uCOS-III\Source/os_task.c ****                      case 2u:
2422:uCOS-III\Source/os_task.c ****                           if (p_tcb->SemCtr == DEF_INT_16U_MAX_VAL) {
2423:uCOS-III\Source/os_task.c ****                               OS_CRITICAL_EXIT();
2424:uCOS-III\Source/os_task.c ****                              *p_err = OS_ERR_SEM_OVF;
2425:uCOS-III\Source/os_task.c ****                               return ((OS_SEM_CTR)0);
2426:uCOS-III\Source/os_task.c ****                           }
2427:uCOS-III\Source/os_task.c ****                           break;
2428:uCOS-III\Source/os_task.c **** 
2429:uCOS-III\Source/os_task.c ****                      case 4u:
2430:uCOS-III\Source/os_task.c ****                           if (p_tcb->SemCtr == DEF_INT_32U_MAX_VAL) {
 2953              		.loc 1 2430 0
 2954 0082 656C     		ldr	r5, [r4, #68]
 2955              	.LVL375:
 2956 0084 B5F1FF3F 		cmp	r5, #-1
 2957 0088 07D1     		bne	.L257
2431:uCOS-III\Source/os_task.c ****                               OS_CRITICAL_EXIT();
 2958              		.loc 1 2431 0
 2959 008a 3846     		mov	r0, r7
 2960              	.LVL376:
 2961 008c FFF7FEFF 		bl	CPU_SR_Restore
 2962              	.LVL377:
2432:uCOS-III\Source/os_task.c ****                              *p_err = OS_ERR_SEM_OVF;
 2963              		.loc 1 2432 0
 2964 0090 46F6C553 		movw	r3, #28101
 2965 0094 3380     		strh	r3, [r6]	@ movhi
2433:uCOS-III\Source/os_task.c ****                               return ((OS_SEM_CTR)0);
 2966              		.loc 1 2433 0
 2967 0096 0025     		movs	r5, #0
 2968 0098 0CE0     		b	.L255
 2969              	.LVL378:
ARM GAS  C:\Users\jorti\AppData\Local\Temp\ccDtGf1z.s 			page 98


 2970              	.L257:
2434:uCOS-III\Source/os_task.c ****                           }
2435:uCOS-III\Source/os_task.c ****                           break;
2436:uCOS-III\Source/os_task.c **** 
2437:uCOS-III\Source/os_task.c ****                      default:
2438:uCOS-III\Source/os_task.c ****                           break;
2439:uCOS-III\Source/os_task.c ****                  }
2440:uCOS-III\Source/os_task.c ****                  p_tcb->SemCtr++;                           /* No,  Task signaled is NOT pending on
 2971              		.loc 1 2440 0
 2972 009a 0135     		adds	r5, r5, #1
 2973 009c 6564     		str	r5, [r4, #68]
 2974              	.LVL379:
2441:uCOS-III\Source/os_task.c ****                  ctr = p_tcb->SemCtr;                       /*      ... it must be waiting on somet
2442:uCOS-III\Source/os_task.c ****                  OS_CRITICAL_EXIT();
 2975              		.loc 1 2442 0
 2976 009e 3846     		mov	r0, r7
 2977              	.LVL380:
 2978 00a0 FFF7FEFF 		bl	CPU_SR_Restore
 2979              	.LVL381:
 2980 00a4 06E0     		b	.L255
 2981              	.LVL382:
 2982              	.L250:
2443:uCOS-III\Source/os_task.c ****              }
2444:uCOS-III\Source/os_task.c ****              break;
2445:uCOS-III\Source/os_task.c **** 
2446:uCOS-III\Source/os_task.c ****         default:
2447:uCOS-III\Source/os_task.c ****              OS_CRITICAL_EXIT();
 2983              		.loc 1 2447 0
 2984 00a6 3846     		mov	r0, r7
 2985              	.LVL383:
 2986 00a8 FFF7FEFF 		bl	CPU_SR_Restore
 2987              	.LVL384:
2448:uCOS-III\Source/os_task.c ****             *p_err = OS_ERR_STATE_INVALID;
 2988              		.loc 1 2448 0
 2989 00ac 46F62D63 		movw	r3, #28205
 2990 00b0 3380     		strh	r3, [r6]	@ movhi
 2991              	.LVL385:
2449:uCOS-III\Source/os_task.c ****              ctr   = (OS_SEM_CTR)0;
 2992              		.loc 1 2449 0
 2993 00b2 0025     		movs	r5, #0
 2994              	.LVL386:
 2995              	.L255:
2450:uCOS-III\Source/os_task.c ****              break;
2451:uCOS-III\Source/os_task.c ****     }
2452:uCOS-III\Source/os_task.c ****     return (ctr);
2453:uCOS-III\Source/os_task.c **** }
 2996              		.loc 1 2453 0
 2997 00b4 2846     		mov	r0, r5
 2998 00b6 02B0     		add	sp, sp, #8
 2999              		.cfi_def_cfa_offset 24
 3000              		@ sp needed
 3001 00b8 BDE8F081 		pop	{r4, r5, r6, r7, r8, pc}
 3002              	.LVL387:
 3003              	.L261:
 3004              		.align	2
 3005              	.L260:
 3006 00bc 00000000 		.word	OSTCBCurPtr
ARM GAS  C:\Users\jorti\AppData\Local\Temp\ccDtGf1z.s 			page 99


 3007              		.cfi_endproc
 3008              	.LFE26:
 3009              		.size	OS_TaskSemPost, .-OS_TaskSemPost
 3010              		.section	.text.OSTaskSemPost,"ax",%progbits
 3011              		.align	2
 3012              		.global	OSTaskSemPost
 3013              		.thumb
 3014              		.thumb_func
 3015              		.type	OSTaskSemPost, %function
 3016              	OSTaskSemPost:
 3017              	.LFB14:
1500:uCOS-III\Source/os_task.c ****     OS_SEM_CTR  ctr;
 3018              		.loc 1 1500 0
 3019              		.cfi_startproc
 3020              		@ args = 0, pretend = 0, frame = 0
 3021              		@ frame_needed = 0, uses_anonymous_args = 0
 3022              	.LVL388:
 3023 0000 70B5     		push	{r4, r5, r6, lr}
 3024              		.cfi_def_cfa_offset 16
 3025              		.cfi_offset 4, -16
 3026              		.cfi_offset 5, -12
 3027              		.cfi_offset 6, -8
 3028              		.cfi_offset 14, -4
1514:uCOS-III\Source/os_task.c ****         case OS_OPT_POST_NONE:
 3029              		.loc 1 1514 0
 3030 0002 0C46     		mov	r4, r1
 3031 0004 39B1     		cbz	r1, .L264
 3032 0006 B1F5004F 		cmp	r1, #32768
 3033 000a 04D0     		beq	.L264
1520:uCOS-III\Source/os_task.c ****              return ((OS_SEM_CTR)0u);
 3034              		.loc 1 1520 0
 3035 000c 45F62563 		movw	r3, #24101
 3036 0010 1380     		strh	r3, [r2]	@ movhi
1521:uCOS-III\Source/os_task.c ****     }
 3037              		.loc 1 1521 0
 3038 0012 0020     		movs	r0, #0
 3039              	.LVL389:
 3040 0014 70BD     		pop	{r4, r5, r6, pc}
 3041              	.LVL390:
 3042              	.L264:
 3043 0016 1546     		mov	r5, r2
 3044 0018 0646     		mov	r6, r0
1525:uCOS-III\Source/os_task.c **** 
 3045              		.loc 1 1525 0
 3046 001a FFF7FEFF 		bl	CPU_TS_TmrRd
 3047              	.LVL391:
1541:uCOS-III\Source/os_task.c ****                          opt,
 3048              		.loc 1 1541 0
 3049 001e 2B46     		mov	r3, r5
 3050 0020 0246     		mov	r2, r0
 3051 0022 2146     		mov	r1, r4
 3052 0024 3046     		mov	r0, r6
 3053              	.LVL392:
 3054 0026 FFF7FEFF 		bl	OS_TaskSemPost
 3055              	.LVL393:
1547:uCOS-III\Source/os_task.c **** 
 3056              		.loc 1 1547 0
ARM GAS  C:\Users\jorti\AppData\Local\Temp\ccDtGf1z.s 			page 100


 3057 002a 70BD     		pop	{r4, r5, r6, pc}
 3058              		.cfi_endproc
 3059              	.LFE14:
 3060              		.size	OSTaskSemPost, .-OSTaskSemPost
 3061              		.section	.text.OS_TaskSuspend,"ax",%progbits
 3062              		.align	2
 3063              		.global	OS_TaskSuspend
 3064              		.thumb
 3065              		.thumb_func
 3066              		.type	OS_TaskSuspend, %function
 3067              	OS_TaskSuspend:
 3068              	.LFB27:
2454:uCOS-III\Source/os_task.c **** 
2455:uCOS-III\Source/os_task.c **** /*$PAGE*/
2456:uCOS-III\Source/os_task.c **** /*
2457:uCOS-III\Source/os_task.c **** ***************************************************************************************************
2458:uCOS-III\Source/os_task.c **** *                                                   SUSPEND A TASK
2459:uCOS-III\Source/os_task.c **** *
2460:uCOS-III\Source/os_task.c **** * Description: This function is called to suspend a task.  The task can be the calling task if 'p_t
2461:uCOS-III\Source/os_task.c **** *              or the pointer to the TCB of the calling task.
2462:uCOS-III\Source/os_task.c **** *
2463:uCOS-III\Source/os_task.c **** * Arguments  : p_tcb    is a pointer to the TCB to suspend.
2464:uCOS-III\Source/os_task.c **** *                       If p_tcb is a NULL pointer then, suspend the current task.
2465:uCOS-III\Source/os_task.c **** *
2466:uCOS-III\Source/os_task.c **** *              p_err    is a pointer to a variable that will receive an error code from this functi
2467:uCOS-III\Source/os_task.c **** *
2468:uCOS-III\Source/os_task.c **** *                           OS_ERR_NONE                      if the requested task is suspended
2469:uCOS-III\Source/os_task.c **** *                           OS_ERR_SCHED_LOCKED              you can't suspend the current task is 
2470:uCOS-III\Source/os_task.c **** *                                                            locked
2471:uCOS-III\Source/os_task.c **** *                           OS_ERR_TASK_SUSPEND_ISR          if you called this function from an IS
2472:uCOS-III\Source/os_task.c **** *                           OS_ERR_TASK_SUSPEND_IDLE         if you attempted to suspend the idle t
2473:uCOS-III\Source/os_task.c **** *                                                            allowed.
2474:uCOS-III\Source/os_task.c **** *                           OS_ERR_TASK_SUSPEND_INT_HANDLER  if you attempted to suspend the idle t
2475:uCOS-III\Source/os_task.c **** *                                                            allowed.
2476:uCOS-III\Source/os_task.c **** *
2477:uCOS-III\Source/os_task.c **** * Note(s)    : 1) This function is INTERNAL to uC/OS-III and your application should not call it.
2478:uCOS-III\Source/os_task.c **** *
2479:uCOS-III\Source/os_task.c **** *              2) You should use this function with great care.  If you suspend a task that is wait
2480:uCOS-III\Source/os_task.c **** *                 (i.e. a message, a semaphore, a queue ...) you will prevent this task from runnin
2481:uCOS-III\Source/os_task.c **** *                 arrives.
2482:uCOS-III\Source/os_task.c **** ***************************************************************************************************
2483:uCOS-III\Source/os_task.c **** */
2484:uCOS-III\Source/os_task.c **** 
2485:uCOS-III\Source/os_task.c **** #if OS_CFG_TASK_SUSPEND_EN > 0u
2486:uCOS-III\Source/os_task.c **** void   OS_TaskSuspend (OS_TCB  *p_tcb,
2487:uCOS-III\Source/os_task.c ****                        OS_ERR  *p_err)
2488:uCOS-III\Source/os_task.c **** {
 3069              		.loc 1 2488 0
 3070              		.cfi_startproc
 3071              		@ args = 0, pretend = 0, frame = 0
 3072              		@ frame_needed = 0, uses_anonymous_args = 0
 3073              	.LVL394:
 3074 0000 70B5     		push	{r4, r5, r6, lr}
 3075              		.cfi_def_cfa_offset 16
 3076              		.cfi_offset 4, -16
 3077              		.cfi_offset 5, -12
 3078              		.cfi_offset 6, -8
ARM GAS  C:\Users\jorti\AppData\Local\Temp\ccDtGf1z.s 			page 101


 3079              		.cfi_offset 14, -4
 3080 0002 0446     		mov	r4, r0
 3081 0004 0D46     		mov	r5, r1
 3082              	.LVL395:
2489:uCOS-III\Source/os_task.c ****     CPU_SR_ALLOC();
2490:uCOS-III\Source/os_task.c **** 
2491:uCOS-III\Source/os_task.c **** 
2492:uCOS-III\Source/os_task.c **** 
2493:uCOS-III\Source/os_task.c ****     CPU_CRITICAL_ENTER();
 3083              		.loc 1 2493 0
 3084 0006 FFF7FEFF 		bl	CPU_SR_Save
 3085              	.LVL396:
 3086 000a 0646     		mov	r6, r0
 3087              	.LVL397:
2494:uCOS-III\Source/os_task.c ****     if (p_tcb == (OS_TCB *)0) {                             /* See if specified to suspend self    
 3088              		.loc 1 2494 0
 3089 000c 0CB9     		cbnz	r4, .L268
2495:uCOS-III\Source/os_task.c ****         p_tcb = OSTCBCurPtr;
 3090              		.loc 1 2495 0
 3091 000e 2D4B     		ldr	r3, .L280
 3092 0010 1C68     		ldr	r4, [r3]
 3093              	.LVL398:
 3094              	.L268:
2496:uCOS-III\Source/os_task.c ****     }
2497:uCOS-III\Source/os_task.c **** 
2498:uCOS-III\Source/os_task.c ****     if (p_tcb == OSTCBCurPtr) {
 3095              		.loc 1 2498 0
 3096 0012 2C4B     		ldr	r3, .L280
 3097 0014 1B68     		ldr	r3, [r3]
 3098 0016 9C42     		cmp	r4, r3
 3099 0018 09D1     		bne	.L269
2499:uCOS-III\Source/os_task.c ****         if (OSSchedLockNestingCtr > (OS_NESTING_CTR)0) {    /* Can't suspend when the scheduler is 
 3100              		.loc 1 2499 0
 3101 001a 2B4B     		ldr	r3, .L280+4
 3102 001c 1B78     		ldrb	r3, [r3]	@ zero_extendqisi2
 3103 001e 33B1     		cbz	r3, .L269
2500:uCOS-III\Source/os_task.c ****             CPU_CRITICAL_EXIT();
 3104              		.loc 1 2500 0
 3105 0020 3046     		mov	r0, r6
 3106              	.LVL399:
 3107 0022 FFF7FEFF 		bl	CPU_SR_Restore
 3108              	.LVL400:
2501:uCOS-III\Source/os_task.c ****            *p_err = OS_ERR_SCHED_LOCKED;
 3109              		.loc 1 2501 0
 3110 0026 46F66353 		movw	r3, #28003
 3111 002a 2B80     		strh	r3, [r5]	@ movhi
2502:uCOS-III\Source/os_task.c ****             return;
 3112              		.loc 1 2502 0
 3113 002c 70BD     		pop	{r4, r5, r6, pc}
 3114              	.LVL401:
 3115              	.L269:
2503:uCOS-III\Source/os_task.c ****         }
2504:uCOS-III\Source/os_task.c ****     }
2505:uCOS-III\Source/os_task.c **** 
2506:uCOS-III\Source/os_task.c ****    *p_err = OS_ERR_NONE;
 3116              		.loc 1 2506 0
 3117 002e 0023     		movs	r3, #0
ARM GAS  C:\Users\jorti\AppData\Local\Temp\ccDtGf1z.s 			page 102


 3118 0030 2B80     		strh	r3, [r5]	@ movhi
2507:uCOS-III\Source/os_task.c ****     switch (p_tcb->TaskState) {
 3119              		.loc 1 2507 0
 3120 0032 94F83630 		ldrb	r3, [r4, #54]	@ zero_extendqisi2
 3121 0036 072B     		cmp	r3, #7
 3122 0038 39D8     		bhi	.L271
 3123 003a DFE803F0 		tbb	[pc, r3]
 3124              	.L273:
 3125 003e 04       		.byte	(.L272-.L273)/2
 3126 003f 11       		.byte	(.L274-.L273)/2
 3127 0040 1B       		.byte	(.L275-.L273)/2
 3128 0041 25       		.byte	(.L276-.L273)/2
 3129 0042 2F       		.byte	(.L277-.L273)/2
 3130 0043 2F       		.byte	(.L277-.L273)/2
 3131 0044 2F       		.byte	(.L277-.L273)/2
 3132 0045 2F       		.byte	(.L277-.L273)/2
 3133              		.p2align 1
 3134              	.L272:
2508:uCOS-III\Source/os_task.c ****         case OS_TASK_STATE_RDY:
2509:uCOS-III\Source/os_task.c ****              OS_CRITICAL_ENTER_CPU_EXIT();
2510:uCOS-III\Source/os_task.c ****              p_tcb->TaskState  =  OS_TASK_STATE_SUSPENDED;
 3135              		.loc 1 2510 0
 3136 0046 0423     		movs	r3, #4
 3137 0048 84F83630 		strb	r3, [r4, #54]
2511:uCOS-III\Source/os_task.c ****              p_tcb->SuspendCtr = (OS_NESTING_CTR)1;
 3138              		.loc 1 2511 0
 3139 004c 0123     		movs	r3, #1
 3140 004e 84F88A30 		strb	r3, [r4, #138]
2512:uCOS-III\Source/os_task.c ****              OS_RdyListRemove(p_tcb);
 3141              		.loc 1 2512 0
 3142 0052 2046     		mov	r0, r4
 3143              	.LVL402:
 3144 0054 FFF7FEFF 		bl	OS_RdyListRemove
 3145              	.LVL403:
2513:uCOS-III\Source/os_task.c ****              OS_CRITICAL_EXIT_NO_SCHED();
 3146              		.loc 1 2513 0
 3147 0058 3046     		mov	r0, r6
 3148 005a FFF7FEFF 		bl	CPU_SR_Restore
 3149              	.LVL404:
2514:uCOS-III\Source/os_task.c ****              break;
 3150              		.loc 1 2514 0
 3151 005e 2DE0     		b	.L278
 3152              	.LVL405:
 3153              	.L274:
2515:uCOS-III\Source/os_task.c **** 
2516:uCOS-III\Source/os_task.c ****         case OS_TASK_STATE_DLY:
2517:uCOS-III\Source/os_task.c ****              p_tcb->TaskState  = OS_TASK_STATE_DLY_SUSPENDED;
 3154              		.loc 1 2517 0
 3155 0060 0523     		movs	r3, #5
 3156 0062 84F83630 		strb	r3, [r4, #54]
2518:uCOS-III\Source/os_task.c ****              p_tcb->SuspendCtr = (OS_NESTING_CTR)1;
 3157              		.loc 1 2518 0
 3158 0066 0123     		movs	r3, #1
 3159 0068 84F88A30 		strb	r3, [r4, #138]
2519:uCOS-III\Source/os_task.c ****              CPU_CRITICAL_EXIT();
 3160              		.loc 1 2519 0
 3161 006c 3046     		mov	r0, r6
ARM GAS  C:\Users\jorti\AppData\Local\Temp\ccDtGf1z.s 			page 103


 3162              	.LVL406:
 3163 006e FFF7FEFF 		bl	CPU_SR_Restore
 3164              	.LVL407:
2520:uCOS-III\Source/os_task.c ****              break;
 3165              		.loc 1 2520 0
 3166 0072 23E0     		b	.L278
 3167              	.LVL408:
 3168              	.L275:
2521:uCOS-III\Source/os_task.c **** 
2522:uCOS-III\Source/os_task.c ****         case OS_TASK_STATE_PEND:
2523:uCOS-III\Source/os_task.c ****              p_tcb->TaskState  = OS_TASK_STATE_PEND_SUSPENDED;
 3169              		.loc 1 2523 0
 3170 0074 0623     		movs	r3, #6
 3171 0076 84F83630 		strb	r3, [r4, #54]
2524:uCOS-III\Source/os_task.c ****              p_tcb->SuspendCtr = (OS_NESTING_CTR)1;
 3172              		.loc 1 2524 0
 3173 007a 0123     		movs	r3, #1
 3174 007c 84F88A30 		strb	r3, [r4, #138]
2525:uCOS-III\Source/os_task.c ****              CPU_CRITICAL_EXIT();
 3175              		.loc 1 2525 0
 3176 0080 3046     		mov	r0, r6
 3177              	.LVL409:
 3178 0082 FFF7FEFF 		bl	CPU_SR_Restore
 3179              	.LVL410:
2526:uCOS-III\Source/os_task.c ****              break;
 3180              		.loc 1 2526 0
 3181 0086 19E0     		b	.L278
 3182              	.LVL411:
 3183              	.L276:
2527:uCOS-III\Source/os_task.c **** 
2528:uCOS-III\Source/os_task.c ****         case OS_TASK_STATE_PEND_TIMEOUT:
2529:uCOS-III\Source/os_task.c ****              p_tcb->TaskState  = OS_TASK_STATE_PEND_TIMEOUT_SUSPENDED;
 3184              		.loc 1 2529 0
 3185 0088 0723     		movs	r3, #7
 3186 008a 84F83630 		strb	r3, [r4, #54]
2530:uCOS-III\Source/os_task.c ****              p_tcb->SuspendCtr = (OS_NESTING_CTR)1;
 3187              		.loc 1 2530 0
 3188 008e 0123     		movs	r3, #1
 3189 0090 84F88A30 		strb	r3, [r4, #138]
2531:uCOS-III\Source/os_task.c ****              CPU_CRITICAL_EXIT();
 3190              		.loc 1 2531 0
 3191 0094 3046     		mov	r0, r6
 3192              	.LVL412:
 3193 0096 FFF7FEFF 		bl	CPU_SR_Restore
 3194              	.LVL413:
2532:uCOS-III\Source/os_task.c ****              break;
 3195              		.loc 1 2532 0
 3196 009a 0FE0     		b	.L278
 3197              	.LVL414:
 3198              	.L277:
2533:uCOS-III\Source/os_task.c **** 
2534:uCOS-III\Source/os_task.c ****         case OS_TASK_STATE_SUSPENDED:
2535:uCOS-III\Source/os_task.c ****         case OS_TASK_STATE_DLY_SUSPENDED:
2536:uCOS-III\Source/os_task.c ****         case OS_TASK_STATE_PEND_SUSPENDED:
2537:uCOS-III\Source/os_task.c ****         case OS_TASK_STATE_PEND_TIMEOUT_SUSPENDED:
2538:uCOS-III\Source/os_task.c ****              p_tcb->SuspendCtr++;
 3199              		.loc 1 2538 0
ARM GAS  C:\Users\jorti\AppData\Local\Temp\ccDtGf1z.s 			page 104


 3200 009c 94F88A30 		ldrb	r3, [r4, #138]	@ zero_extendqisi2
 3201 00a0 0133     		adds	r3, r3, #1
 3202 00a2 84F88A30 		strb	r3, [r4, #138]
2539:uCOS-III\Source/os_task.c ****              CPU_CRITICAL_EXIT();
 3203              		.loc 1 2539 0
 3204 00a6 3046     		mov	r0, r6
 3205              	.LVL415:
 3206 00a8 FFF7FEFF 		bl	CPU_SR_Restore
 3207              	.LVL416:
2540:uCOS-III\Source/os_task.c ****              break;
 3208              		.loc 1 2540 0
 3209 00ac 06E0     		b	.L278
 3210              	.LVL417:
 3211              	.L271:
2541:uCOS-III\Source/os_task.c **** 
2542:uCOS-III\Source/os_task.c ****         default:
2543:uCOS-III\Source/os_task.c ****              CPU_CRITICAL_EXIT();
 3212              		.loc 1 2543 0
 3213 00ae 3046     		mov	r0, r6
 3214              	.LVL418:
 3215 00b0 FFF7FEFF 		bl	CPU_SR_Restore
 3216              	.LVL419:
2544:uCOS-III\Source/os_task.c ****             *p_err = OS_ERR_STATE_INVALID;
 3217              		.loc 1 2544 0
 3218 00b4 46F62D63 		movw	r3, #28205
 3219 00b8 2B80     		strh	r3, [r5]	@ movhi
2545:uCOS-III\Source/os_task.c ****              return;
 3220              		.loc 1 2545 0
 3221 00ba 70BD     		pop	{r4, r5, r6, pc}
 3222              	.LVL420:
 3223              	.L278:
2546:uCOS-III\Source/os_task.c ****     }
2547:uCOS-III\Source/os_task.c **** 
2548:uCOS-III\Source/os_task.c ****     OSSched();
 3224              		.loc 1 2548 0
 3225 00bc FFF7FEFF 		bl	OSSched
 3226              	.LVL421:
 3227 00c0 70BD     		pop	{r4, r5, r6, pc}
 3228              	.LVL422:
 3229              	.L281:
 3230 00c2 00BF     		.align	2
 3231              	.L280:
 3232 00c4 00000000 		.word	OSTCBCurPtr
 3233 00c8 00000000 		.word	OSSchedLockNestingCtr
 3234              		.cfi_endproc
 3235              	.LFE27:
 3236              		.size	OS_TaskSuspend, .-OS_TaskSuspend
 3237              		.section	.text.OSTaskSuspend,"ax",%progbits
 3238              		.align	2
 3239              		.global	OSTaskSuspend
 3240              		.thumb
 3241              		.thumb_func
 3242              		.type	OSTaskSuspend, %function
 3243              	OSTaskSuspend:
 3244              	.LFB17:
1740:uCOS-III\Source/os_task.c **** #ifdef OS_SAFETY_CRITICAL
 3245              		.loc 1 1740 0
ARM GAS  C:\Users\jorti\AppData\Local\Temp\ccDtGf1z.s 			page 105


 3246              		.cfi_startproc
 3247              		@ args = 0, pretend = 0, frame = 0
 3248              		@ frame_needed = 0, uses_anonymous_args = 0
 3249              	.LVL423:
 3250 0000 08B5     		push	{r3, lr}
 3251              		.cfi_def_cfa_offset 8
 3252              		.cfi_offset 3, -8
 3253              		.cfi_offset 14, -4
1750:uCOS-III\Source/os_task.c ****        *p_err = OS_ERR_TASK_SUSPEND_ISR;
 3254              		.loc 1 1750 0
 3255 0002 084B     		ldr	r3, .L287
 3256 0004 1B78     		ldrb	r3, [r3]	@ zero_extendqisi2
 3257 0006 1BB1     		cbz	r3, .L283
1751:uCOS-III\Source/os_task.c ****         return;
 3258              		.loc 1 1751 0
 3259 0008 47F25D13 		movw	r3, #29021
 3260 000c 0B80     		strh	r3, [r1]	@ movhi
1752:uCOS-III\Source/os_task.c ****     }
 3261              		.loc 1 1752 0
 3262 000e 08BD     		pop	{r3, pc}
 3263              	.L283:
1756:uCOS-III\Source/os_task.c ****        *p_err = OS_ERR_TASK_SUSPEND_IDLE;
 3264              		.loc 1 1756 0
 3265 0010 054B     		ldr	r3, .L287+4
 3266 0012 9842     		cmp	r0, r3
 3267 0014 03D1     		bne	.L285
1757:uCOS-III\Source/os_task.c ****         return;
 3268              		.loc 1 1757 0
 3269 0016 47F25B13 		movw	r3, #29019
 3270 001a 0B80     		strh	r3, [r1]	@ movhi
1758:uCOS-III\Source/os_task.c ****     }
 3271              		.loc 1 1758 0
 3272 001c 08BD     		pop	{r3, pc}
 3273              	.L285:
1780:uCOS-III\Source/os_task.c **** }
 3274              		.loc 1 1780 0
 3275 001e FFF7FEFF 		bl	OS_TaskSuspend
 3276              	.LVL424:
 3277 0022 08BD     		pop	{r3, pc}
 3278              	.L288:
 3279              		.align	2
 3280              	.L287:
 3281 0024 00000000 		.word	OSIntNestingCtr
 3282 0028 00000000 		.word	OSIdleTaskTCB
 3283              		.cfi_endproc
 3284              	.LFE17:
 3285              		.size	OSTaskSuspend, .-OSTaskSuspend
 3286              		.section	.rodata.str1.4,"aMS",%progbits,1
 3287              		.align	2
 3288              	.LC0:
 3289 0000 3F546173 		.ascii	"?Task\000"
 3289      6B00
 3290 0006 0000     		.space	2
 3291              	.LC1:
 3292 0008 2000     		.ascii	" \000"
 3293              		.text
 3294              	.Letext0:
ARM GAS  C:\Users\jorti\AppData\Local\Temp\ccDtGf1z.s 			page 106


 3295              		.file 2 ".\\uC-CPU\\ARM-Cortex-M3\\GNU/cpu.h"
 3296              		.file 3 ".\\uC-CPU/cpu_core.h"
 3297              		.file 4 ".\\uCOS-III\\Source/os_type.h"
 3298              		.file 5 ".\\uCOS-III\\Source/os.h"
 3299              		.section	.debug_info,"",%progbits
 3300              	.Ldebug_info0:
 3301 0000 A4200000 		.4byte	0x20a4
 3302 0004 0400     		.2byte	0x4
 3303 0006 00000000 		.4byte	.Ldebug_abbrev0
 3304 000a 04       		.byte	0x4
 3305 000b 01       		.uleb128 0x1
 3306 000c DE060000 		.4byte	.LASF379
 3307 0010 0C       		.byte	0xc
 3308 0011 79020000 		.4byte	.LASF380
 3309 0015 62130000 		.4byte	.LASF381
 3310 0019 00000000 		.4byte	.Ldebug_ranges0+0
 3311 001d 00000000 		.4byte	0
 3312 0021 00000000 		.4byte	.Ldebug_line0
 3313 0025 02       		.uleb128 0x2
 3314 0026 16080000 		.4byte	.LASF0
 3315 002a 02       		.byte	0x2
 3316 002b 76       		.byte	0x76
 3317 002c 30000000 		.4byte	0x30
 3318 0030 03       		.uleb128 0x3
 3319 0031 01       		.byte	0x1
 3320 0032 08       		.byte	0x8
 3321 0033 D0090000 		.4byte	.LASF2
 3322 0037 02       		.uleb128 0x2
 3323 0038 F0110000 		.4byte	.LASF1
 3324 003c 02       		.byte	0x2
 3325 003d 77       		.byte	0x77
 3326 003e 42000000 		.4byte	0x42
 3327 0042 03       		.uleb128 0x3
 3328 0043 01       		.byte	0x1
 3329 0044 08       		.byte	0x8
 3330 0045 8F120000 		.4byte	.LASF3
 3331 0049 02       		.uleb128 0x2
 3332 004a 53060000 		.4byte	.LASF4
 3333 004e 02       		.byte	0x2
 3334 004f 78       		.byte	0x78
 3335 0050 42000000 		.4byte	0x42
 3336 0054 03       		.uleb128 0x3
 3337 0055 01       		.byte	0x1
 3338 0056 06       		.byte	0x6
 3339 0057 88140000 		.4byte	.LASF5
 3340 005b 02       		.uleb128 0x2
 3341 005c BE0B0000 		.4byte	.LASF6
 3342 0060 02       		.byte	0x2
 3343 0061 7A       		.byte	0x7a
 3344 0062 66000000 		.4byte	0x66
 3345 0066 03       		.uleb128 0x3
 3346 0067 02       		.byte	0x2
 3347 0068 07       		.byte	0x7
 3348 0069 BB140000 		.4byte	.LASF7
 3349 006d 03       		.uleb128 0x3
 3350 006e 02       		.byte	0x2
 3351 006f 05       		.byte	0x5
ARM GAS  C:\Users\jorti\AppData\Local\Temp\ccDtGf1z.s 			page 107


 3352 0070 1A0F0000 		.4byte	.LASF8
 3353 0074 02       		.uleb128 0x2
 3354 0075 D4010000 		.4byte	.LASF9
 3355 0079 02       		.byte	0x2
 3356 007a 7C       		.byte	0x7c
 3357 007b 7F000000 		.4byte	0x7f
 3358 007f 03       		.uleb128 0x3
 3359 0080 04       		.byte	0x4
 3360 0081 07       		.byte	0x7
 3361 0082 DA100000 		.4byte	.LASF10
 3362 0086 04       		.uleb128 0x4
 3363 0087 04       		.byte	0x4
 3364 0088 05       		.byte	0x5
 3365 0089 696E7400 		.ascii	"int\000"
 3366 008d 03       		.uleb128 0x3
 3367 008e 08       		.byte	0x8
 3368 008f 07       		.byte	0x7
 3369 0090 A2050000 		.4byte	.LASF11
 3370 0094 03       		.uleb128 0x3
 3371 0095 08       		.byte	0x8
 3372 0096 05       		.byte	0x5
 3373 0097 240B0000 		.4byte	.LASF12
 3374 009b 03       		.uleb128 0x3
 3375 009c 04       		.byte	0x4
 3376 009d 04       		.byte	0x4
 3377 009e E5040000 		.4byte	.LASF13
 3378 00a2 03       		.uleb128 0x3
 3379 00a3 08       		.byte	0x8
 3380 00a4 04       		.byte	0x4
 3381 00a5 62150000 		.4byte	.LASF14
 3382 00a9 05       		.uleb128 0x5
 3383 00aa 04       		.byte	0x4
 3384 00ab AF000000 		.4byte	0xaf
 3385 00af 06       		.uleb128 0x6
 3386 00b0 BA000000 		.4byte	0xba
 3387 00b4 07       		.uleb128 0x7
 3388 00b5 BA000000 		.4byte	0xba
 3389 00b9 00       		.byte	0
 3390 00ba 08       		.uleb128 0x8
 3391 00bb 04       		.byte	0x4
 3392 00bc 02       		.uleb128 0x2
 3393 00bd 9C110000 		.4byte	.LASF15
 3394 00c1 02       		.byte	0x2
 3395 00c2 B5       		.byte	0xb5
 3396 00c3 74000000 		.4byte	0x74
 3397 00c7 02       		.uleb128 0x2
 3398 00c8 04170000 		.4byte	.LASF16
 3399 00cc 02       		.byte	0x2
 3400 00cd D9       		.byte	0xd9
 3401 00ce 74000000 		.4byte	0x74
 3402 00d2 02       		.uleb128 0x2
 3403 00d3 36080000 		.4byte	.LASF17
 3404 00d7 02       		.byte	0x2
 3405 00d8 DA       		.byte	0xda
 3406 00d9 BC000000 		.4byte	0xbc
 3407 00dd 09       		.uleb128 0x9
 3408 00de 1E0A0000 		.4byte	.LASF18
ARM GAS  C:\Users\jorti\AppData\Local\Temp\ccDtGf1z.s 			page 108


 3409 00e2 02       		.byte	0x2
 3410 00e3 2901     		.2byte	0x129
 3411 00e5 74000000 		.4byte	0x74
 3412 00e9 03       		.uleb128 0x3
 3413 00ea 04       		.byte	0x4
 3414 00eb 05       		.byte	0x5
 3415 00ec 6A0F0000 		.4byte	.LASF19
 3416 00f0 03       		.uleb128 0x3
 3417 00f1 04       		.byte	0x4
 3418 00f2 07       		.byte	0x7
 3419 00f3 74110000 		.4byte	.LASF20
 3420 00f7 03       		.uleb128 0x3
 3421 00f8 08       		.byte	0x8
 3422 00f9 04       		.byte	0x4
 3423 00fa 180E0000 		.4byte	.LASF21
 3424 00fe 03       		.uleb128 0x3
 3425 00ff 04       		.byte	0x4
 3426 0100 07       		.byte	0x7
 3427 0101 6B110000 		.4byte	.LASF22
 3428 0105 02       		.uleb128 0x2
 3429 0106 700C0000 		.4byte	.LASF23
 3430 010a 03       		.byte	0x3
 3431 010b C4       		.byte	0xc4
 3432 010c 74000000 		.4byte	0x74
 3433 0110 02       		.uleb128 0x2
 3434 0111 1D0B0000 		.4byte	.LASF24
 3435 0115 03       		.byte	0x3
 3436 0116 C7       		.byte	0xc7
 3437 0117 05010000 		.4byte	0x105
 3438 011b 02       		.uleb128 0x2
 3439 011c AA010000 		.4byte	.LASF25
 3440 0120 04       		.byte	0x4
 3441 0121 30       		.byte	0x30
 3442 0122 5B000000 		.4byte	0x5b
 3443 0126 02       		.uleb128 0x2
 3444 0127 2F000000 		.4byte	.LASF26
 3445 012b 04       		.byte	0x4
 3446 012c 34       		.byte	0x34
 3447 012d 74000000 		.4byte	0x74
 3448 0131 02       		.uleb128 0x2
 3449 0132 1B120000 		.4byte	.LASF27
 3450 0136 04       		.byte	0x4
 3451 0137 36       		.byte	0x36
 3452 0138 74000000 		.4byte	0x74
 3453 013c 02       		.uleb128 0x2
 3454 013d CE140000 		.4byte	.LASF28
 3455 0141 04       		.byte	0x4
 3456 0142 38       		.byte	0x38
 3457 0143 74000000 		.4byte	0x74
 3458 0147 02       		.uleb128 0x2
 3459 0148 4A080000 		.4byte	.LASF29
 3460 014c 04       		.byte	0x4
 3461 014d 3F       		.byte	0x3f
 3462 014e 5B000000 		.4byte	0x5b
 3463 0152 02       		.uleb128 0x2
 3464 0153 DB070000 		.4byte	.LASF30
 3465 0157 04       		.byte	0x4
ARM GAS  C:\Users\jorti\AppData\Local\Temp\ccDtGf1z.s 			page 109


 3466 0158 40       		.byte	0x40
 3467 0159 5B000000 		.4byte	0x5b
 3468 015d 02       		.uleb128 0x2
 3469 015e ED0F0000 		.4byte	.LASF31
 3470 0162 04       		.byte	0x4
 3471 0163 42       		.byte	0x42
 3472 0164 49000000 		.4byte	0x49
 3473 0168 02       		.uleb128 0x2
 3474 0169 C7020000 		.4byte	.LASF32
 3475 016d 04       		.byte	0x4
 3476 016e 44       		.byte	0x44
 3477 016f 5B000000 		.4byte	0x5b
 3478 0173 02       		.uleb128 0x2
 3479 0174 E1090000 		.4byte	.LASF33
 3480 0178 04       		.byte	0x4
 3481 0179 45       		.byte	0x45
 3482 017a 74000000 		.4byte	0x74
 3483 017e 02       		.uleb128 0x2
 3484 017f F4120000 		.4byte	.LASF34
 3485 0183 04       		.byte	0x4
 3486 0184 47       		.byte	0x47
 3487 0185 5B000000 		.4byte	0x5b
 3488 0189 02       		.uleb128 0x2
 3489 018a CF040000 		.4byte	.LASF35
 3490 018e 04       		.byte	0x4
 3491 018f 49       		.byte	0x49
 3492 0190 49000000 		.4byte	0x49
 3493 0194 02       		.uleb128 0x2
 3494 0195 D7060000 		.4byte	.LASF36
 3495 0199 04       		.byte	0x4
 3496 019a 4F       		.byte	0x4f
 3497 019b 74000000 		.4byte	0x74
 3498 019f 02       		.uleb128 0x2
 3499 01a0 27150000 		.4byte	.LASF37
 3500 01a4 04       		.byte	0x4
 3501 01a5 50       		.byte	0x50
 3502 01a6 49000000 		.4byte	0x49
 3503 01aa 02       		.uleb128 0x2
 3504 01ab AB0C0000 		.4byte	.LASF38
 3505 01af 04       		.byte	0x4
 3506 01b0 52       		.byte	0x52
 3507 01b1 74000000 		.4byte	0x74
 3508 01b5 02       		.uleb128 0x2
 3509 01b6 E3120000 		.4byte	.LASF39
 3510 01ba 04       		.byte	0x4
 3511 01bb 54       		.byte	0x54
 3512 01bc 49000000 		.4byte	0x49
 3513 01c0 02       		.uleb128 0x2
 3514 01c1 86070000 		.4byte	.LASF40
 3515 01c5 04       		.byte	0x4
 3516 01c6 56       		.byte	0x56
 3517 01c7 49000000 		.4byte	0x49
 3518 01cb 02       		.uleb128 0x2
 3519 01cc 270C0000 		.4byte	.LASF41
 3520 01d0 04       		.byte	0x4
 3521 01d1 58       		.byte	0x58
 3522 01d2 74000000 		.4byte	0x74
ARM GAS  C:\Users\jorti\AppData\Local\Temp\ccDtGf1z.s 			page 110


 3523 01d6 0A       		.uleb128 0xa
 3524 01d7 5A010000 		.4byte	.LASF382
 3525 01db 02       		.byte	0x2
 3526 01dc 66000000 		.4byte	0x66
 3527 01e0 05       		.byte	0x5
 3528 01e1 A501     		.2byte	0x1a5
 3529 01e3 4E060000 		.4byte	0x64e
 3530 01e7 0B       		.uleb128 0xb
 3531 01e8 06150000 		.4byte	.LASF42
 3532 01ec 00       		.byte	0
 3533 01ed 0C       		.uleb128 0xc
 3534 01ee 68000000 		.4byte	.LASF43
 3535 01f2 1027     		.2byte	0x2710
 3536 01f4 0C       		.uleb128 0xc
 3537 01f5 58030000 		.4byte	.LASF44
 3538 01f9 1127     		.2byte	0x2711
 3539 01fb 0C       		.uleb128 0xc
 3540 01fc 71000000 		.4byte	.LASF45
 3541 0200 F82A     		.2byte	0x2af8
 3542 0202 0C       		.uleb128 0xc
 3543 0203 7A000000 		.4byte	.LASF46
 3544 0207 E02E     		.2byte	0x2ee0
 3545 0209 0C       		.uleb128 0xc
 3546 020a 83010000 		.4byte	.LASF47
 3547 020e E12E     		.2byte	0x2ee1
 3548 0210 0C       		.uleb128 0xc
 3549 0211 83000000 		.4byte	.LASF48
 3550 0215 C832     		.2byte	0x32c8
 3551 0217 0C       		.uleb128 0xc
 3552 0218 AC090000 		.4byte	.LASF49
 3553 021c C932     		.2byte	0x32c9
 3554 021e 0C       		.uleb128 0xc
 3555 021f 8C000000 		.4byte	.LASF50
 3556 0223 B036     		.2byte	0x36b0
 3557 0225 0C       		.uleb128 0xc
 3558 0226 95000000 		.4byte	.LASF51
 3559 022a 983A     		.2byte	0x3a98
 3560 022c 0C       		.uleb128 0xc
 3561 022d A7140000 		.4byte	.LASF52
 3562 0231 993A     		.2byte	0x3a99
 3563 0233 0C       		.uleb128 0xc
 3564 0234 E6080000 		.4byte	.LASF53
 3565 0238 FD3A     		.2byte	0x3afd
 3566 023a 0C       		.uleb128 0xc
 3567 023b 28110000 		.4byte	.LASF54
 3568 023f FE3A     		.2byte	0x3afe
 3569 0241 0C       		.uleb128 0xc
 3570 0242 320B0000 		.4byte	.LASF55
 3571 0246 FF3A     		.2byte	0x3aff
 3572 0248 0C       		.uleb128 0xc
 3573 0249 45150000 		.4byte	.LASF56
 3574 024d 003B     		.2byte	0x3b00
 3575 024f 0C       		.uleb128 0xc
 3576 0250 9E000000 		.4byte	.LASF57
 3577 0254 803E     		.2byte	0x3e80
 3578 0256 0C       		.uleb128 0xc
 3579 0257 A7000000 		.4byte	.LASF58
ARM GAS  C:\Users\jorti\AppData\Local\Temp\ccDtGf1z.s 			page 111


 3580 025b 6842     		.2byte	0x4268
 3581 025d 0C       		.uleb128 0xc
 3582 025e B0000000 		.4byte	.LASF59
 3583 0262 5046     		.2byte	0x4650
 3584 0264 0C       		.uleb128 0xc
 3585 0265 46040000 		.4byte	.LASF60
 3586 0269 5146     		.2byte	0x4651
 3587 026b 0C       		.uleb128 0xc
 3588 026c 25030000 		.4byte	.LASF61
 3589 0270 5246     		.2byte	0x4652
 3590 0272 0C       		.uleb128 0xc
 3591 0273 05040000 		.4byte	.LASF62
 3592 0277 5346     		.2byte	0x4653
 3593 0279 0C       		.uleb128 0xc
 3594 027a 71010000 		.4byte	.LASF63
 3595 027e 5446     		.2byte	0x4654
 3596 0280 0C       		.uleb128 0xc
 3597 0281 20140000 		.4byte	.LASF64
 3598 0285 5546     		.2byte	0x4655
 3599 0287 0C       		.uleb128 0xc
 3600 0288 900D0000 		.4byte	.LASF65
 3601 028c 5646     		.2byte	0x4656
 3602 028e 0C       		.uleb128 0xc
 3603 028f B9000000 		.4byte	.LASF66
 3604 0293 384A     		.2byte	0x4a38
 3605 0295 0C       		.uleb128 0xc
 3606 0296 C2000000 		.4byte	.LASF67
 3607 029a 204E     		.2byte	0x4e20
 3608 029c 0C       		.uleb128 0xc
 3609 029d CB000000 		.4byte	.LASF68
 3610 02a1 0852     		.2byte	0x5208
 3611 02a3 0C       		.uleb128 0xc
 3612 02a4 CC0E0000 		.4byte	.LASF69
 3613 02a8 0952     		.2byte	0x5209
 3614 02aa 0C       		.uleb128 0xc
 3615 02ab D4000000 		.4byte	.LASF70
 3616 02af F055     		.2byte	0x55f0
 3617 02b1 0C       		.uleb128 0xc
 3618 02b2 07130000 		.4byte	.LASF71
 3619 02b6 B956     		.2byte	0x56b9
 3620 02b8 0C       		.uleb128 0xc
 3621 02b9 2F0C0000 		.4byte	.LASF72
 3622 02bd BA56     		.2byte	0x56ba
 3623 02bf 0C       		.uleb128 0xc
 3624 02c0 A30E0000 		.4byte	.LASF73
 3625 02c4 BB56     		.2byte	0x56bb
 3626 02c6 0C       		.uleb128 0xc
 3627 02c7 FF080000 		.4byte	.LASF74
 3628 02cb BC56     		.2byte	0x56bc
 3629 02cd 0C       		.uleb128 0xc
 3630 02ce E50B0000 		.4byte	.LASF75
 3631 02d2 BD56     		.2byte	0x56bd
 3632 02d4 0C       		.uleb128 0xc
 3633 02d5 8A0E0000 		.4byte	.LASF76
 3634 02d9 BE56     		.2byte	0x56be
 3635 02db 0C       		.uleb128 0xc
 3636 02dc 570C0000 		.4byte	.LASF77
ARM GAS  C:\Users\jorti\AppData\Local\Temp\ccDtGf1z.s 			page 112


 3637 02e0 BF56     		.2byte	0x56bf
 3638 02e2 0C       		.uleb128 0xc
 3639 02e3 40050000 		.4byte	.LASF78
 3640 02e7 C056     		.2byte	0x56c0
 3641 02e9 0C       		.uleb128 0xc
 3642 02ea EF150000 		.4byte	.LASF79
 3643 02ee C156     		.2byte	0x56c1
 3644 02f0 0C       		.uleb128 0xc
 3645 02f1 EC160000 		.4byte	.LASF80
 3646 02f5 C256     		.2byte	0x56c2
 3647 02f7 0C       		.uleb128 0xc
 3648 02f8 2F0F0000 		.4byte	.LASF81
 3649 02fc 1D57     		.2byte	0x571d
 3650 02fe 0C       		.uleb128 0xc
 3651 02ff D40F0000 		.4byte	.LASF82
 3652 0303 1E57     		.2byte	0x571e
 3653 0305 0C       		.uleb128 0xc
 3654 0306 C4070000 		.4byte	.LASF83
 3655 030a 8157     		.2byte	0x5781
 3656 030c 0C       		.uleb128 0xc
 3657 030d EF100000 		.4byte	.LASF84
 3658 0311 8257     		.2byte	0x5782
 3659 0313 0C       		.uleb128 0xc
 3660 0314 82030000 		.4byte	.LASF85
 3661 0318 8357     		.2byte	0x5783
 3662 031a 0C       		.uleb128 0xc
 3663 031b DD000000 		.4byte	.LASF86
 3664 031f D859     		.2byte	0x59d8
 3665 0321 0C       		.uleb128 0xc
 3666 0322 6C070000 		.4byte	.LASF87
 3667 0326 D959     		.2byte	0x59d9
 3668 0328 0C       		.uleb128 0xc
 3669 0329 1A050000 		.4byte	.LASF88
 3670 032d DA59     		.2byte	0x59da
 3671 032f 0C       		.uleb128 0xc
 3672 0330 E6000000 		.4byte	.LASF89
 3673 0334 C05D     		.2byte	0x5dc0
 3674 0336 0C       		.uleb128 0xc
 3675 0337 CA030000 		.4byte	.LASF90
 3676 033b C15D     		.2byte	0x5dc1
 3677 033d 0C       		.uleb128 0xc
 3678 033e 0E0B0000 		.4byte	.LASF91
 3679 0342 C25D     		.2byte	0x5dc2
 3680 0344 0C       		.uleb128 0xc
 3681 0345 FD0B0000 		.4byte	.LASF92
 3682 0349 C35D     		.2byte	0x5dc3
 3683 034b 0C       		.uleb128 0xc
 3684 034c 4F100000 		.4byte	.LASF93
 3685 0350 C45D     		.2byte	0x5dc4
 3686 0352 0C       		.uleb128 0xc
 3687 0353 0B0A0000 		.4byte	.LASF94
 3688 0357 255E     		.2byte	0x5e25
 3689 0359 0C       		.uleb128 0xc
 3690 035a 240E0000 		.4byte	.LASF95
 3691 035e 895E     		.2byte	0x5e89
 3692 0360 0C       		.uleb128 0xc
 3693 0361 55080000 		.4byte	.LASF96
ARM GAS  C:\Users\jorti\AppData\Local\Temp\ccDtGf1z.s 			page 113


 3694 0365 8A5E     		.2byte	0x5e8a
 3695 0367 0C       		.uleb128 0xc
 3696 0368 EF000000 		.4byte	.LASF97
 3697 036c A861     		.2byte	0x61a8
 3698 036e 0C       		.uleb128 0xc
 3699 036f 69150000 		.4byte	.LASF98
 3700 0373 A961     		.2byte	0x61a9
 3701 0375 0C       		.uleb128 0xc
 3702 0376 86110000 		.4byte	.LASF99
 3703 037a AA61     		.2byte	0x61aa
 3704 037c 0C       		.uleb128 0xc
 3705 037d B7100000 		.4byte	.LASF100
 3706 0381 AB61     		.2byte	0x61ab
 3707 0383 0C       		.uleb128 0xc
 3708 0384 A70B0000 		.4byte	.LASF101
 3709 0388 AC61     		.2byte	0x61ac
 3710 038a 0C       		.uleb128 0xc
 3711 038b A8150000 		.4byte	.LASF102
 3712 038f AD61     		.2byte	0x61ad
 3713 0391 0C       		.uleb128 0xc
 3714 0392 3C130000 		.4byte	.LASF103
 3715 0396 AE61     		.2byte	0x61ae
 3716 0398 0C       		.uleb128 0xc
 3717 0399 B4020000 		.4byte	.LASF104
 3718 039d AF61     		.2byte	0x61af
 3719 039f 0C       		.uleb128 0xc
 3720 03a0 33020000 		.4byte	.LASF105
 3721 03a4 B061     		.2byte	0x61b0
 3722 03a6 0C       		.uleb128 0xc
 3723 03a7 05050000 		.4byte	.LASF106
 3724 03ab 0D62     		.2byte	0x620d
 3725 03ad 0C       		.uleb128 0xc
 3726 03ae A5110000 		.4byte	.LASF107
 3727 03b2 0E62     		.2byte	0x620e
 3728 03b4 0C       		.uleb128 0xc
 3729 03b5 D1160000 		.4byte	.LASF108
 3730 03b9 7162     		.2byte	0x6271
 3731 03bb 0C       		.uleb128 0xc
 3732 03bc 9C150000 		.4byte	.LASF109
 3733 03c0 7262     		.2byte	0x6272
 3734 03c2 0C       		.uleb128 0xc
 3735 03c3 14000000 		.4byte	.LASF110
 3736 03c7 7362     		.2byte	0x6273
 3737 03c9 0C       		.uleb128 0xc
 3738 03ca E80D0000 		.4byte	.LASF111
 3739 03ce D562     		.2byte	0x62d5
 3740 03d0 0C       		.uleb128 0xc
 3741 03d1 F8000000 		.4byte	.LASF112
 3742 03d5 9065     		.2byte	0x6590
 3743 03d7 0C       		.uleb128 0xc
 3744 03d8 EB130000 		.4byte	.LASF113
 3745 03dc 9165     		.2byte	0x6591
 3746 03de 0C       		.uleb128 0xc
 3747 03df A7060000 		.4byte	.LASF114
 3748 03e3 9265     		.2byte	0x6592
 3749 03e5 0C       		.uleb128 0xc
 3750 03e6 BB090000 		.4byte	.LASF115
ARM GAS  C:\Users\jorti\AppData\Local\Temp\ccDtGf1z.s 			page 114


 3751 03ea 9365     		.2byte	0x6593
 3752 03ec 0C       		.uleb128 0xc
 3753 03ed 670B0000 		.4byte	.LASF116
 3754 03f1 9465     		.2byte	0x6594
 3755 03f3 0C       		.uleb128 0xc
 3756 03f4 01010000 		.4byte	.LASF117
 3757 03f8 7869     		.2byte	0x6978
 3758 03fa 0C       		.uleb128 0xc
 3759 03fb 110C0000 		.4byte	.LASF118
 3760 03ff 7969     		.2byte	0x6979
 3761 0401 0C       		.uleb128 0xc
 3762 0402 750E0000 		.4byte	.LASF119
 3763 0406 7A69     		.2byte	0x697a
 3764 0408 0C       		.uleb128 0xc
 3765 0409 C90B0000 		.4byte	.LASF120
 3766 040d 7B69     		.2byte	0x697b
 3767 040f 0C       		.uleb128 0xc
 3768 0410 0A010000 		.4byte	.LASF121
 3769 0414 606D     		.2byte	0x6d60
 3770 0416 0C       		.uleb128 0xc
 3771 0417 310A0000 		.4byte	.LASF122
 3772 041b 616D     		.2byte	0x6d61
 3773 041d 0C       		.uleb128 0xc
 3774 041e 96090000 		.4byte	.LASF123
 3775 0422 626D     		.2byte	0x6d62
 3776 0424 0C       		.uleb128 0xc
 3777 0425 31150000 		.4byte	.LASF124
 3778 0429 636D     		.2byte	0x6d63
 3779 042b 0C       		.uleb128 0xc
 3780 042c 84150000 		.4byte	.LASF125
 3781 0430 646D     		.2byte	0x6d64
 3782 0432 0C       		.uleb128 0xc
 3783 0433 730F0000 		.4byte	.LASF126
 3784 0437 656D     		.2byte	0x6d65
 3785 0439 0C       		.uleb128 0xc
 3786 043a 46160000 		.4byte	.LASF127
 3787 043e C56D     		.2byte	0x6dc5
 3788 0440 0C       		.uleb128 0xc
 3789 0441 1D160000 		.4byte	.LASF128
 3790 0445 C66D     		.2byte	0x6dc6
 3791 0447 0C       		.uleb128 0xc
 3792 0448 93020000 		.4byte	.LASF129
 3793 044c 296E     		.2byte	0x6e29
 3794 044e 0C       		.uleb128 0xc
 3795 044f 8F0A0000 		.4byte	.LASF130
 3796 0453 2A6E     		.2byte	0x6e2a
 3797 0455 0C       		.uleb128 0xc
 3798 0456 C1080000 		.4byte	.LASF131
 3799 045a 2B6E     		.2byte	0x6e2b
 3800 045c 0C       		.uleb128 0xc
 3801 045d 0B110000 		.4byte	.LASF132
 3802 0461 2C6E     		.2byte	0x6e2c
 3803 0463 0C       		.uleb128 0xc
 3804 0464 FB0D0000 		.4byte	.LASF133
 3805 0468 2D6E     		.2byte	0x6e2d
 3806 046a 0C       		.uleb128 0xc
 3807 046b 1D130000 		.4byte	.LASF134
ARM GAS  C:\Users\jorti\AppData\Local\Temp\ccDtGf1z.s 			page 115


 3808 046f 2E6E     		.2byte	0x6e2e
 3809 0471 0C       		.uleb128 0xc
 3810 0472 EB010000 		.4byte	.LASF135
 3811 0476 2F6E     		.2byte	0x6e2f
 3812 0478 0C       		.uleb128 0xc
 3813 0479 51120000 		.4byte	.LASF136
 3814 047d 306E     		.2byte	0x6e30
 3815 047f 0C       		.uleb128 0xc
 3816 0480 C9110000 		.4byte	.LASF137
 3817 0484 316E     		.2byte	0x6e31
 3818 0486 0C       		.uleb128 0xc
 3819 0487 13010000 		.4byte	.LASF138
 3820 048b 4871     		.2byte	0x7148
 3821 048d 0C       		.uleb128 0xc
 3822 048e 4B020000 		.4byte	.LASF139
 3823 0492 4971     		.2byte	0x7149
 3824 0494 0C       		.uleb128 0xc
 3825 0495 1F080000 		.4byte	.LASF140
 3826 0499 4A71     		.2byte	0x714a
 3827 049b 0C       		.uleb128 0xc
 3828 049c 55140000 		.4byte	.LASF141
 3829 04a0 4B71     		.2byte	0x714b
 3830 04a2 0C       		.uleb128 0xc
 3831 04a3 55160000 		.4byte	.LASF142
 3832 04a7 4C71     		.2byte	0x714c
 3833 04a9 0C       		.uleb128 0xc
 3834 04aa 15060000 		.4byte	.LASF143
 3835 04ae 4D71     		.2byte	0x714d
 3836 04b0 0C       		.uleb128 0xc
 3837 04b1 C80D0000 		.4byte	.LASF144
 3838 04b5 4E71     		.2byte	0x714e
 3839 04b7 0C       		.uleb128 0xc
 3840 04b8 3C0D0000 		.4byte	.LASF145
 3841 04bc 4F71     		.2byte	0x714f
 3842 04be 0C       		.uleb128 0xc
 3843 04bf 3F0C0000 		.4byte	.LASF146
 3844 04c3 5071     		.2byte	0x7150
 3845 04c5 0C       		.uleb128 0xc
 3846 04c6 06030000 		.4byte	.LASF147
 3847 04ca 5171     		.2byte	0x7151
 3848 04cc 0C       		.uleb128 0xc
 3849 04cd F50C0000 		.4byte	.LASF148
 3850 04d1 5271     		.2byte	0x7152
 3851 04d3 0C       		.uleb128 0xc
 3852 04d4 EC020000 		.4byte	.LASF149
 3853 04d8 5371     		.2byte	0x7153
 3854 04da 0C       		.uleb128 0xc
 3855 04db 9D120000 		.4byte	.LASF150
 3856 04df 5471     		.2byte	0x7154
 3857 04e1 0C       		.uleb128 0xc
 3858 04e2 1C020000 		.4byte	.LASF151
 3859 04e6 5571     		.2byte	0x7155
 3860 04e8 0C       		.uleb128 0xc
 3861 04e9 AC040000 		.4byte	.LASF152
 3862 04ed 5671     		.2byte	0x7156
 3863 04ef 0C       		.uleb128 0xc
 3864 04f0 22100000 		.4byte	.LASF153
ARM GAS  C:\Users\jorti\AppData\Local\Temp\ccDtGf1z.s 			page 116


 3865 04f4 5771     		.2byte	0x7157
 3866 04f6 0C       		.uleb128 0xc
 3867 04f7 B9050000 		.4byte	.LASF154
 3868 04fb 5871     		.2byte	0x7158
 3869 04fd 0C       		.uleb128 0xc
 3870 04fe E40E0000 		.4byte	.LASF155
 3871 0502 5971     		.2byte	0x7159
 3872 0504 0C       		.uleb128 0xc
 3873 0505 07160000 		.4byte	.LASF156
 3874 0509 5A71     		.2byte	0x715a
 3875 050b 0C       		.uleb128 0xc
 3876 050c EC030000 		.4byte	.LASF157
 3877 0510 5B71     		.2byte	0x715b
 3878 0512 0C       		.uleb128 0xc
 3879 0513 F5050000 		.4byte	.LASF158
 3880 0517 5C71     		.2byte	0x715c
 3881 0519 0C       		.uleb128 0xc
 3882 051a 6A030000 		.4byte	.LASF159
 3883 051e 5D71     		.2byte	0x715d
 3884 0520 0C       		.uleb128 0xc
 3885 0521 6D0D0000 		.4byte	.LASF160
 3886 0525 5E71     		.2byte	0x715e
 3887 0527 0C       		.uleb128 0xc
 3888 0528 44030000 		.4byte	.LASF161
 3889 052c 5F71     		.2byte	0x715f
 3890 052e 0C       		.uleb128 0xc
 3891 052f 65060000 		.4byte	.LASF162
 3892 0533 AD71     		.2byte	0x71ad
 3893 0535 0C       		.uleb128 0xc
 3894 0536 8C050000 		.4byte	.LASF163
 3895 053a C071     		.2byte	0x71c0
 3896 053c 0C       		.uleb128 0xc
 3897 053d AE0D0000 		.4byte	.LASF164
 3898 0541 C171     		.2byte	0x71c1
 3899 0543 0C       		.uleb128 0xc
 3900 0544 ED140000 		.4byte	.LASF165
 3901 0548 C271     		.2byte	0x71c2
 3902 054a 0C       		.uleb128 0xc
 3903 054b F9090000 		.4byte	.LASF166
 3904 054f C371     		.2byte	0x71c3
 3905 0551 0C       		.uleb128 0xc
 3906 0552 A7070000 		.4byte	.LASF167
 3907 0556 C471     		.2byte	0x71c4
 3908 0558 0C       		.uleb128 0xc
 3909 0559 A4160000 		.4byte	.LASF168
 3910 055d 1172     		.2byte	0x7211
 3911 055f 0C       		.uleb128 0xc
 3912 0560 BC0F0000 		.4byte	.LASF169
 3913 0564 1272     		.2byte	0x7212
 3914 0566 0C       		.uleb128 0xc
 3915 0567 B7010000 		.4byte	.LASF170
 3916 056b 1372     		.2byte	0x7213
 3917 056d 0C       		.uleb128 0xc
 3918 056e D20C0000 		.4byte	.LASF171
 3919 0572 1472     		.2byte	0x7214
 3920 0574 0C       		.uleb128 0xc
 3921 0575 B5110000 		.4byte	.LASF172
ARM GAS  C:\Users\jorti\AppData\Local\Temp\ccDtGf1z.s 			page 117


 3922 0579 7572     		.2byte	0x7275
 3923 057b 0C       		.uleb128 0xc
 3924 057c 89160000 		.4byte	.LASF173
 3925 0580 7672     		.2byte	0x7276
 3926 0582 0C       		.uleb128 0xc
 3927 0583 6A160000 		.4byte	.LASF174
 3928 0587 7772     		.2byte	0x7277
 3929 0589 0C       		.uleb128 0xc
 3930 058a E7070000 		.4byte	.LASF175
 3931 058e 7872     		.2byte	0x7278
 3932 0590 0C       		.uleb128 0xc
 3933 0591 4C000000 		.4byte	.LASF176
 3934 0595 7972     		.2byte	0x7279
 3935 0597 0C       		.uleb128 0xc
 3936 0598 39140000 		.4byte	.LASF177
 3937 059c 7A72     		.2byte	0x727a
 3938 059e 0C       		.uleb128 0xc
 3939 059f B6060000 		.4byte	.LASF178
 3940 05a3 7B72     		.2byte	0x727b
 3941 05a5 0C       		.uleb128 0xc
 3942 05a6 A80A0000 		.4byte	.LASF179
 3943 05aa 7C72     		.2byte	0x727c
 3944 05ac 0C       		.uleb128 0xc
 3945 05ad 4F0E0000 		.4byte	.LASF180
 3946 05b1 7D72     		.2byte	0x727d
 3947 05b3 0C       		.uleb128 0xc
 3948 05b4 8A080000 		.4byte	.LASF181
 3949 05b8 7E72     		.2byte	0x727e
 3950 05ba 0C       		.uleb128 0xc
 3951 05bb C3120000 		.4byte	.LASF182
 3952 05bf D972     		.2byte	0x72d9
 3953 05c1 0C       		.uleb128 0xc
 3954 05c2 78050000 		.4byte	.LASF183
 3955 05c6 3D73     		.2byte	0x733d
 3956 05c8 0C       		.uleb128 0xc
 3957 05c9 6A090000 		.4byte	.LASF184
 3958 05cd 3E73     		.2byte	0x733e
 3959 05cf 0C       		.uleb128 0xc
 3960 05d0 6F040000 		.4byte	.LASF185
 3961 05d4 3F73     		.2byte	0x733f
 3962 05d6 0C       		.uleb128 0xc
 3963 05d7 40010000 		.4byte	.LASF186
 3964 05db 4073     		.2byte	0x7340
 3965 05dd 0C       		.uleb128 0xc
 3966 05de 97030000 		.4byte	.LASF187
 3967 05e2 4173     		.2byte	0x7341
 3968 05e4 0C       		.uleb128 0xc
 3969 05e5 D5050000 		.4byte	.LASF188
 3970 05e9 4273     		.2byte	0x7342
 3971 05eb 0C       		.uleb128 0xc
 3972 05ec 3D000000 		.4byte	.LASF189
 3973 05f0 4373     		.2byte	0x7343
 3974 05f2 0C       		.uleb128 0xc
 3975 05f3 61050000 		.4byte	.LASF190
 3976 05f7 4473     		.2byte	0x7344
 3977 05f9 0C       		.uleb128 0xc
 3978 05fa 01080000 		.4byte	.LASF191
ARM GAS  C:\Users\jorti\AppData\Local\Temp\ccDtGf1z.s 			page 118


 3979 05fe 4573     		.2byte	0x7345
 3980 0600 0C       		.uleb128 0xc
 3981 0601 500D0000 		.4byte	.LASF192
 3982 0605 4673     		.2byte	0x7346
 3983 0607 0C       		.uleb128 0xc
 3984 0608 2D060000 		.4byte	.LASF193
 3985 060c 4773     		.2byte	0x7347
 3986 060e 0C       		.uleb128 0xc
 3987 060f B60C0000 		.4byte	.LASF194
 3988 0613 4873     		.2byte	0x7348
 3989 0615 0C       		.uleb128 0xc
 3990 0616 74120000 		.4byte	.LASF195
 3991 061a 4973     		.2byte	0x7349
 3992 061c 0C       		.uleb128 0xc
 3993 061d 1C010000 		.4byte	.LASF196
 3994 0621 3075     		.2byte	0x7530
 3995 0623 0C       		.uleb128 0xc
 3996 0624 25010000 		.4byte	.LASF197
 3997 0628 1879     		.2byte	0x7918
 3998 062a 0C       		.uleb128 0xc
 3999 062b 2E010000 		.4byte	.LASF198
 4000 062f 007D     		.2byte	0x7d00
 4001 0631 0C       		.uleb128 0xc
 4002 0632 37010000 		.4byte	.LASF199
 4003 0636 E880     		.2byte	0x80e8
 4004 0638 0C       		.uleb128 0xc
 4005 0639 33130000 		.4byte	.LASF200
 4006 063d D084     		.2byte	0x84d0
 4007 063f 0C       		.uleb128 0xc
 4008 0640 FD0A0000 		.4byte	.LASF201
 4009 0644 D184     		.2byte	0x84d1
 4010 0646 0C       		.uleb128 0xc
 4011 0647 4C130000 		.4byte	.LASF202
 4012 064b B888     		.2byte	0x88b8
 4013 064d 00       		.byte	0
 4014 064e 09       		.uleb128 0x9
 4015 064f 28000000 		.4byte	.LASF203
 4016 0653 05       		.byte	0x5
 4017 0654 7202     		.2byte	0x272
 4018 0656 D6010000 		.4byte	0x1d6
 4019 065a 09       		.uleb128 0x9
 4020 065b 5C090000 		.4byte	.LASF204
 4021 065f 05       		.byte	0x5
 4022 0660 8202     		.2byte	0x282
 4023 0662 66060000 		.4byte	0x666
 4024 0666 0D       		.uleb128 0xd
 4025 0667 5E060000 		.4byte	.LASF210
 4026 066b 10       		.byte	0x10
 4027 066c 05       		.byte	0x5
 4028 066d 4003     		.2byte	0x340
 4029 066f A8060000 		.4byte	0x6a8
 4030 0673 0E       		.uleb128 0xe
 4031 0674 100E0000 		.4byte	.LASF205
 4032 0678 05       		.byte	0x5
 4033 0679 4103     		.2byte	0x341
 4034 067b 430B0000 		.4byte	0xb43
 4035 067f 00       		.byte	0
ARM GAS  C:\Users\jorti\AppData\Local\Temp\ccDtGf1z.s 			page 119


 4036 0680 0E       		.uleb128 0xe
 4037 0681 E6140000 		.4byte	.LASF206
 4038 0685 05       		.byte	0x5
 4039 0686 4203     		.2byte	0x342
 4040 0688 BA000000 		.4byte	0xba
 4041 068c 04       		.byte	0x4
 4042 068d 0E       		.uleb128 0xe
 4043 068e E7100000 		.4byte	.LASF207
 4044 0692 05       		.byte	0x5
 4045 0693 4303     		.2byte	0x343
 4046 0695 52010000 		.4byte	0x152
 4047 0699 08       		.byte	0x8
 4048 069a 0E       		.uleb128 0xe
 4049 069b 94140000 		.4byte	.LASF208
 4050 069f 05       		.byte	0x5
 4051 06a0 4403     		.2byte	0x344
 4052 06a2 10010000 		.4byte	0x110
 4053 06a6 0C       		.byte	0xc
 4054 06a7 00       		.byte	0
 4055 06a8 09       		.uleb128 0x9
 4056 06a9 DC0A0000 		.4byte	.LASF209
 4057 06ad 05       		.byte	0x5
 4058 06ae 8402     		.2byte	0x284
 4059 06b0 B4060000 		.4byte	0x6b4
 4060 06b4 0D       		.uleb128 0xd
 4061 06b5 E3160000 		.4byte	.LASF211
 4062 06b9 10       		.byte	0x10
 4063 06ba 05       		.byte	0x5
 4064 06bb 5303     		.2byte	0x353
 4065 06bd 03070000 		.4byte	0x703
 4066 06c1 0E       		.uleb128 0xe
 4067 06c2 8A100000 		.4byte	.LASF212
 4068 06c6 05       		.byte	0x5
 4069 06c7 5403     		.2byte	0x354
 4070 06c9 430B0000 		.4byte	0xb43
 4071 06cd 00       		.byte	0
 4072 06ce 0E       		.uleb128 0xe
 4073 06cf D7130000 		.4byte	.LASF213
 4074 06d3 05       		.byte	0x5
 4075 06d4 5503     		.2byte	0x355
 4076 06d6 430B0000 		.4byte	0xb43
 4077 06da 04       		.byte	0x4
 4078 06db 0E       		.uleb128 0xe
 4079 06dc 7B080000 		.4byte	.LASF214
 4080 06e0 05       		.byte	0x5
 4081 06e1 5603     		.2byte	0x356
 4082 06e3 47010000 		.4byte	0x147
 4083 06e7 08       		.byte	0x8
 4084 06e8 0E       		.uleb128 0xe
 4085 06e9 66010000 		.4byte	.LASF215
 4086 06ed 05       		.byte	0x5
 4087 06ee 5703     		.2byte	0x357
 4088 06f0 47010000 		.4byte	0x147
 4089 06f4 0A       		.byte	0xa
 4090 06f5 0E       		.uleb128 0xe
 4091 06f6 C3150000 		.4byte	.LASF216
 4092 06fa 05       		.byte	0x5
ARM GAS  C:\Users\jorti\AppData\Local\Temp\ccDtGf1z.s 			page 120


 4093 06fb 5803     		.2byte	0x358
 4094 06fd 47010000 		.4byte	0x147
 4095 0701 0C       		.byte	0xc
 4096 0702 00       		.byte	0
 4097 0703 09       		.uleb128 0x9
 4098 0704 FB120000 		.4byte	.LASF217
 4099 0708 05       		.byte	0x5
 4100 0709 8E02     		.2byte	0x28e
 4101 070b A9000000 		.4byte	0xa9
 4102 070f 09       		.uleb128 0x9
 4103 0710 25120000 		.4byte	.LASF218
 4104 0714 05       		.byte	0x5
 4105 0715 9002     		.2byte	0x290
 4106 0717 1B070000 		.4byte	0x71b
 4107 071b 0D       		.uleb128 0xd
 4108 071c 00000000 		.4byte	.LASF219
 4109 0720 C0       		.byte	0xc0
 4110 0721 05       		.byte	0x5
 4111 0722 AB03     		.2byte	0x3ab
 4112 0724 BF090000 		.4byte	0x9bf
 4113 0728 0E       		.uleb128 0xe
 4114 0729 470B0000 		.4byte	.LASF220
 4115 072d 05       		.byte	0x5
 4116 072e AC03     		.2byte	0x3ac
 4117 0730 490B0000 		.4byte	0xb49
 4118 0734 00       		.byte	0
 4119 0735 0E       		.uleb128 0xe
 4120 0736 64110000 		.4byte	.LASF221
 4121 073a 05       		.byte	0x5
 4122 073b AE03     		.2byte	0x3ae
 4123 073d BA000000 		.4byte	0xba
 4124 0741 04       		.byte	0x4
 4125 0742 0E       		.uleb128 0xe
 4126 0743 840C0000 		.4byte	.LASF222
 4127 0747 05       		.byte	0x5
 4128 0748 B003     		.2byte	0x3b0
 4129 074a 490B0000 		.4byte	0xb49
 4130 074e 08       		.byte	0x8
 4131 074f 0E       		.uleb128 0xe
 4132 0750 100E0000 		.4byte	.LASF205
 4133 0754 05       		.byte	0x5
 4134 0755 B203     		.2byte	0x3b2
 4135 0757 2B0B0000 		.4byte	0xb2b
 4136 075b 0C       		.byte	0xc
 4137 075c 0E       		.uleb128 0xe
 4138 075d C8090000 		.4byte	.LASF223
 4139 0761 05       		.byte	0x5
 4140 0762 B303     		.2byte	0x3b3
 4141 0764 2B0B0000 		.4byte	0xb2b
 4142 0768 10       		.byte	0x10
 4143 0769 0E       		.uleb128 0xe
 4144 076a E90C0000 		.4byte	.LASF224
 4145 076e 05       		.byte	0x5
 4146 076f B503     		.2byte	0x3b5
 4147 0771 2B0B0000 		.4byte	0xb2b
 4148 0775 14       		.byte	0x14
 4149 0776 0E       		.uleb128 0xe
ARM GAS  C:\Users\jorti\AppData\Local\Temp\ccDtGf1z.s 			page 121


 4150 0777 A6080000 		.4byte	.LASF225
 4151 077b 05       		.byte	0x5
 4152 077c B603     		.2byte	0x3b6
 4153 077e 2B0B0000 		.4byte	0xb2b
 4154 0782 18       		.byte	0x18
 4155 0783 0E       		.uleb128 0xe
 4156 0784 55130000 		.4byte	.LASF226
 4157 0788 05       		.byte	0x5
 4158 0789 B803     		.2byte	0x3b8
 4159 078b 4F0B0000 		.4byte	0xb4f
 4160 078f 1C       		.byte	0x1c
 4161 0790 0E       		.uleb128 0xe
 4162 0791 C90A0000 		.4byte	.LASF227
 4163 0795 05       		.byte	0x5
 4164 0796 BA03     		.2byte	0x3ba
 4165 0798 3D0B0000 		.4byte	0xb3d
 4166 079c 20       		.byte	0x20
 4167 079d 0E       		.uleb128 0xe
 4168 079e 96060000 		.4byte	.LASF228
 4169 07a2 05       		.byte	0x5
 4170 07a3 BC03     		.2byte	0x3bc
 4171 07a5 490B0000 		.4byte	0xb49
 4172 07a9 24       		.byte	0x24
 4173 07aa 0E       		.uleb128 0xe
 4174 07ab 700A0000 		.4byte	.LASF229
 4175 07af 05       		.byte	0x5
 4176 07b0 C203     		.2byte	0x3c2
 4177 07b2 03070000 		.4byte	0x703
 4178 07b6 28       		.byte	0x28
 4179 07b7 0E       		.uleb128 0xe
 4180 07b8 DE130000 		.4byte	.LASF230
 4181 07bc 05       		.byte	0x5
 4182 07bd C303     		.2byte	0x3c3
 4183 07bf BA000000 		.4byte	0xba
 4184 07c3 2C       		.byte	0x2c
 4185 07c4 0E       		.uleb128 0xe
 4186 07c5 5F100000 		.4byte	.LASF231
 4187 07c9 05       		.byte	0x5
 4188 07ca C503     		.2byte	0x3c5
 4189 07cc 310B0000 		.4byte	0xb31
 4190 07d0 30       		.byte	0x30
 4191 07d1 0E       		.uleb128 0xe
 4192 07d2 B0030000 		.4byte	.LASF232
 4193 07d6 05       		.byte	0x5
 4194 07d7 C603     		.2byte	0x3c6
 4195 07d9 B5010000 		.4byte	0x1b5
 4196 07dd 34       		.byte	0x34
 4197 07de 0E       		.uleb128 0xe
 4198 07df D10A0000 		.4byte	.LASF233
 4199 07e3 05       		.byte	0x5
 4200 07e4 C703     		.2byte	0x3c7
 4201 07e6 C0010000 		.4byte	0x1c0
 4202 07ea 35       		.byte	0x35
 4203 07eb 0E       		.uleb128 0xe
 4204 07ec 90070000 		.4byte	.LASF234
 4205 07f0 05       		.byte	0x5
 4206 07f1 C903     		.2byte	0x3c9
ARM GAS  C:\Users\jorti\AppData\Local\Temp\ccDtGf1z.s 			page 122


 4207 07f3 B5010000 		.4byte	0x1b5
 4208 07f7 36       		.byte	0x36
 4209 07f8 0E       		.uleb128 0xe
 4210 07f9 56150000 		.4byte	.LASF235
 4211 07fd 05       		.byte	0x5
 4212 07fe CA03     		.2byte	0x3ca
 4213 0800 89010000 		.4byte	0x189
 4214 0804 37       		.byte	0x37
 4215 0805 0E       		.uleb128 0xe
 4216 0806 8E060000 		.4byte	.LASF236
 4217 080a 05       		.byte	0x5
 4218 080b CB03     		.2byte	0x3cb
 4219 080d D2000000 		.4byte	0xd2
 4220 0811 38       		.byte	0x38
 4221 0812 0F       		.uleb128 0xf
 4222 0813 4F707400 		.ascii	"Opt\000"
 4223 0817 05       		.byte	0x5
 4224 0818 CC03     		.2byte	0x3cc
 4225 081a 7E010000 		.4byte	0x17e
 4226 081e 3C       		.byte	0x3c
 4227 081f 0E       		.uleb128 0xe
 4228 0820 B7030000 		.4byte	.LASF237
 4229 0824 05       		.byte	0x5
 4230 0825 CE03     		.2byte	0x3ce
 4231 0827 68010000 		.4byte	0x168
 4232 082b 3E       		.byte	0x3e
 4233 082c 0F       		.uleb128 0xf
 4234 082d 545300   		.ascii	"TS\000"
 4235 0830 05       		.byte	0x5
 4236 0831 D003     		.2byte	0x3d0
 4237 0833 10010000 		.4byte	0x110
 4238 0837 40       		.byte	0x40
 4239 0838 0E       		.uleb128 0xe
 4240 0839 83100000 		.4byte	.LASF238
 4241 083d 05       		.byte	0x5
 4242 083e D203     		.2byte	0x3d2
 4243 0840 AA010000 		.4byte	0x1aa
 4244 0844 44       		.byte	0x44
 4245 0845 0E       		.uleb128 0xe
 4246 0846 6F080000 		.4byte	.LASF239
 4247 084a 05       		.byte	0x5
 4248 084b D503     		.2byte	0x3d5
 4249 084d CB010000 		.4byte	0x1cb
 4250 0851 48       		.byte	0x48
 4251 0852 0E       		.uleb128 0xe
 4252 0853 17040000 		.4byte	.LASF240
 4253 0857 05       		.byte	0x5
 4254 0858 D603     		.2byte	0x3d6
 4255 085a CB010000 		.4byte	0x1cb
 4256 085e 4C       		.byte	0x4c
 4257 085f 0E       		.uleb128 0xe
 4258 0860 99100000 		.4byte	.LASF241
 4259 0864 05       		.byte	0x5
 4260 0865 D703     		.2byte	0x3d7
 4261 0867 CB010000 		.4byte	0x1cb
 4262 086b 50       		.byte	0x50
 4263 086c 0E       		.uleb128 0xe
ARM GAS  C:\Users\jorti\AppData\Local\Temp\ccDtGf1z.s 			page 123


 4264 086d 7E160000 		.4byte	.LASF242
 4265 0871 05       		.byte	0x5
 4266 0872 D903     		.2byte	0x3d9
 4267 0874 CB010000 		.4byte	0x1cb
 4268 0878 54       		.byte	0x54
 4269 0879 0E       		.uleb128 0xe
 4270 087a E50A0000 		.4byte	.LASF243
 4271 087e 05       		.byte	0x5
 4272 087f DA03     		.2byte	0x3da
 4273 0881 CB010000 		.4byte	0x1cb
 4274 0885 58       		.byte	0x58
 4275 0886 0E       		.uleb128 0xe
 4276 0887 E6140000 		.4byte	.LASF206
 4277 088b 05       		.byte	0x5
 4278 088c DD03     		.2byte	0x3dd
 4279 088e BA000000 		.4byte	0xba
 4280 0892 5C       		.byte	0x5c
 4281 0893 0E       		.uleb128 0xe
 4282 0894 E7100000 		.4byte	.LASF207
 4283 0898 05       		.byte	0x5
 4284 0899 DE03     		.2byte	0x3de
 4285 089b 52010000 		.4byte	0x152
 4286 089f 60       		.byte	0x60
 4287 08a0 0E       		.uleb128 0xe
 4288 08a1 6B0A0000 		.4byte	.LASF244
 4289 08a5 05       		.byte	0x5
 4290 08a6 E203     		.2byte	0x3e2
 4291 08a8 A8060000 		.4byte	0x6a8
 4292 08ac 64       		.byte	0x64
 4293 08ad 0E       		.uleb128 0xe
 4294 08ae 4F090000 		.4byte	.LASF245
 4295 08b2 05       		.byte	0x5
 4296 08b3 E403     		.2byte	0x3e4
 4297 08b5 10010000 		.4byte	0x110
 4298 08b9 74       		.byte	0x74
 4299 08ba 0E       		.uleb128 0xe
 4300 08bb 3F090000 		.4byte	.LASF246
 4301 08bf 05       		.byte	0x5
 4302 08c0 E503     		.2byte	0x3e5
 4303 08c2 10010000 		.4byte	0x110
 4304 08c6 78       		.byte	0x78
 4305 08c7 0E       		.uleb128 0xe
 4306 08c8 37160000 		.4byte	.LASF247
 4307 08cc 05       		.byte	0x5
 4308 08cd EA03     		.2byte	0x3ea
 4309 08cf 550B0000 		.4byte	0xb55
 4310 08d3 7C       		.byte	0x7c
 4311 08d4 0E       		.uleb128 0xe
 4312 08d5 65040000 		.4byte	.LASF248
 4313 08d9 05       		.byte	0x5
 4314 08da EE03     		.2byte	0x3ee
 4315 08dc 3C010000 		.4byte	0x13c
 4316 08e0 80       		.byte	0x80
 4317 08e1 0E       		.uleb128 0xe
 4318 08e2 B2080000 		.4byte	.LASF249
 4319 08e6 05       		.byte	0x5
 4320 08e7 EF03     		.2byte	0x3ef
ARM GAS  C:\Users\jorti\AppData\Local\Temp\ccDtGf1z.s 			page 124


 4321 08e9 3C010000 		.4byte	0x13c
 4322 08ed 84       		.byte	0x84
 4323 08ee 0E       		.uleb128 0xe
 4324 08ef 13020000 		.4byte	.LASF250
 4325 08f3 05       		.byte	0x5
 4326 08f4 F003     		.2byte	0x3f0
 4327 08f6 7E010000 		.4byte	0x17e
 4328 08fa 88       		.byte	0x88
 4329 08fb 0E       		.uleb128 0xe
 4330 08fc 790C0000 		.4byte	.LASF251
 4331 0900 05       		.byte	0x5
 4332 0901 F403     		.2byte	0x3f4
 4333 0903 5D010000 		.4byte	0x15d
 4334 0907 8A       		.byte	0x8a
 4335 0908 0E       		.uleb128 0xe
 4336 0909 7B150000 		.4byte	.LASF252
 4337 090d 05       		.byte	0x5
 4338 090e F803     		.2byte	0x3f8
 4339 0910 1B010000 		.4byte	0x11b
 4340 0914 8C       		.byte	0x8c
 4341 0915 0E       		.uleb128 0xe
 4342 0916 3A100000 		.4byte	.LASF253
 4343 091a 05       		.byte	0x5
 4344 091b F903     		.2byte	0x3f9
 4345 091d 1B010000 		.4byte	0x11b
 4346 0921 8E       		.byte	0x8e
 4347 0922 0E       		.uleb128 0xe
 4348 0923 A3040000 		.4byte	.LASF254
 4349 0927 05       		.byte	0x5
 4350 0928 FA03     		.2byte	0x3fa
 4351 092a 26010000 		.4byte	0x126
 4352 092e 90       		.byte	0x90
 4353 092f 0E       		.uleb128 0xe
 4354 0930 9F0C0000 		.4byte	.LASF255
 4355 0934 05       		.byte	0x5
 4356 0935 FB03     		.2byte	0x3fb
 4357 0937 10010000 		.4byte	0x110
 4358 093b 94       		.byte	0x94
 4359 093c 0E       		.uleb128 0xe
 4360 093d 750B0000 		.4byte	.LASF256
 4361 0941 05       		.byte	0x5
 4362 0942 FC03     		.2byte	0x3fc
 4363 0944 10010000 		.4byte	0x110
 4364 0948 98       		.byte	0x98
 4365 0949 0E       		.uleb128 0xe
 4366 094a FC0F0000 		.4byte	.LASF257
 4367 094e 05       		.byte	0x5
 4368 094f FD03     		.2byte	0x3fd
 4369 0951 31010000 		.4byte	0x131
 4370 0955 9C       		.byte	0x9c
 4371 0956 0E       		.uleb128 0xe
 4372 0957 AC0F0000 		.4byte	.LASF258
 4373 095b 05       		.byte	0x5
 4374 095c FE03     		.2byte	0x3fe
 4375 095e 31010000 		.4byte	0x131
 4376 0962 A0       		.byte	0xa0
 4377 0963 0E       		.uleb128 0xe
ARM GAS  C:\Users\jorti\AppData\Local\Temp\ccDtGf1z.s 			page 125


 4378 0964 DC0D0000 		.4byte	.LASF259
 4379 0968 05       		.byte	0x5
 4380 0969 0004     		.2byte	0x400
 4381 096b 10010000 		.4byte	0x110
 4382 096f A4       		.byte	0xa4
 4383 0970 0E       		.uleb128 0xe
 4384 0971 8B0F0000 		.4byte	.LASF260
 4385 0975 05       		.byte	0x5
 4386 0976 0104     		.2byte	0x401
 4387 0978 10010000 		.4byte	0x110
 4388 097c A8       		.byte	0xa8
 4389 097d 0E       		.uleb128 0xe
 4390 097e CD050000 		.4byte	.LASF261
 4391 0982 05       		.byte	0x5
 4392 0983 0504     		.2byte	0x405
 4393 0985 D2000000 		.4byte	0xd2
 4394 0989 AC       		.byte	0xac
 4395 098a 0E       		.uleb128 0xe
 4396 098b 67080000 		.4byte	.LASF262
 4397 098f 05       		.byte	0x5
 4398 0990 0604     		.2byte	0x406
 4399 0992 D2000000 		.4byte	0xd2
 4400 0996 B0       		.byte	0xb0
 4401 0997 0E       		.uleb128 0xe
 4402 0998 1A030000 		.4byte	.LASF263
 4403 099c 05       		.byte	0x5
 4404 099d 1104     		.2byte	0x411
 4405 099f 2B0B0000 		.4byte	0xb2b
 4406 09a3 B4       		.byte	0xb4
 4407 09a4 0E       		.uleb128 0xe
 4408 09a5 32030000 		.4byte	.LASF264
 4409 09a9 05       		.byte	0x5
 4410 09aa 1204     		.2byte	0x412
 4411 09ac 2B0B0000 		.4byte	0xb2b
 4412 09b0 B8       		.byte	0xb8
 4413 09b1 0E       		.uleb128 0xe
 4414 09b2 2C160000 		.4byte	.LASF265
 4415 09b6 05       		.byte	0x5
 4416 09b7 1304     		.2byte	0x413
 4417 09b9 3D0B0000 		.4byte	0xb3d
 4418 09bd BC       		.byte	0xbc
 4419 09be 00       		.byte	0
 4420 09bf 09       		.uleb128 0x9
 4421 09c0 32050000 		.4byte	.LASF266
 4422 09c4 05       		.byte	0x5
 4423 09c5 9E02     		.2byte	0x29e
 4424 09c7 CB090000 		.4byte	0x9cb
 4425 09cb 0D       		.uleb128 0xd
 4426 09cc 4E0B0000 		.4byte	.LASF267
 4427 09d0 08       		.byte	0x8
 4428 09d1 05       		.byte	0x5
 4429 09d2 1E04     		.2byte	0x41e
 4430 09d4 000A0000 		.4byte	0xa00
 4431 09d8 0E       		.uleb128 0xe
 4432 09d9 02110000 		.4byte	.LASF268
 4433 09dd 05       		.byte	0x5
 4434 09de 1F04     		.2byte	0x41f
ARM GAS  C:\Users\jorti\AppData\Local\Temp\ccDtGf1z.s 			page 126


 4435 09e0 2B0B0000 		.4byte	0xb2b
 4436 09e4 00       		.byte	0
 4437 09e5 0E       		.uleb128 0xe
 4438 09e6 66010000 		.4byte	.LASF215
 4439 09ea 05       		.byte	0x5
 4440 09eb 2004     		.2byte	0x420
 4441 09ed 68010000 		.4byte	0x168
 4442 09f1 04       		.byte	0x4
 4443 09f2 0E       		.uleb128 0xe
 4444 09f3 C3150000 		.4byte	.LASF216
 4445 09f7 05       		.byte	0x5
 4446 09f8 2104     		.2byte	0x421
 4447 09fa 68010000 		.4byte	0x168
 4448 09fe 06       		.byte	0x6
 4449 09ff 00       		.byte	0
 4450 0a00 09       		.uleb128 0x9
 4451 0a01 E8050000 		.4byte	.LASF269
 4452 0a05 05       		.byte	0x5
 4453 0a06 A502     		.2byte	0x2a5
 4454 0a08 0C0A0000 		.4byte	0xa0c
 4455 0a0c 0D       		.uleb128 0xd
 4456 0a0d 1A150000 		.4byte	.LASF270
 4457 0a11 20       		.byte	0x20
 4458 0a12 05       		.byte	0x5
 4459 0a13 DD02     		.2byte	0x2dd
 4460 0a15 820A0000 		.4byte	0xa82
 4461 0a19 0E       		.uleb128 0xe
 4462 0a1a C8090000 		.4byte	.LASF223
 4463 0a1e 05       		.byte	0x5
 4464 0a1f DE02     		.2byte	0x2de
 4465 0a21 310B0000 		.4byte	0xb31
 4466 0a25 00       		.byte	0
 4467 0a26 0E       		.uleb128 0xe
 4468 0a27 100E0000 		.4byte	.LASF205
 4469 0a2b 05       		.byte	0x5
 4470 0a2c DF02     		.2byte	0x2df
 4471 0a2e 310B0000 		.4byte	0xb31
 4472 0a32 04       		.byte	0x4
 4473 0a33 0E       		.uleb128 0xe
 4474 0a34 A00B0000 		.4byte	.LASF271
 4475 0a38 05       		.byte	0x5
 4476 0a39 E002     		.2byte	0x2e0
 4477 0a3b 2B0B0000 		.4byte	0xb2b
 4478 0a3f 08       		.byte	0x8
 4479 0a40 0E       		.uleb128 0xe
 4480 0a41 B8150000 		.4byte	.LASF272
 4481 0a45 05       		.byte	0x5
 4482 0a46 E102     		.2byte	0x2e1
 4483 0a48 370B0000 		.4byte	0xb37
 4484 0a4c 0C       		.byte	0xc
 4485 0a4d 0E       		.uleb128 0xe
 4486 0a4e 860D0000 		.4byte	.LASF273
 4487 0a52 05       		.byte	0x5
 4488 0a53 E202     		.2byte	0x2e2
 4489 0a55 370B0000 		.4byte	0xb37
 4490 0a59 10       		.byte	0x10
 4491 0a5a 0E       		.uleb128 0xe
ARM GAS  C:\Users\jorti\AppData\Local\Temp\ccDtGf1z.s 			page 127


 4492 0a5b 24040000 		.4byte	.LASF274
 4493 0a5f 05       		.byte	0x5
 4494 0a60 E302     		.2byte	0x2e3
 4495 0a62 BA000000 		.4byte	0xba
 4496 0a66 14       		.byte	0x14
 4497 0a67 0E       		.uleb128 0xe
 4498 0a68 240F0000 		.4byte	.LASF275
 4499 0a6c 05       		.byte	0x5
 4500 0a6d E402     		.2byte	0x2e4
 4501 0a6f 52010000 		.4byte	0x152
 4502 0a73 18       		.byte	0x18
 4503 0a74 0E       		.uleb128 0xe
 4504 0a75 BD0E0000 		.4byte	.LASF276
 4505 0a79 05       		.byte	0x5
 4506 0a7a E502     		.2byte	0x2e5
 4507 0a7c 10010000 		.4byte	0x110
 4508 0a80 1C       		.byte	0x1c
 4509 0a81 00       		.byte	0
 4510 0a82 09       		.uleb128 0x9
 4511 0a83 65140000 		.4byte	.LASF277
 4512 0a87 05       		.byte	0x5
 4513 0a88 A602     		.2byte	0x2a6
 4514 0a8a 8E0A0000 		.4byte	0xa8e
 4515 0a8e 0D       		.uleb128 0xd
 4516 0a8f E2150000 		.4byte	.LASF278
 4517 0a93 0C       		.byte	0xc
 4518 0a94 05       		.byte	0x5
 4519 0a95 E902     		.2byte	0x2e9
 4520 0a97 C30A0000 		.4byte	0xac3
 4521 0a9b 0E       		.uleb128 0xe
 4522 0a9c A4100000 		.4byte	.LASF279
 4523 0aa0 05       		.byte	0x5
 4524 0aa1 EA02     		.2byte	0x2ea
 4525 0aa3 310B0000 		.4byte	0xb31
 4526 0aa7 00       		.byte	0
 4527 0aa8 0E       		.uleb128 0xe
 4528 0aa9 DD030000 		.4byte	.LASF280
 4529 0aad 05       		.byte	0x5
 4530 0aae EB02     		.2byte	0x2eb
 4531 0ab0 310B0000 		.4byte	0xb31
 4532 0ab4 04       		.byte	0x4
 4533 0ab5 0E       		.uleb128 0xe
 4534 0ab6 66010000 		.4byte	.LASF215
 4535 0aba 05       		.byte	0x5
 4536 0abb EC02     		.2byte	0x2ec
 4537 0abd 68010000 		.4byte	0x168
 4538 0ac1 08       		.byte	0x8
 4539 0ac2 00       		.byte	0
 4540 0ac3 09       		.uleb128 0x9
 4541 0ac4 16100000 		.4byte	.LASF281
 4542 0ac8 05       		.byte	0x5
 4543 0ac9 A702     		.2byte	0x2a7
 4544 0acb CF0A0000 		.4byte	0xacf
 4545 0acf 0D       		.uleb128 0xd
 4546 0ad0 2E040000 		.4byte	.LASF282
 4547 0ad4 20       		.byte	0x20
 4548 0ad5 05       		.byte	0x5
ARM GAS  C:\Users\jorti\AppData\Local\Temp\ccDtGf1z.s 			page 128


 4549 0ad6 FF02     		.2byte	0x2ff
 4550 0ad8 2B0B0000 		.4byte	0xb2b
 4551 0adc 0E       		.uleb128 0xe
 4552 0add 3A0E0000 		.4byte	.LASF283
 4553 0ae1 05       		.byte	0x5
 4554 0ae2 0003     		.2byte	0x300
 4555 0ae4 73010000 		.4byte	0x173
 4556 0ae8 00       		.byte	0
 4557 0ae9 0E       		.uleb128 0xe
 4558 0aea C90A0000 		.4byte	.LASF227
 4559 0aee 05       		.byte	0x5
 4560 0aef 0103     		.2byte	0x301
 4561 0af1 3D0B0000 		.4byte	0xb3d
 4562 0af5 04       		.byte	0x4
 4563 0af6 0E       		.uleb128 0xe
 4564 0af7 46100000 		.4byte	.LASF284
 4565 0afb 05       		.byte	0x5
 4566 0afc 0203     		.2byte	0x302
 4567 0afe 820A0000 		.4byte	0xa82
 4568 0b02 08       		.byte	0x8
 4569 0b03 0E       		.uleb128 0xe
 4570 0b04 1A030000 		.4byte	.LASF263
 4571 0b08 05       		.byte	0x5
 4572 0b09 0403     		.2byte	0x304
 4573 0b0b BA000000 		.4byte	0xba
 4574 0b0f 14       		.byte	0x14
 4575 0b10 0E       		.uleb128 0xe
 4576 0b11 32030000 		.4byte	.LASF264
 4577 0b15 05       		.byte	0x5
 4578 0b16 0503     		.2byte	0x305
 4579 0b18 BA000000 		.4byte	0xba
 4580 0b1c 18       		.byte	0x18
 4581 0b1d 0E       		.uleb128 0xe
 4582 0b1e 2C160000 		.4byte	.LASF265
 4583 0b22 05       		.byte	0x5
 4584 0b23 0603     		.2byte	0x306
 4585 0b25 3D0B0000 		.4byte	0xb3d
 4586 0b29 1C       		.byte	0x1c
 4587 0b2a 00       		.byte	0
 4588 0b2b 05       		.uleb128 0x5
 4589 0b2c 04       		.byte	0x4
 4590 0b2d 0F070000 		.4byte	0x70f
 4591 0b31 05       		.uleb128 0x5
 4592 0b32 04       		.byte	0x4
 4593 0b33 000A0000 		.4byte	0xa00
 4594 0b37 05       		.uleb128 0x5
 4595 0b38 04       		.byte	0x4
 4596 0b39 C30A0000 		.4byte	0xac3
 4597 0b3d 05       		.uleb128 0x5
 4598 0b3e 04       		.byte	0x4
 4599 0b3f 25000000 		.4byte	0x25
 4600 0b43 05       		.uleb128 0x5
 4601 0b44 04       		.byte	0x4
 4602 0b45 5A060000 		.4byte	0x65a
 4603 0b49 05       		.uleb128 0x5
 4604 0b4a 04       		.byte	0x4
 4605 0b4b C7000000 		.4byte	0xc7
ARM GAS  C:\Users\jorti\AppData\Local\Temp\ccDtGf1z.s 			page 129


 4606 0b4f 05       		.uleb128 0x5
 4607 0b50 04       		.byte	0x4
 4608 0b51 BF090000 		.4byte	0x9bf
 4609 0b55 10       		.uleb128 0x10
 4610 0b56 94010000 		.4byte	0x194
 4611 0b5a 650B0000 		.4byte	0xb65
 4612 0b5e 11       		.uleb128 0x11
 4613 0b5f FE000000 		.4byte	0xfe
 4614 0b63 00       		.byte	0
 4615 0b64 00       		.byte	0
 4616 0b65 12       		.uleb128 0x12
 4617 0b66 07140000 		.4byte	.LASF302
 4618 0b6a 01       		.byte	0x1
 4619 0b6b 3E       		.byte	0x3e
 4620 0b6c 00000000 		.4byte	.LFB1
 4621 0b70 D4000000 		.4byte	.LFE1-.LFB1
 4622 0b74 01       		.uleb128 0x1
 4623 0b75 9C       		.byte	0x9c
 4624 0b76 710C0000 		.4byte	0xc71
 4625 0b7a 13       		.uleb128 0x13
 4626 0b7b 5C0B0000 		.4byte	.LASF285
 4627 0b7f 01       		.byte	0x1
 4628 0b80 3E       		.byte	0x3e
 4629 0b81 2B0B0000 		.4byte	0xb2b
 4630 0b85 00000000 		.4byte	.LLST0
 4631 0b89 13       		.uleb128 0x13
 4632 0b8a 90100000 		.4byte	.LASF286
 4633 0b8e 01       		.byte	0x1
 4634 0b8f 3F       		.byte	0x3f
 4635 0b90 89010000 		.4byte	0x189
 4636 0b94 34000000 		.4byte	.LLST1
 4637 0b98 13       		.uleb128 0x13
 4638 0b99 17090000 		.4byte	.LASF287
 4639 0b9d 01       		.byte	0x1
 4640 0b9e 40       		.byte	0x40
 4641 0b9f 710C0000 		.4byte	0xc71
 4642 0ba3 6E000000 		.4byte	.LLST2
 4643 0ba7 14       		.uleb128 0x14
 4644 0ba8 61010000 		.4byte	.LASF288
 4645 0bac 01       		.byte	0x1
 4646 0bad 42       		.byte	0x42
 4647 0bae 37000000 		.4byte	0x37
 4648 0bb2 B0000000 		.4byte	.LLST3
 4649 0bb6 14       		.uleb128 0x14
 4650 0bb7 5A050000 		.4byte	.LASF289
 4651 0bbb 01       		.byte	0x1
 4652 0bbc 43       		.byte	0x43
 4653 0bbd DD000000 		.4byte	0xdd
 4654 0bc1 CF000000 		.4byte	.LLST4
 4655 0bc5 15       		.uleb128 0x15
 4656 0bc6 2E000000 		.4byte	.LVL2
 4657 0bca 931F0000 		.4byte	0x1f93
 4658 0bce 15       		.uleb128 0x15
 4659 0bcf 36000000 		.4byte	.LVL4
 4660 0bd3 9F1F0000 		.4byte	0x1f9f
 4661 0bd7 15       		.uleb128 0x15
 4662 0bd8 44000000 		.4byte	.LVL7
ARM GAS  C:\Users\jorti\AppData\Local\Temp\ccDtGf1z.s 			page 130


 4663 0bdc 931F0000 		.4byte	0x1f93
 4664 0be0 16       		.uleb128 0x16
 4665 0be1 60000000 		.4byte	.LVL10
 4666 0be5 AB1F0000 		.4byte	0x1fab
 4667 0be9 F40B0000 		.4byte	0xbf4
 4668 0bed 17       		.uleb128 0x17
 4669 0bee 01       		.uleb128 0x1
 4670 0bef 50       		.byte	0x50
 4671 0bf0 02       		.uleb128 0x2
 4672 0bf1 74       		.byte	0x74
 4673 0bf2 00       		.sleb128 0
 4674 0bf3 00       		.byte	0
 4675 0bf4 16       		.uleb128 0x16
 4676 0bf5 6A000000 		.4byte	.LVL11
 4677 0bf9 B71F0000 		.4byte	0x1fb7
 4678 0bfd 080C0000 		.4byte	0xc08
 4679 0c01 17       		.uleb128 0x17
 4680 0c02 01       		.uleb128 0x1
 4681 0c03 50       		.byte	0x50
 4682 0c04 02       		.uleb128 0x2
 4683 0c05 76       		.byte	0x76
 4684 0c06 00       		.sleb128 0
 4685 0c07 00       		.byte	0
 4686 0c08 16       		.uleb128 0x16
 4687 0c09 76000000 		.4byte	.LVL12
 4688 0c0d C31F0000 		.4byte	0x1fc3
 4689 0c11 1C0C0000 		.4byte	0xc1c
 4690 0c15 17       		.uleb128 0x17
 4691 0c16 01       		.uleb128 0x1
 4692 0c17 50       		.byte	0x50
 4693 0c18 02       		.uleb128 0x2
 4694 0c19 74       		.byte	0x74
 4695 0c1a 00       		.sleb128 0
 4696 0c1b 00       		.byte	0
 4697 0c1c 16       		.uleb128 0x16
 4698 0c1d 7E000000 		.4byte	.LVL13
 4699 0c21 CF1F0000 		.4byte	0x1fcf
 4700 0c25 300C0000 		.4byte	0xc30
 4701 0c29 17       		.uleb128 0x17
 4702 0c2a 01       		.uleb128 0x1
 4703 0c2b 50       		.byte	0x50
 4704 0c2c 02       		.uleb128 0x2
 4705 0c2d 74       		.byte	0x74
 4706 0c2e 00       		.sleb128 0
 4707 0c2f 00       		.byte	0
 4708 0c30 16       		.uleb128 0x16
 4709 0c31 AA000000 		.4byte	.LVL16
 4710 0c35 DB1F0000 		.4byte	0x1fdb
 4711 0c39 4A0C0000 		.4byte	0xc4a
 4712 0c3d 17       		.uleb128 0x17
 4713 0c3e 01       		.uleb128 0x1
 4714 0c3f 50       		.byte	0x50
 4715 0c40 02       		.uleb128 0x2
 4716 0c41 74       		.byte	0x74
 4717 0c42 00       		.sleb128 0
 4718 0c43 17       		.uleb128 0x17
 4719 0c44 01       		.uleb128 0x1
ARM GAS  C:\Users\jorti\AppData\Local\Temp\ccDtGf1z.s 			page 131


 4720 0c45 51       		.byte	0x51
 4721 0c46 02       		.uleb128 0x2
 4722 0c47 76       		.byte	0x76
 4723 0c48 00       		.sleb128 0
 4724 0c49 00       		.byte	0
 4725 0c4a 15       		.uleb128 0x15
 4726 0c4b B0000000 		.4byte	.LVL18
 4727 0c4f 9F1F0000 		.4byte	0x1f9f
 4728 0c53 16       		.uleb128 0x16
 4729 0c54 C0000000 		.4byte	.LVL20
 4730 0c58 9F1F0000 		.4byte	0x1f9f
 4731 0c5c 670C0000 		.4byte	0xc67
 4732 0c60 17       		.uleb128 0x17
 4733 0c61 01       		.uleb128 0x1
 4734 0c62 50       		.byte	0x50
 4735 0c63 02       		.uleb128 0x2
 4736 0c64 77       		.byte	0x77
 4737 0c65 00       		.sleb128 0
 4738 0c66 00       		.byte	0
 4739 0c67 15       		.uleb128 0x15
 4740 0c68 C4000000 		.4byte	.LVL21
 4741 0c6c E71F0000 		.4byte	0x1fe7
 4742 0c70 00       		.byte	0
 4743 0c71 05       		.uleb128 0x5
 4744 0c72 04       		.byte	0x4
 4745 0c73 4E060000 		.4byte	0x64e
 4746 0c77 18       		.uleb128 0x18
 4747 0c78 D9080000 		.4byte	.LASF291
 4748 0c7c 01       		.byte	0x1
 4749 0c7d 5202     		.2byte	0x252
 4750 0c7f 47010000 		.4byte	0x147
 4751 0c83 00000000 		.4byte	.LFB4
 4752 0c87 4C000000 		.4byte	.LFE4-.LFB4
 4753 0c8b 01       		.uleb128 0x1
 4754 0c8c 9C       		.byte	0x9c
 4755 0c8d 120D0000 		.4byte	0xd12
 4756 0c91 19       		.uleb128 0x19
 4757 0c92 5C0B0000 		.4byte	.LASF285
 4758 0c96 01       		.byte	0x1
 4759 0c97 5202     		.2byte	0x252
 4760 0c99 2B0B0000 		.4byte	0xb2b
 4761 0c9d 3C010000 		.4byte	.LLST5
 4762 0ca1 19       		.uleb128 0x19
 4763 0ca2 17090000 		.4byte	.LASF287
 4764 0ca6 01       		.byte	0x1
 4765 0ca7 5302     		.2byte	0x253
 4766 0ca9 710C0000 		.4byte	0xc71
 4767 0cad 73010000 		.4byte	.LLST6
 4768 0cb1 1A       		.uleb128 0x1a
 4769 0cb2 12150000 		.4byte	.LASF290
 4770 0cb6 01       		.byte	0x1
 4771 0cb7 5502     		.2byte	0x255
 4772 0cb9 47010000 		.4byte	0x147
 4773 0cbd 9F010000 		.4byte	.LLST7
 4774 0cc1 1A       		.uleb128 0x1a
 4775 0cc2 5A050000 		.4byte	.LASF289
 4776 0cc6 01       		.byte	0x1
ARM GAS  C:\Users\jorti\AppData\Local\Temp\ccDtGf1z.s 			page 132


 4777 0cc7 5602     		.2byte	0x256
 4778 0cc9 DD000000 		.4byte	0xdd
 4779 0ccd B2010000 		.4byte	.LLST8
 4780 0cd1 15       		.uleb128 0x15
 4781 0cd2 1C000000 		.4byte	.LVL27
 4782 0cd6 931F0000 		.4byte	0x1f93
 4783 0cda 15       		.uleb128 0x15
 4784 0cdb 24000000 		.4byte	.LVL29
 4785 0cdf 9F1F0000 		.4byte	0x1f9f
 4786 0ce3 15       		.uleb128 0x15
 4787 0ce4 28000000 		.4byte	.LVL30
 4788 0ce8 931F0000 		.4byte	0x1f93
 4789 0cec 16       		.uleb128 0x16
 4790 0ced 32000000 		.4byte	.LVL33
 4791 0cf1 F31F0000 		.4byte	0x1ff3
 4792 0cf5 010D0000 		.4byte	0xd01
 4793 0cf9 17       		.uleb128 0x17
 4794 0cfa 01       		.uleb128 0x1
 4795 0cfb 50       		.byte	0x50
 4796 0cfc 03       		.uleb128 0x3
 4797 0cfd 74       		.byte	0x74
 4798 0cfe E400     		.sleb128 100
 4799 0d00 00       		.byte	0
 4800 0d01 1B       		.uleb128 0x1b
 4801 0d02 3A000000 		.4byte	.LVL35
 4802 0d06 9F1F0000 		.4byte	0x1f9f
 4803 0d0a 17       		.uleb128 0x17
 4804 0d0b 01       		.uleb128 0x1
 4805 0d0c 50       		.byte	0x50
 4806 0d0d 02       		.uleb128 0x2
 4807 0d0e 76       		.byte	0x76
 4808 0d0f 00       		.sleb128 0
 4809 0d10 00       		.byte	0
 4810 0d11 00       		.byte	0
 4811 0d12 18       		.uleb128 0x18
 4812 0d13 3A040000 		.4byte	.LASF292
 4813 0d17 01       		.byte	0x1
 4814 0d18 A002     		.2byte	0x2a0
 4815 0d1a BA000000 		.4byte	0xba
 4816 0d1e 00000000 		.4byte	.LFB5
 4817 0d22 60010000 		.4byte	.LFE5-.LFB5
 4818 0d26 01       		.uleb128 0x1
 4819 0d27 9C       		.byte	0x9c
 4820 0d28 7D0E0000 		.4byte	0xe7d
 4821 0d2c 19       		.uleb128 0x19
 4822 0d2d EC120000 		.4byte	.LASF293
 4823 0d31 01       		.byte	0x1
 4824 0d32 A002     		.2byte	0x2a0
 4825 0d34 CB010000 		.4byte	0x1cb
 4826 0d38 E7010000 		.4byte	.LLST9
 4827 0d3c 1C       		.uleb128 0x1c
 4828 0d3d 6F707400 		.ascii	"opt\000"
 4829 0d41 01       		.byte	0x1
 4830 0d42 A102     		.2byte	0x2a1
 4831 0d44 7E010000 		.4byte	0x17e
 4832 0d48 5E020000 		.4byte	.LLST10
 4833 0d4c 19       		.uleb128 0x19
ARM GAS  C:\Users\jorti\AppData\Local\Temp\ccDtGf1z.s 			page 133


 4834 0d4d A9020000 		.4byte	.LASF294
 4835 0d51 01       		.byte	0x1
 4836 0d52 A202     		.2byte	0x2a2
 4837 0d54 7D0E0000 		.4byte	0xe7d
 4838 0d58 7F020000 		.4byte	.LLST11
 4839 0d5c 19       		.uleb128 0x19
 4840 0d5d 680D0000 		.4byte	.LASF295
 4841 0d61 01       		.byte	0x1
 4842 0d62 A302     		.2byte	0x2a3
 4843 0d64 830E0000 		.4byte	0xe83
 4844 0d68 C4020000 		.4byte	.LLST12
 4845 0d6c 19       		.uleb128 0x19
 4846 0d6d 17090000 		.4byte	.LASF287
 4847 0d71 01       		.byte	0x1
 4848 0d72 A402     		.2byte	0x2a4
 4849 0d74 710C0000 		.4byte	0xc71
 4850 0d78 3B030000 		.4byte	.LLST13
 4851 0d7c 1A       		.uleb128 0x1a
 4852 0d7d 3E160000 		.4byte	.LASF296
 4853 0d81 01       		.byte	0x1
 4854 0d82 A602     		.2byte	0x2a6
 4855 0d84 890E0000 		.4byte	0xe89
 4856 0d88 67030000 		.4byte	.LLST14
 4857 0d8c 1A       		.uleb128 0x1a
 4858 0d8d E5030000 		.4byte	.LASF297
 4859 0d91 01       		.byte	0x1
 4860 0d92 A702     		.2byte	0x2a7
 4861 0d94 BA000000 		.4byte	0xba
 4862 0d98 88030000 		.4byte	.LLST15
 4863 0d9c 1A       		.uleb128 0x1a
 4864 0d9d 5A050000 		.4byte	.LASF289
 4865 0da1 01       		.byte	0x1
 4866 0da2 A802     		.2byte	0x2a8
 4867 0da4 DD000000 		.4byte	0xdd
 4868 0da8 0A040000 		.4byte	.LLST16
 4869 0dac 15       		.uleb128 0x15
 4870 0dad 4C000000 		.4byte	.LVL48
 4871 0db1 931F0000 		.4byte	0x1f93
 4872 0db5 16       		.uleb128 0x16
 4873 0db6 5E000000 		.4byte	.LVL52
 4874 0dba FF1F0000 		.4byte	0x1fff
 4875 0dbe D50D0000 		.4byte	0xdd5
 4876 0dc2 17       		.uleb128 0x17
 4877 0dc3 01       		.uleb128 0x1
 4878 0dc4 51       		.byte	0x51
 4879 0dc5 02       		.uleb128 0x2
 4880 0dc6 78       		.byte	0x78
 4881 0dc7 00       		.sleb128 0
 4882 0dc8 17       		.uleb128 0x17
 4883 0dc9 01       		.uleb128 0x1
 4884 0dca 52       		.byte	0x52
 4885 0dcb 02       		.uleb128 0x2
 4886 0dcc 75       		.byte	0x75
 4887 0dcd 00       		.sleb128 0
 4888 0dce 17       		.uleb128 0x17
 4889 0dcf 01       		.uleb128 0x1
 4890 0dd0 53       		.byte	0x53
ARM GAS  C:\Users\jorti\AppData\Local\Temp\ccDtGf1z.s 			page 134


 4891 0dd1 02       		.uleb128 0x2
 4892 0dd2 77       		.byte	0x77
 4893 0dd3 00       		.sleb128 0
 4894 0dd4 00       		.byte	0
 4895 0dd5 15       		.uleb128 0x15
 4896 0dd6 6E000000 		.4byte	.LVL54
 4897 0dda 0B200000 		.4byte	0x200b
 4898 0dde 16       		.uleb128 0x16
 4899 0ddf 86000000 		.4byte	.LVL55
 4900 0de3 9F1F0000 		.4byte	0x1f9f
 4901 0de7 F20D0000 		.4byte	0xdf2
 4902 0deb 17       		.uleb128 0x17
 4903 0dec 01       		.uleb128 0x1
 4904 0ded 50       		.byte	0x50
 4905 0dee 02       		.uleb128 0x2
 4906 0def 7A       		.byte	0x7a
 4907 0df0 00       		.sleb128 0
 4908 0df1 00       		.byte	0
 4909 0df2 16       		.uleb128 0x16
 4910 0df3 9E000000 		.4byte	.LVL58
 4911 0df7 9F1F0000 		.4byte	0x1f9f
 4912 0dfb 060E0000 		.4byte	0xe06
 4913 0dff 17       		.uleb128 0x17
 4914 0e00 01       		.uleb128 0x1
 4915 0e01 50       		.byte	0x50
 4916 0e02 02       		.uleb128 0x2
 4917 0e03 7A       		.byte	0x7a
 4918 0e04 00       		.sleb128 0
 4919 0e05 00       		.byte	0
 4920 0e06 16       		.uleb128 0x16
 4921 0e07 B0000000 		.4byte	.LVL61
 4922 0e0b 9F1F0000 		.4byte	0x1f9f
 4923 0e0f 1A0E0000 		.4byte	0xe1a
 4924 0e13 17       		.uleb128 0x17
 4925 0e14 01       		.uleb128 0x1
 4926 0e15 50       		.byte	0x50
 4927 0e16 02       		.uleb128 0x2
 4928 0e17 7A       		.byte	0x7a
 4929 0e18 00       		.sleb128 0
 4930 0e19 00       		.byte	0
 4931 0e1a 16       		.uleb128 0x16
 4932 0e1b C8000000 		.4byte	.LVL64
 4933 0e1f 17200000 		.4byte	0x2017
 4934 0e23 3D0E0000 		.4byte	0xe3d
 4935 0e27 17       		.uleb128 0x17
 4936 0e28 01       		.uleb128 0x1
 4937 0e29 50       		.byte	0x50
 4938 0e2a 01       		.uleb128 0x1
 4939 0e2b 30       		.byte	0x30
 4940 0e2c 17       		.uleb128 0x17
 4941 0e2d 01       		.uleb128 0x1
 4942 0e2e 51       		.byte	0x51
 4943 0e2f 01       		.uleb128 0x1
 4944 0e30 30       		.byte	0x30
 4945 0e31 17       		.uleb128 0x17
 4946 0e32 01       		.uleb128 0x1
 4947 0e33 52       		.byte	0x52
ARM GAS  C:\Users\jorti\AppData\Local\Temp\ccDtGf1z.s 			page 135


 4948 0e34 01       		.uleb128 0x1
 4949 0e35 32       		.byte	0x32
 4950 0e36 17       		.uleb128 0x17
 4951 0e37 01       		.uleb128 0x1
 4952 0e38 53       		.byte	0x53
 4953 0e39 02       		.uleb128 0x2
 4954 0e3a 79       		.byte	0x79
 4955 0e3b 00       		.sleb128 0
 4956 0e3c 00       		.byte	0
 4957 0e3d 16       		.uleb128 0x16
 4958 0e3e CE000000 		.4byte	.LVL65
 4959 0e42 9F1F0000 		.4byte	0x1f9f
 4960 0e46 510E0000 		.4byte	0xe51
 4961 0e4a 17       		.uleb128 0x17
 4962 0e4b 01       		.uleb128 0x1
 4963 0e4c 50       		.byte	0x50
 4964 0e4d 02       		.uleb128 0x2
 4965 0e4e 7A       		.byte	0x7a
 4966 0e4f 00       		.sleb128 0
 4967 0e50 00       		.byte	0
 4968 0e51 15       		.uleb128 0x15
 4969 0e52 D2000000 		.4byte	.LVL66
 4970 0e56 E71F0000 		.4byte	0x1fe7
 4971 0e5a 15       		.uleb128 0x15
 4972 0e5b D6000000 		.4byte	.LVL67
 4973 0e5f 931F0000 		.4byte	0x1f93
 4974 0e63 15       		.uleb128 0x15
 4975 0e64 04010000 		.4byte	.LVL71
 4976 0e68 0B200000 		.4byte	0x200b
 4977 0e6c 1B       		.uleb128 0x1b
 4978 0e6d 4E010000 		.4byte	.LVL75
 4979 0e71 9F1F0000 		.4byte	0x1f9f
 4980 0e75 17       		.uleb128 0x17
 4981 0e76 01       		.uleb128 0x1
 4982 0e77 50       		.byte	0x50
 4983 0e78 02       		.uleb128 0x2
 4984 0e79 76       		.byte	0x76
 4985 0e7a 00       		.sleb128 0
 4986 0e7b 00       		.byte	0
 4987 0e7c 00       		.byte	0
 4988 0e7d 05       		.uleb128 0x5
 4989 0e7e 04       		.byte	0x4
 4990 0e7f 52010000 		.4byte	0x152
 4991 0e83 05       		.uleb128 0x5
 4992 0e84 04       		.byte	0x4
 4993 0e85 10010000 		.4byte	0x110
 4994 0e89 05       		.uleb128 0x5
 4995 0e8a 04       		.byte	0x4
 4996 0e8b A8060000 		.4byte	0x6a8
 4997 0e8f 18       		.uleb128 0x18
 4998 0e90 0A120000 		.4byte	.LASF298
 4999 0e94 01       		.byte	0x1
 5000 0e95 3C03     		.2byte	0x33c
 5001 0e97 37000000 		.4byte	0x37
 5002 0e9b 00000000 		.4byte	.LFB6
 5003 0e9f 90000000 		.4byte	.LFE6-.LFB6
 5004 0ea3 01       		.uleb128 0x1
ARM GAS  C:\Users\jorti\AppData\Local\Temp\ccDtGf1z.s 			page 136


 5005 0ea4 9C       		.byte	0x9c
 5006 0ea5 5E0F0000 		.4byte	0xf5e
 5007 0ea9 19       		.uleb128 0x19
 5008 0eaa 5C0B0000 		.4byte	.LASF285
 5009 0eae 01       		.byte	0x1
 5010 0eaf 3C03     		.2byte	0x33c
 5011 0eb1 2B0B0000 		.4byte	0xb2b
 5012 0eb5 60040000 		.4byte	.LLST17
 5013 0eb9 1C       		.uleb128 0x1c
 5014 0eba 6F707400 		.ascii	"opt\000"
 5015 0ebe 01       		.byte	0x1
 5016 0ebf 3D03     		.2byte	0x33d
 5017 0ec1 7E010000 		.4byte	0x17e
 5018 0ec5 8C040000 		.4byte	.LLST18
 5019 0ec9 19       		.uleb128 0x19
 5020 0eca 17090000 		.4byte	.LASF287
 5021 0ece 01       		.byte	0x1
 5022 0ecf 3E03     		.2byte	0x33e
 5023 0ed1 710C0000 		.4byte	0xc71
 5024 0ed5 AD040000 		.4byte	.LLST19
 5025 0ed9 1D       		.uleb128 0x1d
 5026 0eda 747300   		.ascii	"ts\000"
 5027 0edd 01       		.byte	0x1
 5028 0ede 4003     		.2byte	0x340
 5029 0ee0 10010000 		.4byte	0x110
 5030 0ee4 D9040000 		.4byte	.LLST20
 5031 0ee8 1A       		.uleb128 0x1a
 5032 0ee9 5A050000 		.4byte	.LASF289
 5033 0eed 01       		.byte	0x1
 5034 0eee 4103     		.2byte	0x341
 5035 0ef0 DD000000 		.4byte	0xdd
 5036 0ef4 F7040000 		.4byte	.LLST21
 5037 0ef8 15       		.uleb128 0x15
 5038 0ef9 2E000000 		.4byte	.LVL79
 5039 0efd 931F0000 		.4byte	0x1f93
 5040 0f01 16       		.uleb128 0x16
 5041 0f02 40000000 		.4byte	.LVL82
 5042 0f06 9F1F0000 		.4byte	0x1f9f
 5043 0f0a 150F0000 		.4byte	0xf15
 5044 0f0e 17       		.uleb128 0x17
 5045 0f0f 01       		.uleb128 0x1
 5046 0f10 50       		.byte	0x50
 5047 0f11 02       		.uleb128 0x2
 5048 0f12 78       		.byte	0x78
 5049 0f13 00       		.sleb128 0
 5050 0f14 00       		.byte	0
 5051 0f15 15       		.uleb128 0x15
 5052 0f16 54000000 		.4byte	.LVL84
 5053 0f1a 9F1F0000 		.4byte	0x1f9f
 5054 0f1e 15       		.uleb128 0x15
 5055 0f1f 60000000 		.4byte	.LVL86
 5056 0f23 0B200000 		.4byte	0x200b
 5057 0f27 16       		.uleb128 0x16
 5058 0f28 6A000000 		.4byte	.LVL88
 5059 0f2c 23200000 		.4byte	0x2023
 5060 0f30 400F0000 		.4byte	0xf40
 5061 0f34 17       		.uleb128 0x17
ARM GAS  C:\Users\jorti\AppData\Local\Temp\ccDtGf1z.s 			page 137


 5062 0f35 01       		.uleb128 0x1
 5063 0f36 50       		.byte	0x50
 5064 0f37 01       		.uleb128 0x1
 5065 0f38 30       		.byte	0x30
 5066 0f39 17       		.uleb128 0x17
 5067 0f3a 01       		.uleb128 0x1
 5068 0f3b 51       		.byte	0x51
 5069 0f3c 02       		.uleb128 0x2
 5070 0f3d 76       		.byte	0x76
 5071 0f3e 00       		.sleb128 0
 5072 0f3f 00       		.byte	0
 5073 0f40 16       		.uleb128 0x16
 5074 0f41 70000000 		.4byte	.LVL89
 5075 0f45 9F1F0000 		.4byte	0x1f9f
 5076 0f49 540F0000 		.4byte	0xf54
 5077 0f4d 17       		.uleb128 0x17
 5078 0f4e 01       		.uleb128 0x1
 5079 0f4f 50       		.byte	0x50
 5080 0f50 02       		.uleb128 0x2
 5081 0f51 78       		.byte	0x78
 5082 0f52 00       		.sleb128 0
 5083 0f53 00       		.byte	0
 5084 0f54 15       		.uleb128 0x15
 5085 0f55 7A000000 		.4byte	.LVL90
 5086 0f59 E71F0000 		.4byte	0x1fe7
 5087 0f5d 00       		.byte	0
 5088 0f5e 18       		.uleb128 0x18
 5089 0f5f BC0A0000 		.4byte	.LASF299
 5090 0f63 01       		.byte	0x1
 5091 0f64 F303     		.2byte	0x3f3
 5092 0f66 94010000 		.4byte	0x194
 5093 0f6a 00000000 		.4byte	.LFB8
 5094 0f6e 38000000 		.4byte	.LFE8-.LFB8
 5095 0f72 01       		.uleb128 0x1
 5096 0f73 9C       		.byte	0x9c
 5097 0f74 DA0F0000 		.4byte	0xfda
 5098 0f78 19       		.uleb128 0x19
 5099 0f79 5C0B0000 		.4byte	.LASF285
 5100 0f7d 01       		.byte	0x1
 5101 0f7e F303     		.2byte	0x3f3
 5102 0f80 2B0B0000 		.4byte	0xb2b
 5103 0f84 4D050000 		.4byte	.LLST22
 5104 0f88 1C       		.uleb128 0x1c
 5105 0f89 696400   		.ascii	"id\000"
 5106 0f8c 01       		.byte	0x1
 5107 0f8d F403     		.2byte	0x3f4
 5108 0f8f 9F010000 		.4byte	0x19f
 5109 0f93 84050000 		.4byte	.LLST23
 5110 0f97 19       		.uleb128 0x19
 5111 0f98 17090000 		.4byte	.LASF287
 5112 0f9c 01       		.byte	0x1
 5113 0f9d F503     		.2byte	0x3f5
 5114 0f9f 710C0000 		.4byte	0xc71
 5115 0fa3 A5050000 		.4byte	.LLST24
 5116 0fa7 1A       		.uleb128 0x1a
 5117 0fa8 A1060000 		.4byte	.LASF300
 5118 0fac 01       		.byte	0x1
ARM GAS  C:\Users\jorti\AppData\Local\Temp\ccDtGf1z.s 			page 138


 5119 0fad F703     		.2byte	0x3f7
 5120 0faf 94010000 		.4byte	0x194
 5121 0fb3 D1050000 		.4byte	.LLST25
 5122 0fb7 1A       		.uleb128 0x1a
 5123 0fb8 5A050000 		.4byte	.LASF289
 5124 0fbc 01       		.byte	0x1
 5125 0fbd F803     		.2byte	0x3f8
 5126 0fbf DD000000 		.4byte	0xdd
 5127 0fc3 EF050000 		.4byte	.LLST26
 5128 0fc7 15       		.uleb128 0x15
 5129 0fc8 18000000 		.4byte	.LVL96
 5130 0fcc 931F0000 		.4byte	0x1f93
 5131 0fd0 15       		.uleb128 0x15
 5132 0fd1 2A000000 		.4byte	.LVL100
 5133 0fd5 9F1F0000 		.4byte	0x1f9f
 5134 0fd9 00       		.byte	0
 5135 0fda 18       		.uleb128 0x18
 5136 0fdb 5C0A0000 		.4byte	.LASF301
 5137 0fdf 01       		.byte	0x1
 5138 0fe0 2804     		.2byte	0x428
 5139 0fe2 9F010000 		.4byte	0x19f
 5140 0fe6 00000000 		.4byte	.LFB9
 5141 0fea 34000000 		.4byte	.LFE9-.LFB9
 5142 0fee 01       		.uleb128 0x1
 5143 0fef 9C       		.byte	0x9c
 5144 0ff0 3F100000 		.4byte	0x103f
 5145 0ff4 19       		.uleb128 0x19
 5146 0ff5 17090000 		.4byte	.LASF287
 5147 0ff9 01       		.byte	0x1
 5148 0ffa 2804     		.2byte	0x428
 5149 0ffc 710C0000 		.4byte	0xc71
 5150 1000 0E060000 		.4byte	.LLST27
 5151 1004 1D       		.uleb128 0x1d
 5152 1005 696400   		.ascii	"id\000"
 5153 1008 01       		.byte	0x1
 5154 1009 2A04     		.2byte	0x42a
 5155 100b 9F010000 		.4byte	0x19f
 5156 100f 3A060000 		.4byte	.LLST28
 5157 1013 1A       		.uleb128 0x1a
 5158 1014 5A050000 		.4byte	.LASF289
 5159 1018 01       		.byte	0x1
 5160 1019 2B04     		.2byte	0x42b
 5161 101b DD000000 		.4byte	0xdd
 5162 101f 4D060000 		.4byte	.LLST29
 5163 1023 15       		.uleb128 0x15
 5164 1024 08000000 		.4byte	.LVL104
 5165 1028 931F0000 		.4byte	0x1f93
 5166 102c 15       		.uleb128 0x15
 5167 102d 18000000 		.4byte	.LVL105
 5168 1031 9F1F0000 		.4byte	0x1f9f
 5169 1035 15       		.uleb128 0x15
 5170 1036 26000000 		.4byte	.LVL107
 5171 103a 9F1F0000 		.4byte	0x1f9f
 5172 103e 00       		.byte	0
 5173 103f 1E       		.uleb128 0x1e
 5174 1040 EB040000 		.4byte	.LASF303
 5175 1044 01       		.byte	0x1
ARM GAS  C:\Users\jorti\AppData\Local\Temp\ccDtGf1z.s 			page 139


 5176 1045 6004     		.2byte	0x460
 5177 1047 00000000 		.4byte	.LFB10
 5178 104b 34000000 		.4byte	.LFE10-.LFB10
 5179 104f 01       		.uleb128 0x1
 5180 1050 9C       		.byte	0x9c
 5181 1051 B7100000 		.4byte	0x10b7
 5182 1055 19       		.uleb128 0x19
 5183 1056 5C0B0000 		.4byte	.LASF285
 5184 105a 01       		.byte	0x1
 5185 105b 6004     		.2byte	0x460
 5186 105d 2B0B0000 		.4byte	0xb2b
 5187 1061 77060000 		.4byte	.LLST30
 5188 1065 1C       		.uleb128 0x1c
 5189 1066 696400   		.ascii	"id\000"
 5190 1069 01       		.byte	0x1
 5191 106a 6104     		.2byte	0x461
 5192 106c 9F010000 		.4byte	0x19f
 5193 1070 95060000 		.4byte	.LLST31
 5194 1074 19       		.uleb128 0x19
 5195 1075 A1060000 		.4byte	.LASF300
 5196 1079 01       		.byte	0x1
 5197 107a 6204     		.2byte	0x462
 5198 107c 94010000 		.4byte	0x194
 5199 1080 B6060000 		.4byte	.LLST32
 5200 1084 19       		.uleb128 0x19
 5201 1085 17090000 		.4byte	.LASF287
 5202 1089 01       		.byte	0x1
 5203 108a 6304     		.2byte	0x463
 5204 108c 710C0000 		.4byte	0xc71
 5205 1090 E2060000 		.4byte	.LLST33
 5206 1094 1A       		.uleb128 0x1a
 5207 1095 5A050000 		.4byte	.LASF289
 5208 1099 01       		.byte	0x1
 5209 109a 6504     		.2byte	0x465
 5210 109c DD000000 		.4byte	0xdd
 5211 10a0 24070000 		.4byte	.LLST34
 5212 10a4 15       		.uleb128 0x15
 5213 10a5 18000000 		.4byte	.LVL114
 5214 10a9 931F0000 		.4byte	0x1f93
 5215 10ad 15       		.uleb128 0x15
 5216 10ae 2A000000 		.4byte	.LVL117
 5217 10b2 9F1F0000 		.4byte	0x1f9f
 5218 10b6 00       		.byte	0
 5219 10b7 18       		.uleb128 0x18
 5220 10b8 E2110000 		.4byte	.LASF304
 5221 10bc 01       		.byte	0x1
 5222 10bd EE04     		.2byte	0x4ee
 5223 10bf AA010000 		.4byte	0x1aa
 5224 10c3 00000000 		.4byte	.LFB12
 5225 10c7 30010000 		.4byte	.LFE12-.LFB12
 5226 10cb 01       		.uleb128 0x1
 5227 10cc 9C       		.byte	0x9c
 5228 10cd CC110000 		.4byte	0x11cc
 5229 10d1 19       		.uleb128 0x19
 5230 10d2 EC120000 		.4byte	.LASF293
 5231 10d6 01       		.byte	0x1
 5232 10d7 EE04     		.2byte	0x4ee
ARM GAS  C:\Users\jorti\AppData\Local\Temp\ccDtGf1z.s 			page 140


 5233 10d9 CB010000 		.4byte	0x1cb
 5234 10dd 43070000 		.4byte	.LLST35
 5235 10e1 1C       		.uleb128 0x1c
 5236 10e2 6F707400 		.ascii	"opt\000"
 5237 10e6 01       		.byte	0x1
 5238 10e7 EF04     		.2byte	0x4ef
 5239 10e9 7E010000 		.4byte	0x17e
 5240 10ed 6F070000 		.4byte	.LLST36
 5241 10f1 19       		.uleb128 0x19
 5242 10f2 680D0000 		.4byte	.LASF295
 5243 10f6 01       		.byte	0x1
 5244 10f7 F004     		.2byte	0x4f0
 5245 10f9 830E0000 		.4byte	0xe83
 5246 10fd 90070000 		.4byte	.LLST37
 5247 1101 19       		.uleb128 0x19
 5248 1102 17090000 		.4byte	.LASF287
 5249 1106 01       		.byte	0x1
 5250 1107 F104     		.2byte	0x4f1
 5251 1109 710C0000 		.4byte	0xc71
 5252 110d EE070000 		.4byte	.LLST38
 5253 1111 1D       		.uleb128 0x1d
 5254 1112 63747200 		.ascii	"ctr\000"
 5255 1116 01       		.byte	0x1
 5256 1117 F304     		.2byte	0x4f3
 5257 1119 AA010000 		.4byte	0x1aa
 5258 111d 1A080000 		.4byte	.LLST39
 5259 1121 1A       		.uleb128 0x1a
 5260 1122 5A050000 		.4byte	.LASF289
 5261 1126 01       		.byte	0x1
 5262 1127 F404     		.2byte	0x4f4
 5263 1129 DD000000 		.4byte	0xdd
 5264 112d 38080000 		.4byte	.LLST40
 5265 1131 15       		.uleb128 0x15
 5266 1132 38000000 		.4byte	.LVL125
 5267 1136 931F0000 		.4byte	0x1f93
 5268 113a 15       		.uleb128 0x15
 5269 113b 50000000 		.4byte	.LVL128
 5270 113f 0B200000 		.4byte	0x200b
 5271 1143 16       		.uleb128 0x16
 5272 1144 6E000000 		.4byte	.LVL129
 5273 1148 9F1F0000 		.4byte	0x1f9f
 5274 114c 57110000 		.4byte	0x1157
 5275 1150 17       		.uleb128 0x17
 5276 1151 01       		.uleb128 0x1
 5277 1152 50       		.byte	0x50
 5278 1153 02       		.uleb128 0x2
 5279 1154 79       		.byte	0x79
 5280 1155 00       		.sleb128 0
 5281 1156 00       		.byte	0
 5282 1157 15       		.uleb128 0x15
 5283 1158 7E000000 		.4byte	.LVL131
 5284 115c 9F1F0000 		.4byte	0x1f9f
 5285 1160 15       		.uleb128 0x15
 5286 1161 90000000 		.4byte	.LVL133
 5287 1165 9F1F0000 		.4byte	0x1f9f
 5288 1169 16       		.uleb128 0x16
 5289 116a A4000000 		.4byte	.LVL136
ARM GAS  C:\Users\jorti\AppData\Local\Temp\ccDtGf1z.s 			page 141


 5290 116e 17200000 		.4byte	0x2017
 5291 1172 8C110000 		.4byte	0x118c
 5292 1176 17       		.uleb128 0x17
 5293 1177 01       		.uleb128 0x1
 5294 1178 50       		.byte	0x50
 5295 1179 01       		.uleb128 0x1
 5296 117a 30       		.byte	0x30
 5297 117b 17       		.uleb128 0x17
 5298 117c 01       		.uleb128 0x1
 5299 117d 51       		.byte	0x51
 5300 117e 01       		.uleb128 0x1
 5301 117f 30       		.byte	0x30
 5302 1180 17       		.uleb128 0x17
 5303 1181 01       		.uleb128 0x1
 5304 1182 52       		.byte	0x52
 5305 1183 01       		.uleb128 0x1
 5306 1184 37       		.byte	0x37
 5307 1185 17       		.uleb128 0x17
 5308 1186 01       		.uleb128 0x1
 5309 1187 53       		.byte	0x53
 5310 1188 02       		.uleb128 0x2
 5311 1189 78       		.byte	0x78
 5312 118a 00       		.sleb128 0
 5313 118b 00       		.byte	0
 5314 118c 16       		.uleb128 0x16
 5315 118d AA000000 		.4byte	.LVL137
 5316 1191 9F1F0000 		.4byte	0x1f9f
 5317 1195 A0110000 		.4byte	0x11a0
 5318 1199 17       		.uleb128 0x17
 5319 119a 01       		.uleb128 0x1
 5320 119b 50       		.byte	0x50
 5321 119c 02       		.uleb128 0x2
 5322 119d 79       		.byte	0x79
 5323 119e 00       		.sleb128 0
 5324 119f 00       		.byte	0
 5325 11a0 15       		.uleb128 0x15
 5326 11a1 AE000000 		.4byte	.LVL138
 5327 11a5 E71F0000 		.4byte	0x1fe7
 5328 11a9 15       		.uleb128 0x15
 5329 11aa B2000000 		.4byte	.LVL139
 5330 11ae 931F0000 		.4byte	0x1f93
 5331 11b2 15       		.uleb128 0x15
 5332 11b3 D2000000 		.4byte	.LVL141
 5333 11b7 0B200000 		.4byte	0x200b
 5334 11bb 1B       		.uleb128 0x1b
 5335 11bc 1E010000 		.4byte	.LVL145
 5336 11c0 9F1F0000 		.4byte	0x1f9f
 5337 11c4 17       		.uleb128 0x17
 5338 11c5 01       		.uleb128 0x1
 5339 11c6 50       		.byte	0x50
 5340 11c7 02       		.uleb128 0x2
 5341 11c8 75       		.byte	0x75
 5342 11c9 00       		.sleb128 0
 5343 11ca 00       		.byte	0
 5344 11cb 00       		.byte	0
 5345 11cc 18       		.uleb128 0x18
 5346 11cd 450F0000 		.4byte	.LASF305
ARM GAS  C:\Users\jorti\AppData\Local\Temp\ccDtGf1z.s 			page 142


 5347 11d1 01       		.byte	0x1
 5348 11d2 8105     		.2byte	0x581
 5349 11d4 37000000 		.4byte	0x37
 5350 11d8 00000000 		.4byte	.LFB13
 5351 11dc 90000000 		.4byte	.LFE13-.LFB13
 5352 11e0 01       		.uleb128 0x1
 5353 11e1 9C       		.byte	0x9c
 5354 11e2 A2120000 		.4byte	0x12a2
 5355 11e6 19       		.uleb128 0x19
 5356 11e7 5C0B0000 		.4byte	.LASF285
 5357 11eb 01       		.byte	0x1
 5358 11ec 8105     		.2byte	0x581
 5359 11ee 2B0B0000 		.4byte	0xb2b
 5360 11f2 D0080000 		.4byte	.LLST41
 5361 11f6 1C       		.uleb128 0x1c
 5362 11f7 6F707400 		.ascii	"opt\000"
 5363 11fb 01       		.byte	0x1
 5364 11fc 8205     		.2byte	0x582
 5365 11fe 7E010000 		.4byte	0x17e
 5366 1202 FC080000 		.4byte	.LLST42
 5367 1206 19       		.uleb128 0x19
 5368 1207 17090000 		.4byte	.LASF287
 5369 120b 01       		.byte	0x1
 5370 120c 8305     		.2byte	0x583
 5371 120e 710C0000 		.4byte	0xc71
 5372 1212 1D090000 		.4byte	.LLST43
 5373 1216 1D       		.uleb128 0x1d
 5374 1217 747300   		.ascii	"ts\000"
 5375 121a 01       		.byte	0x1
 5376 121b 8505     		.2byte	0x585
 5377 121d 10010000 		.4byte	0x110
 5378 1221 49090000 		.4byte	.LLST44
 5379 1225 1A       		.uleb128 0x1a
 5380 1226 5A050000 		.4byte	.LASF289
 5381 122a 01       		.byte	0x1
 5382 122b 8605     		.2byte	0x586
 5383 122d DD000000 		.4byte	0xdd
 5384 1231 67090000 		.4byte	.LLST45
 5385 1235 15       		.uleb128 0x15
 5386 1236 2C000000 		.4byte	.LVL148
 5387 123a 931F0000 		.4byte	0x1f93
 5388 123e 15       		.uleb128 0x15
 5389 123f 3A000000 		.4byte	.LVL149
 5390 1243 9F1F0000 		.4byte	0x1f9f
 5391 1247 15       		.uleb128 0x15
 5392 1248 4E000000 		.4byte	.LVL151
 5393 124c 9F1F0000 		.4byte	0x1f9f
 5394 1250 15       		.uleb128 0x15
 5395 1251 5A000000 		.4byte	.LVL153
 5396 1255 9F1F0000 		.4byte	0x1f9f
 5397 1259 15       		.uleb128 0x15
 5398 125a 5E000000 		.4byte	.LVL154
 5399 125e 931F0000 		.4byte	0x1f93
 5400 1262 15       		.uleb128 0x15
 5401 1263 64000000 		.4byte	.LVL156
 5402 1267 0B200000 		.4byte	0x200b
 5403 126b 16       		.uleb128 0x16
ARM GAS  C:\Users\jorti\AppData\Local\Temp\ccDtGf1z.s 			page 143


 5404 126c 6E000000 		.4byte	.LVL158
 5405 1270 23200000 		.4byte	0x2023
 5406 1274 84120000 		.4byte	0x1284
 5407 1278 17       		.uleb128 0x17
 5408 1279 01       		.uleb128 0x1
 5409 127a 50       		.byte	0x50
 5410 127b 01       		.uleb128 0x1
 5411 127c 30       		.byte	0x30
 5412 127d 17       		.uleb128 0x17
 5413 127e 01       		.uleb128 0x1
 5414 127f 51       		.byte	0x51
 5415 1280 02       		.uleb128 0x2
 5416 1281 77       		.byte	0x77
 5417 1282 00       		.sleb128 0
 5418 1283 00       		.byte	0
 5419 1284 16       		.uleb128 0x16
 5420 1285 74000000 		.4byte	.LVL159
 5421 1289 9F1F0000 		.4byte	0x1f9f
 5422 128d 98120000 		.4byte	0x1298
 5423 1291 17       		.uleb128 0x17
 5424 1292 01       		.uleb128 0x1
 5425 1293 50       		.byte	0x50
 5426 1294 02       		.uleb128 0x2
 5427 1295 74       		.byte	0x74
 5428 1296 00       		.sleb128 0
 5429 1297 00       		.byte	0
 5430 1298 15       		.uleb128 0x15
 5431 1299 7E000000 		.4byte	.LVL160
 5432 129d E71F0000 		.4byte	0x1fe7
 5433 12a1 00       		.byte	0
 5434 12a2 18       		.uleb128 0x18
 5435 12a3 9A070000 		.4byte	.LASF306
 5436 12a7 01       		.byte	0x1
 5437 12a8 2206     		.2byte	0x622
 5438 12aa AA010000 		.4byte	0x1aa
 5439 12ae 00000000 		.4byte	.LFB15
 5440 12b2 3C000000 		.4byte	.LFE15-.LFB15
 5441 12b6 01       		.uleb128 0x1
 5442 12b7 9C       		.byte	0x9c
 5443 12b8 1F130000 		.4byte	0x131f
 5444 12bc 19       		.uleb128 0x19
 5445 12bd 5C0B0000 		.4byte	.LASF285
 5446 12c1 01       		.byte	0x1
 5447 12c2 2206     		.2byte	0x622
 5448 12c4 2B0B0000 		.4byte	0xb2b
 5449 12c8 B2090000 		.4byte	.LLST46
 5450 12cc 1C       		.uleb128 0x1c
 5451 12cd 636E7400 		.ascii	"cnt\000"
 5452 12d1 01       		.byte	0x1
 5453 12d2 2306     		.2byte	0x623
 5454 12d4 AA010000 		.4byte	0x1aa
 5455 12d8 E9090000 		.4byte	.LLST47
 5456 12dc 19       		.uleb128 0x19
 5457 12dd 17090000 		.4byte	.LASF287
 5458 12e1 01       		.byte	0x1
 5459 12e2 2406     		.2byte	0x624
 5460 12e4 710C0000 		.4byte	0xc71
ARM GAS  C:\Users\jorti\AppData\Local\Temp\ccDtGf1z.s 			page 144


 5461 12e8 150A0000 		.4byte	.LLST48
 5462 12ec 1D       		.uleb128 0x1d
 5463 12ed 63747200 		.ascii	"ctr\000"
 5464 12f1 01       		.byte	0x1
 5465 12f2 2606     		.2byte	0x626
 5466 12f4 AA010000 		.4byte	0x1aa
 5467 12f8 410A0000 		.4byte	.LLST49
 5468 12fc 1A       		.uleb128 0x1a
 5469 12fd 5A050000 		.4byte	.LASF289
 5470 1301 01       		.byte	0x1
 5471 1302 2706     		.2byte	0x627
 5472 1304 DD000000 		.4byte	0xdd
 5473 1308 5F0A0000 		.4byte	.LLST50
 5474 130c 15       		.uleb128 0x15
 5475 130d 1C000000 		.4byte	.LVL166
 5476 1311 931F0000 		.4byte	0x1f93
 5477 1315 15       		.uleb128 0x15
 5478 1316 2A000000 		.4byte	.LVL169
 5479 131a 9F1F0000 		.4byte	0x1f9f
 5480 131e 00       		.byte	0
 5481 131f 1E       		.uleb128 0x1e
 5482 1320 51110000 		.4byte	.LASF307
 5483 1324 01       		.byte	0x1
 5484 1325 5E06     		.2byte	0x65e
 5485 1327 00000000 		.4byte	.LFB16
 5486 132b 90000000 		.4byte	.LFE16-.LFB16
 5487 132f 01       		.uleb128 0x1
 5488 1330 9C       		.byte	0x9c
 5489 1331 CA130000 		.4byte	0x13ca
 5490 1335 19       		.uleb128 0x19
 5491 1336 5C0B0000 		.4byte	.LASF285
 5492 133a 01       		.byte	0x1
 5493 133b 5E06     		.2byte	0x65e
 5494 133d 2B0B0000 		.4byte	0xb2b
 5495 1341 7E0A0000 		.4byte	.LLST51
 5496 1345 19       		.uleb128 0x19
 5497 1346 43080000 		.4byte	.LASF308
 5498 134a 01       		.byte	0x1
 5499 134b 5F06     		.2byte	0x65f
 5500 134d CA130000 		.4byte	0x13ca
 5501 1351 9C0A0000 		.4byte	.LLST52
 5502 1355 19       		.uleb128 0x19
 5503 1356 3D030000 		.4byte	.LASF309
 5504 135a 01       		.byte	0x1
 5505 135b 6006     		.2byte	0x660
 5506 135d CA130000 		.4byte	0x13ca
 5507 1361 C80A0000 		.4byte	.LLST53
 5508 1365 19       		.uleb128 0x19
 5509 1366 17090000 		.4byte	.LASF287
 5510 136a 01       		.byte	0x1
 5511 136b 6106     		.2byte	0x661
 5512 136d 710C0000 		.4byte	0xc71
 5513 1371 F40A0000 		.4byte	.LLST54
 5514 1375 1A       		.uleb128 0x1a
 5515 1376 3A120000 		.4byte	.LASF310
 5516 137a 01       		.byte	0x1
 5517 137b 6306     		.2byte	0x663
ARM GAS  C:\Users\jorti\AppData\Local\Temp\ccDtGf1z.s 			page 145


 5518 137d D2000000 		.4byte	0xd2
 5519 1381 200B0000 		.4byte	.LLST55
 5520 1385 1A       		.uleb128 0x1a
 5521 1386 BB080000 		.4byte	.LASF311
 5522 138a 01       		.byte	0x1
 5523 138b 6406     		.2byte	0x664
 5524 138d 490B0000 		.4byte	0xb49
 5525 1391 4B0B0000 		.4byte	.LLST56
 5526 1395 1A       		.uleb128 0x1a
 5527 1396 5A050000 		.4byte	.LASF289
 5528 139a 01       		.byte	0x1
 5529 139b 6506     		.2byte	0x665
 5530 139d DD000000 		.4byte	0xdd
 5531 13a1 5E0B0000 		.4byte	.LLST57
 5532 13a5 15       		.uleb128 0x15
 5533 13a6 30000000 		.4byte	.LVL177
 5534 13aa 931F0000 		.4byte	0x1f93
 5535 13ae 15       		.uleb128 0x15
 5536 13af 3E000000 		.4byte	.LVL179
 5537 13b3 9F1F0000 		.4byte	0x1f9f
 5538 13b7 15       		.uleb128 0x15
 5539 13b8 58000000 		.4byte	.LVL181
 5540 13bc 9F1F0000 		.4byte	0x1f9f
 5541 13c0 15       		.uleb128 0x15
 5542 13c1 6A000000 		.4byte	.LVL183
 5543 13c5 9F1F0000 		.4byte	0x1f9f
 5544 13c9 00       		.byte	0
 5545 13ca 05       		.uleb128 0x5
 5546 13cb 04       		.byte	0x4
 5547 13cc D2000000 		.4byte	0xd2
 5548 13d0 1E       		.uleb128 0x1e
 5549 13d1 BD160000 		.4byte	.LASF312
 5550 13d5 01       		.byte	0x1
 5551 13d6 0E07     		.2byte	0x70e
 5552 13d8 00000000 		.4byte	.LFB18
 5553 13dc 4C000000 		.4byte	.LFE18-.LFB18
 5554 13e0 01       		.uleb128 0x1
 5555 13e1 9C       		.byte	0x9c
 5556 13e2 39140000 		.4byte	0x1439
 5557 13e6 19       		.uleb128 0x19
 5558 13e7 5C0B0000 		.4byte	.LASF285
 5559 13eb 01       		.byte	0x1
 5560 13ec 0E07     		.2byte	0x70e
 5561 13ee 2B0B0000 		.4byte	0xb2b
 5562 13f2 930B0000 		.4byte	.LLST58
 5563 13f6 19       		.uleb128 0x19
 5564 13f7 250A0000 		.4byte	.LASF313
 5565 13fb 01       		.byte	0x1
 5566 13fc 0F07     		.2byte	0x70f
 5567 13fe CB010000 		.4byte	0x1cb
 5568 1402 B10B0000 		.4byte	.LLST59
 5569 1406 19       		.uleb128 0x19
 5570 1407 17090000 		.4byte	.LASF287
 5571 140b 01       		.byte	0x1
 5572 140c 1007     		.2byte	0x710
 5573 140e 710C0000 		.4byte	0xc71
 5574 1412 DD0B0000 		.4byte	.LLST60
ARM GAS  C:\Users\jorti\AppData\Local\Temp\ccDtGf1z.s 			page 146


 5575 1416 1A       		.uleb128 0x1a
 5576 1417 5A050000 		.4byte	.LASF289
 5577 141b 01       		.byte	0x1
 5578 141c 1207     		.2byte	0x712
 5579 141e DD000000 		.4byte	0xdd
 5580 1422 090C0000 		.4byte	.LLST61
 5581 1426 15       		.uleb128 0x15
 5582 1427 1A000000 		.4byte	.LVL194
 5583 142b 931F0000 		.4byte	0x1f93
 5584 142f 15       		.uleb128 0x15
 5585 1430 3A000000 		.4byte	.LVL196
 5586 1434 9F1F0000 		.4byte	0x1f9f
 5587 1438 00       		.byte	0
 5588 1439 1E       		.uleb128 0x1e
 5589 143a 9A0F0000 		.4byte	.LASF314
 5590 143e 01       		.byte	0x1
 5591 143f 4607     		.2byte	0x746
 5592 1441 00000000 		.4byte	.LFB19
 5593 1445 24000000 		.4byte	.LFE19-.LFB19
 5594 1449 01       		.uleb128 0x1
 5595 144a 9C       		.byte	0x9c
 5596 144b 5E140000 		.4byte	0x145e
 5597 144f 1F       		.uleb128 0x1f
 5598 1450 5C0B0000 		.4byte	.LASF285
 5599 1454 01       		.byte	0x1
 5600 1455 4607     		.2byte	0x746
 5601 1457 2B0B0000 		.4byte	0xb2b
 5602 145b 01       		.uleb128 0x1
 5603 145c 50       		.byte	0x50
 5604 145d 00       		.byte	0
 5605 145e 1E       		.uleb128 0x1e
 5606 145f 6E100000 		.4byte	.LASF315
 5607 1463 01       		.byte	0x1
 5608 1464 5407     		.2byte	0x754
 5609 1466 00000000 		.4byte	.LFB20
 5610 146a 44000000 		.4byte	.LFE20-.LFB20
 5611 146e 01       		.uleb128 0x1
 5612 146f 9C       		.byte	0x9c
 5613 1470 A3140000 		.4byte	0x14a3
 5614 1474 1F       		.uleb128 0x1f
 5615 1475 5C0B0000 		.4byte	.LASF285
 5616 1479 01       		.byte	0x1
 5617 147a 5407     		.2byte	0x754
 5618 147c 2B0B0000 		.4byte	0xb2b
 5619 1480 01       		.uleb128 0x1
 5620 1481 50       		.byte	0x50
 5621 1482 1A       		.uleb128 0x1a
 5622 1483 C4040000 		.4byte	.LASF316
 5623 1487 01       		.byte	0x1
 5624 1488 5607     		.2byte	0x756
 5625 148a 2B0B0000 		.4byte	0xb2b
 5626 148e 280C0000 		.4byte	.LLST62
 5627 1492 1A       		.uleb128 0x1a
 5628 1493 BD0D0000 		.4byte	.LASF317
 5629 1497 01       		.byte	0x1
 5630 1498 5707     		.2byte	0x757
 5631 149a 2B0B0000 		.4byte	0xb2b
ARM GAS  C:\Users\jorti\AppData\Local\Temp\ccDtGf1z.s 			page 147


 5632 149e 460C0000 		.4byte	.LLST63
 5633 14a2 00       		.byte	0
 5634 14a3 1E       		.uleb128 0x1e
 5635 14a4 CE100000 		.4byte	.LASF318
 5636 14a8 01       		.byte	0x1
 5637 14a9 8307     		.2byte	0x783
 5638 14ab 00000000 		.4byte	.LFB21
 5639 14af 20000000 		.4byte	.LFE21-.LFB21
 5640 14b3 01       		.uleb128 0x1
 5641 14b4 9C       		.byte	0x9c
 5642 14b5 C8140000 		.4byte	0x14c8
 5643 14b9 1F       		.uleb128 0x1f
 5644 14ba 17090000 		.4byte	.LASF287
 5645 14be 01       		.byte	0x1
 5646 14bf 8307     		.2byte	0x783
 5647 14c1 710C0000 		.4byte	0xc71
 5648 14c5 01       		.uleb128 0x1
 5649 14c6 50       		.byte	0x50
 5650 14c7 00       		.byte	0
 5651 14c8 1E       		.uleb128 0x1e
 5652 14c9 900C0000 		.4byte	.LASF319
 5653 14cd 01       		.byte	0x1
 5654 14ce A507     		.2byte	0x7a5
 5655 14d0 00000000 		.4byte	.LFB22
 5656 14d4 CC000000 		.4byte	.LFE22-.LFB22
 5657 14d8 01       		.uleb128 0x1
 5658 14d9 9C       		.byte	0x9c
 5659 14da 30150000 		.4byte	0x1530
 5660 14de 19       		.uleb128 0x19
 5661 14df 5C0B0000 		.4byte	.LASF285
 5662 14e3 01       		.byte	0x1
 5663 14e4 A507     		.2byte	0x7a5
 5664 14e6 2B0B0000 		.4byte	0xb2b
 5665 14ea 710C0000 		.4byte	.LLST64
 5666 14ee 1A       		.uleb128 0x1a
 5667 14ef 9F080000 		.4byte	.LASF320
 5668 14f3 01       		.byte	0x1
 5669 14f4 A807     		.2byte	0x7a8
 5670 14f6 9F010000 		.4byte	0x19f
 5671 14fa 9D0C0000 		.4byte	.LLST65
 5672 14fe 20       		.uleb128 0x20
 5673 14ff 747300   		.ascii	"ts\000"
 5674 1502 01       		.byte	0x1
 5675 1503 AE07     		.2byte	0x7ae
 5676 1505 10010000 		.4byte	0x110
 5677 1509 01       		.uleb128 0x1
 5678 150a 50       		.byte	0x50
 5679 150b 16       		.uleb128 0x16
 5680 150c 34000000 		.4byte	.LVL210
 5681 1510 2F200000 		.4byte	0x202f
 5682 1514 26150000 		.4byte	0x1526
 5683 1518 17       		.uleb128 0x17
 5684 1519 01       		.uleb128 0x1
 5685 151a 50       		.byte	0x50
 5686 151b 03       		.uleb128 0x3
 5687 151c 74       		.byte	0x74
 5688 151d E400     		.sleb128 100
ARM GAS  C:\Users\jorti\AppData\Local\Temp\ccDtGf1z.s 			page 148


 5689 151f 17       		.uleb128 0x17
 5690 1520 01       		.uleb128 0x1
 5691 1521 51       		.byte	0x51
 5692 1522 02       		.uleb128 0x2
 5693 1523 75       		.byte	0x75
 5694 1524 00       		.sleb128 0
 5695 1525 00       		.byte	0
 5696 1526 15       		.uleb128 0x15
 5697 1527 98000000 		.4byte	.LVL216
 5698 152b 0B200000 		.4byte	0x200b
 5699 152f 00       		.byte	0
 5700 1530 12       		.uleb128 0x12
 5701 1531 07000000 		.4byte	.LASF321
 5702 1535 01       		.byte	0x1
 5703 1536 F9       		.byte	0xf9
 5704 1537 00000000 		.4byte	.LFB2
 5705 153b A8010000 		.4byte	.LFE2-.LFB2
 5706 153f 01       		.uleb128 0x1
 5707 1540 9C       		.byte	0x9c
 5708 1541 43170000 		.4byte	0x1743
 5709 1545 13       		.uleb128 0x13
 5710 1546 5C0B0000 		.4byte	.LASF285
 5711 154a 01       		.byte	0x1
 5712 154b F9       		.byte	0xf9
 5713 154c 2B0B0000 		.4byte	0xb2b
 5714 1550 C70C0000 		.4byte	.LLST66
 5715 1554 13       		.uleb128 0x13
 5716 1555 63090000 		.4byte	.LASF322
 5717 1559 01       		.byte	0x1
 5718 155a FA       		.byte	0xfa
 5719 155b 3D0B0000 		.4byte	0xb3d
 5720 155f F30C0000 		.4byte	.LLST67
 5721 1563 13       		.uleb128 0x13
 5722 1564 27090000 		.4byte	.LASF323
 5723 1568 01       		.byte	0x1
 5724 1569 FB       		.byte	0xfb
 5725 156a 03070000 		.4byte	0x703
 5726 156e 1F0D0000 		.4byte	.LLST68
 5727 1572 13       		.uleb128 0x13
 5728 1573 5E110000 		.4byte	.LASF324
 5729 1577 01       		.byte	0x1
 5730 1578 FC       		.byte	0xfc
 5731 1579 BA000000 		.4byte	0xba
 5732 157d 130E0000 		.4byte	.LLST69
 5733 1581 13       		.uleb128 0x13
 5734 1582 91090000 		.4byte	.LASF325
 5735 1586 01       		.byte	0x1
 5736 1587 FD       		.byte	0xfd
 5737 1588 89010000 		.4byte	0x189
 5738 158c 070F0000 		.4byte	.LLST70
 5739 1590 13       		.uleb128 0x13
 5740 1591 69120000 		.4byte	.LASF326
 5741 1595 01       		.byte	0x1
 5742 1596 FE       		.byte	0xfe
 5743 1597 490B0000 		.4byte	0xb49
 5744 159b 270F0000 		.4byte	.LLST71
 5745 159f 13       		.uleb128 0x13
ARM GAS  C:\Users\jorti\AppData\Local\Temp\ccDtGf1z.s 			page 149


 5746 15a0 F30A0000 		.4byte	.LASF327
 5747 15a4 01       		.byte	0x1
 5748 15a5 FF       		.byte	0xff
 5749 15a6 D2000000 		.4byte	0xd2
 5750 15aa 470F0000 		.4byte	.LLST72
 5751 15ae 19       		.uleb128 0x19
 5752 15af C30E0000 		.4byte	.LASF328
 5753 15b3 01       		.byte	0x1
 5754 15b4 0001     		.2byte	0x100
 5755 15b6 D2000000 		.4byte	0xd2
 5756 15ba 670F0000 		.4byte	.LLST73
 5757 15be 19       		.uleb128 0x19
 5758 15bf 5B150000 		.4byte	.LASF329
 5759 15c3 01       		.byte	0x1
 5760 15c4 0101     		.2byte	0x101
 5761 15c6 47010000 		.4byte	0x147
 5762 15ca 870F0000 		.4byte	.LLST74
 5763 15ce 19       		.uleb128 0x19
 5764 15cf 250A0000 		.4byte	.LASF313
 5765 15d3 01       		.byte	0x1
 5766 15d4 0201     		.2byte	0x102
 5767 15d6 CB010000 		.4byte	0x1cb
 5768 15da A70F0000 		.4byte	.LLST75
 5769 15de 19       		.uleb128 0x19
 5770 15df 640F0000 		.4byte	.LASF330
 5771 15e3 01       		.byte	0x1
 5772 15e4 0301     		.2byte	0x103
 5773 15e6 BA000000 		.4byte	0xba
 5774 15ea C70F0000 		.4byte	.LLST76
 5775 15ee 1C       		.uleb128 0x1c
 5776 15ef 6F707400 		.ascii	"opt\000"
 5777 15f3 01       		.byte	0x1
 5778 15f4 0401     		.2byte	0x104
 5779 15f6 7E010000 		.4byte	0x17e
 5780 15fa E70F0000 		.4byte	.LLST77
 5781 15fe 19       		.uleb128 0x19
 5782 15ff 17090000 		.4byte	.LASF287
 5783 1603 01       		.byte	0x1
 5784 1604 0501     		.2byte	0x105
 5785 1606 710C0000 		.4byte	0xc71
 5786 160a 07100000 		.4byte	.LLST78
 5787 160e 1D       		.uleb128 0x1d
 5788 160f 6900     		.ascii	"i\000"
 5789 1611 01       		.byte	0x1
 5790 1612 0701     		.2byte	0x107
 5791 1614 D2000000 		.4byte	0xd2
 5792 1618 27100000 		.4byte	.LLST79
 5793 161c 1A       		.uleb128 0x1a
 5794 161d FE010000 		.4byte	.LASF331
 5795 1621 01       		.byte	0x1
 5796 1622 0901     		.2byte	0x109
 5797 1624 9F010000 		.4byte	0x19f
 5798 1628 45100000 		.4byte	.LLST80
 5799 162c 1A       		.uleb128 0x1a
 5800 162d 620B0000 		.4byte	.LASF332
 5801 1631 01       		.byte	0x1
 5802 1632 0F01     		.2byte	0x10f
ARM GAS  C:\Users\jorti\AppData\Local\Temp\ccDtGf1z.s 			page 150


 5803 1634 490B0000 		.4byte	0xb49
 5804 1638 6F100000 		.4byte	.LLST81
 5805 163c 1A       		.uleb128 0x1a
 5806 163d ED090000 		.4byte	.LASF333
 5807 1641 01       		.byte	0x1
 5808 1642 1001     		.2byte	0x110
 5809 1644 490B0000 		.4byte	0xb49
 5810 1648 98100000 		.4byte	.LLST82
 5811 164c 1A       		.uleb128 0x1a
 5812 164d 5A050000 		.4byte	.LASF289
 5813 1651 01       		.byte	0x1
 5814 1652 1101     		.2byte	0x111
 5815 1654 DD000000 		.4byte	0xdd
 5816 1658 BF100000 		.4byte	.LLST83
 5817 165c 16       		.uleb128 0x16
 5818 165d 98000000 		.4byte	.LVL244
 5819 1661 C8140000 		.4byte	0x14c8
 5820 1665 70160000 		.4byte	0x1670
 5821 1669 17       		.uleb128 0x17
 5822 166a 01       		.uleb128 0x1
 5823 166b 50       		.byte	0x50
 5824 166c 02       		.uleb128 0x2
 5825 166d 7B       		.byte	0x7b
 5826 166e 00       		.sleb128 0
 5827 166f 00       		.byte	0
 5828 1670 16       		.uleb128 0x16
 5829 1671 DC000000 		.4byte	.LVL252
 5830 1675 3B200000 		.4byte	0x203b
 5831 1679 A6160000 		.4byte	0x16a6
 5832 167d 17       		.uleb128 0x17
 5833 167e 01       		.uleb128 0x1
 5834 167f 50       		.byte	0x50
 5835 1680 02       		.uleb128 0x2
 5836 1681 75       		.byte	0x75
 5837 1682 00       		.sleb128 0
 5838 1683 17       		.uleb128 0x17
 5839 1684 01       		.uleb128 0x1
 5840 1685 51       		.byte	0x51
 5841 1686 02       		.uleb128 0x2
 5842 1687 79       		.byte	0x79
 5843 1688 00       		.sleb128 0
 5844 1689 17       		.uleb128 0x17
 5845 168a 01       		.uleb128 0x1
 5846 168b 52       		.byte	0x52
 5847 168c 03       		.uleb128 0x3
 5848 168d 91       		.byte	0x91
 5849 168e 04       		.sleb128 4
 5850 168f 06       		.byte	0x6
 5851 1690 17       		.uleb128 0x17
 5852 1691 01       		.uleb128 0x1
 5853 1692 53       		.byte	0x53
 5854 1693 02       		.uleb128 0x2
 5855 1694 74       		.byte	0x74
 5856 1695 00       		.sleb128 0
 5857 1696 17       		.uleb128 0x17
 5858 1697 02       		.uleb128 0x2
 5859 1698 7D       		.byte	0x7d
ARM GAS  C:\Users\jorti\AppData\Local\Temp\ccDtGf1z.s 			page 151


 5860 1699 00       		.sleb128 0
 5861 169a 03       		.uleb128 0x3
 5862 169b 91       		.byte	0x91
 5863 169c 0C       		.sleb128 12
 5864 169d 06       		.byte	0x6
 5865 169e 17       		.uleb128 0x17
 5866 169f 02       		.uleb128 0x2
 5867 16a0 7D       		.byte	0x7d
 5868 16a1 04       		.sleb128 4
 5869 16a2 02       		.uleb128 0x2
 5870 16a3 77       		.byte	0x77
 5871 16a4 00       		.sleb128 0
 5872 16a5 00       		.byte	0
 5873 16a6 16       		.uleb128 0x16
 5874 16a7 46010000 		.4byte	.LVL258
 5875 16ab 2F200000 		.4byte	0x202f
 5876 16af C3160000 		.4byte	0x16c3
 5877 16b3 17       		.uleb128 0x17
 5878 16b4 01       		.uleb128 0x1
 5879 16b5 50       		.byte	0x50
 5880 16b6 03       		.uleb128 0x3
 5881 16b7 7B       		.byte	0x7b
 5882 16b8 E400     		.sleb128 100
 5883 16ba 17       		.uleb128 0x17
 5884 16bb 01       		.uleb128 0x1
 5885 16bc 51       		.byte	0x51
 5886 16bd 04       		.uleb128 0x4
 5887 16be 91       		.byte	0x91
 5888 16bf 10       		.sleb128 16
 5889 16c0 94       		.byte	0x94
 5890 16c1 02       		.byte	0x2
 5891 16c2 00       		.byte	0
 5892 16c3 16       		.uleb128 0x16
 5893 16c4 4C010000 		.4byte	.LVL259
 5894 16c8 47200000 		.4byte	0x2047
 5895 16cc D7160000 		.4byte	0x16d7
 5896 16d0 17       		.uleb128 0x17
 5897 16d1 01       		.uleb128 0x1
 5898 16d2 50       		.byte	0x50
 5899 16d3 02       		.uleb128 0x2
 5900 16d4 7B       		.byte	0x7b
 5901 16d5 00       		.sleb128 0
 5902 16d6 00       		.byte	0
 5903 16d7 15       		.uleb128 0x15
 5904 16d8 50010000 		.4byte	.LVL260
 5905 16dc 931F0000 		.4byte	0x1f93
 5906 16e0 15       		.uleb128 0x15
 5907 16e1 5A010000 		.4byte	.LVL263
 5908 16e5 B71F0000 		.4byte	0x1fb7
 5909 16e9 16       		.uleb128 0x16
 5910 16ea 60010000 		.4byte	.LVL264
 5911 16ee CF1F0000 		.4byte	0x1fcf
 5912 16f2 FD160000 		.4byte	0x16fd
 5913 16f6 17       		.uleb128 0x17
 5914 16f7 01       		.uleb128 0x1
 5915 16f8 50       		.byte	0x50
 5916 16f9 02       		.uleb128 0x2
ARM GAS  C:\Users\jorti\AppData\Local\Temp\ccDtGf1z.s 			page 152


 5917 16fa 7B       		.byte	0x7b
 5918 16fb 00       		.sleb128 0
 5919 16fc 00       		.byte	0
 5920 16fd 16       		.uleb128 0x16
 5921 16fe 66010000 		.4byte	.LVL265
 5922 1702 39140000 		.4byte	0x1439
 5923 1706 11170000 		.4byte	0x1711
 5924 170a 17       		.uleb128 0x17
 5925 170b 01       		.uleb128 0x1
 5926 170c 50       		.byte	0x50
 5927 170d 02       		.uleb128 0x2
 5928 170e 7B       		.byte	0x7b
 5929 170f 00       		.sleb128 0
 5930 1710 00       		.byte	0
 5931 1711 16       		.uleb128 0x16
 5932 1712 7C010000 		.4byte	.LVL266
 5933 1716 9F1F0000 		.4byte	0x1f9f
 5934 171a 25170000 		.4byte	0x1725
 5935 171e 17       		.uleb128 0x17
 5936 171f 01       		.uleb128 0x1
 5937 1720 50       		.byte	0x50
 5938 1721 02       		.uleb128 0x2
 5939 1722 74       		.byte	0x74
 5940 1723 00       		.sleb128 0
 5941 1724 00       		.byte	0
 5942 1725 16       		.uleb128 0x16
 5943 1726 84010000 		.4byte	.LVL267
 5944 172a 9F1F0000 		.4byte	0x1f9f
 5945 172e 39170000 		.4byte	0x1739
 5946 1732 17       		.uleb128 0x17
 5947 1733 01       		.uleb128 0x1
 5948 1734 50       		.byte	0x50
 5949 1735 02       		.uleb128 0x2
 5950 1736 74       		.byte	0x74
 5951 1737 00       		.sleb128 0
 5952 1738 00       		.byte	0
 5953 1739 15       		.uleb128 0x15
 5954 173a 88010000 		.4byte	.LVL268
 5955 173e E71F0000 		.4byte	0x1fe7
 5956 1742 00       		.byte	0
 5957 1743 1E       		.uleb128 0x1e
 5958 1744 3C110000 		.4byte	.LASF334
 5959 1748 01       		.byte	0x1
 5960 1749 CC01     		.2byte	0x1cc
 5961 174b 00000000 		.4byte	.LFB3
 5962 174f CC000000 		.4byte	.LFE3-.LFB3
 5963 1753 01       		.uleb128 0x1
 5964 1754 9C       		.byte	0x9c
 5965 1755 6C180000 		.4byte	0x186c
 5966 1759 19       		.uleb128 0x19
 5967 175a 5C0B0000 		.4byte	.LASF285
 5968 175e 01       		.byte	0x1
 5969 175f CC01     		.2byte	0x1cc
 5970 1761 2B0B0000 		.4byte	0xb2b
 5971 1765 E9100000 		.4byte	.LLST84
 5972 1769 19       		.uleb128 0x19
 5973 176a 17090000 		.4byte	.LASF287
ARM GAS  C:\Users\jorti\AppData\Local\Temp\ccDtGf1z.s 			page 153


 5974 176e 01       		.byte	0x1
 5975 176f CD01     		.2byte	0x1cd
 5976 1771 710C0000 		.4byte	0xc71
 5977 1775 07110000 		.4byte	.LLST85
 5978 1779 1A       		.uleb128 0x1a
 5979 177a 5A050000 		.4byte	.LASF289
 5980 177e 01       		.byte	0x1
 5981 177f CF01     		.2byte	0x1cf
 5982 1781 DD000000 		.4byte	0xdd
 5983 1785 33110000 		.4byte	.LLST86
 5984 1789 15       		.uleb128 0x15
 5985 178a 28000000 		.4byte	.LVL272
 5986 178e 931F0000 		.4byte	0x1f93
 5987 1792 15       		.uleb128 0x15
 5988 1793 30000000 		.4byte	.LVL274
 5989 1797 9F1F0000 		.4byte	0x1f9f
 5990 179b 15       		.uleb128 0x15
 5991 179c 34000000 		.4byte	.LVL275
 5992 17a0 931F0000 		.4byte	0x1f93
 5993 17a4 16       		.uleb128 0x16
 5994 17a5 50000000 		.4byte	.LVL278
 5995 17a9 AB1F0000 		.4byte	0x1fab
 5996 17ad B8170000 		.4byte	0x17b8
 5997 17b1 17       		.uleb128 0x17
 5998 17b2 01       		.uleb128 0x1
 5999 17b3 50       		.byte	0x50
 6000 17b4 02       		.uleb128 0x2
 6001 17b5 74       		.byte	0x74
 6002 17b6 00       		.sleb128 0
 6003 17b7 00       		.byte	0
 6004 17b8 16       		.uleb128 0x16
 6005 17b9 58000000 		.4byte	.LVL281
 6006 17bd 53200000 		.4byte	0x2053
 6007 17c1 CC170000 		.4byte	0x17cc
 6008 17c5 17       		.uleb128 0x17
 6009 17c6 01       		.uleb128 0x1
 6010 17c7 50       		.byte	0x50
 6011 17c8 02       		.uleb128 0x2
 6012 17c9 74       		.byte	0x74
 6013 17ca 00       		.sleb128 0
 6014 17cb 00       		.byte	0
 6015 17cc 16       		.uleb128 0x16
 6016 17cd 60000000 		.4byte	.LVL284
 6017 17d1 53200000 		.4byte	0x2053
 6018 17d5 E0170000 		.4byte	0x17e0
 6019 17d9 17       		.uleb128 0x17
 6020 17da 01       		.uleb128 0x1
 6021 17db 50       		.byte	0x50
 6022 17dc 02       		.uleb128 0x2
 6023 17dd 74       		.byte	0x74
 6024 17de 00       		.sleb128 0
 6025 17df 00       		.byte	0
 6026 17e0 16       		.uleb128 0x16
 6027 17e1 76000000 		.4byte	.LVL285
 6028 17e5 5F200000 		.4byte	0x205f
 6029 17e9 F4170000 		.4byte	0x17f4
 6030 17ed 17       		.uleb128 0x17
ARM GAS  C:\Users\jorti\AppData\Local\Temp\ccDtGf1z.s 			page 154


 6031 17ee 01       		.uleb128 0x1
 6032 17ef 50       		.byte	0x50
 6033 17f0 02       		.uleb128 0x2
 6034 17f1 74       		.byte	0x74
 6035 17f2 00       		.sleb128 0
 6036 17f3 00       		.byte	0
 6037 17f4 15       		.uleb128 0x15
 6038 17f5 7C000000 		.4byte	.LVL287
 6039 17f9 9F1F0000 		.4byte	0x1f9f
 6040 17fd 16       		.uleb128 0x16
 6041 17fe 8C000000 		.4byte	.LVL289
 6042 1802 F31F0000 		.4byte	0x1ff3
 6043 1806 12180000 		.4byte	0x1812
 6044 180a 17       		.uleb128 0x17
 6045 180b 01       		.uleb128 0x1
 6046 180c 50       		.byte	0x50
 6047 180d 03       		.uleb128 0x3
 6048 180e 74       		.byte	0x74
 6049 180f E400     		.sleb128 100
 6050 1811 00       		.byte	0
 6051 1812 16       		.uleb128 0x16
 6052 1813 92000000 		.4byte	.LVL290
 6053 1817 6B200000 		.4byte	0x206b
 6054 181b 26180000 		.4byte	0x1826
 6055 181f 17       		.uleb128 0x17
 6056 1820 01       		.uleb128 0x1
 6057 1821 50       		.byte	0x50
 6058 1822 02       		.uleb128 0x2
 6059 1823 74       		.byte	0x74
 6060 1824 00       		.sleb128 0
 6061 1825 00       		.byte	0
 6062 1826 16       		.uleb128 0x16
 6063 1827 98000000 		.4byte	.LVL291
 6064 182b 5E140000 		.4byte	0x145e
 6065 182f 3A180000 		.4byte	0x183a
 6066 1833 17       		.uleb128 0x17
 6067 1834 01       		.uleb128 0x1
 6068 1835 50       		.byte	0x50
 6069 1836 02       		.uleb128 0x2
 6070 1837 74       		.byte	0x74
 6071 1838 00       		.sleb128 0
 6072 1839 00       		.byte	0
 6073 183a 16       		.uleb128 0x16
 6074 183b A6000000 		.4byte	.LVL292
 6075 183f C8140000 		.4byte	0x14c8
 6076 1843 4E180000 		.4byte	0x184e
 6077 1847 17       		.uleb128 0x17
 6078 1848 01       		.uleb128 0x1
 6079 1849 50       		.byte	0x50
 6080 184a 02       		.uleb128 0x2
 6081 184b 74       		.byte	0x74
 6082 184c 00       		.sleb128 0
 6083 184d 00       		.byte	0
 6084 184e 16       		.uleb128 0x16
 6085 184f B2000000 		.4byte	.LVL293
 6086 1853 9F1F0000 		.4byte	0x1f9f
 6087 1857 62180000 		.4byte	0x1862
ARM GAS  C:\Users\jorti\AppData\Local\Temp\ccDtGf1z.s 			page 155


 6088 185b 17       		.uleb128 0x17
 6089 185c 01       		.uleb128 0x1
 6090 185d 50       		.byte	0x50
 6091 185e 02       		.uleb128 0x2
 6092 185f 76       		.byte	0x76
 6093 1860 00       		.sleb128 0
 6094 1861 00       		.byte	0
 6095 1862 15       		.uleb128 0x15
 6096 1863 BA000000 		.4byte	.LVL294
 6097 1867 E71F0000 		.4byte	0x1fe7
 6098 186b 00       		.byte	0
 6099 186c 1E       		.uleb128 0x1e
 6100 186d 9A140000 		.4byte	.LASF335
 6101 1871 01       		.byte	0x1
 6102 1872 4F08     		.2byte	0x84f
 6103 1874 00000000 		.4byte	.LFB23
 6104 1878 AC000000 		.4byte	.LFE23-.LFB23
 6105 187c 01       		.uleb128 0x1
 6106 187d 9C       		.byte	0x9c
 6107 187e E9190000 		.4byte	0x19e9
 6108 1882 19       		.uleb128 0x19
 6109 1883 5C0B0000 		.4byte	.LASF285
 6110 1887 01       		.byte	0x1
 6111 1888 4F08     		.2byte	0x84f
 6112 188a 2B0B0000 		.4byte	0xb2b
 6113 188e AA110000 		.4byte	.LLST87
 6114 1892 19       		.uleb128 0x19
 6115 1893 E5030000 		.4byte	.LASF297
 6116 1897 01       		.byte	0x1
 6117 1898 5008     		.2byte	0x850
 6118 189a BA000000 		.4byte	0xba
 6119 189e C8110000 		.4byte	.LLST88
 6120 18a2 19       		.uleb128 0x19
 6121 18a3 7F140000 		.4byte	.LASF336
 6122 18a7 01       		.byte	0x1
 6123 18a8 5108     		.2byte	0x851
 6124 18aa 52010000 		.4byte	0x152
 6125 18ae F4110000 		.4byte	.LLST89
 6126 18b2 1C       		.uleb128 0x1c
 6127 18b3 6F707400 		.ascii	"opt\000"
 6128 18b7 01       		.byte	0x1
 6129 18b8 5208     		.2byte	0x852
 6130 18ba 7E010000 		.4byte	0x17e
 6131 18be 15120000 		.4byte	.LLST90
 6132 18c2 1C       		.uleb128 0x1c
 6133 18c3 747300   		.ascii	"ts\000"
 6134 18c6 01       		.byte	0x1
 6135 18c7 5308     		.2byte	0x853
 6136 18c9 10010000 		.4byte	0x110
 6137 18cd 36120000 		.4byte	.LLST91
 6138 18d1 19       		.uleb128 0x19
 6139 18d2 17090000 		.4byte	.LASF287
 6140 18d6 01       		.byte	0x1
 6141 18d7 5408     		.2byte	0x854
 6142 18d9 710C0000 		.4byte	0xc71
 6143 18dd 56120000 		.4byte	.LLST92
 6144 18e1 1A       		.uleb128 0x1a
ARM GAS  C:\Users\jorti\AppData\Local\Temp\ccDtGf1z.s 			page 156


 6145 18e2 5A050000 		.4byte	.LASF289
 6146 18e6 01       		.byte	0x1
 6147 18e7 5608     		.2byte	0x856
 6148 18e9 DD000000 		.4byte	0xdd
 6149 18ed 76120000 		.4byte	.LLST93
 6150 18f1 15       		.uleb128 0x15
 6151 18f2 14000000 		.4byte	.LVL298
 6152 18f6 931F0000 		.4byte	0x1f93
 6153 18fa 16       		.uleb128 0x16
 6154 18fb 48000000 		.4byte	.LVL302
 6155 18ff 77200000 		.4byte	0x2077
 6156 1903 30190000 		.4byte	0x1930
 6157 1907 17       		.uleb128 0x17
 6158 1908 01       		.uleb128 0x1
 6159 1909 50       		.byte	0x50
 6160 190a 03       		.uleb128 0x3
 6161 190b 74       		.byte	0x74
 6162 190c E400     		.sleb128 100
 6163 190e 17       		.uleb128 0x17
 6164 190f 01       		.uleb128 0x1
 6165 1910 51       		.byte	0x51
 6166 1911 02       		.uleb128 0x2
 6167 1912 77       		.byte	0x77
 6168 1913 00       		.sleb128 0
 6169 1914 17       		.uleb128 0x17
 6170 1915 01       		.uleb128 0x1
 6171 1916 52       		.byte	0x52
 6172 1917 02       		.uleb128 0x2
 6173 1918 78       		.byte	0x78
 6174 1919 00       		.sleb128 0
 6175 191a 17       		.uleb128 0x17
 6176 191b 01       		.uleb128 0x1
 6177 191c 53       		.byte	0x53
 6178 191d 02       		.uleb128 0x2
 6179 191e 79       		.byte	0x79
 6180 191f 00       		.sleb128 0
 6181 1920 17       		.uleb128 0x17
 6182 1921 02       		.uleb128 0x2
 6183 1922 7D       		.byte	0x7d
 6184 1923 00       		.sleb128 0
 6185 1924 03       		.uleb128 0x3
 6186 1925 91       		.byte	0x91
 6187 1926 00       		.sleb128 0
 6188 1927 06       		.byte	0x6
 6189 1928 17       		.uleb128 0x17
 6190 1929 02       		.uleb128 0x2
 6191 192a 7D       		.byte	0x7d
 6192 192b 04       		.sleb128 4
 6193 192c 02       		.uleb128 0x2
 6194 192d 75       		.byte	0x75
 6195 192e 00       		.sleb128 0
 6196 192f 00       		.byte	0
 6197 1930 16       		.uleb128 0x16
 6198 1931 4E000000 		.4byte	.LVL303
 6199 1935 9F1F0000 		.4byte	0x1f9f
 6200 1939 44190000 		.4byte	0x1944
 6201 193d 17       		.uleb128 0x17
ARM GAS  C:\Users\jorti\AppData\Local\Temp\ccDtGf1z.s 			page 157


 6202 193e 01       		.uleb128 0x1
 6203 193f 50       		.byte	0x50
 6204 1940 02       		.uleb128 0x2
 6205 1941 76       		.byte	0x76
 6206 1942 00       		.sleb128 0
 6207 1943 00       		.byte	0
 6208 1944 16       		.uleb128 0x16
 6209 1945 68000000 		.4byte	.LVL306
 6210 1949 83200000 		.4byte	0x2083
 6211 194d 71190000 		.4byte	0x1971
 6212 1951 17       		.uleb128 0x17
 6213 1952 01       		.uleb128 0x1
 6214 1953 50       		.byte	0x50
 6215 1954 01       		.uleb128 0x1
 6216 1955 30       		.byte	0x30
 6217 1956 17       		.uleb128 0x17
 6218 1957 01       		.uleb128 0x1
 6219 1958 51       		.byte	0x51
 6220 1959 02       		.uleb128 0x2
 6221 195a 74       		.byte	0x74
 6222 195b 00       		.sleb128 0
 6223 195c 17       		.uleb128 0x17
 6224 195d 01       		.uleb128 0x1
 6225 195e 52       		.byte	0x52
 6226 195f 02       		.uleb128 0x2
 6227 1960 77       		.byte	0x77
 6228 1961 00       		.sleb128 0
 6229 1962 17       		.uleb128 0x17
 6230 1963 01       		.uleb128 0x1
 6231 1964 53       		.byte	0x53
 6232 1965 02       		.uleb128 0x2
 6233 1966 78       		.byte	0x78
 6234 1967 00       		.sleb128 0
 6235 1968 17       		.uleb128 0x17
 6236 1969 02       		.uleb128 0x2
 6237 196a 7D       		.byte	0x7d
 6238 196b 00       		.sleb128 0
 6239 196c 03       		.uleb128 0x3
 6240 196d 91       		.byte	0x91
 6241 196e 00       		.sleb128 0
 6242 196f 06       		.byte	0x6
 6243 1970 00       		.byte	0
 6244 1971 16       		.uleb128 0x16
 6245 1972 6E000000 		.4byte	.LVL307
 6246 1976 9F1F0000 		.4byte	0x1f9f
 6247 197a 85190000 		.4byte	0x1985
 6248 197e 17       		.uleb128 0x17
 6249 197f 01       		.uleb128 0x1
 6250 1980 50       		.byte	0x50
 6251 1981 02       		.uleb128 0x2
 6252 1982 76       		.byte	0x76
 6253 1983 00       		.sleb128 0
 6254 1984 00       		.byte	0
 6255 1985 15       		.uleb128 0x15
 6256 1986 78000000 		.4byte	.LVL308
 6257 198a E71F0000 		.4byte	0x1fe7
 6258 198e 16       		.uleb128 0x16
ARM GAS  C:\Users\jorti\AppData\Local\Temp\ccDtGf1z.s 			page 158


 6259 198f 8E000000 		.4byte	.LVL311
 6260 1993 77200000 		.4byte	0x2077
 6261 1997 C4190000 		.4byte	0x19c4
 6262 199b 17       		.uleb128 0x17
 6263 199c 01       		.uleb128 0x1
 6264 199d 50       		.byte	0x50
 6265 199e 03       		.uleb128 0x3
 6266 199f 74       		.byte	0x74
 6267 19a0 E400     		.sleb128 100
 6268 19a2 17       		.uleb128 0x17
 6269 19a3 01       		.uleb128 0x1
 6270 19a4 51       		.byte	0x51
 6271 19a5 02       		.uleb128 0x2
 6272 19a6 77       		.byte	0x77
 6273 19a7 00       		.sleb128 0
 6274 19a8 17       		.uleb128 0x17
 6275 19a9 01       		.uleb128 0x1
 6276 19aa 52       		.byte	0x52
 6277 19ab 02       		.uleb128 0x2
 6278 19ac 78       		.byte	0x78
 6279 19ad 00       		.sleb128 0
 6280 19ae 17       		.uleb128 0x17
 6281 19af 01       		.uleb128 0x1
 6282 19b0 53       		.byte	0x53
 6283 19b1 02       		.uleb128 0x2
 6284 19b2 79       		.byte	0x79
 6285 19b3 00       		.sleb128 0
 6286 19b4 17       		.uleb128 0x17
 6287 19b5 02       		.uleb128 0x2
 6288 19b6 7D       		.byte	0x7d
 6289 19b7 00       		.sleb128 0
 6290 19b8 03       		.uleb128 0x3
 6291 19b9 91       		.byte	0x91
 6292 19ba 00       		.sleb128 0
 6293 19bb 06       		.byte	0x6
 6294 19bc 17       		.uleb128 0x17
 6295 19bd 02       		.uleb128 0x2
 6296 19be 7D       		.byte	0x7d
 6297 19bf 04       		.sleb128 4
 6298 19c0 02       		.uleb128 0x2
 6299 19c1 75       		.byte	0x75
 6300 19c2 00       		.sleb128 0
 6301 19c3 00       		.byte	0
 6302 19c4 16       		.uleb128 0x16
 6303 19c5 94000000 		.4byte	.LVL312
 6304 19c9 9F1F0000 		.4byte	0x1f9f
 6305 19cd D8190000 		.4byte	0x19d8
 6306 19d1 17       		.uleb128 0x17
 6307 19d2 01       		.uleb128 0x1
 6308 19d3 50       		.byte	0x50
 6309 19d4 02       		.uleb128 0x2
 6310 19d5 76       		.byte	0x76
 6311 19d6 00       		.sleb128 0
 6312 19d7 00       		.byte	0
 6313 19d8 1B       		.uleb128 0x1b
 6314 19d9 9C000000 		.4byte	.LVL315
 6315 19dd 9F1F0000 		.4byte	0x1f9f
ARM GAS  C:\Users\jorti\AppData\Local\Temp\ccDtGf1z.s 			page 159


 6316 19e1 17       		.uleb128 0x17
 6317 19e2 01       		.uleb128 0x1
 6318 19e3 50       		.byte	0x50
 6319 19e4 02       		.uleb128 0x2
 6320 19e5 76       		.byte	0x76
 6321 19e6 00       		.sleb128 0
 6322 19e7 00       		.byte	0
 6323 19e8 00       		.byte	0
 6324 19e9 1E       		.uleb128 0x1e
 6325 19ea 580F0000 		.4byte	.LASF337
 6326 19ee 01       		.byte	0x1
 6327 19ef A203     		.2byte	0x3a2
 6328 19f1 00000000 		.4byte	.LFB7
 6329 19f5 48000000 		.4byte	.LFE7-.LFB7
 6330 19f9 01       		.uleb128 0x1
 6331 19fa 9C       		.byte	0x9c
 6332 19fb 911A0000 		.4byte	0x1a91
 6333 19ff 19       		.uleb128 0x19
 6334 1a00 5C0B0000 		.4byte	.LASF285
 6335 1a04 01       		.byte	0x1
 6336 1a05 A203     		.2byte	0x3a2
 6337 1a07 2B0B0000 		.4byte	0xb2b
 6338 1a0b E2120000 		.4byte	.LLST94
 6339 1a0f 19       		.uleb128 0x19
 6340 1a10 E5030000 		.4byte	.LASF297
 6341 1a14 01       		.byte	0x1
 6342 1a15 A303     		.2byte	0x3a3
 6343 1a17 BA000000 		.4byte	0xba
 6344 1a1b 0E130000 		.4byte	.LLST95
 6345 1a1f 19       		.uleb128 0x19
 6346 1a20 7F140000 		.4byte	.LASF336
 6347 1a24 01       		.byte	0x1
 6348 1a25 A403     		.2byte	0x3a4
 6349 1a27 52010000 		.4byte	0x152
 6350 1a2b 3A130000 		.4byte	.LLST96
 6351 1a2f 1C       		.uleb128 0x1c
 6352 1a30 6F707400 		.ascii	"opt\000"
 6353 1a34 01       		.byte	0x1
 6354 1a35 A503     		.2byte	0x3a5
 6355 1a37 7E010000 		.4byte	0x17e
 6356 1a3b 74130000 		.4byte	.LLST97
 6357 1a3f 1F       		.uleb128 0x1f
 6358 1a40 17090000 		.4byte	.LASF287
 6359 1a44 01       		.byte	0x1
 6360 1a45 A603     		.2byte	0x3a6
 6361 1a47 710C0000 		.4byte	0xc71
 6362 1a4b 02       		.uleb128 0x2
 6363 1a4c 91       		.byte	0x91
 6364 1a4d 00       		.sleb128 0
 6365 1a4e 1D       		.uleb128 0x1d
 6366 1a4f 747300   		.ascii	"ts\000"
 6367 1a52 01       		.byte	0x1
 6368 1a53 A803     		.2byte	0x3a8
 6369 1a55 10010000 		.4byte	0x110
 6370 1a59 AE130000 		.4byte	.LLST98
 6371 1a5d 15       		.uleb128 0x15
 6372 1a5e 32000000 		.4byte	.LVL321
ARM GAS  C:\Users\jorti\AppData\Local\Temp\ccDtGf1z.s 			page 160


 6373 1a62 0B200000 		.4byte	0x200b
 6374 1a66 1B       		.uleb128 0x1b
 6375 1a67 44000000 		.4byte	.LVL323
 6376 1a6b 6C180000 		.4byte	0x186c
 6377 1a6f 17       		.uleb128 0x17
 6378 1a70 01       		.uleb128 0x1
 6379 1a71 50       		.byte	0x50
 6380 1a72 02       		.uleb128 0x2
 6381 1a73 75       		.byte	0x75
 6382 1a74 00       		.sleb128 0
 6383 1a75 17       		.uleb128 0x17
 6384 1a76 01       		.uleb128 0x1
 6385 1a77 51       		.byte	0x51
 6386 1a78 02       		.uleb128 0x2
 6387 1a79 76       		.byte	0x76
 6388 1a7a 00       		.sleb128 0
 6389 1a7b 17       		.uleb128 0x17
 6390 1a7c 01       		.uleb128 0x1
 6391 1a7d 52       		.byte	0x52
 6392 1a7e 02       		.uleb128 0x2
 6393 1a7f 77       		.byte	0x77
 6394 1a80 00       		.sleb128 0
 6395 1a81 17       		.uleb128 0x17
 6396 1a82 01       		.uleb128 0x1
 6397 1a83 53       		.byte	0x53
 6398 1a84 02       		.uleb128 0x2
 6399 1a85 74       		.byte	0x74
 6400 1a86 00       		.sleb128 0
 6401 1a87 17       		.uleb128 0x17
 6402 1a88 02       		.uleb128 0x2
 6403 1a89 7D       		.byte	0x7d
 6404 1a8a 04       		.sleb128 4
 6405 1a8b 03       		.uleb128 0x3
 6406 1a8c 91       		.byte	0x91
 6407 1a8d 00       		.sleb128 0
 6408 1a8e 06       		.byte	0x6
 6409 1a8f 00       		.byte	0
 6410 1a90 00       		.byte	0
 6411 1a91 1E       		.uleb128 0x1e
 6412 1a92 FC110000 		.4byte	.LASF338
 6413 1a96 01       		.byte	0x1
 6414 1a97 A708     		.2byte	0x8a7
 6415 1a99 00000000 		.4byte	.LFB24
 6416 1a9d B6000000 		.4byte	.LFE24-.LFB24
 6417 1aa1 01       		.uleb128 0x1
 6418 1aa2 9C       		.byte	0x9c
 6419 1aa3 601B0000 		.4byte	0x1b60
 6420 1aa7 19       		.uleb128 0x19
 6421 1aa8 5C0B0000 		.4byte	.LASF285
 6422 1aac 01       		.byte	0x1
 6423 1aad A708     		.2byte	0x8a7
 6424 1aaf 2B0B0000 		.4byte	0xb2b
 6425 1ab3 CD130000 		.4byte	.LLST99
 6426 1ab7 19       		.uleb128 0x19
 6427 1ab8 17090000 		.4byte	.LASF287
 6428 1abc 01       		.byte	0x1
 6429 1abd A808     		.2byte	0x8a8
ARM GAS  C:\Users\jorti\AppData\Local\Temp\ccDtGf1z.s 			page 161


 6430 1abf 710C0000 		.4byte	0xc71
 6431 1ac3 EB130000 		.4byte	.LLST100
 6432 1ac7 1A       		.uleb128 0x1a
 6433 1ac8 5A050000 		.4byte	.LASF289
 6434 1acc 01       		.byte	0x1
 6435 1acd AA08     		.2byte	0x8aa
 6436 1acf DD000000 		.4byte	0xdd
 6437 1ad3 09140000 		.4byte	.LLST101
 6438 1ad7 15       		.uleb128 0x15
 6439 1ad8 0A000000 		.4byte	.LVL326
 6440 1adc 931F0000 		.4byte	0x1f93
 6441 1ae0 15       		.uleb128 0x15
 6442 1ae1 28000000 		.4byte	.LVL328
 6443 1ae5 9F1F0000 		.4byte	0x1f9f
 6444 1ae9 16       		.uleb128 0x16
 6445 1aea 48000000 		.4byte	.LVL331
 6446 1aee 8F200000 		.4byte	0x208f
 6447 1af2 FD1A0000 		.4byte	0x1afd
 6448 1af6 17       		.uleb128 0x17
 6449 1af7 01       		.uleb128 0x1
 6450 1af8 50       		.byte	0x50
 6451 1af9 02       		.uleb128 0x2
 6452 1afa 74       		.byte	0x74
 6453 1afb 00       		.sleb128 0
 6454 1afc 00       		.byte	0
 6455 1afd 16       		.uleb128 0x16
 6456 1afe 4E000000 		.4byte	.LVL332
 6457 1b02 9F1F0000 		.4byte	0x1f9f
 6458 1b06 111B0000 		.4byte	0x1b11
 6459 1b0a 17       		.uleb128 0x17
 6460 1b0b 01       		.uleb128 0x1
 6461 1b0c 50       		.byte	0x50
 6462 1b0d 02       		.uleb128 0x2
 6463 1b0e 76       		.byte	0x76
 6464 1b0f 00       		.sleb128 0
 6465 1b10 00       		.byte	0
 6466 1b11 16       		.uleb128 0x16
 6467 1b12 6A000000 		.4byte	.LVL335
 6468 1b16 9F1F0000 		.4byte	0x1f9f
 6469 1b1a 251B0000 		.4byte	0x1b25
 6470 1b1e 17       		.uleb128 0x17
 6471 1b1f 01       		.uleb128 0x1
 6472 1b20 50       		.byte	0x50
 6473 1b21 02       		.uleb128 0x2
 6474 1b22 76       		.byte	0x76
 6475 1b23 00       		.sleb128 0
 6476 1b24 00       		.byte	0
 6477 1b25 16       		.uleb128 0x16
 6478 1b26 86000000 		.4byte	.LVL338
 6479 1b2a 9F1F0000 		.4byte	0x1f9f
 6480 1b2e 391B0000 		.4byte	0x1b39
 6481 1b32 17       		.uleb128 0x17
 6482 1b33 01       		.uleb128 0x1
 6483 1b34 50       		.byte	0x50
 6484 1b35 02       		.uleb128 0x2
 6485 1b36 76       		.byte	0x76
 6486 1b37 00       		.sleb128 0
ARM GAS  C:\Users\jorti\AppData\Local\Temp\ccDtGf1z.s 			page 162


 6487 1b38 00       		.byte	0
 6488 1b39 16       		.uleb128 0x16
 6489 1b3a A2000000 		.4byte	.LVL341
 6490 1b3e 9F1F0000 		.4byte	0x1f9f
 6491 1b42 4D1B0000 		.4byte	0x1b4d
 6492 1b46 17       		.uleb128 0x17
 6493 1b47 01       		.uleb128 0x1
 6494 1b48 50       		.byte	0x50
 6495 1b49 02       		.uleb128 0x2
 6496 1b4a 76       		.byte	0x76
 6497 1b4b 00       		.sleb128 0
 6498 1b4c 00       		.byte	0
 6499 1b4d 15       		.uleb128 0x15
 6500 1b4e A8000000 		.4byte	.LVL343
 6501 1b52 9F1F0000 		.4byte	0x1f9f
 6502 1b56 15       		.uleb128 0x15
 6503 1b57 B4000000 		.4byte	.LVL345
 6504 1b5b E71F0000 		.4byte	0x1fe7
 6505 1b5f 00       		.byte	0
 6506 1b60 1E       		.uleb128 0x1e
 6507 1b61 F8040000 		.4byte	.LASF339
 6508 1b65 01       		.byte	0x1
 6509 1b66 9804     		.2byte	0x498
 6510 1b68 00000000 		.4byte	.LFB11
 6511 1b6c 44000000 		.4byte	.LFE11-.LFB11
 6512 1b70 01       		.uleb128 0x1
 6513 1b71 9C       		.byte	0x9c
 6514 1b72 D81B0000 		.4byte	0x1bd8
 6515 1b76 19       		.uleb128 0x19
 6516 1b77 5C0B0000 		.4byte	.LASF285
 6517 1b7b 01       		.byte	0x1
 6518 1b7c 9804     		.2byte	0x498
 6519 1b7e 2B0B0000 		.4byte	0xb2b
 6520 1b82 A1140000 		.4byte	.LLST102
 6521 1b86 19       		.uleb128 0x19
 6522 1b87 17090000 		.4byte	.LASF287
 6523 1b8b 01       		.byte	0x1
 6524 1b8c 9904     		.2byte	0x499
 6525 1b8e 710C0000 		.4byte	0xc71
 6526 1b92 CD140000 		.4byte	.LLST103
 6527 1b96 1A       		.uleb128 0x1a
 6528 1b97 5A050000 		.4byte	.LASF289
 6529 1b9b 01       		.byte	0x1
 6530 1b9c 9B04     		.2byte	0x49b
 6531 1b9e DD000000 		.4byte	0xdd
 6532 1ba2 F9140000 		.4byte	.LLST104
 6533 1ba6 15       		.uleb128 0x15
 6534 1ba7 18000000 		.4byte	.LVL348
 6535 1bab 931F0000 		.4byte	0x1f93
 6536 1baf 15       		.uleb128 0x15
 6537 1bb0 26000000 		.4byte	.LVL349
 6538 1bb4 9F1F0000 		.4byte	0x1f9f
 6539 1bb8 15       		.uleb128 0x15
 6540 1bb9 32000000 		.4byte	.LVL351
 6541 1bbd 9F1F0000 		.4byte	0x1f9f
 6542 1bc1 1B       		.uleb128 0x1b
 6543 1bc2 3A000000 		.4byte	.LVL352
ARM GAS  C:\Users\jorti\AppData\Local\Temp\ccDtGf1z.s 			page 163


 6544 1bc6 911A0000 		.4byte	0x1a91
 6545 1bca 17       		.uleb128 0x17
 6546 1bcb 01       		.uleb128 0x1
 6547 1bcc 50       		.byte	0x50
 6548 1bcd 02       		.uleb128 0x2
 6549 1bce 74       		.byte	0x74
 6550 1bcf 00       		.sleb128 0
 6551 1bd0 17       		.uleb128 0x17
 6552 1bd1 01       		.uleb128 0x1
 6553 1bd2 51       		.byte	0x51
 6554 1bd3 02       		.uleb128 0x2
 6555 1bd4 75       		.byte	0x75
 6556 1bd5 00       		.sleb128 0
 6557 1bd6 00       		.byte	0
 6558 1bd7 00       		.byte	0
 6559 1bd8 1E       		.uleb128 0x1e
 6560 1bd9 D7040000 		.4byte	.LASF340
 6561 1bdd 01       		.byte	0x1
 6562 1bde F408     		.2byte	0x8f4
 6563 1be0 00000000 		.4byte	.LFB25
 6564 1be4 20000000 		.4byte	.LFE25-.LFB25
 6565 1be8 01       		.uleb128 0x1
 6566 1be9 9C       		.byte	0x9c
 6567 1bea 1C1C0000 		.4byte	0x1c1c
 6568 1bee 20       		.uleb128 0x20
 6569 1bef 65727200 		.ascii	"err\000"
 6570 1bf3 01       		.byte	0x1
 6571 1bf4 F608     		.2byte	0x8f6
 6572 1bf6 4E060000 		.4byte	0x64e
 6573 1bfa 02       		.uleb128 0x2
 6574 1bfb 91       		.byte	0x91
 6575 1bfc 76       		.sleb128 -10
 6576 1bfd 15       		.uleb128 0x15
 6577 1bfe 0C000000 		.4byte	.LVL354
 6578 1c02 9B200000 		.4byte	0x209b
 6579 1c06 1B       		.uleb128 0x1b
 6580 1c07 16000000 		.4byte	.LVL355
 6581 1c0b 43170000 		.4byte	0x1743
 6582 1c0f 17       		.uleb128 0x17
 6583 1c10 01       		.uleb128 0x1
 6584 1c11 50       		.byte	0x50
 6585 1c12 01       		.uleb128 0x1
 6586 1c13 30       		.byte	0x30
 6587 1c14 17       		.uleb128 0x17
 6588 1c15 01       		.uleb128 0x1
 6589 1c16 51       		.byte	0x51
 6590 1c17 02       		.uleb128 0x2
 6591 1c18 91       		.byte	0x91
 6592 1c19 76       		.sleb128 -10
 6593 1c1a 00       		.byte	0
 6594 1c1b 00       		.byte	0
 6595 1c1c 18       		.uleb128 0x18
 6596 1c1d D7140000 		.4byte	.LASF341
 6597 1c21 01       		.byte	0x1
 6598 1c22 2609     		.2byte	0x926
 6599 1c24 AA010000 		.4byte	0x1aa
 6600 1c28 00000000 		.4byte	.LFB26
ARM GAS  C:\Users\jorti\AppData\Local\Temp\ccDtGf1z.s 			page 164


 6601 1c2c C0000000 		.4byte	.LFE26-.LFB26
 6602 1c30 01       		.uleb128 0x1
 6603 1c31 9C       		.byte	0x9c
 6604 1c32 461D0000 		.4byte	0x1d46
 6605 1c36 19       		.uleb128 0x19
 6606 1c37 5C0B0000 		.4byte	.LASF285
 6607 1c3b 01       		.byte	0x1
 6608 1c3c 2609     		.2byte	0x926
 6609 1c3e 2B0B0000 		.4byte	0xb2b
 6610 1c42 23150000 		.4byte	.LLST105
 6611 1c46 1C       		.uleb128 0x1c
 6612 1c47 6F707400 		.ascii	"opt\000"
 6613 1c4b 01       		.byte	0x1
 6614 1c4c 2709     		.2byte	0x927
 6615 1c4e 7E010000 		.4byte	0x17e
 6616 1c52 41150000 		.4byte	.LLST106
 6617 1c56 1C       		.uleb128 0x1c
 6618 1c57 747300   		.ascii	"ts\000"
 6619 1c5a 01       		.byte	0x1
 6620 1c5b 2809     		.2byte	0x928
 6621 1c5d 10010000 		.4byte	0x110
 6622 1c61 62150000 		.4byte	.LLST107
 6623 1c65 19       		.uleb128 0x19
 6624 1c66 17090000 		.4byte	.LASF287
 6625 1c6a 01       		.byte	0x1
 6626 1c6b 2909     		.2byte	0x929
 6627 1c6d 710C0000 		.4byte	0xc71
 6628 1c71 D9150000 		.4byte	.LLST108
 6629 1c75 1D       		.uleb128 0x1d
 6630 1c76 63747200 		.ascii	"ctr\000"
 6631 1c7a 01       		.byte	0x1
 6632 1c7b 2B09     		.2byte	0x92b
 6633 1c7d AA010000 		.4byte	0x1aa
 6634 1c81 05160000 		.4byte	.LLST109
 6635 1c85 1A       		.uleb128 0x1a
 6636 1c86 5A050000 		.4byte	.LASF289
 6637 1c8a 01       		.byte	0x1
 6638 1c8b 2C09     		.2byte	0x92c
 6639 1c8d DD000000 		.4byte	0xdd
 6640 1c91 3A160000 		.4byte	.LLST110
 6641 1c95 15       		.uleb128 0x15
 6642 1c96 12000000 		.4byte	.LVL358
 6643 1c9a 931F0000 		.4byte	0x1f93
 6644 1c9e 16       		.uleb128 0x16
 6645 1c9f 42000000 		.4byte	.LVL363
 6646 1ca3 9F1F0000 		.4byte	0x1f9f
 6647 1ca7 B21C0000 		.4byte	0x1cb2
 6648 1cab 17       		.uleb128 0x17
 6649 1cac 01       		.uleb128 0x1
 6650 1cad 50       		.byte	0x50
 6651 1cae 02       		.uleb128 0x2
 6652 1caf 77       		.byte	0x77
 6653 1cb0 00       		.sleb128 0
 6654 1cb1 00       		.byte	0
 6655 1cb2 16       		.uleb128 0x16
 6656 1cb3 56000000 		.4byte	.LVL367
 6657 1cb7 9F1F0000 		.4byte	0x1f9f
ARM GAS  C:\Users\jorti\AppData\Local\Temp\ccDtGf1z.s 			page 165


 6658 1cbb C61C0000 		.4byte	0x1cc6
 6659 1cbf 17       		.uleb128 0x17
 6660 1cc0 01       		.uleb128 0x1
 6661 1cc1 50       		.byte	0x50
 6662 1cc2 02       		.uleb128 0x2
 6663 1cc3 77       		.byte	0x77
 6664 1cc4 00       		.sleb128 0
 6665 1cc5 00       		.byte	0
 6666 1cc6 16       		.uleb128 0x16
 6667 1cc7 6E000000 		.4byte	.LVL370
 6668 1ccb 83200000 		.4byte	0x2083
 6669 1ccf F01C0000 		.4byte	0x1cf0
 6670 1cd3 17       		.uleb128 0x17
 6671 1cd4 01       		.uleb128 0x1
 6672 1cd5 50       		.byte	0x50
 6673 1cd6 01       		.uleb128 0x1
 6674 1cd7 30       		.byte	0x30
 6675 1cd8 17       		.uleb128 0x17
 6676 1cd9 01       		.uleb128 0x1
 6677 1cda 51       		.byte	0x51
 6678 1cdb 02       		.uleb128 0x2
 6679 1cdc 74       		.byte	0x74
 6680 1cdd 00       		.sleb128 0
 6681 1cde 17       		.uleb128 0x17
 6682 1cdf 01       		.uleb128 0x1
 6683 1ce0 52       		.byte	0x52
 6684 1ce1 01       		.uleb128 0x1
 6685 1ce2 30       		.byte	0x30
 6686 1ce3 17       		.uleb128 0x17
 6687 1ce4 01       		.uleb128 0x1
 6688 1ce5 53       		.byte	0x53
 6689 1ce6 01       		.uleb128 0x1
 6690 1ce7 30       		.byte	0x30
 6691 1ce8 17       		.uleb128 0x17
 6692 1ce9 02       		.uleb128 0x2
 6693 1cea 7D       		.byte	0x7d
 6694 1ceb 00       		.sleb128 0
 6695 1cec 02       		.uleb128 0x2
 6696 1ced 75       		.byte	0x75
 6697 1cee 00       		.sleb128 0
 6698 1cef 00       		.byte	0
 6699 1cf0 16       		.uleb128 0x16
 6700 1cf1 76000000 		.4byte	.LVL372
 6701 1cf5 9F1F0000 		.4byte	0x1f9f
 6702 1cf9 041D0000 		.4byte	0x1d04
 6703 1cfd 17       		.uleb128 0x17
 6704 1cfe 01       		.uleb128 0x1
 6705 1cff 50       		.byte	0x50
 6706 1d00 02       		.uleb128 0x2
 6707 1d01 77       		.byte	0x77
 6708 1d02 00       		.sleb128 0
 6709 1d03 00       		.byte	0
 6710 1d04 15       		.uleb128 0x15
 6711 1d05 80000000 		.4byte	.LVL373
 6712 1d09 E71F0000 		.4byte	0x1fe7
 6713 1d0d 16       		.uleb128 0x16
 6714 1d0e 90000000 		.4byte	.LVL377
ARM GAS  C:\Users\jorti\AppData\Local\Temp\ccDtGf1z.s 			page 166


 6715 1d12 9F1F0000 		.4byte	0x1f9f
 6716 1d16 211D0000 		.4byte	0x1d21
 6717 1d1a 17       		.uleb128 0x17
 6718 1d1b 01       		.uleb128 0x1
 6719 1d1c 50       		.byte	0x50
 6720 1d1d 02       		.uleb128 0x2
 6721 1d1e 77       		.byte	0x77
 6722 1d1f 00       		.sleb128 0
 6723 1d20 00       		.byte	0
 6724 1d21 16       		.uleb128 0x16
 6725 1d22 A4000000 		.4byte	.LVL381
 6726 1d26 9F1F0000 		.4byte	0x1f9f
 6727 1d2a 351D0000 		.4byte	0x1d35
 6728 1d2e 17       		.uleb128 0x17
 6729 1d2f 01       		.uleb128 0x1
 6730 1d30 50       		.byte	0x50
 6731 1d31 02       		.uleb128 0x2
 6732 1d32 77       		.byte	0x77
 6733 1d33 00       		.sleb128 0
 6734 1d34 00       		.byte	0
 6735 1d35 1B       		.uleb128 0x1b
 6736 1d36 AC000000 		.4byte	.LVL384
 6737 1d3a 9F1F0000 		.4byte	0x1f9f
 6738 1d3e 17       		.uleb128 0x17
 6739 1d3f 01       		.uleb128 0x1
 6740 1d40 50       		.byte	0x50
 6741 1d41 02       		.uleb128 0x2
 6742 1d42 77       		.byte	0x77
 6743 1d43 00       		.sleb128 0
 6744 1d44 00       		.byte	0
 6745 1d45 00       		.byte	0
 6746 1d46 18       		.uleb128 0x18
 6747 1d47 DE020000 		.4byte	.LASF342
 6748 1d4b 01       		.byte	0x1
 6749 1d4c D905     		.2byte	0x5d9
 6750 1d4e AA010000 		.4byte	0x1aa
 6751 1d52 00000000 		.4byte	.LFB14
 6752 1d56 2C000000 		.4byte	.LFE14-.LFB14
 6753 1d5a 01       		.uleb128 0x1
 6754 1d5b 9C       		.byte	0x9c
 6755 1d5c D11D0000 		.4byte	0x1dd1
 6756 1d60 19       		.uleb128 0x19
 6757 1d61 5C0B0000 		.4byte	.LASF285
 6758 1d65 01       		.byte	0x1
 6759 1d66 D905     		.2byte	0x5d9
 6760 1d68 2B0B0000 		.4byte	0xb2b
 6761 1d6c D2160000 		.4byte	.LLST111
 6762 1d70 1C       		.uleb128 0x1c
 6763 1d71 6F707400 		.ascii	"opt\000"
 6764 1d75 01       		.byte	0x1
 6765 1d76 DA05     		.2byte	0x5da
 6766 1d78 7E010000 		.4byte	0x17e
 6767 1d7c 09170000 		.4byte	.LLST112
 6768 1d80 19       		.uleb128 0x19
 6769 1d81 17090000 		.4byte	.LASF287
 6770 1d85 01       		.byte	0x1
 6771 1d86 DB05     		.2byte	0x5db
ARM GAS  C:\Users\jorti\AppData\Local\Temp\ccDtGf1z.s 			page 167


 6772 1d88 710C0000 		.4byte	0xc71
 6773 1d8c 2A170000 		.4byte	.LLST113
 6774 1d90 21       		.uleb128 0x21
 6775 1d91 63747200 		.ascii	"ctr\000"
 6776 1d95 01       		.byte	0x1
 6777 1d96 DD05     		.2byte	0x5dd
 6778 1d98 AA010000 		.4byte	0x1aa
 6779 1d9c 1D       		.uleb128 0x1d
 6780 1d9d 747300   		.ascii	"ts\000"
 6781 1da0 01       		.byte	0x1
 6782 1da1 DE05     		.2byte	0x5de
 6783 1da3 10010000 		.4byte	0x110
 6784 1da7 48170000 		.4byte	.LLST114
 6785 1dab 15       		.uleb128 0x15
 6786 1dac 1E000000 		.4byte	.LVL391
 6787 1db0 0B200000 		.4byte	0x200b
 6788 1db4 1B       		.uleb128 0x1b
 6789 1db5 2A000000 		.4byte	.LVL393
 6790 1db9 1C1C0000 		.4byte	0x1c1c
 6791 1dbd 17       		.uleb128 0x17
 6792 1dbe 01       		.uleb128 0x1
 6793 1dbf 50       		.byte	0x50
 6794 1dc0 02       		.uleb128 0x2
 6795 1dc1 76       		.byte	0x76
 6796 1dc2 00       		.sleb128 0
 6797 1dc3 17       		.uleb128 0x17
 6798 1dc4 01       		.uleb128 0x1
 6799 1dc5 51       		.byte	0x51
 6800 1dc6 02       		.uleb128 0x2
 6801 1dc7 74       		.byte	0x74
 6802 1dc8 00       		.sleb128 0
 6803 1dc9 17       		.uleb128 0x17
 6804 1dca 01       		.uleb128 0x1
 6805 1dcb 53       		.byte	0x53
 6806 1dcc 02       		.uleb128 0x2
 6807 1dcd 75       		.byte	0x75
 6808 1dce 00       		.sleb128 0
 6809 1dcf 00       		.byte	0
 6810 1dd0 00       		.byte	0
 6811 1dd1 1E       		.uleb128 0x1e
 6812 1dd2 FC0E0000 		.4byte	.LASF343
 6813 1dd6 01       		.byte	0x1
 6814 1dd7 B609     		.2byte	0x9b6
 6815 1dd9 00000000 		.4byte	.LFB27
 6816 1ddd CC000000 		.4byte	.LFE27-.LFB27
 6817 1de1 01       		.uleb128 0x1
 6818 1de2 9C       		.byte	0x9c
 6819 1de3 CA1E0000 		.4byte	0x1eca
 6820 1de7 19       		.uleb128 0x19
 6821 1de8 5C0B0000 		.4byte	.LASF285
 6822 1dec 01       		.byte	0x1
 6823 1ded B609     		.2byte	0x9b6
 6824 1def 2B0B0000 		.4byte	0xb2b
 6825 1df3 66170000 		.4byte	.LLST115
 6826 1df7 19       		.uleb128 0x19
 6827 1df8 17090000 		.4byte	.LASF287
 6828 1dfc 01       		.byte	0x1
ARM GAS  C:\Users\jorti\AppData\Local\Temp\ccDtGf1z.s 			page 168


 6829 1dfd B709     		.2byte	0x9b7
 6830 1dff 710C0000 		.4byte	0xc71
 6831 1e03 84170000 		.4byte	.LLST116
 6832 1e07 1A       		.uleb128 0x1a
 6833 1e08 5A050000 		.4byte	.LASF289
 6834 1e0c 01       		.byte	0x1
 6835 1e0d B909     		.2byte	0x9b9
 6836 1e0f DD000000 		.4byte	0xdd
 6837 1e13 B0170000 		.4byte	.LLST117
 6838 1e17 15       		.uleb128 0x15
 6839 1e18 0A000000 		.4byte	.LVL396
 6840 1e1c 931F0000 		.4byte	0x1f93
 6841 1e20 16       		.uleb128 0x16
 6842 1e21 26000000 		.4byte	.LVL400
 6843 1e25 9F1F0000 		.4byte	0x1f9f
 6844 1e29 341E0000 		.4byte	0x1e34
 6845 1e2d 17       		.uleb128 0x17
 6846 1e2e 01       		.uleb128 0x1
 6847 1e2f 50       		.byte	0x50
 6848 1e30 02       		.uleb128 0x2
 6849 1e31 76       		.byte	0x76
 6850 1e32 00       		.sleb128 0
 6851 1e33 00       		.byte	0
 6852 1e34 16       		.uleb128 0x16
 6853 1e35 58000000 		.4byte	.LVL403
 6854 1e39 AB1F0000 		.4byte	0x1fab
 6855 1e3d 481E0000 		.4byte	0x1e48
 6856 1e41 17       		.uleb128 0x17
 6857 1e42 01       		.uleb128 0x1
 6858 1e43 50       		.byte	0x50
 6859 1e44 02       		.uleb128 0x2
 6860 1e45 74       		.byte	0x74
 6861 1e46 00       		.sleb128 0
 6862 1e47 00       		.byte	0
 6863 1e48 16       		.uleb128 0x16
 6864 1e49 5E000000 		.4byte	.LVL404
 6865 1e4d 9F1F0000 		.4byte	0x1f9f
 6866 1e51 5C1E0000 		.4byte	0x1e5c
 6867 1e55 17       		.uleb128 0x17
 6868 1e56 01       		.uleb128 0x1
 6869 1e57 50       		.byte	0x50
 6870 1e58 02       		.uleb128 0x2
 6871 1e59 76       		.byte	0x76
 6872 1e5a 00       		.sleb128 0
 6873 1e5b 00       		.byte	0
 6874 1e5c 16       		.uleb128 0x16
 6875 1e5d 72000000 		.4byte	.LVL407
 6876 1e61 9F1F0000 		.4byte	0x1f9f
 6877 1e65 701E0000 		.4byte	0x1e70
 6878 1e69 17       		.uleb128 0x17
 6879 1e6a 01       		.uleb128 0x1
 6880 1e6b 50       		.byte	0x50
 6881 1e6c 02       		.uleb128 0x2
 6882 1e6d 76       		.byte	0x76
 6883 1e6e 00       		.sleb128 0
 6884 1e6f 00       		.byte	0
 6885 1e70 16       		.uleb128 0x16
ARM GAS  C:\Users\jorti\AppData\Local\Temp\ccDtGf1z.s 			page 169


 6886 1e71 86000000 		.4byte	.LVL410
 6887 1e75 9F1F0000 		.4byte	0x1f9f
 6888 1e79 841E0000 		.4byte	0x1e84
 6889 1e7d 17       		.uleb128 0x17
 6890 1e7e 01       		.uleb128 0x1
 6891 1e7f 50       		.byte	0x50
 6892 1e80 02       		.uleb128 0x2
 6893 1e81 76       		.byte	0x76
 6894 1e82 00       		.sleb128 0
 6895 1e83 00       		.byte	0
 6896 1e84 16       		.uleb128 0x16
 6897 1e85 9A000000 		.4byte	.LVL413
 6898 1e89 9F1F0000 		.4byte	0x1f9f
 6899 1e8d 981E0000 		.4byte	0x1e98
 6900 1e91 17       		.uleb128 0x17
 6901 1e92 01       		.uleb128 0x1
 6902 1e93 50       		.byte	0x50
 6903 1e94 02       		.uleb128 0x2
 6904 1e95 76       		.byte	0x76
 6905 1e96 00       		.sleb128 0
 6906 1e97 00       		.byte	0
 6907 1e98 16       		.uleb128 0x16
 6908 1e99 AC000000 		.4byte	.LVL416
 6909 1e9d 9F1F0000 		.4byte	0x1f9f
 6910 1ea1 AC1E0000 		.4byte	0x1eac
 6911 1ea5 17       		.uleb128 0x17
 6912 1ea6 01       		.uleb128 0x1
 6913 1ea7 50       		.byte	0x50
 6914 1ea8 02       		.uleb128 0x2
 6915 1ea9 76       		.byte	0x76
 6916 1eaa 00       		.sleb128 0
 6917 1eab 00       		.byte	0
 6918 1eac 16       		.uleb128 0x16
 6919 1ead B4000000 		.4byte	.LVL419
 6920 1eb1 9F1F0000 		.4byte	0x1f9f
 6921 1eb5 C01E0000 		.4byte	0x1ec0
 6922 1eb9 17       		.uleb128 0x17
 6923 1eba 01       		.uleb128 0x1
 6924 1ebb 50       		.byte	0x50
 6925 1ebc 02       		.uleb128 0x2
 6926 1ebd 76       		.byte	0x76
 6927 1ebe 00       		.sleb128 0
 6928 1ebf 00       		.byte	0
 6929 1ec0 15       		.uleb128 0x15
 6930 1ec1 C0000000 		.4byte	.LVL421
 6931 1ec5 E71F0000 		.4byte	0x1fe7
 6932 1ec9 00       		.byte	0
 6933 1eca 1E       		.uleb128 0x1e
 6934 1ecb 43120000 		.4byte	.LASF344
 6935 1ecf 01       		.byte	0x1
 6936 1ed0 CA06     		.2byte	0x6ca
 6937 1ed2 00000000 		.4byte	.LFB17
 6938 1ed6 2C000000 		.4byte	.LFE17-.LFB17
 6939 1eda 01       		.uleb128 0x1
 6940 1edb 9C       		.byte	0x9c
 6941 1edc 0A1F0000 		.4byte	0x1f0a
 6942 1ee0 19       		.uleb128 0x19
ARM GAS  C:\Users\jorti\AppData\Local\Temp\ccDtGf1z.s 			page 170


 6943 1ee1 5C0B0000 		.4byte	.LASF285
 6944 1ee5 01       		.byte	0x1
 6945 1ee6 CA06     		.2byte	0x6ca
 6946 1ee8 2B0B0000 		.4byte	0xb2b
 6947 1eec 5E180000 		.4byte	.LLST118
 6948 1ef0 19       		.uleb128 0x19
 6949 1ef1 17090000 		.4byte	.LASF287
 6950 1ef5 01       		.byte	0x1
 6951 1ef6 CB06     		.2byte	0x6cb
 6952 1ef8 710C0000 		.4byte	0xc71
 6953 1efc 7F180000 		.4byte	.LLST119
 6954 1f00 15       		.uleb128 0x15
 6955 1f01 22000000 		.4byte	.LVL424
 6956 1f05 D11D0000 		.4byte	0x1dd1
 6957 1f09 00       		.byte	0
 6958 1f0a 22       		.uleb128 0x22
 6959 1f0b 78070000 		.4byte	.LASF345
 6960 1f0f 05       		.byte	0x5
 6961 1f10 5C04     		.2byte	0x45c
 6962 1f12 0F070000 		.4byte	0x70f
 6963 1f16 22       		.uleb128 0x22
 6964 1f17 3F0E0000 		.4byte	.LASF346
 6965 1f1b 05       		.byte	0x5
 6966 1f1c 5F04     		.2byte	0x45f
 6967 1f1e 5D010000 		.4byte	0x15d
 6968 1f22 22       		.uleb128 0x22
 6969 1f23 1D090000 		.4byte	.LASF347
 6970 1f27 05       		.byte	0x5
 6971 1f28 6404     		.2byte	0x464
 6972 1f2a B5010000 		.4byte	0x1b5
 6973 1f2e 22       		.uleb128 0x22
 6974 1f2f AD120000 		.4byte	.LASF348
 6975 1f33 05       		.byte	0x5
 6976 1f34 AD04     		.2byte	0x4ad
 6977 1f36 5D010000 		.4byte	0x15d
 6978 1f3a 22       		.uleb128 0x22
 6979 1f3b 1C0D0000 		.4byte	.LASF349
 6980 1f3f 05       		.byte	0x5
 6981 1f40 AF04     		.2byte	0x4af
 6982 1f42 CB010000 		.4byte	0x1cb
 6983 1f46 22       		.uleb128 0x22
 6984 1f47 82090000 		.4byte	.LASF350
 6985 1f4b 05       		.byte	0x5
 6986 1f4c C804     		.2byte	0x4c8
 6987 1f4e 26010000 		.4byte	0x126
 6988 1f52 22       		.uleb128 0x22
 6989 1f53 D1150000 		.4byte	.LASF351
 6990 1f57 05       		.byte	0x5
 6991 1f58 CA04     		.2byte	0x4ca
 6992 1f5a 2B0B0000 		.4byte	0xb2b
 6993 1f5e 22       		.uleb128 0x22
 6994 1f5f 960B0000 		.4byte	.LASF352
 6995 1f63 05       		.byte	0x5
 6996 1f64 CC04     		.2byte	0x4cc
 6997 1f66 68010000 		.4byte	0x168
 6998 1f6a 22       		.uleb128 0x22
 6999 1f6b 810B0000 		.4byte	.LASF353
ARM GAS  C:\Users\jorti\AppData\Local\Temp\ccDtGf1z.s 			page 171


 7000 1f6f 05       		.byte	0x5
 7001 1f70 CF04     		.2byte	0x4cf
 7002 1f72 9F010000 		.4byte	0x19f
 7003 1f76 22       		.uleb128 0x22
 7004 1f77 DF010000 		.4byte	.LASF354
 7005 1f7b 05       		.byte	0x5
 7006 1f7c E504     		.2byte	0x4e5
 7007 1f7e 2B0B0000 		.4byte	0xb2b
 7008 1f82 22       		.uleb128 0x22
 7009 1f83 0B0D0000 		.4byte	.LASF355
 7010 1f87 05       		.byte	0x5
 7011 1f88 0D05     		.2byte	0x50d
 7012 1f8a 8E1F0000 		.4byte	0x1f8e
 7013 1f8e 23       		.uleb128 0x23
 7014 1f8f D2000000 		.4byte	0xd2
 7015 1f93 24       		.uleb128 0x24
 7016 1f94 D5090000 		.4byte	.LASF356
 7017 1f98 D5090000 		.4byte	.LASF356
 7018 1f9c 02       		.byte	0x2
 7019 1f9d 7C01     		.2byte	0x17c
 7020 1f9f 24       		.uleb128 0x24
 7021 1fa0 0B0F0000 		.4byte	.LASF357
 7022 1fa4 0B0F0000 		.4byte	.LASF357
 7023 1fa8 02       		.byte	0x2
 7024 1fa9 7D01     		.2byte	0x17d
 7025 1fab 24       		.uleb128 0x24
 7026 1fac D2120000 		.4byte	.LASF358
 7027 1fb0 D2120000 		.4byte	.LASF358
 7028 1fb4 05       		.byte	0x5
 7029 1fb5 3908     		.2byte	0x839
 7030 1fb7 24       		.uleb128 0x24
 7031 1fb8 08100000 		.4byte	.LASF359
 7032 1fbc 08100000 		.4byte	.LASF359
 7033 1fc0 05       		.byte	0x5
 7034 1fc1 1808     		.2byte	0x818
 7035 1fc3 24       		.uleb128 0x24
 7036 1fc4 8E040000 		.4byte	.LASF360
 7037 1fc8 8E040000 		.4byte	.LASF360
 7038 1fcc 05       		.byte	0x5
 7039 1fcd 3308     		.2byte	0x833
 7040 1fcf 24       		.uleb128 0x24
 7041 1fd0 95010000 		.4byte	.LASF361
 7042 1fd4 95010000 		.4byte	.LASF361
 7043 1fd8 05       		.byte	0x5
 7044 1fd9 3508     		.2byte	0x835
 7045 1fdb 24       		.uleb128 0x24
 7046 1fdc 78060000 		.4byte	.LASF362
 7047 1fe0 78060000 		.4byte	.LASF362
 7048 1fe4 05       		.byte	0x5
 7049 1fe5 5308     		.2byte	0x853
 7050 1fe7 24       		.uleb128 0x24
 7051 1fe8 87120000 		.4byte	.LASF363
 7052 1fec 87120000 		.4byte	.LASF363
 7053 1ff0 05       		.byte	0x5
 7054 1ff1 7E07     		.2byte	0x77e
 7055 1ff3 24       		.uleb128 0x24
 7056 1ff4 44060000 		.4byte	.LASF364
ARM GAS  C:\Users\jorti\AppData\Local\Temp\ccDtGf1z.s 			page 172


 7057 1ff8 44060000 		.4byte	.LASF364
 7058 1ffc 05       		.byte	0x5
 7059 1ffd E007     		.2byte	0x7e0
 7060 1fff 24       		.uleb128 0x24
 7061 2000 510A0000 		.4byte	.LASF365
 7062 2004 510A0000 		.4byte	.LASF365
 7063 2008 05       		.byte	0x5
 7064 2009 E207     		.2byte	0x7e2
 7065 200b 24       		.uleb128 0x24
 7066 200c 72140000 		.4byte	.LASF366
 7067 2010 72140000 		.4byte	.LASF366
 7068 2014 03       		.byte	0x3
 7069 2015 EC02     		.2byte	0x2ec
 7070 2017 24       		.uleb128 0x24
 7071 2018 86040000 		.4byte	.LASF367
 7072 201c 86040000 		.4byte	.LASF367
 7073 2020 05       		.byte	0x5
 7074 2021 F307     		.2byte	0x7f3
 7075 2023 24       		.uleb128 0x24
 7076 2024 06020000 		.4byte	.LASF368
 7077 2028 06020000 		.4byte	.LASF368
 7078 202c 05       		.byte	0x5
 7079 202d F807     		.2byte	0x7f8
 7080 202f 24       		.uleb128 0x24
 7081 2030 D2020000 		.4byte	.LASF369
 7082 2034 D2020000 		.4byte	.LASF369
 7083 2038 05       		.byte	0x5
 7084 2039 E707     		.2byte	0x7e7
 7085 203b 24       		.uleb128 0x24
 7086 203c F9130000 		.4byte	.LASF370
 7087 2040 F9130000 		.4byte	.LASF370
 7088 2044 05       		.byte	0x5
 7089 2045 B007     		.2byte	0x7b0
 7090 2047 24       		.uleb128 0x24
 7091 2048 2E090000 		.4byte	.LASF371
 7092 204c 2E090000 		.4byte	.LASF371
 7093 2050 05       		.byte	0x5
 7094 2051 A707     		.2byte	0x7a7
 7095 2053 24       		.uleb128 0x24
 7096 2054 630E0000 		.4byte	.LASF372
 7097 2058 630E0000 		.4byte	.LASF372
 7098 205c 05       		.byte	0x5
 7099 205d 6408     		.2byte	0x864
 7100 205f 24       		.uleb128 0x24
 7101 2060 67020000 		.4byte	.LASF373
 7102 2064 67020000 		.4byte	.LASF373
 7103 2068 05       		.byte	0x5
 7104 2069 5608     		.2byte	0x856
 7105 206b 24       		.uleb128 0x24
 7106 206c 2C120000 		.4byte	.LASF374
 7107 2070 2C120000 		.4byte	.LASF374
 7108 2074 05       		.byte	0x5
 7109 2075 A807     		.2byte	0x7a8
 7110 2077 24       		.uleb128 0x24
 7111 2078 AC100000 		.4byte	.LASF375
 7112 207c AC100000 		.4byte	.LASF375
 7113 2080 05       		.byte	0x5
ARM GAS  C:\Users\jorti\AppData\Local\Temp\ccDtGf1z.s 			page 173


 7114 2081 EA07     		.2byte	0x7ea
 7115 2083 24       		.uleb128 0x24
 7116 2084 18140000 		.4byte	.LASF376
 7117 2088 18140000 		.4byte	.LASF376
 7118 208c 05       		.byte	0x5
 7119 208d 0808     		.2byte	0x808
 7120 208f 24       		.uleb128 0x24
 7121 2090 46110000 		.4byte	.LASF377
 7122 2094 46110000 		.4byte	.LASF377
 7123 2098 05       		.byte	0x5
 7124 2099 E106     		.2byte	0x6e1
 7125 209b 24       		.uleb128 0x24
 7126 209c 7E0A0000 		.4byte	.LASF378
 7127 20a0 7E0A0000 		.4byte	.LASF378
 7128 20a4 05       		.byte	0x5
 7129 20a5 AC07     		.2byte	0x7ac
 7130 20a7 00       		.byte	0
 7131              		.section	.debug_abbrev,"",%progbits
 7132              	.Ldebug_abbrev0:
 7133 0000 01       		.uleb128 0x1
 7134 0001 11       		.uleb128 0x11
 7135 0002 01       		.byte	0x1
 7136 0003 25       		.uleb128 0x25
 7137 0004 0E       		.uleb128 0xe
 7138 0005 13       		.uleb128 0x13
 7139 0006 0B       		.uleb128 0xb
 7140 0007 03       		.uleb128 0x3
 7141 0008 0E       		.uleb128 0xe
 7142 0009 1B       		.uleb128 0x1b
 7143 000a 0E       		.uleb128 0xe
 7144 000b 55       		.uleb128 0x55
 7145 000c 17       		.uleb128 0x17
 7146 000d 11       		.uleb128 0x11
 7147 000e 01       		.uleb128 0x1
 7148 000f 10       		.uleb128 0x10
 7149 0010 17       		.uleb128 0x17
 7150 0011 00       		.byte	0
 7151 0012 00       		.byte	0
 7152 0013 02       		.uleb128 0x2
 7153 0014 16       		.uleb128 0x16
 7154 0015 00       		.byte	0
 7155 0016 03       		.uleb128 0x3
 7156 0017 0E       		.uleb128 0xe
 7157 0018 3A       		.uleb128 0x3a
 7158 0019 0B       		.uleb128 0xb
 7159 001a 3B       		.uleb128 0x3b
 7160 001b 0B       		.uleb128 0xb
 7161 001c 49       		.uleb128 0x49
 7162 001d 13       		.uleb128 0x13
 7163 001e 00       		.byte	0
 7164 001f 00       		.byte	0
 7165 0020 03       		.uleb128 0x3
 7166 0021 24       		.uleb128 0x24
 7167 0022 00       		.byte	0
 7168 0023 0B       		.uleb128 0xb
 7169 0024 0B       		.uleb128 0xb
 7170 0025 3E       		.uleb128 0x3e
ARM GAS  C:\Users\jorti\AppData\Local\Temp\ccDtGf1z.s 			page 174


 7171 0026 0B       		.uleb128 0xb
 7172 0027 03       		.uleb128 0x3
 7173 0028 0E       		.uleb128 0xe
 7174 0029 00       		.byte	0
 7175 002a 00       		.byte	0
 7176 002b 04       		.uleb128 0x4
 7177 002c 24       		.uleb128 0x24
 7178 002d 00       		.byte	0
 7179 002e 0B       		.uleb128 0xb
 7180 002f 0B       		.uleb128 0xb
 7181 0030 3E       		.uleb128 0x3e
 7182 0031 0B       		.uleb128 0xb
 7183 0032 03       		.uleb128 0x3
 7184 0033 08       		.uleb128 0x8
 7185 0034 00       		.byte	0
 7186 0035 00       		.byte	0
 7187 0036 05       		.uleb128 0x5
 7188 0037 0F       		.uleb128 0xf
 7189 0038 00       		.byte	0
 7190 0039 0B       		.uleb128 0xb
 7191 003a 0B       		.uleb128 0xb
 7192 003b 49       		.uleb128 0x49
 7193 003c 13       		.uleb128 0x13
 7194 003d 00       		.byte	0
 7195 003e 00       		.byte	0
 7196 003f 06       		.uleb128 0x6
 7197 0040 15       		.uleb128 0x15
 7198 0041 01       		.byte	0x1
 7199 0042 27       		.uleb128 0x27
 7200 0043 19       		.uleb128 0x19
 7201 0044 01       		.uleb128 0x1
 7202 0045 13       		.uleb128 0x13
 7203 0046 00       		.byte	0
 7204 0047 00       		.byte	0
 7205 0048 07       		.uleb128 0x7
 7206 0049 05       		.uleb128 0x5
 7207 004a 00       		.byte	0
 7208 004b 49       		.uleb128 0x49
 7209 004c 13       		.uleb128 0x13
 7210 004d 00       		.byte	0
 7211 004e 00       		.byte	0
 7212 004f 08       		.uleb128 0x8
 7213 0050 0F       		.uleb128 0xf
 7214 0051 00       		.byte	0
 7215 0052 0B       		.uleb128 0xb
 7216 0053 0B       		.uleb128 0xb
 7217 0054 00       		.byte	0
 7218 0055 00       		.byte	0
 7219 0056 09       		.uleb128 0x9
 7220 0057 16       		.uleb128 0x16
 7221 0058 00       		.byte	0
 7222 0059 03       		.uleb128 0x3
 7223 005a 0E       		.uleb128 0xe
 7224 005b 3A       		.uleb128 0x3a
 7225 005c 0B       		.uleb128 0xb
 7226 005d 3B       		.uleb128 0x3b
 7227 005e 05       		.uleb128 0x5
ARM GAS  C:\Users\jorti\AppData\Local\Temp\ccDtGf1z.s 			page 175


 7228 005f 49       		.uleb128 0x49
 7229 0060 13       		.uleb128 0x13
 7230 0061 00       		.byte	0
 7231 0062 00       		.byte	0
 7232 0063 0A       		.uleb128 0xa
 7233 0064 04       		.uleb128 0x4
 7234 0065 01       		.byte	0x1
 7235 0066 03       		.uleb128 0x3
 7236 0067 0E       		.uleb128 0xe
 7237 0068 0B       		.uleb128 0xb
 7238 0069 0B       		.uleb128 0xb
 7239 006a 49       		.uleb128 0x49
 7240 006b 13       		.uleb128 0x13
 7241 006c 3A       		.uleb128 0x3a
 7242 006d 0B       		.uleb128 0xb
 7243 006e 3B       		.uleb128 0x3b
 7244 006f 05       		.uleb128 0x5
 7245 0070 01       		.uleb128 0x1
 7246 0071 13       		.uleb128 0x13
 7247 0072 00       		.byte	0
 7248 0073 00       		.byte	0
 7249 0074 0B       		.uleb128 0xb
 7250 0075 28       		.uleb128 0x28
 7251 0076 00       		.byte	0
 7252 0077 03       		.uleb128 0x3
 7253 0078 0E       		.uleb128 0xe
 7254 0079 1C       		.uleb128 0x1c
 7255 007a 0B       		.uleb128 0xb
 7256 007b 00       		.byte	0
 7257 007c 00       		.byte	0
 7258 007d 0C       		.uleb128 0xc
 7259 007e 28       		.uleb128 0x28
 7260 007f 00       		.byte	0
 7261 0080 03       		.uleb128 0x3
 7262 0081 0E       		.uleb128 0xe
 7263 0082 1C       		.uleb128 0x1c
 7264 0083 05       		.uleb128 0x5
 7265 0084 00       		.byte	0
 7266 0085 00       		.byte	0
 7267 0086 0D       		.uleb128 0xd
 7268 0087 13       		.uleb128 0x13
 7269 0088 01       		.byte	0x1
 7270 0089 03       		.uleb128 0x3
 7271 008a 0E       		.uleb128 0xe
 7272 008b 0B       		.uleb128 0xb
 7273 008c 0B       		.uleb128 0xb
 7274 008d 3A       		.uleb128 0x3a
 7275 008e 0B       		.uleb128 0xb
 7276 008f 3B       		.uleb128 0x3b
 7277 0090 05       		.uleb128 0x5
 7278 0091 01       		.uleb128 0x1
 7279 0092 13       		.uleb128 0x13
 7280 0093 00       		.byte	0
 7281 0094 00       		.byte	0
 7282 0095 0E       		.uleb128 0xe
 7283 0096 0D       		.uleb128 0xd
 7284 0097 00       		.byte	0
ARM GAS  C:\Users\jorti\AppData\Local\Temp\ccDtGf1z.s 			page 176


 7285 0098 03       		.uleb128 0x3
 7286 0099 0E       		.uleb128 0xe
 7287 009a 3A       		.uleb128 0x3a
 7288 009b 0B       		.uleb128 0xb
 7289 009c 3B       		.uleb128 0x3b
 7290 009d 05       		.uleb128 0x5
 7291 009e 49       		.uleb128 0x49
 7292 009f 13       		.uleb128 0x13
 7293 00a0 38       		.uleb128 0x38
 7294 00a1 0B       		.uleb128 0xb
 7295 00a2 00       		.byte	0
 7296 00a3 00       		.byte	0
 7297 00a4 0F       		.uleb128 0xf
 7298 00a5 0D       		.uleb128 0xd
 7299 00a6 00       		.byte	0
 7300 00a7 03       		.uleb128 0x3
 7301 00a8 08       		.uleb128 0x8
 7302 00a9 3A       		.uleb128 0x3a
 7303 00aa 0B       		.uleb128 0xb
 7304 00ab 3B       		.uleb128 0x3b
 7305 00ac 05       		.uleb128 0x5
 7306 00ad 49       		.uleb128 0x49
 7307 00ae 13       		.uleb128 0x13
 7308 00af 38       		.uleb128 0x38
 7309 00b0 0B       		.uleb128 0xb
 7310 00b1 00       		.byte	0
 7311 00b2 00       		.byte	0
 7312 00b3 10       		.uleb128 0x10
 7313 00b4 01       		.uleb128 0x1
 7314 00b5 01       		.byte	0x1
 7315 00b6 49       		.uleb128 0x49
 7316 00b7 13       		.uleb128 0x13
 7317 00b8 01       		.uleb128 0x1
 7318 00b9 13       		.uleb128 0x13
 7319 00ba 00       		.byte	0
 7320 00bb 00       		.byte	0
 7321 00bc 11       		.uleb128 0x11
 7322 00bd 21       		.uleb128 0x21
 7323 00be 00       		.byte	0
 7324 00bf 49       		.uleb128 0x49
 7325 00c0 13       		.uleb128 0x13
 7326 00c1 2F       		.uleb128 0x2f
 7327 00c2 0B       		.uleb128 0xb
 7328 00c3 00       		.byte	0
 7329 00c4 00       		.byte	0
 7330 00c5 12       		.uleb128 0x12
 7331 00c6 2E       		.uleb128 0x2e
 7332 00c7 01       		.byte	0x1
 7333 00c8 3F       		.uleb128 0x3f
 7334 00c9 19       		.uleb128 0x19
 7335 00ca 03       		.uleb128 0x3
 7336 00cb 0E       		.uleb128 0xe
 7337 00cc 3A       		.uleb128 0x3a
 7338 00cd 0B       		.uleb128 0xb
 7339 00ce 3B       		.uleb128 0x3b
 7340 00cf 0B       		.uleb128 0xb
 7341 00d0 27       		.uleb128 0x27
ARM GAS  C:\Users\jorti\AppData\Local\Temp\ccDtGf1z.s 			page 177


 7342 00d1 19       		.uleb128 0x19
 7343 00d2 11       		.uleb128 0x11
 7344 00d3 01       		.uleb128 0x1
 7345 00d4 12       		.uleb128 0x12
 7346 00d5 06       		.uleb128 0x6
 7347 00d6 40       		.uleb128 0x40
 7348 00d7 18       		.uleb128 0x18
 7349 00d8 9742     		.uleb128 0x2117
 7350 00da 19       		.uleb128 0x19
 7351 00db 01       		.uleb128 0x1
 7352 00dc 13       		.uleb128 0x13
 7353 00dd 00       		.byte	0
 7354 00de 00       		.byte	0
 7355 00df 13       		.uleb128 0x13
 7356 00e0 05       		.uleb128 0x5
 7357 00e1 00       		.byte	0
 7358 00e2 03       		.uleb128 0x3
 7359 00e3 0E       		.uleb128 0xe
 7360 00e4 3A       		.uleb128 0x3a
 7361 00e5 0B       		.uleb128 0xb
 7362 00e6 3B       		.uleb128 0x3b
 7363 00e7 0B       		.uleb128 0xb
 7364 00e8 49       		.uleb128 0x49
 7365 00e9 13       		.uleb128 0x13
 7366 00ea 02       		.uleb128 0x2
 7367 00eb 17       		.uleb128 0x17
 7368 00ec 00       		.byte	0
 7369 00ed 00       		.byte	0
 7370 00ee 14       		.uleb128 0x14
 7371 00ef 34       		.uleb128 0x34
 7372 00f0 00       		.byte	0
 7373 00f1 03       		.uleb128 0x3
 7374 00f2 0E       		.uleb128 0xe
 7375 00f3 3A       		.uleb128 0x3a
 7376 00f4 0B       		.uleb128 0xb
 7377 00f5 3B       		.uleb128 0x3b
 7378 00f6 0B       		.uleb128 0xb
 7379 00f7 49       		.uleb128 0x49
 7380 00f8 13       		.uleb128 0x13
 7381 00f9 02       		.uleb128 0x2
 7382 00fa 17       		.uleb128 0x17
 7383 00fb 00       		.byte	0
 7384 00fc 00       		.byte	0
 7385 00fd 15       		.uleb128 0x15
 7386 00fe 898201   		.uleb128 0x4109
 7387 0101 00       		.byte	0
 7388 0102 11       		.uleb128 0x11
 7389 0103 01       		.uleb128 0x1
 7390 0104 31       		.uleb128 0x31
 7391 0105 13       		.uleb128 0x13
 7392 0106 00       		.byte	0
 7393 0107 00       		.byte	0
 7394 0108 16       		.uleb128 0x16
 7395 0109 898201   		.uleb128 0x4109
 7396 010c 01       		.byte	0x1
 7397 010d 11       		.uleb128 0x11
 7398 010e 01       		.uleb128 0x1
ARM GAS  C:\Users\jorti\AppData\Local\Temp\ccDtGf1z.s 			page 178


 7399 010f 31       		.uleb128 0x31
 7400 0110 13       		.uleb128 0x13
 7401 0111 01       		.uleb128 0x1
 7402 0112 13       		.uleb128 0x13
 7403 0113 00       		.byte	0
 7404 0114 00       		.byte	0
 7405 0115 17       		.uleb128 0x17
 7406 0116 8A8201   		.uleb128 0x410a
 7407 0119 00       		.byte	0
 7408 011a 02       		.uleb128 0x2
 7409 011b 18       		.uleb128 0x18
 7410 011c 9142     		.uleb128 0x2111
 7411 011e 18       		.uleb128 0x18
 7412 011f 00       		.byte	0
 7413 0120 00       		.byte	0
 7414 0121 18       		.uleb128 0x18
 7415 0122 2E       		.uleb128 0x2e
 7416 0123 01       		.byte	0x1
 7417 0124 3F       		.uleb128 0x3f
 7418 0125 19       		.uleb128 0x19
 7419 0126 03       		.uleb128 0x3
 7420 0127 0E       		.uleb128 0xe
 7421 0128 3A       		.uleb128 0x3a
 7422 0129 0B       		.uleb128 0xb
 7423 012a 3B       		.uleb128 0x3b
 7424 012b 05       		.uleb128 0x5
 7425 012c 27       		.uleb128 0x27
 7426 012d 19       		.uleb128 0x19
 7427 012e 49       		.uleb128 0x49
 7428 012f 13       		.uleb128 0x13
 7429 0130 11       		.uleb128 0x11
 7430 0131 01       		.uleb128 0x1
 7431 0132 12       		.uleb128 0x12
 7432 0133 06       		.uleb128 0x6
 7433 0134 40       		.uleb128 0x40
 7434 0135 18       		.uleb128 0x18
 7435 0136 9742     		.uleb128 0x2117
 7436 0138 19       		.uleb128 0x19
 7437 0139 01       		.uleb128 0x1
 7438 013a 13       		.uleb128 0x13
 7439 013b 00       		.byte	0
 7440 013c 00       		.byte	0
 7441 013d 19       		.uleb128 0x19
 7442 013e 05       		.uleb128 0x5
 7443 013f 00       		.byte	0
 7444 0140 03       		.uleb128 0x3
 7445 0141 0E       		.uleb128 0xe
 7446 0142 3A       		.uleb128 0x3a
 7447 0143 0B       		.uleb128 0xb
 7448 0144 3B       		.uleb128 0x3b
 7449 0145 05       		.uleb128 0x5
 7450 0146 49       		.uleb128 0x49
 7451 0147 13       		.uleb128 0x13
 7452 0148 02       		.uleb128 0x2
 7453 0149 17       		.uleb128 0x17
 7454 014a 00       		.byte	0
 7455 014b 00       		.byte	0
ARM GAS  C:\Users\jorti\AppData\Local\Temp\ccDtGf1z.s 			page 179


 7456 014c 1A       		.uleb128 0x1a
 7457 014d 34       		.uleb128 0x34
 7458 014e 00       		.byte	0
 7459 014f 03       		.uleb128 0x3
 7460 0150 0E       		.uleb128 0xe
 7461 0151 3A       		.uleb128 0x3a
 7462 0152 0B       		.uleb128 0xb
 7463 0153 3B       		.uleb128 0x3b
 7464 0154 05       		.uleb128 0x5
 7465 0155 49       		.uleb128 0x49
 7466 0156 13       		.uleb128 0x13
 7467 0157 02       		.uleb128 0x2
 7468 0158 17       		.uleb128 0x17
 7469 0159 00       		.byte	0
 7470 015a 00       		.byte	0
 7471 015b 1B       		.uleb128 0x1b
 7472 015c 898201   		.uleb128 0x4109
 7473 015f 01       		.byte	0x1
 7474 0160 11       		.uleb128 0x11
 7475 0161 01       		.uleb128 0x1
 7476 0162 31       		.uleb128 0x31
 7477 0163 13       		.uleb128 0x13
 7478 0164 00       		.byte	0
 7479 0165 00       		.byte	0
 7480 0166 1C       		.uleb128 0x1c
 7481 0167 05       		.uleb128 0x5
 7482 0168 00       		.byte	0
 7483 0169 03       		.uleb128 0x3
 7484 016a 08       		.uleb128 0x8
 7485 016b 3A       		.uleb128 0x3a
 7486 016c 0B       		.uleb128 0xb
 7487 016d 3B       		.uleb128 0x3b
 7488 016e 05       		.uleb128 0x5
 7489 016f 49       		.uleb128 0x49
 7490 0170 13       		.uleb128 0x13
 7491 0171 02       		.uleb128 0x2
 7492 0172 17       		.uleb128 0x17
 7493 0173 00       		.byte	0
 7494 0174 00       		.byte	0
 7495 0175 1D       		.uleb128 0x1d
 7496 0176 34       		.uleb128 0x34
 7497 0177 00       		.byte	0
 7498 0178 03       		.uleb128 0x3
 7499 0179 08       		.uleb128 0x8
 7500 017a 3A       		.uleb128 0x3a
 7501 017b 0B       		.uleb128 0xb
 7502 017c 3B       		.uleb128 0x3b
 7503 017d 05       		.uleb128 0x5
 7504 017e 49       		.uleb128 0x49
 7505 017f 13       		.uleb128 0x13
 7506 0180 02       		.uleb128 0x2
 7507 0181 17       		.uleb128 0x17
 7508 0182 00       		.byte	0
 7509 0183 00       		.byte	0
 7510 0184 1E       		.uleb128 0x1e
 7511 0185 2E       		.uleb128 0x2e
 7512 0186 01       		.byte	0x1
ARM GAS  C:\Users\jorti\AppData\Local\Temp\ccDtGf1z.s 			page 180


 7513 0187 3F       		.uleb128 0x3f
 7514 0188 19       		.uleb128 0x19
 7515 0189 03       		.uleb128 0x3
 7516 018a 0E       		.uleb128 0xe
 7517 018b 3A       		.uleb128 0x3a
 7518 018c 0B       		.uleb128 0xb
 7519 018d 3B       		.uleb128 0x3b
 7520 018e 05       		.uleb128 0x5
 7521 018f 27       		.uleb128 0x27
 7522 0190 19       		.uleb128 0x19
 7523 0191 11       		.uleb128 0x11
 7524 0192 01       		.uleb128 0x1
 7525 0193 12       		.uleb128 0x12
 7526 0194 06       		.uleb128 0x6
 7527 0195 40       		.uleb128 0x40
 7528 0196 18       		.uleb128 0x18
 7529 0197 9742     		.uleb128 0x2117
 7530 0199 19       		.uleb128 0x19
 7531 019a 01       		.uleb128 0x1
 7532 019b 13       		.uleb128 0x13
 7533 019c 00       		.byte	0
 7534 019d 00       		.byte	0
 7535 019e 1F       		.uleb128 0x1f
 7536 019f 05       		.uleb128 0x5
 7537 01a0 00       		.byte	0
 7538 01a1 03       		.uleb128 0x3
 7539 01a2 0E       		.uleb128 0xe
 7540 01a3 3A       		.uleb128 0x3a
 7541 01a4 0B       		.uleb128 0xb
 7542 01a5 3B       		.uleb128 0x3b
 7543 01a6 05       		.uleb128 0x5
 7544 01a7 49       		.uleb128 0x49
 7545 01a8 13       		.uleb128 0x13
 7546 01a9 02       		.uleb128 0x2
 7547 01aa 18       		.uleb128 0x18
 7548 01ab 00       		.byte	0
 7549 01ac 00       		.byte	0
 7550 01ad 20       		.uleb128 0x20
 7551 01ae 34       		.uleb128 0x34
 7552 01af 00       		.byte	0
 7553 01b0 03       		.uleb128 0x3
 7554 01b1 08       		.uleb128 0x8
 7555 01b2 3A       		.uleb128 0x3a
 7556 01b3 0B       		.uleb128 0xb
 7557 01b4 3B       		.uleb128 0x3b
 7558 01b5 05       		.uleb128 0x5
 7559 01b6 49       		.uleb128 0x49
 7560 01b7 13       		.uleb128 0x13
 7561 01b8 02       		.uleb128 0x2
 7562 01b9 18       		.uleb128 0x18
 7563 01ba 00       		.byte	0
 7564 01bb 00       		.byte	0
 7565 01bc 21       		.uleb128 0x21
 7566 01bd 34       		.uleb128 0x34
 7567 01be 00       		.byte	0
 7568 01bf 03       		.uleb128 0x3
 7569 01c0 08       		.uleb128 0x8
ARM GAS  C:\Users\jorti\AppData\Local\Temp\ccDtGf1z.s 			page 181


 7570 01c1 3A       		.uleb128 0x3a
 7571 01c2 0B       		.uleb128 0xb
 7572 01c3 3B       		.uleb128 0x3b
 7573 01c4 05       		.uleb128 0x5
 7574 01c5 49       		.uleb128 0x49
 7575 01c6 13       		.uleb128 0x13
 7576 01c7 00       		.byte	0
 7577 01c8 00       		.byte	0
 7578 01c9 22       		.uleb128 0x22
 7579 01ca 34       		.uleb128 0x34
 7580 01cb 00       		.byte	0
 7581 01cc 03       		.uleb128 0x3
 7582 01cd 0E       		.uleb128 0xe
 7583 01ce 3A       		.uleb128 0x3a
 7584 01cf 0B       		.uleb128 0xb
 7585 01d0 3B       		.uleb128 0x3b
 7586 01d1 05       		.uleb128 0x5
 7587 01d2 49       		.uleb128 0x49
 7588 01d3 13       		.uleb128 0x13
 7589 01d4 3F       		.uleb128 0x3f
 7590 01d5 19       		.uleb128 0x19
 7591 01d6 3C       		.uleb128 0x3c
 7592 01d7 19       		.uleb128 0x19
 7593 01d8 00       		.byte	0
 7594 01d9 00       		.byte	0
 7595 01da 23       		.uleb128 0x23
 7596 01db 26       		.uleb128 0x26
 7597 01dc 00       		.byte	0
 7598 01dd 49       		.uleb128 0x49
 7599 01de 13       		.uleb128 0x13
 7600 01df 00       		.byte	0
 7601 01e0 00       		.byte	0
 7602 01e1 24       		.uleb128 0x24
 7603 01e2 2E       		.uleb128 0x2e
 7604 01e3 00       		.byte	0
 7605 01e4 3F       		.uleb128 0x3f
 7606 01e5 19       		.uleb128 0x19
 7607 01e6 3C       		.uleb128 0x3c
 7608 01e7 19       		.uleb128 0x19
 7609 01e8 6E       		.uleb128 0x6e
 7610 01e9 0E       		.uleb128 0xe
 7611 01ea 03       		.uleb128 0x3
 7612 01eb 0E       		.uleb128 0xe
 7613 01ec 3A       		.uleb128 0x3a
 7614 01ed 0B       		.uleb128 0xb
 7615 01ee 3B       		.uleb128 0x3b
 7616 01ef 05       		.uleb128 0x5
 7617 01f0 00       		.byte	0
 7618 01f1 00       		.byte	0
 7619 01f2 00       		.byte	0
 7620              		.section	.debug_loc,"",%progbits
 7621              	.Ldebug_loc0:
 7622              	.LLST0:
 7623 0000 00000000 		.4byte	.LVL0
 7624 0004 2D000000 		.4byte	.LVL2-1
 7625 0008 0100     		.2byte	0x1
 7626 000a 50       		.byte	0x50
ARM GAS  C:\Users\jorti\AppData\Local\Temp\ccDtGf1z.s 			page 182


 7627 000b 2D000000 		.4byte	.LVL2-1
 7628 000f 3C000000 		.4byte	.LVL5
 7629 0013 0100     		.2byte	0x1
 7630 0015 54       		.byte	0x54
 7631 0016 3C000000 		.4byte	.LVL5
 7632 001a 40000000 		.4byte	.LVL6
 7633 001e 0100     		.2byte	0x1
 7634 0020 50       		.byte	0x50
 7635 0021 40000000 		.4byte	.LVL6
 7636 0025 CC000000 		.4byte	.LVL22
 7637 0029 0100     		.2byte	0x1
 7638 002b 54       		.byte	0x54
 7639 002c 00000000 		.4byte	0
 7640 0030 00000000 		.4byte	0
 7641              	.LLST1:
 7642 0034 00000000 		.4byte	.LVL0
 7643 0038 2D000000 		.4byte	.LVL2-1
 7644 003c 0100     		.2byte	0x1
 7645 003e 51       		.byte	0x51
 7646 003f 2D000000 		.4byte	.LVL2-1
 7647 0043 3C000000 		.4byte	.LVL5
 7648 0047 0400     		.2byte	0x4
 7649 0049 F3       		.byte	0xf3
 7650 004a 01       		.uleb128 0x1
 7651 004b 51       		.byte	0x51
 7652 004c 9F       		.byte	0x9f
 7653 004d 3C000000 		.4byte	.LVL5
 7654 0051 40000000 		.4byte	.LVL6
 7655 0055 0100     		.2byte	0x1
 7656 0057 51       		.byte	0x51
 7657 0058 40000000 		.4byte	.LVL6
 7658 005c D4000000 		.4byte	.LFE1
 7659 0060 0400     		.2byte	0x4
 7660 0062 F3       		.byte	0xf3
 7661 0063 01       		.uleb128 0x1
 7662 0064 51       		.byte	0x51
 7663 0065 9F       		.byte	0x9f
 7664 0066 00000000 		.4byte	0
 7665 006a 00000000 		.4byte	0
 7666              	.LLST2:
 7667 006e 00000000 		.4byte	.LVL0
 7668 0072 2D000000 		.4byte	.LVL2-1
 7669 0076 0100     		.2byte	0x1
 7670 0078 52       		.byte	0x52
 7671 0079 2D000000 		.4byte	.LVL2-1
 7672 007d 3C000000 		.4byte	.LVL5
 7673 0081 0100     		.2byte	0x1
 7674 0083 55       		.byte	0x55
 7675 0084 3C000000 		.4byte	.LVL5
 7676 0088 40000000 		.4byte	.LVL6
 7677 008c 0100     		.2byte	0x1
 7678 008e 52       		.byte	0x52
 7679 008f 40000000 		.4byte	.LVL6
 7680 0093 CC000000 		.4byte	.LVL22
 7681 0097 0100     		.2byte	0x1
 7682 0099 55       		.byte	0x55
 7683 009a CC000000 		.4byte	.LVL22
ARM GAS  C:\Users\jorti\AppData\Local\Temp\ccDtGf1z.s 			page 183


 7684 009e D4000000 		.4byte	.LFE1
 7685 00a2 0400     		.2byte	0x4
 7686 00a4 F3       		.byte	0xf3
 7687 00a5 01       		.uleb128 0x1
 7688 00a6 52       		.byte	0x52
 7689 00a7 9F       		.byte	0x9f
 7690 00a8 00000000 		.4byte	0
 7691 00ac 00000000 		.4byte	0
 7692              	.LLST3:
 7693 00b0 36000000 		.4byte	.LVL4
 7694 00b4 3C000000 		.4byte	.LVL5
 7695 00b8 0200     		.2byte	0x2
 7696 00ba 31       		.byte	0x31
 7697 00bb 9F       		.byte	0x9f
 7698 00bc 40000000 		.4byte	.LVL6
 7699 00c0 CC000000 		.4byte	.LVL22
 7700 00c4 0100     		.2byte	0x1
 7701 00c6 58       		.byte	0x58
 7702 00c7 00000000 		.4byte	0
 7703 00cb 00000000 		.4byte	0
 7704              	.LLST4:
 7705 00cf 06000000 		.4byte	.LVL1
 7706 00d3 2E000000 		.4byte	.LVL2
 7707 00d7 0200     		.2byte	0x2
 7708 00d9 30       		.byte	0x30
 7709 00da 9F       		.byte	0x9f
 7710 00db 2E000000 		.4byte	.LVL2
 7711 00df 35000000 		.4byte	.LVL4-1
 7712 00e3 0100     		.2byte	0x1
 7713 00e5 50       		.byte	0x50
 7714 00e6 3C000000 		.4byte	.LVL5
 7715 00ea 40000000 		.4byte	.LVL6
 7716 00ee 0200     		.2byte	0x2
 7717 00f0 30       		.byte	0x30
 7718 00f1 9F       		.byte	0x9f
 7719 00f2 46000000 		.4byte	.LVL8
 7720 00f6 5C000000 		.4byte	.LVL9
 7721 00fa 0100     		.2byte	0x1
 7722 00fc 50       		.byte	0x50
 7723 00fd 5C000000 		.4byte	.LVL9
 7724 0101 80000000 		.4byte	.LVL14
 7725 0105 0100     		.2byte	0x1
 7726 0107 57       		.byte	0x57
 7727 0108 80000000 		.4byte	.LVL14
 7728 010c A6000000 		.4byte	.LVL15
 7729 0110 0100     		.2byte	0x1
 7730 0112 50       		.byte	0x50
 7731 0113 A6000000 		.4byte	.LVL15
 7732 0117 AC000000 		.4byte	.LVL17
 7733 011b 0100     		.2byte	0x1
 7734 011d 57       		.byte	0x57
 7735 011e AC000000 		.4byte	.LVL17
 7736 0122 AF000000 		.4byte	.LVL18-1
 7737 0126 0100     		.2byte	0x1
 7738 0128 50       		.byte	0x50
 7739 0129 AF000000 		.4byte	.LVL18-1
 7740 012d CC000000 		.4byte	.LVL22
ARM GAS  C:\Users\jorti\AppData\Local\Temp\ccDtGf1z.s 			page 184


 7741 0131 0100     		.2byte	0x1
 7742 0133 57       		.byte	0x57
 7743 0134 00000000 		.4byte	0
 7744 0138 00000000 		.4byte	0
 7745              	.LLST5:
 7746 013c 00000000 		.4byte	.LVL23
 7747 0140 12000000 		.4byte	.LVL25
 7748 0144 0100     		.2byte	0x1
 7749 0146 50       		.byte	0x50
 7750 0147 12000000 		.4byte	.LVL25
 7751 014b 14000000 		.4byte	.LVL26
 7752 014f 0400     		.2byte	0x4
 7753 0151 F3       		.byte	0xf3
 7754 0152 01       		.uleb128 0x1
 7755 0153 50       		.byte	0x50
 7756 0154 9F       		.byte	0x9f
 7757 0155 14000000 		.4byte	.LVL26
 7758 0159 1B000000 		.4byte	.LVL27-1
 7759 015d 0100     		.2byte	0x1
 7760 015f 50       		.byte	0x50
 7761 0160 1B000000 		.4byte	.LVL27-1
 7762 0164 34000000 		.4byte	.LVL34
 7763 0168 0100     		.2byte	0x1
 7764 016a 54       		.byte	0x54
 7765 016b 00000000 		.4byte	0
 7766 016f 00000000 		.4byte	0
 7767              	.LLST6:
 7768 0173 00000000 		.4byte	.LVL23
 7769 0177 1B000000 		.4byte	.LVL27-1
 7770 017b 0100     		.2byte	0x1
 7771 017d 51       		.byte	0x51
 7772 017e 1B000000 		.4byte	.LVL27-1
 7773 0182 42000000 		.4byte	.LVL36
 7774 0186 0100     		.2byte	0x1
 7775 0188 55       		.byte	0x55
 7776 0189 42000000 		.4byte	.LVL36
 7777 018d 4C000000 		.4byte	.LFE4
 7778 0191 0400     		.2byte	0x4
 7779 0193 F3       		.byte	0xf3
 7780 0194 01       		.uleb128 0x1
 7781 0195 51       		.byte	0x51
 7782 0196 9F       		.byte	0x9f
 7783 0197 00000000 		.4byte	0
 7784 019b 00000000 		.4byte	0
 7785              	.LLST7:
 7786 019f 34000000 		.4byte	.LVL34
 7787 01a3 42000000 		.4byte	.LVL36
 7788 01a7 0100     		.2byte	0x1
 7789 01a9 54       		.byte	0x54
 7790 01aa 00000000 		.4byte	0
 7791 01ae 00000000 		.4byte	0
 7792              	.LLST8:
 7793 01b2 04000000 		.4byte	.LVL24
 7794 01b6 1C000000 		.4byte	.LVL27
 7795 01ba 0200     		.2byte	0x2
 7796 01bc 30       		.byte	0x30
 7797 01bd 9F       		.byte	0x9f
ARM GAS  C:\Users\jorti\AppData\Local\Temp\ccDtGf1z.s 			page 185


 7798 01be 1C000000 		.4byte	.LVL27
 7799 01c2 23000000 		.4byte	.LVL29-1
 7800 01c6 0100     		.2byte	0x1
 7801 01c8 50       		.byte	0x50
 7802 01c9 2A000000 		.4byte	.LVL31
 7803 01cd 2E000000 		.4byte	.LVL32
 7804 01d1 0100     		.2byte	0x1
 7805 01d3 50       		.byte	0x50
 7806 01d4 2E000000 		.4byte	.LVL32
 7807 01d8 42000000 		.4byte	.LVL36
 7808 01dc 0100     		.2byte	0x1
 7809 01de 56       		.byte	0x56
 7810 01df 00000000 		.4byte	0
 7811 01e3 00000000 		.4byte	0
 7812              	.LLST9:
 7813 01e7 00000000 		.4byte	.LVL37
 7814 01eb 14000000 		.4byte	.LVL40
 7815 01ef 0100     		.2byte	0x1
 7816 01f1 50       		.byte	0x50
 7817 01f2 14000000 		.4byte	.LVL40
 7818 01f6 18000000 		.4byte	.LVL41
 7819 01fa 0400     		.2byte	0x4
 7820 01fc F3       		.byte	0xf3
 7821 01fd 01       		.uleb128 0x1
 7822 01fe 50       		.byte	0x50
 7823 01ff 9F       		.byte	0x9f
 7824 0200 18000000 		.4byte	.LVL41
 7825 0204 22000000 		.4byte	.LVL43
 7826 0208 0100     		.2byte	0x1
 7827 020a 50       		.byte	0x50
 7828 020b 22000000 		.4byte	.LVL43
 7829 020f 26000000 		.4byte	.LVL44
 7830 0213 0400     		.2byte	0x4
 7831 0215 F3       		.byte	0xf3
 7832 0216 01       		.uleb128 0x1
 7833 0217 50       		.byte	0x50
 7834 0218 9F       		.byte	0x9f
 7835 0219 26000000 		.4byte	.LVL44
 7836 021d 36000000 		.4byte	.LVL46
 7837 0221 0100     		.2byte	0x1
 7838 0223 50       		.byte	0x50
 7839 0224 36000000 		.4byte	.LVL46
 7840 0228 3A000000 		.4byte	.LVL47
 7841 022c 0400     		.2byte	0x4
 7842 022e F3       		.byte	0xf3
 7843 022f 01       		.uleb128 0x1
 7844 0230 50       		.byte	0x50
 7845 0231 9F       		.byte	0x9f
 7846 0232 3A000000 		.4byte	.LVL47
 7847 0236 4B000000 		.4byte	.LVL48-1
 7848 023a 0100     		.2byte	0x1
 7849 023c 50       		.byte	0x50
 7850 023d 4B000000 		.4byte	.LVL48-1
 7851 0241 54010000 		.4byte	.LVL76
 7852 0245 0100     		.2byte	0x1
 7853 0247 59       		.byte	0x59
 7854 0248 54010000 		.4byte	.LVL76
ARM GAS  C:\Users\jorti\AppData\Local\Temp\ccDtGf1z.s 			page 186


 7855 024c 60010000 		.4byte	.LFE5
 7856 0250 0400     		.2byte	0x4
 7857 0252 F3       		.byte	0xf3
 7858 0253 01       		.uleb128 0x1
 7859 0254 50       		.byte	0x50
 7860 0255 9F       		.byte	0x9f
 7861 0256 00000000 		.4byte	0
 7862 025a 00000000 		.4byte	0
 7863              	.LLST10:
 7864 025e 00000000 		.4byte	.LVL37
 7865 0262 4B000000 		.4byte	.LVL48-1
 7866 0266 0100     		.2byte	0x1
 7867 0268 51       		.byte	0x51
 7868 0269 4B000000 		.4byte	.LVL48-1
 7869 026d 60010000 		.4byte	.LFE5
 7870 0271 0400     		.2byte	0x4
 7871 0273 F3       		.byte	0xf3
 7872 0274 01       		.uleb128 0x1
 7873 0275 51       		.byte	0x51
 7874 0276 9F       		.byte	0x9f
 7875 0277 00000000 		.4byte	0
 7876 027b 00000000 		.4byte	0
 7877              	.LLST11:
 7878 027f 00000000 		.4byte	.LVL37
 7879 0283 4B000000 		.4byte	.LVL48-1
 7880 0287 0100     		.2byte	0x1
 7881 0289 52       		.byte	0x52
 7882 028a 4B000000 		.4byte	.LVL48-1
 7883 028e F8000000 		.4byte	.LVL70
 7884 0292 0100     		.2byte	0x1
 7885 0294 58       		.byte	0x58
 7886 0295 F8000000 		.4byte	.LVL70
 7887 0299 1C010000 		.4byte	.LVL72
 7888 029d 0400     		.2byte	0x4
 7889 029f F3       		.byte	0xf3
 7890 02a0 01       		.uleb128 0x1
 7891 02a1 52       		.byte	0x52
 7892 02a2 9F       		.byte	0x9f
 7893 02a3 1C010000 		.4byte	.LVL72
 7894 02a7 48010000 		.4byte	.LVL74
 7895 02ab 0100     		.2byte	0x1
 7896 02ad 58       		.byte	0x58
 7897 02ae 48010000 		.4byte	.LVL74
 7898 02b2 60010000 		.4byte	.LFE5
 7899 02b6 0400     		.2byte	0x4
 7900 02b8 F3       		.byte	0xf3
 7901 02b9 01       		.uleb128 0x1
 7902 02ba 52       		.byte	0x52
 7903 02bb 9F       		.byte	0x9f
 7904 02bc 00000000 		.4byte	0
 7905 02c0 00000000 		.4byte	0
 7906              	.LLST12:
 7907 02c4 00000000 		.4byte	.LVL37
 7908 02c8 10000000 		.4byte	.LVL39
 7909 02cc 0100     		.2byte	0x1
 7910 02ce 53       		.byte	0x53
 7911 02cf 10000000 		.4byte	.LVL39
ARM GAS  C:\Users\jorti\AppData\Local\Temp\ccDtGf1z.s 			page 187


 7912 02d3 18000000 		.4byte	.LVL41
 7913 02d7 0400     		.2byte	0x4
 7914 02d9 F3       		.byte	0xf3
 7915 02da 01       		.uleb128 0x1
 7916 02db 53       		.byte	0x53
 7917 02dc 9F       		.byte	0x9f
 7918 02dd 18000000 		.4byte	.LVL41
 7919 02e1 1E000000 		.4byte	.LVL42
 7920 02e5 0100     		.2byte	0x1
 7921 02e7 53       		.byte	0x53
 7922 02e8 1E000000 		.4byte	.LVL42
 7923 02ec 26000000 		.4byte	.LVL44
 7924 02f0 0400     		.2byte	0x4
 7925 02f2 F3       		.byte	0xf3
 7926 02f3 01       		.uleb128 0x1
 7927 02f4 53       		.byte	0x53
 7928 02f5 9F       		.byte	0x9f
 7929 02f6 26000000 		.4byte	.LVL44
 7930 02fa 32000000 		.4byte	.LVL45
 7931 02fe 0100     		.2byte	0x1
 7932 0300 53       		.byte	0x53
 7933 0301 32000000 		.4byte	.LVL45
 7934 0305 3A000000 		.4byte	.LVL47
 7935 0309 0400     		.2byte	0x4
 7936 030b F3       		.byte	0xf3
 7937 030c 01       		.uleb128 0x1
 7938 030d 53       		.byte	0x53
 7939 030e 9F       		.byte	0x9f
 7940 030f 3A000000 		.4byte	.LVL47
 7941 0313 4B000000 		.4byte	.LVL48-1
 7942 0317 0100     		.2byte	0x1
 7943 0319 53       		.byte	0x53
 7944 031a 4B000000 		.4byte	.LVL48-1
 7945 031e 54010000 		.4byte	.LVL76
 7946 0322 0100     		.2byte	0x1
 7947 0324 55       		.byte	0x55
 7948 0325 54010000 		.4byte	.LVL76
 7949 0329 60010000 		.4byte	.LFE5
 7950 032d 0400     		.2byte	0x4
 7951 032f F3       		.byte	0xf3
 7952 0330 01       		.uleb128 0x1
 7953 0331 53       		.byte	0x53
 7954 0332 9F       		.byte	0x9f
 7955 0333 00000000 		.4byte	0
 7956 0337 00000000 		.4byte	0
 7957              	.LLST13:
 7958 033b 00000000 		.4byte	.LVL37
 7959 033f 18000000 		.4byte	.LVL41
 7960 0343 0200     		.2byte	0x2
 7961 0345 91       		.byte	0x91
 7962 0346 00       		.sleb128 0
 7963 0347 18000000 		.4byte	.LVL41
 7964 034b 54010000 		.4byte	.LVL76
 7965 034f 0200     		.2byte	0x2
 7966 0351 91       		.byte	0x91
 7967 0352 00       		.sleb128 0
 7968 0353 54010000 		.4byte	.LVL76
ARM GAS  C:\Users\jorti\AppData\Local\Temp\ccDtGf1z.s 			page 188


 7969 0357 60010000 		.4byte	.LFE5
 7970 035b 0200     		.2byte	0x2
 7971 035d 7D       		.byte	0x7d
 7972 035e 00       		.sleb128 0
 7973 035f 00000000 		.4byte	0
 7974 0363 00000000 		.4byte	0
 7975              	.LLST14:
 7976 0367 52000000 		.4byte	.LVL50
 7977 036b 5A000000 		.4byte	.LVL51
 7978 036f 0400     		.2byte	0x4
 7979 0371 70       		.byte	0x70
 7980 0372 E400     		.sleb128 100
 7981 0374 9F       		.byte	0x9f
 7982 0375 5A000000 		.4byte	.LVL51
 7983 0379 5D000000 		.4byte	.LVL52-1
 7984 037d 0100     		.2byte	0x1
 7985 037f 50       		.byte	0x50
 7986 0380 00000000 		.4byte	0
 7987 0384 00000000 		.4byte	0
 7988              	.LLST15:
 7989 0388 60000000 		.4byte	.LVL53
 7990 038c 6D000000 		.4byte	.LVL54-1
 7991 0390 0100     		.2byte	0x1
 7992 0392 50       		.byte	0x50
 7993 0393 6D000000 		.4byte	.LVL54-1
 7994 0397 8C000000 		.4byte	.LVL56
 7995 039b 0100     		.2byte	0x1
 7996 039d 54       		.byte	0x54
 7997 039e 8C000000 		.4byte	.LVL56
 7998 03a2 9A000000 		.4byte	.LVL57
 7999 03a6 0100     		.2byte	0x1
 8000 03a8 50       		.byte	0x50
 8001 03a9 9A000000 		.4byte	.LVL57
 8002 03ad A4000000 		.4byte	.LVL59
 8003 03b1 0100     		.2byte	0x1
 8004 03b3 54       		.byte	0x54
 8005 03b4 A4000000 		.4byte	.LVL59
 8006 03b8 AC000000 		.4byte	.LVL60
 8007 03bc 0100     		.2byte	0x1
 8008 03be 50       		.byte	0x50
 8009 03bf AC000000 		.4byte	.LVL60
 8010 03c3 BC000000 		.4byte	.LVL62
 8011 03c7 0100     		.2byte	0x1
 8012 03c9 54       		.byte	0x54
 8013 03ca BC000000 		.4byte	.LVL62
 8014 03ce C4000000 		.4byte	.LVL63
 8015 03d2 0100     		.2byte	0x1
 8016 03d4 50       		.byte	0x50
 8017 03d5 C4000000 		.4byte	.LVL63
 8018 03d9 1C010000 		.4byte	.LVL72
 8019 03dd 0100     		.2byte	0x1
 8020 03df 54       		.byte	0x54
 8021 03e0 1C010000 		.4byte	.LVL72
 8022 03e4 48010000 		.4byte	.LVL74
 8023 03e8 0200     		.2byte	0x2
 8024 03ea 30       		.byte	0x30
 8025 03eb 9F       		.byte	0x9f
ARM GAS  C:\Users\jorti\AppData\Local\Temp\ccDtGf1z.s 			page 189


 8026 03ec 48010000 		.4byte	.LVL74
 8027 03f0 54010000 		.4byte	.LVL76
 8028 03f4 0100     		.2byte	0x1
 8029 03f6 54       		.byte	0x54
 8030 03f7 54010000 		.4byte	.LVL76
 8031 03fb 60010000 		.4byte	.LFE5
 8032 03ff 0100     		.2byte	0x1
 8033 0401 50       		.byte	0x50
 8034 0402 00000000 		.4byte	0
 8035 0406 00000000 		.4byte	0
 8036              	.LLST16:
 8037 040a 06000000 		.4byte	.LVL38
 8038 040e 4E000000 		.4byte	.LVL49
 8039 0412 0200     		.2byte	0x2
 8040 0414 30       		.byte	0x30
 8041 0415 9F       		.byte	0x9f
 8042 0416 4E000000 		.4byte	.LVL49
 8043 041a 52000000 		.4byte	.LVL50
 8044 041e 0100     		.2byte	0x1
 8045 0420 50       		.byte	0x50
 8046 0421 52000000 		.4byte	.LVL50
 8047 0425 D8000000 		.4byte	.LVL68
 8048 0429 0100     		.2byte	0x1
 8049 042b 5A       		.byte	0x5a
 8050 042c D8000000 		.4byte	.LVL68
 8051 0430 03010000 		.4byte	.LVL71-1
 8052 0434 0100     		.2byte	0x1
 8053 0436 50       		.byte	0x50
 8054 0437 03010000 		.4byte	.LVL71-1
 8055 043b 1C010000 		.4byte	.LVL72
 8056 043f 0100     		.2byte	0x1
 8057 0441 56       		.byte	0x56
 8058 0442 1C010000 		.4byte	.LVL72
 8059 0446 48010000 		.4byte	.LVL74
 8060 044a 0100     		.2byte	0x1
 8061 044c 50       		.byte	0x50
 8062 044d 48010000 		.4byte	.LVL74
 8063 0451 54010000 		.4byte	.LVL76
 8064 0455 0100     		.2byte	0x1
 8065 0457 56       		.byte	0x56
 8066 0458 00000000 		.4byte	0
 8067 045c 00000000 		.4byte	0
 8068              	.LLST17:
 8069 0460 00000000 		.4byte	.LVL77
 8070 0464 2D000000 		.4byte	.LVL79-1
 8071 0468 0100     		.2byte	0x1
 8072 046a 50       		.byte	0x50
 8073 046b 2D000000 		.4byte	.LVL79-1
 8074 046f 80000000 		.4byte	.LVL91
 8075 0473 0100     		.2byte	0x1
 8076 0475 56       		.byte	0x56
 8077 0476 80000000 		.4byte	.LVL91
 8078 047a 90000000 		.4byte	.LFE6
 8079 047e 0400     		.2byte	0x4
 8080 0480 F3       		.byte	0xf3
 8081 0481 01       		.uleb128 0x1
 8082 0482 50       		.byte	0x50
ARM GAS  C:\Users\jorti\AppData\Local\Temp\ccDtGf1z.s 			page 190


 8083 0483 9F       		.byte	0x9f
 8084 0484 00000000 		.4byte	0
 8085 0488 00000000 		.4byte	0
 8086              	.LLST18:
 8087 048c 00000000 		.4byte	.LVL77
 8088 0490 2D000000 		.4byte	.LVL79-1
 8089 0494 0100     		.2byte	0x1
 8090 0496 51       		.byte	0x51
 8091 0497 2D000000 		.4byte	.LVL79-1
 8092 049b 90000000 		.4byte	.LFE6
 8093 049f 0400     		.2byte	0x4
 8094 04a1 F3       		.byte	0xf3
 8095 04a2 01       		.uleb128 0x1
 8096 04a3 51       		.byte	0x51
 8097 04a4 9F       		.byte	0x9f
 8098 04a5 00000000 		.4byte	0
 8099 04a9 00000000 		.4byte	0
 8100              	.LLST19:
 8101 04ad 00000000 		.4byte	.LVL77
 8102 04b1 2D000000 		.4byte	.LVL79-1
 8103 04b5 0100     		.2byte	0x1
 8104 04b7 52       		.byte	0x52
 8105 04b8 2D000000 		.4byte	.LVL79-1
 8106 04bc 80000000 		.4byte	.LVL91
 8107 04c0 0100     		.2byte	0x1
 8108 04c2 57       		.byte	0x57
 8109 04c3 80000000 		.4byte	.LVL91
 8110 04c7 90000000 		.4byte	.LFE6
 8111 04cb 0400     		.2byte	0x4
 8112 04cd F3       		.byte	0xf3
 8113 04ce 01       		.uleb128 0x1
 8114 04cf 52       		.byte	0x52
 8115 04d0 9F       		.byte	0x9f
 8116 04d1 00000000 		.4byte	0
 8117 04d5 00000000 		.4byte	0
 8118              	.LLST20:
 8119 04d9 60000000 		.4byte	.LVL86
 8120 04dd 66000000 		.4byte	.LVL87
 8121 04e1 0100     		.2byte	0x1
 8122 04e3 50       		.byte	0x50
 8123 04e4 66000000 		.4byte	.LVL87
 8124 04e8 69000000 		.4byte	.LVL88-1
 8125 04ec 0100     		.2byte	0x1
 8126 04ee 52       		.byte	0x52
 8127 04ef 00000000 		.4byte	0
 8128 04f3 00000000 		.4byte	0
 8129              	.LLST21:
 8130 04f7 04000000 		.4byte	.LVL78
 8131 04fb 30000000 		.4byte	.LVL80
 8132 04ff 0200     		.2byte	0x2
 8133 0501 30       		.byte	0x30
 8134 0502 9F       		.byte	0x9f
 8135 0503 30000000 		.4byte	.LVL80
 8136 0507 3C000000 		.4byte	.LVL81
 8137 050b 0100     		.2byte	0x1
 8138 050d 50       		.byte	0x50
 8139 050e 3C000000 		.4byte	.LVL81
ARM GAS  C:\Users\jorti\AppData\Local\Temp\ccDtGf1z.s 			page 191


 8140 0512 48000000 		.4byte	.LVL83
 8141 0516 0100     		.2byte	0x1
 8142 0518 58       		.byte	0x58
 8143 0519 48000000 		.4byte	.LVL83
 8144 051d 53000000 		.4byte	.LVL84-1
 8145 0521 0100     		.2byte	0x1
 8146 0523 50       		.byte	0x50
 8147 0524 53000000 		.4byte	.LVL84-1
 8148 0528 5C000000 		.4byte	.LVL85
 8149 052c 0100     		.2byte	0x1
 8150 052e 58       		.byte	0x58
 8151 052f 5C000000 		.4byte	.LVL85
 8152 0533 5F000000 		.4byte	.LVL86-1
 8153 0537 0100     		.2byte	0x1
 8154 0539 50       		.byte	0x50
 8155 053a 5F000000 		.4byte	.LVL86-1
 8156 053e 80000000 		.4byte	.LVL91
 8157 0542 0100     		.2byte	0x1
 8158 0544 58       		.byte	0x58
 8159 0545 00000000 		.4byte	0
 8160 0549 00000000 		.4byte	0
 8161              	.LLST22:
 8162 054d 00000000 		.4byte	.LVL92
 8163 0551 0E000000 		.4byte	.LVL94
 8164 0555 0100     		.2byte	0x1
 8165 0557 50       		.byte	0x50
 8166 0558 0E000000 		.4byte	.LVL94
 8167 055c 10000000 		.4byte	.LVL95
 8168 0560 0400     		.2byte	0x4
 8169 0562 F3       		.byte	0xf3
 8170 0563 01       		.uleb128 0x1
 8171 0564 50       		.byte	0x50
 8172 0565 9F       		.byte	0x9f
 8173 0566 10000000 		.4byte	.LVL95
 8174 056a 17000000 		.4byte	.LVL96-1
 8175 056e 0100     		.2byte	0x1
 8176 0570 50       		.byte	0x50
 8177 0571 17000000 		.4byte	.LVL96-1
 8178 0575 24000000 		.4byte	.LVL98
 8179 0579 0100     		.2byte	0x1
 8180 057b 54       		.byte	0x54
 8181 057c 00000000 		.4byte	0
 8182 0580 00000000 		.4byte	0
 8183              	.LLST23:
 8184 0584 00000000 		.4byte	.LVL92
 8185 0588 17000000 		.4byte	.LVL96-1
 8186 058c 0100     		.2byte	0x1
 8187 058e 51       		.byte	0x51
 8188 058f 17000000 		.4byte	.LVL96-1
 8189 0593 38000000 		.4byte	.LFE8
 8190 0597 0400     		.2byte	0x4
 8191 0599 F3       		.byte	0xf3
 8192 059a 01       		.uleb128 0x1
 8193 059b 51       		.byte	0x51
 8194 059c 9F       		.byte	0x9f
 8195 059d 00000000 		.4byte	0
 8196 05a1 00000000 		.4byte	0
ARM GAS  C:\Users\jorti\AppData\Local\Temp\ccDtGf1z.s 			page 192


 8197              	.LLST24:
 8198 05a5 00000000 		.4byte	.LVL92
 8199 05a9 17000000 		.4byte	.LVL96-1
 8200 05ad 0100     		.2byte	0x1
 8201 05af 52       		.byte	0x52
 8202 05b0 17000000 		.4byte	.LVL96-1
 8203 05b4 32000000 		.4byte	.LVL101
 8204 05b8 0100     		.2byte	0x1
 8205 05ba 56       		.byte	0x56
 8206 05bb 32000000 		.4byte	.LVL101
 8207 05bf 38000000 		.4byte	.LFE8
 8208 05c3 0400     		.2byte	0x4
 8209 05c5 F3       		.byte	0xf3
 8210 05c6 01       		.uleb128 0x1
 8211 05c7 52       		.byte	0x52
 8212 05c8 9F       		.byte	0x9f
 8213 05c9 00000000 		.4byte	0
 8214 05cd 00000000 		.4byte	0
 8215              	.LLST25:
 8216 05d1 26000000 		.4byte	.LVL99
 8217 05d5 32000000 		.4byte	.LVL101
 8218 05d9 0100     		.2byte	0x1
 8219 05db 54       		.byte	0x54
 8220 05dc 32000000 		.4byte	.LVL101
 8221 05e0 38000000 		.4byte	.LFE8
 8222 05e4 0100     		.2byte	0x1
 8223 05e6 50       		.byte	0x50
 8224 05e7 00000000 		.4byte	0
 8225 05eb 00000000 		.4byte	0
 8226              	.LLST26:
 8227 05ef 04000000 		.4byte	.LVL93
 8228 05f3 18000000 		.4byte	.LVL96
 8229 05f7 0200     		.2byte	0x2
 8230 05f9 30       		.byte	0x30
 8231 05fa 9F       		.byte	0x9f
 8232 05fb 18000000 		.4byte	.LVL96
 8233 05ff 29000000 		.4byte	.LVL100-1
 8234 0603 0100     		.2byte	0x1
 8235 0605 50       		.byte	0x50
 8236 0606 00000000 		.4byte	0
 8237 060a 00000000 		.4byte	0
 8238              	.LLST27:
 8239 060e 00000000 		.4byte	.LVL102
 8240 0612 07000000 		.4byte	.LVL104-1
 8241 0616 0100     		.2byte	0x1
 8242 0618 50       		.byte	0x50
 8243 0619 07000000 		.4byte	.LVL104-1
 8244 061d 2E000000 		.4byte	.LVL109
 8245 0621 0100     		.2byte	0x1
 8246 0623 55       		.byte	0x55
 8247 0624 2E000000 		.4byte	.LVL109
 8248 0628 34000000 		.4byte	.LFE9
 8249 062c 0400     		.2byte	0x4
 8250 062e F3       		.byte	0xf3
 8251 062f 01       		.uleb128 0x1
 8252 0630 50       		.byte	0x50
 8253 0631 9F       		.byte	0x9f
ARM GAS  C:\Users\jorti\AppData\Local\Temp\ccDtGf1z.s 			page 193


 8254 0632 00000000 		.4byte	0
 8255 0636 00000000 		.4byte	0
 8256              	.LLST28:
 8257 063a 1C000000 		.4byte	.LVL106
 8258 063e 2A000000 		.4byte	.LVL108
 8259 0642 0100     		.2byte	0x1
 8260 0644 54       		.byte	0x54
 8261 0645 00000000 		.4byte	0
 8262 0649 00000000 		.4byte	0
 8263              	.LLST29:
 8264 064d 04000000 		.4byte	.LVL103
 8265 0651 08000000 		.4byte	.LVL104
 8266 0655 0200     		.2byte	0x2
 8267 0657 30       		.byte	0x30
 8268 0658 9F       		.byte	0x9f
 8269 0659 08000000 		.4byte	.LVL104
 8270 065d 17000000 		.4byte	.LVL105-1
 8271 0661 0100     		.2byte	0x1
 8272 0663 50       		.byte	0x50
 8273 0664 1C000000 		.4byte	.LVL106
 8274 0668 25000000 		.4byte	.LVL107-1
 8275 066c 0100     		.2byte	0x1
 8276 066e 50       		.byte	0x50
 8277 066f 00000000 		.4byte	0
 8278 0673 00000000 		.4byte	0
 8279              	.LLST30:
 8280 0677 00000000 		.4byte	.LVL110
 8281 067b 17000000 		.4byte	.LVL114-1
 8282 067f 0100     		.2byte	0x1
 8283 0681 50       		.byte	0x50
 8284 0682 17000000 		.4byte	.LVL114-1
 8285 0686 24000000 		.4byte	.LVL116
 8286 068a 0100     		.2byte	0x1
 8287 068c 54       		.byte	0x54
 8288 068d 00000000 		.4byte	0
 8289 0691 00000000 		.4byte	0
 8290              	.LLST31:
 8291 0695 00000000 		.4byte	.LVL110
 8292 0699 17000000 		.4byte	.LVL114-1
 8293 069d 0100     		.2byte	0x1
 8294 069f 51       		.byte	0x51
 8295 06a0 17000000 		.4byte	.LVL114-1
 8296 06a4 34000000 		.4byte	.LFE10
 8297 06a8 0400     		.2byte	0x4
 8298 06aa F3       		.byte	0xf3
 8299 06ab 01       		.uleb128 0x1
 8300 06ac 51       		.byte	0x51
 8301 06ad 9F       		.byte	0x9f
 8302 06ae 00000000 		.4byte	0
 8303 06b2 00000000 		.4byte	0
 8304              	.LLST32:
 8305 06b6 00000000 		.4byte	.LVL110
 8306 06ba 17000000 		.4byte	.LVL114-1
 8307 06be 0100     		.2byte	0x1
 8308 06c0 52       		.byte	0x52
 8309 06c1 17000000 		.4byte	.LVL114-1
 8310 06c5 30000000 		.4byte	.LVL118
ARM GAS  C:\Users\jorti\AppData\Local\Temp\ccDtGf1z.s 			page 194


 8311 06c9 0100     		.2byte	0x1
 8312 06cb 57       		.byte	0x57
 8313 06cc 30000000 		.4byte	.LVL118
 8314 06d0 34000000 		.4byte	.LFE10
 8315 06d4 0400     		.2byte	0x4
 8316 06d6 F3       		.byte	0xf3
 8317 06d7 01       		.uleb128 0x1
 8318 06d8 52       		.byte	0x52
 8319 06d9 9F       		.byte	0x9f
 8320 06da 00000000 		.4byte	0
 8321 06de 00000000 		.4byte	0
 8322              	.LLST33:
 8323 06e2 00000000 		.4byte	.LVL110
 8324 06e6 0A000000 		.4byte	.LVL112
 8325 06ea 0100     		.2byte	0x1
 8326 06ec 53       		.byte	0x53
 8327 06ed 0A000000 		.4byte	.LVL112
 8328 06f1 0E000000 		.4byte	.LVL113
 8329 06f5 0100     		.2byte	0x1
 8330 06f7 56       		.byte	0x56
 8331 06f8 0E000000 		.4byte	.LVL113
 8332 06fc 17000000 		.4byte	.LVL114-1
 8333 0700 0100     		.2byte	0x1
 8334 0702 53       		.byte	0x53
 8335 0703 17000000 		.4byte	.LVL114-1
 8336 0707 30000000 		.4byte	.LVL118
 8337 070b 0100     		.2byte	0x1
 8338 070d 56       		.byte	0x56
 8339 070e 30000000 		.4byte	.LVL118
 8340 0712 34000000 		.4byte	.LFE10
 8341 0716 0400     		.2byte	0x4
 8342 0718 F3       		.byte	0xf3
 8343 0719 01       		.uleb128 0x1
 8344 071a 53       		.byte	0x53
 8345 071b 9F       		.byte	0x9f
 8346 071c 00000000 		.4byte	0
 8347 0720 00000000 		.4byte	0
 8348              	.LLST34:
 8349 0724 04000000 		.4byte	.LVL111
 8350 0728 18000000 		.4byte	.LVL114
 8351 072c 0200     		.2byte	0x2
 8352 072e 30       		.byte	0x30
 8353 072f 9F       		.byte	0x9f
 8354 0730 18000000 		.4byte	.LVL114
 8355 0734 29000000 		.4byte	.LVL117-1
 8356 0738 0100     		.2byte	0x1
 8357 073a 50       		.byte	0x50
 8358 073b 00000000 		.4byte	0
 8359 073f 00000000 		.4byte	0
 8360              	.LLST35:
 8361 0743 00000000 		.4byte	.LVL119
 8362 0747 37000000 		.4byte	.LVL125-1
 8363 074b 0100     		.2byte	0x1
 8364 074d 50       		.byte	0x50
 8365 074e 37000000 		.4byte	.LVL125-1
 8366 0752 1E010000 		.4byte	.LVL145
 8367 0756 0100     		.2byte	0x1
ARM GAS  C:\Users\jorti\AppData\Local\Temp\ccDtGf1z.s 			page 195


 8368 0758 58       		.byte	0x58
 8369 0759 1E010000 		.4byte	.LVL145
 8370 075d 30010000 		.4byte	.LFE12
 8371 0761 0400     		.2byte	0x4
 8372 0763 F3       		.byte	0xf3
 8373 0764 01       		.uleb128 0x1
 8374 0765 50       		.byte	0x50
 8375 0766 9F       		.byte	0x9f
 8376 0767 00000000 		.4byte	0
 8377 076b 00000000 		.4byte	0
 8378              	.LLST36:
 8379 076f 00000000 		.4byte	.LVL119
 8380 0773 37000000 		.4byte	.LVL125-1
 8381 0777 0100     		.2byte	0x1
 8382 0779 51       		.byte	0x51
 8383 077a 37000000 		.4byte	.LVL125-1
 8384 077e 30010000 		.4byte	.LFE12
 8385 0782 0400     		.2byte	0x4
 8386 0784 F3       		.byte	0xf3
 8387 0785 01       		.uleb128 0x1
 8388 0786 51       		.byte	0x51
 8389 0787 9F       		.byte	0x9f
 8390 0788 00000000 		.4byte	0
 8391 078c 00000000 		.4byte	0
 8392              	.LLST37:
 8393 0790 00000000 		.4byte	.LVL119
 8394 0794 0E000000 		.4byte	.LVL121
 8395 0798 0100     		.2byte	0x1
 8396 079a 52       		.byte	0x52
 8397 079b 0E000000 		.4byte	.LVL121
 8398 079f 14000000 		.4byte	.LVL122
 8399 07a3 0400     		.2byte	0x4
 8400 07a5 F3       		.byte	0xf3
 8401 07a6 01       		.uleb128 0x1
 8402 07a7 52       		.byte	0x52
 8403 07a8 9F       		.byte	0x9f
 8404 07a9 14000000 		.4byte	.LVL122
 8405 07ad 20000000 		.4byte	.LVL123
 8406 07b1 0100     		.2byte	0x1
 8407 07b3 52       		.byte	0x52
 8408 07b4 20000000 		.4byte	.LVL123
 8409 07b8 26000000 		.4byte	.LVL124
 8410 07bc 0400     		.2byte	0x4
 8411 07be F3       		.byte	0xf3
 8412 07bf 01       		.uleb128 0x1
 8413 07c0 52       		.byte	0x52
 8414 07c1 9F       		.byte	0x9f
 8415 07c2 26000000 		.4byte	.LVL124
 8416 07c6 37000000 		.4byte	.LVL125-1
 8417 07ca 0100     		.2byte	0x1
 8418 07cc 52       		.byte	0x52
 8419 07cd 37000000 		.4byte	.LVL125-1
 8420 07d1 1E010000 		.4byte	.LVL145
 8421 07d5 0100     		.2byte	0x1
 8422 07d7 56       		.byte	0x56
 8423 07d8 1E010000 		.4byte	.LVL145
 8424 07dc 30010000 		.4byte	.LFE12
ARM GAS  C:\Users\jorti\AppData\Local\Temp\ccDtGf1z.s 			page 196


 8425 07e0 0400     		.2byte	0x4
 8426 07e2 F3       		.byte	0xf3
 8427 07e3 01       		.uleb128 0x1
 8428 07e4 52       		.byte	0x52
 8429 07e5 9F       		.byte	0x9f
 8430 07e6 00000000 		.4byte	0
 8431 07ea 00000000 		.4byte	0
 8432              	.LLST38:
 8433 07ee 00000000 		.4byte	.LVL119
 8434 07f2 37000000 		.4byte	.LVL125-1
 8435 07f6 0100     		.2byte	0x1
 8436 07f8 53       		.byte	0x53
 8437 07f9 37000000 		.4byte	.LVL125-1
 8438 07fd 1E010000 		.4byte	.LVL145
 8439 0801 0100     		.2byte	0x1
 8440 0803 57       		.byte	0x57
 8441 0804 1E010000 		.4byte	.LVL145
 8442 0808 30010000 		.4byte	.LFE12
 8443 080c 0400     		.2byte	0x4
 8444 080e F3       		.byte	0xf3
 8445 080f 01       		.uleb128 0x1
 8446 0810 53       		.byte	0x53
 8447 0811 9F       		.byte	0x9f
 8448 0812 00000000 		.4byte	0
 8449 0816 00000000 		.4byte	0
 8450              	.LLST39:
 8451 081a 46000000 		.4byte	.LVL127
 8452 081e 74000000 		.4byte	.LVL130
 8453 0822 0100     		.2byte	0x1
 8454 0824 54       		.byte	0x54
 8455 0825 18010000 		.4byte	.LVL144
 8456 0829 1E010000 		.4byte	.LVL145
 8457 082d 0100     		.2byte	0x1
 8458 082f 54       		.byte	0x54
 8459 0830 00000000 		.4byte	0
 8460 0834 00000000 		.4byte	0
 8461              	.LLST40:
 8462 0838 04000000 		.4byte	.LVL120
 8463 083c 3A000000 		.4byte	.LVL126
 8464 0840 0200     		.2byte	0x2
 8465 0842 30       		.byte	0x30
 8466 0843 9F       		.byte	0x9f
 8467 0844 3A000000 		.4byte	.LVL126
 8468 0848 4F000000 		.4byte	.LVL128-1
 8469 084c 0100     		.2byte	0x1
 8470 084e 50       		.byte	0x50
 8471 084f 4F000000 		.4byte	.LVL128-1
 8472 0853 74000000 		.4byte	.LVL130
 8473 0857 0100     		.2byte	0x1
 8474 0859 59       		.byte	0x59
 8475 085a 74000000 		.4byte	.LVL130
 8476 085e 7D000000 		.4byte	.LVL131-1
 8477 0862 0100     		.2byte	0x1
 8478 0864 50       		.byte	0x50
 8479 0865 7D000000 		.4byte	.LVL131-1
 8480 0869 86000000 		.4byte	.LVL132
 8481 086d 0100     		.2byte	0x1
ARM GAS  C:\Users\jorti\AppData\Local\Temp\ccDtGf1z.s 			page 197


 8482 086f 59       		.byte	0x59
 8483 0870 86000000 		.4byte	.LVL132
 8484 0874 8F000000 		.4byte	.LVL133-1
 8485 0878 0100     		.2byte	0x1
 8486 087a 50       		.byte	0x50
 8487 087b 8F000000 		.4byte	.LVL133-1
 8488 087f 98000000 		.4byte	.LVL134
 8489 0883 0100     		.2byte	0x1
 8490 0885 59       		.byte	0x59
 8491 0886 98000000 		.4byte	.LVL134
 8492 088a A0000000 		.4byte	.LVL135
 8493 088e 0100     		.2byte	0x1
 8494 0890 50       		.byte	0x50
 8495 0891 A0000000 		.4byte	.LVL135
 8496 0895 B4000000 		.4byte	.LVL140
 8497 0899 0100     		.2byte	0x1
 8498 089b 59       		.byte	0x59
 8499 089c B4000000 		.4byte	.LVL140
 8500 08a0 D1000000 		.4byte	.LVL141-1
 8501 08a4 0100     		.2byte	0x1
 8502 08a6 50       		.byte	0x50
 8503 08a7 D1000000 		.4byte	.LVL141-1
 8504 08ab F0000000 		.4byte	.LVL142
 8505 08af 0100     		.2byte	0x1
 8506 08b1 55       		.byte	0x55
 8507 08b2 F0000000 		.4byte	.LVL142
 8508 08b6 12010000 		.4byte	.LVL143
 8509 08ba 0100     		.2byte	0x1
 8510 08bc 50       		.byte	0x50
 8511 08bd 12010000 		.4byte	.LVL143
 8512 08c1 1E010000 		.4byte	.LVL145
 8513 08c5 0100     		.2byte	0x1
 8514 08c7 55       		.byte	0x55
 8515 08c8 00000000 		.4byte	0
 8516 08cc 00000000 		.4byte	0
 8517              	.LLST41:
 8518 08d0 00000000 		.4byte	.LVL146
 8519 08d4 2B000000 		.4byte	.LVL148-1
 8520 08d8 0100     		.2byte	0x1
 8521 08da 50       		.byte	0x50
 8522 08db 2B000000 		.4byte	.LVL148-1
 8523 08df 84000000 		.4byte	.LVL161
 8524 08e3 0100     		.2byte	0x1
 8525 08e5 57       		.byte	0x57
 8526 08e6 84000000 		.4byte	.LVL161
 8527 08ea 90000000 		.4byte	.LFE13
 8528 08ee 0400     		.2byte	0x4
 8529 08f0 F3       		.byte	0xf3
 8530 08f1 01       		.uleb128 0x1
 8531 08f2 50       		.byte	0x50
 8532 08f3 9F       		.byte	0x9f
 8533 08f4 00000000 		.4byte	0
 8534 08f8 00000000 		.4byte	0
 8535              	.LLST42:
 8536 08fc 00000000 		.4byte	.LVL146
 8537 0900 2B000000 		.4byte	.LVL148-1
 8538 0904 0100     		.2byte	0x1
ARM GAS  C:\Users\jorti\AppData\Local\Temp\ccDtGf1z.s 			page 198


 8539 0906 51       		.byte	0x51
 8540 0907 2B000000 		.4byte	.LVL148-1
 8541 090b 90000000 		.4byte	.LFE13
 8542 090f 0400     		.2byte	0x4
 8543 0911 F3       		.byte	0xf3
 8544 0912 01       		.uleb128 0x1
 8545 0913 51       		.byte	0x51
 8546 0914 9F       		.byte	0x9f
 8547 0915 00000000 		.4byte	0
 8548 0919 00000000 		.4byte	0
 8549              	.LLST43:
 8550 091d 00000000 		.4byte	.LVL146
 8551 0921 2B000000 		.4byte	.LVL148-1
 8552 0925 0100     		.2byte	0x1
 8553 0927 52       		.byte	0x52
 8554 0928 2B000000 		.4byte	.LVL148-1
 8555 092c 84000000 		.4byte	.LVL161
 8556 0930 0100     		.2byte	0x1
 8557 0932 56       		.byte	0x56
 8558 0933 84000000 		.4byte	.LVL161
 8559 0937 90000000 		.4byte	.LFE13
 8560 093b 0400     		.2byte	0x4
 8561 093d F3       		.byte	0xf3
 8562 093e 01       		.uleb128 0x1
 8563 093f 52       		.byte	0x52
 8564 0940 9F       		.byte	0x9f
 8565 0941 00000000 		.4byte	0
 8566 0945 00000000 		.4byte	0
 8567              	.LLST44:
 8568 0949 64000000 		.4byte	.LVL156
 8569 094d 6A000000 		.4byte	.LVL157
 8570 0951 0100     		.2byte	0x1
 8571 0953 50       		.byte	0x50
 8572 0954 6A000000 		.4byte	.LVL157
 8573 0958 6D000000 		.4byte	.LVL158-1
 8574 095c 0100     		.2byte	0x1
 8575 095e 52       		.byte	0x52
 8576 095f 00000000 		.4byte	0
 8577 0963 00000000 		.4byte	0
 8578              	.LLST45:
 8579 0967 02000000 		.4byte	.LVL147
 8580 096b 2C000000 		.4byte	.LVL148
 8581 096f 0200     		.2byte	0x2
 8582 0971 30       		.byte	0x30
 8583 0972 9F       		.byte	0x9f
 8584 0973 2C000000 		.4byte	.LVL148
 8585 0977 39000000 		.4byte	.LVL149-1
 8586 097b 0100     		.2byte	0x1
 8587 097d 50       		.byte	0x50
 8588 097e 42000000 		.4byte	.LVL150
 8589 0982 4D000000 		.4byte	.LVL151-1
 8590 0986 0100     		.2byte	0x1
 8591 0988 50       		.byte	0x50
 8592 0989 56000000 		.4byte	.LVL152
 8593 098d 59000000 		.4byte	.LVL153-1
 8594 0991 0100     		.2byte	0x1
 8595 0993 50       		.byte	0x50
ARM GAS  C:\Users\jorti\AppData\Local\Temp\ccDtGf1z.s 			page 199


 8596 0994 60000000 		.4byte	.LVL155
 8597 0998 63000000 		.4byte	.LVL156-1
 8598 099c 0100     		.2byte	0x1
 8599 099e 50       		.byte	0x50
 8600 099f 63000000 		.4byte	.LVL156-1
 8601 09a3 84000000 		.4byte	.LVL161
 8602 09a7 0100     		.2byte	0x1
 8603 09a9 54       		.byte	0x54
 8604 09aa 00000000 		.4byte	0
 8605 09ae 00000000 		.4byte	0
 8606              	.LLST46:
 8607 09b2 00000000 		.4byte	.LVL162
 8608 09b6 12000000 		.4byte	.LVL164
 8609 09ba 0100     		.2byte	0x1
 8610 09bc 50       		.byte	0x50
 8611 09bd 12000000 		.4byte	.LVL164
 8612 09c1 14000000 		.4byte	.LVL165
 8613 09c5 0400     		.2byte	0x4
 8614 09c7 F3       		.byte	0xf3
 8615 09c8 01       		.uleb128 0x1
 8616 09c9 50       		.byte	0x50
 8617 09ca 9F       		.byte	0x9f
 8618 09cb 14000000 		.4byte	.LVL165
 8619 09cf 1B000000 		.4byte	.LVL166-1
 8620 09d3 0100     		.2byte	0x1
 8621 09d5 50       		.byte	0x50
 8622 09d6 1B000000 		.4byte	.LVL166-1
 8623 09da 32000000 		.4byte	.LVL170
 8624 09de 0100     		.2byte	0x1
 8625 09e0 55       		.byte	0x55
 8626 09e1 00000000 		.4byte	0
 8627 09e5 00000000 		.4byte	0
 8628              	.LLST47:
 8629 09e9 00000000 		.4byte	.LVL162
 8630 09ed 1B000000 		.4byte	.LVL166-1
 8631 09f1 0100     		.2byte	0x1
 8632 09f3 51       		.byte	0x51
 8633 09f4 1B000000 		.4byte	.LVL166-1
 8634 09f8 32000000 		.4byte	.LVL170
 8635 09fc 0100     		.2byte	0x1
 8636 09fe 57       		.byte	0x57
 8637 09ff 32000000 		.4byte	.LVL170
 8638 0a03 3C000000 		.4byte	.LFE15
 8639 0a07 0400     		.2byte	0x4
 8640 0a09 F3       		.byte	0xf3
 8641 0a0a 01       		.uleb128 0x1
 8642 0a0b 51       		.byte	0x51
 8643 0a0c 9F       		.byte	0x9f
 8644 0a0d 00000000 		.4byte	0
 8645 0a11 00000000 		.4byte	0
 8646              	.LLST48:
 8647 0a15 00000000 		.4byte	.LVL162
 8648 0a19 1B000000 		.4byte	.LVL166-1
 8649 0a1d 0100     		.2byte	0x1
 8650 0a1f 52       		.byte	0x52
 8651 0a20 1B000000 		.4byte	.LVL166-1
 8652 0a24 32000000 		.4byte	.LVL170
ARM GAS  C:\Users\jorti\AppData\Local\Temp\ccDtGf1z.s 			page 200


 8653 0a28 0100     		.2byte	0x1
 8654 0a2a 56       		.byte	0x56
 8655 0a2b 32000000 		.4byte	.LVL170
 8656 0a2f 3C000000 		.4byte	.LFE15
 8657 0a33 0400     		.2byte	0x4
 8658 0a35 F3       		.byte	0xf3
 8659 0a36 01       		.uleb128 0x1
 8660 0a37 52       		.byte	0x52
 8661 0a38 9F       		.byte	0x9f
 8662 0a39 00000000 		.4byte	0
 8663 0a3d 00000000 		.4byte	0
 8664              	.LLST49:
 8665 0a41 24000000 		.4byte	.LVL168
 8666 0a45 32000000 		.4byte	.LVL170
 8667 0a49 0100     		.2byte	0x1
 8668 0a4b 54       		.byte	0x54
 8669 0a4c 32000000 		.4byte	.LVL170
 8670 0a50 3C000000 		.4byte	.LFE15
 8671 0a54 0100     		.2byte	0x1
 8672 0a56 50       		.byte	0x50
 8673 0a57 00000000 		.4byte	0
 8674 0a5b 00000000 		.4byte	0
 8675              	.LLST50:
 8676 0a5f 04000000 		.4byte	.LVL163
 8677 0a63 1C000000 		.4byte	.LVL166
 8678 0a67 0200     		.2byte	0x2
 8679 0a69 30       		.byte	0x30
 8680 0a6a 9F       		.byte	0x9f
 8681 0a6b 1C000000 		.4byte	.LVL166
 8682 0a6f 29000000 		.4byte	.LVL169-1
 8683 0a73 0100     		.2byte	0x1
 8684 0a75 50       		.byte	0x50
 8685 0a76 00000000 		.4byte	0
 8686 0a7a 00000000 		.4byte	0
 8687              	.LLST51:
 8688 0a7e 00000000 		.4byte	.LVL171
 8689 0a82 2F000000 		.4byte	.LVL177-1
 8690 0a86 0100     		.2byte	0x1
 8691 0a88 50       		.byte	0x50
 8692 0a89 2F000000 		.4byte	.LVL177-1
 8693 0a8d 88000000 		.4byte	.LVL191
 8694 0a91 0100     		.2byte	0x1
 8695 0a93 54       		.byte	0x54
 8696 0a94 00000000 		.4byte	0
 8697 0a98 00000000 		.4byte	0
 8698              	.LLST52:
 8699 0a9c 00000000 		.4byte	.LVL171
 8700 0aa0 2F000000 		.4byte	.LVL177-1
 8701 0aa4 0100     		.2byte	0x1
 8702 0aa6 51       		.byte	0x51
 8703 0aa7 2F000000 		.4byte	.LVL177-1
 8704 0aab 88000000 		.4byte	.LVL191
 8705 0aaf 0100     		.2byte	0x1
 8706 0ab1 55       		.byte	0x55
 8707 0ab2 88000000 		.4byte	.LVL191
 8708 0ab6 90000000 		.4byte	.LFE16
 8709 0aba 0400     		.2byte	0x4
ARM GAS  C:\Users\jorti\AppData\Local\Temp\ccDtGf1z.s 			page 201


 8710 0abc F3       		.byte	0xf3
 8711 0abd 01       		.uleb128 0x1
 8712 0abe 51       		.byte	0x51
 8713 0abf 9F       		.byte	0x9f
 8714 0ac0 00000000 		.4byte	0
 8715 0ac4 00000000 		.4byte	0
 8716              	.LLST53:
 8717 0ac8 00000000 		.4byte	.LVL171
 8718 0acc 2F000000 		.4byte	.LVL177-1
 8719 0ad0 0100     		.2byte	0x1
 8720 0ad2 52       		.byte	0x52
 8721 0ad3 2F000000 		.4byte	.LVL177-1
 8722 0ad7 88000000 		.4byte	.LVL191
 8723 0adb 0100     		.2byte	0x1
 8724 0add 57       		.byte	0x57
 8725 0ade 88000000 		.4byte	.LVL191
 8726 0ae2 90000000 		.4byte	.LFE16
 8727 0ae6 0400     		.2byte	0x4
 8728 0ae8 F3       		.byte	0xf3
 8729 0ae9 01       		.uleb128 0x1
 8730 0aea 52       		.byte	0x52
 8731 0aeb 9F       		.byte	0x9f
 8732 0aec 00000000 		.4byte	0
 8733 0af0 00000000 		.4byte	0
 8734              	.LLST54:
 8735 0af4 00000000 		.4byte	.LVL171
 8736 0af8 06000000 		.4byte	.LVL173
 8737 0afc 0100     		.2byte	0x1
 8738 0afe 53       		.byte	0x53
 8739 0aff 06000000 		.4byte	.LVL173
 8740 0b03 88000000 		.4byte	.LVL191
 8741 0b07 0100     		.2byte	0x1
 8742 0b09 56       		.byte	0x56
 8743 0b0a 88000000 		.4byte	.LVL191
 8744 0b0e 90000000 		.4byte	.LFE16
 8745 0b12 0400     		.2byte	0x4
 8746 0b14 F3       		.byte	0xf3
 8747 0b15 01       		.uleb128 0x1
 8748 0b16 53       		.byte	0x53
 8749 0b17 9F       		.byte	0x9f
 8750 0b18 00000000 		.4byte	0
 8751 0b1c 00000000 		.4byte	0
 8752              	.LLST55:
 8753 0b20 6A000000 		.4byte	.LVL183
 8754 0b24 70000000 		.4byte	.LVL185
 8755 0b28 0200     		.2byte	0x2
 8756 0b2a 30       		.byte	0x30
 8757 0b2b 9F       		.byte	0x9f
 8758 0b2c 70000000 		.4byte	.LVL185
 8759 0b30 80000000 		.4byte	.LVL189
 8760 0b34 0100     		.2byte	0x1
 8761 0b36 52       		.byte	0x52
 8762 0b37 80000000 		.4byte	.LVL189
 8763 0b3b 82000000 		.4byte	.LVL190
 8764 0b3f 0200     		.2byte	0x2
 8765 0b41 75       		.byte	0x75
 8766 0b42 00       		.sleb128 0
ARM GAS  C:\Users\jorti\AppData\Local\Temp\ccDtGf1z.s 			page 202


 8767 0b43 00000000 		.4byte	0
 8768 0b47 00000000 		.4byte	0
 8769              	.LLST56:
 8770 0b4b 6C000000 		.4byte	.LVL184
 8771 0b4f 7E000000 		.4byte	.LVL188
 8772 0b53 0100     		.2byte	0x1
 8773 0b55 53       		.byte	0x53
 8774 0b56 00000000 		.4byte	0
 8775 0b5a 00000000 		.4byte	0
 8776              	.LLST57:
 8777 0b5e 04000000 		.4byte	.LVL172
 8778 0b62 30000000 		.4byte	.LVL177
 8779 0b66 0200     		.2byte	0x2
 8780 0b68 30       		.byte	0x30
 8781 0b69 9F       		.byte	0x9f
 8782 0b6a 30000000 		.4byte	.LVL177
 8783 0b6e 3D000000 		.4byte	.LVL179-1
 8784 0b72 0100     		.2byte	0x1
 8785 0b74 50       		.byte	0x50
 8786 0b75 4C000000 		.4byte	.LVL180
 8787 0b79 57000000 		.4byte	.LVL181-1
 8788 0b7d 0100     		.2byte	0x1
 8789 0b7f 50       		.byte	0x50
 8790 0b80 66000000 		.4byte	.LVL182
 8791 0b84 69000000 		.4byte	.LVL183-1
 8792 0b88 0100     		.2byte	0x1
 8793 0b8a 50       		.byte	0x50
 8794 0b8b 00000000 		.4byte	0
 8795 0b8f 00000000 		.4byte	0
 8796              	.LLST58:
 8797 0b93 00000000 		.4byte	.LVL192
 8798 0b97 19000000 		.4byte	.LVL194-1
 8799 0b9b 0100     		.2byte	0x1
 8800 0b9d 50       		.byte	0x50
 8801 0b9e 19000000 		.4byte	.LVL194-1
 8802 0ba2 40000000 		.4byte	.LVL197
 8803 0ba6 0100     		.2byte	0x1
 8804 0ba8 54       		.byte	0x54
 8805 0ba9 00000000 		.4byte	0
 8806 0bad 00000000 		.4byte	0
 8807              	.LLST59:
 8808 0bb1 00000000 		.4byte	.LVL192
 8809 0bb5 19000000 		.4byte	.LVL194-1
 8810 0bb9 0100     		.2byte	0x1
 8811 0bbb 51       		.byte	0x51
 8812 0bbc 19000000 		.4byte	.LVL194-1
 8813 0bc0 40000000 		.4byte	.LVL197
 8814 0bc4 0100     		.2byte	0x1
 8815 0bc6 56       		.byte	0x56
 8816 0bc7 40000000 		.4byte	.LVL197
 8817 0bcb 4C000000 		.4byte	.LFE18
 8818 0bcf 0400     		.2byte	0x4
 8819 0bd1 F3       		.byte	0xf3
 8820 0bd2 01       		.uleb128 0x1
 8821 0bd3 51       		.byte	0x51
 8822 0bd4 9F       		.byte	0x9f
 8823 0bd5 00000000 		.4byte	0
ARM GAS  C:\Users\jorti\AppData\Local\Temp\ccDtGf1z.s 			page 203


 8824 0bd9 00000000 		.4byte	0
 8825              	.LLST60:
 8826 0bdd 00000000 		.4byte	.LVL192
 8827 0be1 19000000 		.4byte	.LVL194-1
 8828 0be5 0100     		.2byte	0x1
 8829 0be7 52       		.byte	0x52
 8830 0be8 19000000 		.4byte	.LVL194-1
 8831 0bec 40000000 		.4byte	.LVL197
 8832 0bf0 0100     		.2byte	0x1
 8833 0bf2 55       		.byte	0x55
 8834 0bf3 40000000 		.4byte	.LVL197
 8835 0bf7 4C000000 		.4byte	.LFE18
 8836 0bfb 0400     		.2byte	0x4
 8837 0bfd F3       		.byte	0xf3
 8838 0bfe 01       		.uleb128 0x1
 8839 0bff 52       		.byte	0x52
 8840 0c00 9F       		.byte	0x9f
 8841 0c01 00000000 		.4byte	0
 8842 0c05 00000000 		.4byte	0
 8843              	.LLST61:
 8844 0c09 04000000 		.4byte	.LVL193
 8845 0c0d 1A000000 		.4byte	.LVL194
 8846 0c11 0200     		.2byte	0x2
 8847 0c13 30       		.byte	0x30
 8848 0c14 9F       		.byte	0x9f
 8849 0c15 1A000000 		.4byte	.LVL194
 8850 0c19 39000000 		.4byte	.LVL196-1
 8851 0c1d 0100     		.2byte	0x1
 8852 0c1f 50       		.byte	0x50
 8853 0c20 00000000 		.4byte	0
 8854 0c24 00000000 		.4byte	0
 8855              	.LLST62:
 8856 0c28 08000000 		.4byte	.LVL201
 8857 0c2c 18000000 		.4byte	.LVL204
 8858 0c30 0100     		.2byte	0x1
 8859 0c32 53       		.byte	0x53
 8860 0c33 1E000000 		.4byte	.LVL205
 8861 0c37 34000000 		.4byte	.LVL206
 8862 0c3b 0100     		.2byte	0x1
 8863 0c3d 53       		.byte	0x53
 8864 0c3e 00000000 		.4byte	0
 8865 0c42 00000000 		.4byte	0
 8866              	.LLST63:
 8867 0c46 04000000 		.4byte	.LVL200
 8868 0c4a 0C000000 		.4byte	.LVL202
 8869 0c4e 0100     		.2byte	0x1
 8870 0c50 52       		.byte	0x52
 8871 0c51 0C000000 		.4byte	.LVL202
 8872 0c55 16000000 		.4byte	.LVL203
 8873 0c59 0300     		.2byte	0x3
 8874 0c5b 70       		.byte	0x70
 8875 0c5c B401     		.sleb128 180
 8876 0c5e 1E000000 		.4byte	.LVL205
 8877 0c62 44000000 		.4byte	.LFE20
 8878 0c66 0100     		.2byte	0x1
 8879 0c68 52       		.byte	0x52
 8880 0c69 00000000 		.4byte	0
ARM GAS  C:\Users\jorti\AppData\Local\Temp\ccDtGf1z.s 			page 204


 8881 0c6d 00000000 		.4byte	0
 8882              	.LLST64:
 8883 0c71 00000000 		.4byte	.LVL208
 8884 0c75 30000000 		.4byte	.LVL209
 8885 0c79 0100     		.2byte	0x1
 8886 0c7b 50       		.byte	0x50
 8887 0c7c 30000000 		.4byte	.LVL209
 8888 0c80 C2000000 		.4byte	.LVL217
 8889 0c84 0100     		.2byte	0x1
 8890 0c86 54       		.byte	0x54
 8891 0c87 C2000000 		.4byte	.LVL217
 8892 0c8b CC000000 		.4byte	.LFE22
 8893 0c8f 0400     		.2byte	0x4
 8894 0c91 F3       		.byte	0xf3
 8895 0c92 01       		.uleb128 0x1
 8896 0c93 50       		.byte	0x50
 8897 0c94 9F       		.byte	0x9f
 8898 0c95 00000000 		.4byte	0
 8899 0c99 00000000 		.4byte	0
 8900              	.LLST65:
 8901 0c9d 44000000 		.4byte	.LVL211
 8902 0ca1 46000000 		.4byte	.LVL212
 8903 0ca5 0200     		.2byte	0x2
 8904 0ca7 30       		.byte	0x30
 8905 0ca8 9F       		.byte	0x9f
 8906 0ca9 46000000 		.4byte	.LVL212
 8907 0cad 54000000 		.4byte	.LVL213
 8908 0cb1 0100     		.2byte	0x1
 8909 0cb3 55       		.byte	0x55
 8910 0cb4 56000000 		.4byte	.LVL214
 8911 0cb8 5C000000 		.4byte	.LVL215
 8912 0cbc 0100     		.2byte	0x1
 8913 0cbe 55       		.byte	0x55
 8914 0cbf 00000000 		.4byte	0
 8915 0cc3 00000000 		.4byte	0
 8916              	.LLST66:
 8917 0cc7 00000000 		.4byte	.LVL218
 8918 0ccb 97000000 		.4byte	.LVL244-1
 8919 0ccf 0100     		.2byte	0x1
 8920 0cd1 50       		.byte	0x50
 8921 0cd2 97000000 		.4byte	.LVL244-1
 8922 0cd6 88010000 		.4byte	.LVL268
 8923 0cda 0100     		.2byte	0x1
 8924 0cdc 5B       		.byte	0x5b
 8925 0cdd 88010000 		.4byte	.LVL268
 8926 0ce1 A8010000 		.4byte	.LFE2
 8927 0ce5 0400     		.2byte	0x4
 8928 0ce7 F3       		.byte	0xf3
 8929 0ce8 01       		.uleb128 0x1
 8930 0ce9 50       		.byte	0x50
 8931 0cea 9F       		.byte	0x9f
 8932 0ceb 00000000 		.4byte	0
 8933 0cef 00000000 		.4byte	0
 8934              	.LLST67:
 8935 0cf3 00000000 		.4byte	.LVL218
 8936 0cf7 97000000 		.4byte	.LVL244-1
 8937 0cfb 0100     		.2byte	0x1
ARM GAS  C:\Users\jorti\AppData\Local\Temp\ccDtGf1z.s 			page 205


 8938 0cfd 51       		.byte	0x51
 8939 0cfe 97000000 		.4byte	.LVL244-1
 8940 0d02 88010000 		.4byte	.LVL268
 8941 0d06 0100     		.2byte	0x1
 8942 0d08 5A       		.byte	0x5a
 8943 0d09 88010000 		.4byte	.LVL268
 8944 0d0d A8010000 		.4byte	.LFE2
 8945 0d11 0400     		.2byte	0x4
 8946 0d13 F3       		.byte	0xf3
 8947 0d14 01       		.uleb128 0x1
 8948 0d15 51       		.byte	0x51
 8949 0d16 9F       		.byte	0x9f
 8950 0d17 00000000 		.4byte	0
 8951 0d1b 00000000 		.4byte	0
 8952              	.LLST68:
 8953 0d1f 00000000 		.4byte	.LVL218
 8954 0d23 1A000000 		.4byte	.LVL221
 8955 0d27 0100     		.2byte	0x1
 8956 0d29 52       		.byte	0x52
 8957 0d2a 1A000000 		.4byte	.LVL221
 8958 0d2e 1E000000 		.4byte	.LVL222
 8959 0d32 0400     		.2byte	0x4
 8960 0d34 F3       		.byte	0xf3
 8961 0d35 01       		.uleb128 0x1
 8962 0d36 52       		.byte	0x52
 8963 0d37 9F       		.byte	0x9f
 8964 0d38 1E000000 		.4byte	.LVL222
 8965 0d3c 26000000 		.4byte	.LVL224
 8966 0d40 0100     		.2byte	0x1
 8967 0d42 52       		.byte	0x52
 8968 0d43 26000000 		.4byte	.LVL224
 8969 0d47 2A000000 		.4byte	.LVL225
 8970 0d4b 0400     		.2byte	0x4
 8971 0d4d F3       		.byte	0xf3
 8972 0d4e 01       		.uleb128 0x1
 8973 0d4f 52       		.byte	0x52
 8974 0d50 9F       		.byte	0x9f
 8975 0d51 2A000000 		.4byte	.LVL225
 8976 0d55 32000000 		.4byte	.LVL227
 8977 0d59 0100     		.2byte	0x1
 8978 0d5b 52       		.byte	0x52
 8979 0d5c 32000000 		.4byte	.LVL227
 8980 0d60 36000000 		.4byte	.LVL228
 8981 0d64 0400     		.2byte	0x4
 8982 0d66 F3       		.byte	0xf3
 8983 0d67 01       		.uleb128 0x1
 8984 0d68 52       		.byte	0x52
 8985 0d69 9F       		.byte	0x9f
 8986 0d6a 36000000 		.4byte	.LVL228
 8987 0d6e 40000000 		.4byte	.LVL230
 8988 0d72 0100     		.2byte	0x1
 8989 0d74 52       		.byte	0x52
 8990 0d75 40000000 		.4byte	.LVL230
 8991 0d79 44000000 		.4byte	.LVL231
 8992 0d7d 0400     		.2byte	0x4
 8993 0d7f F3       		.byte	0xf3
 8994 0d80 01       		.uleb128 0x1
ARM GAS  C:\Users\jorti\AppData\Local\Temp\ccDtGf1z.s 			page 206


 8995 0d81 52       		.byte	0x52
 8996 0d82 9F       		.byte	0x9f
 8997 0d83 44000000 		.4byte	.LVL231
 8998 0d87 54000000 		.4byte	.LVL233
 8999 0d8b 0100     		.2byte	0x1
 9000 0d8d 52       		.byte	0x52
 9001 0d8e 54000000 		.4byte	.LVL233
 9002 0d92 58000000 		.4byte	.LVL234
 9003 0d96 0400     		.2byte	0x4
 9004 0d98 F3       		.byte	0xf3
 9005 0d99 01       		.uleb128 0x1
 9006 0d9a 52       		.byte	0x52
 9007 0d9b 9F       		.byte	0x9f
 9008 0d9c 58000000 		.4byte	.LVL234
 9009 0da0 66000000 		.4byte	.LVL236
 9010 0da4 0100     		.2byte	0x1
 9011 0da6 52       		.byte	0x52
 9012 0da7 66000000 		.4byte	.LVL236
 9013 0dab 6A000000 		.4byte	.LVL237
 9014 0daf 0400     		.2byte	0x4
 9015 0db1 F3       		.byte	0xf3
 9016 0db2 01       		.uleb128 0x1
 9017 0db3 52       		.byte	0x52
 9018 0db4 9F       		.byte	0x9f
 9019 0db5 6A000000 		.4byte	.LVL237
 9020 0db9 74000000 		.4byte	.LVL239
 9021 0dbd 0100     		.2byte	0x1
 9022 0dbf 52       		.byte	0x52
 9023 0dc0 74000000 		.4byte	.LVL239
 9024 0dc4 78000000 		.4byte	.LVL240
 9025 0dc8 0400     		.2byte	0x4
 9026 0dca F3       		.byte	0xf3
 9027 0dcb 01       		.uleb128 0x1
 9028 0dcc 52       		.byte	0x52
 9029 0dcd 9F       		.byte	0x9f
 9030 0dce 78000000 		.4byte	.LVL240
 9031 0dd2 88000000 		.4byte	.LVL242
 9032 0dd6 0100     		.2byte	0x1
 9033 0dd8 52       		.byte	0x52
 9034 0dd9 88000000 		.4byte	.LVL242
 9035 0ddd 8C000000 		.4byte	.LVL243
 9036 0de1 0400     		.2byte	0x4
 9037 0de3 F3       		.byte	0xf3
 9038 0de4 01       		.uleb128 0x1
 9039 0de5 52       		.byte	0x52
 9040 0de6 9F       		.byte	0x9f
 9041 0de7 8C000000 		.4byte	.LVL243
 9042 0deb 97000000 		.4byte	.LVL244-1
 9043 0def 0100     		.2byte	0x1
 9044 0df1 52       		.byte	0x52
 9045 0df2 97000000 		.4byte	.LVL244-1
 9046 0df6 88010000 		.4byte	.LVL268
 9047 0dfa 0100     		.2byte	0x1
 9048 0dfc 55       		.byte	0x55
 9049 0dfd 88010000 		.4byte	.LVL268
 9050 0e01 A8010000 		.4byte	.LFE2
 9051 0e05 0400     		.2byte	0x4
ARM GAS  C:\Users\jorti\AppData\Local\Temp\ccDtGf1z.s 			page 207


 9052 0e07 F3       		.byte	0xf3
 9053 0e08 01       		.uleb128 0x1
 9054 0e09 52       		.byte	0x52
 9055 0e0a 9F       		.byte	0x9f
 9056 0e0b 00000000 		.4byte	0
 9057 0e0f 00000000 		.4byte	0
 9058              	.LLST69:
 9059 0e13 00000000 		.4byte	.LVL218
 9060 0e17 18000000 		.4byte	.LVL220
 9061 0e1b 0100     		.2byte	0x1
 9062 0e1d 53       		.byte	0x53
 9063 0e1e 18000000 		.4byte	.LVL220
 9064 0e22 1E000000 		.4byte	.LVL222
 9065 0e26 0400     		.2byte	0x4
 9066 0e28 F3       		.byte	0xf3
 9067 0e29 01       		.uleb128 0x1
 9068 0e2a 53       		.byte	0x53
 9069 0e2b 9F       		.byte	0x9f
 9070 0e2c 1E000000 		.4byte	.LVL222
 9071 0e30 24000000 		.4byte	.LVL223
 9072 0e34 0100     		.2byte	0x1
 9073 0e36 53       		.byte	0x53
 9074 0e37 24000000 		.4byte	.LVL223
 9075 0e3b 2A000000 		.4byte	.LVL225
 9076 0e3f 0400     		.2byte	0x4
 9077 0e41 F3       		.byte	0xf3
 9078 0e42 01       		.uleb128 0x1
 9079 0e43 53       		.byte	0x53
 9080 0e44 9F       		.byte	0x9f
 9081 0e45 2A000000 		.4byte	.LVL225
 9082 0e49 30000000 		.4byte	.LVL226
 9083 0e4d 0100     		.2byte	0x1
 9084 0e4f 53       		.byte	0x53
 9085 0e50 30000000 		.4byte	.LVL226
 9086 0e54 36000000 		.4byte	.LVL228
 9087 0e58 0400     		.2byte	0x4
 9088 0e5a F3       		.byte	0xf3
 9089 0e5b 01       		.uleb128 0x1
 9090 0e5c 53       		.byte	0x53
 9091 0e5d 9F       		.byte	0x9f
 9092 0e5e 36000000 		.4byte	.LVL228
 9093 0e62 3E000000 		.4byte	.LVL229
 9094 0e66 0100     		.2byte	0x1
 9095 0e68 53       		.byte	0x53
 9096 0e69 3E000000 		.4byte	.LVL229
 9097 0e6d 44000000 		.4byte	.LVL231
 9098 0e71 0400     		.2byte	0x4
 9099 0e73 F3       		.byte	0xf3
 9100 0e74 01       		.uleb128 0x1
 9101 0e75 53       		.byte	0x53
 9102 0e76 9F       		.byte	0x9f
 9103 0e77 44000000 		.4byte	.LVL231
 9104 0e7b 52000000 		.4byte	.LVL232
 9105 0e7f 0100     		.2byte	0x1
 9106 0e81 53       		.byte	0x53
 9107 0e82 52000000 		.4byte	.LVL232
 9108 0e86 58000000 		.4byte	.LVL234
ARM GAS  C:\Users\jorti\AppData\Local\Temp\ccDtGf1z.s 			page 208


 9109 0e8a 0400     		.2byte	0x4
 9110 0e8c F3       		.byte	0xf3
 9111 0e8d 01       		.uleb128 0x1
 9112 0e8e 53       		.byte	0x53
 9113 0e8f 9F       		.byte	0x9f
 9114 0e90 58000000 		.4byte	.LVL234
 9115 0e94 64000000 		.4byte	.LVL235
 9116 0e98 0100     		.2byte	0x1
 9117 0e9a 53       		.byte	0x53
 9118 0e9b 64000000 		.4byte	.LVL235
 9119 0e9f 6A000000 		.4byte	.LVL237
 9120 0ea3 0400     		.2byte	0x4
 9121 0ea5 F3       		.byte	0xf3
 9122 0ea6 01       		.uleb128 0x1
 9123 0ea7 53       		.byte	0x53
 9124 0ea8 9F       		.byte	0x9f
 9125 0ea9 6A000000 		.4byte	.LVL237
 9126 0ead 72000000 		.4byte	.LVL238
 9127 0eb1 0100     		.2byte	0x1
 9128 0eb3 53       		.byte	0x53
 9129 0eb4 72000000 		.4byte	.LVL238
 9130 0eb8 78000000 		.4byte	.LVL240
 9131 0ebc 0400     		.2byte	0x4
 9132 0ebe F3       		.byte	0xf3
 9133 0ebf 01       		.uleb128 0x1
 9134 0ec0 53       		.byte	0x53
 9135 0ec1 9F       		.byte	0x9f
 9136 0ec2 78000000 		.4byte	.LVL240
 9137 0ec6 86000000 		.4byte	.LVL241
 9138 0eca 0100     		.2byte	0x1
 9139 0ecc 53       		.byte	0x53
 9140 0ecd 86000000 		.4byte	.LVL241
 9141 0ed1 8C000000 		.4byte	.LVL243
 9142 0ed5 0400     		.2byte	0x4
 9143 0ed7 F3       		.byte	0xf3
 9144 0ed8 01       		.uleb128 0x1
 9145 0ed9 53       		.byte	0x53
 9146 0eda 9F       		.byte	0x9f
 9147 0edb 8C000000 		.4byte	.LVL243
 9148 0edf 97000000 		.4byte	.LVL244-1
 9149 0ee3 0100     		.2byte	0x1
 9150 0ee5 53       		.byte	0x53
 9151 0ee6 97000000 		.4byte	.LVL244-1
 9152 0eea 88010000 		.4byte	.LVL268
 9153 0eee 0100     		.2byte	0x1
 9154 0ef0 59       		.byte	0x59
 9155 0ef1 88010000 		.4byte	.LVL268
 9156 0ef5 A8010000 		.4byte	.LFE2
 9157 0ef9 0400     		.2byte	0x4
 9158 0efb F3       		.byte	0xf3
 9159 0efc 01       		.uleb128 0x1
 9160 0efd 53       		.byte	0x53
 9161 0efe 9F       		.byte	0x9f
 9162 0eff 00000000 		.4byte	0
 9163 0f03 00000000 		.4byte	0
 9164              	.LLST70:
 9165 0f07 00000000 		.4byte	.LVL218
ARM GAS  C:\Users\jorti\AppData\Local\Temp\ccDtGf1z.s 			page 209


 9166 0f0b 8E010000 		.4byte	.LVL269
 9167 0f0f 0200     		.2byte	0x2
 9168 0f11 91       		.byte	0x91
 9169 0f12 00       		.sleb128 0
 9170 0f13 8E010000 		.4byte	.LVL269
 9171 0f17 A8010000 		.4byte	.LFE2
 9172 0f1b 0200     		.2byte	0x2
 9173 0f1d 7D       		.byte	0x7d
 9174 0f1e 00       		.sleb128 0
 9175 0f1f 00000000 		.4byte	0
 9176 0f23 00000000 		.4byte	0
 9177              	.LLST71:
 9178 0f27 00000000 		.4byte	.LVL218
 9179 0f2b 8E010000 		.4byte	.LVL269
 9180 0f2f 0200     		.2byte	0x2
 9181 0f31 91       		.byte	0x91
 9182 0f32 04       		.sleb128 4
 9183 0f33 8E010000 		.4byte	.LVL269
 9184 0f37 A8010000 		.4byte	.LFE2
 9185 0f3b 0200     		.2byte	0x2
 9186 0f3d 7D       		.byte	0x7d
 9187 0f3e 04       		.sleb128 4
 9188 0f3f 00000000 		.4byte	0
 9189 0f43 00000000 		.4byte	0
 9190              	.LLST72:
 9191 0f47 00000000 		.4byte	.LVL218
 9192 0f4b 8E010000 		.4byte	.LVL269
 9193 0f4f 0200     		.2byte	0x2
 9194 0f51 91       		.byte	0x91
 9195 0f52 08       		.sleb128 8
 9196 0f53 8E010000 		.4byte	.LVL269
 9197 0f57 A8010000 		.4byte	.LFE2
 9198 0f5b 0200     		.2byte	0x2
 9199 0f5d 7D       		.byte	0x7d
 9200 0f5e 08       		.sleb128 8
 9201 0f5f 00000000 		.4byte	0
 9202 0f63 00000000 		.4byte	0
 9203              	.LLST73:
 9204 0f67 00000000 		.4byte	.LVL218
 9205 0f6b 8E010000 		.4byte	.LVL269
 9206 0f6f 0200     		.2byte	0x2
 9207 0f71 91       		.byte	0x91
 9208 0f72 0C       		.sleb128 12
 9209 0f73 8E010000 		.4byte	.LVL269
 9210 0f77 A8010000 		.4byte	.LFE2
 9211 0f7b 0200     		.2byte	0x2
 9212 0f7d 7D       		.byte	0x7d
 9213 0f7e 0C       		.sleb128 12
 9214 0f7f 00000000 		.4byte	0
 9215 0f83 00000000 		.4byte	0
 9216              	.LLST74:
 9217 0f87 00000000 		.4byte	.LVL218
 9218 0f8b 8E010000 		.4byte	.LVL269
 9219 0f8f 0200     		.2byte	0x2
 9220 0f91 91       		.byte	0x91
 9221 0f92 10       		.sleb128 16
 9222 0f93 8E010000 		.4byte	.LVL269
ARM GAS  C:\Users\jorti\AppData\Local\Temp\ccDtGf1z.s 			page 210


 9223 0f97 A8010000 		.4byte	.LFE2
 9224 0f9b 0200     		.2byte	0x2
 9225 0f9d 7D       		.byte	0x7d
 9226 0f9e 10       		.sleb128 16
 9227 0f9f 00000000 		.4byte	0
 9228 0fa3 00000000 		.4byte	0
 9229              	.LLST75:
 9230 0fa7 00000000 		.4byte	.LVL218
 9231 0fab 8E010000 		.4byte	.LVL269
 9232 0faf 0200     		.2byte	0x2
 9233 0fb1 91       		.byte	0x91
 9234 0fb2 14       		.sleb128 20
 9235 0fb3 8E010000 		.4byte	.LVL269
 9236 0fb7 A8010000 		.4byte	.LFE2
 9237 0fbb 0200     		.2byte	0x2
 9238 0fbd 7D       		.byte	0x7d
 9239 0fbe 14       		.sleb128 20
 9240 0fbf 00000000 		.4byte	0
 9241 0fc3 00000000 		.4byte	0
 9242              	.LLST76:
 9243 0fc7 00000000 		.4byte	.LVL218
 9244 0fcb 8E010000 		.4byte	.LVL269
 9245 0fcf 0200     		.2byte	0x2
 9246 0fd1 91       		.byte	0x91
 9247 0fd2 18       		.sleb128 24
 9248 0fd3 8E010000 		.4byte	.LVL269
 9249 0fd7 A8010000 		.4byte	.LFE2
 9250 0fdb 0200     		.2byte	0x2
 9251 0fdd 7D       		.byte	0x7d
 9252 0fde 18       		.sleb128 24
 9253 0fdf 00000000 		.4byte	0
 9254 0fe3 00000000 		.4byte	0
 9255              	.LLST77:
 9256 0fe7 00000000 		.4byte	.LVL218
 9257 0feb 8E010000 		.4byte	.LVL269
 9258 0fef 0200     		.2byte	0x2
 9259 0ff1 91       		.byte	0x91
 9260 0ff2 1C       		.sleb128 28
 9261 0ff3 8E010000 		.4byte	.LVL269
 9262 0ff7 A8010000 		.4byte	.LFE2
 9263 0ffb 0200     		.2byte	0x2
 9264 0ffd 7D       		.byte	0x7d
 9265 0ffe 1C       		.sleb128 28
 9266 0fff 00000000 		.4byte	0
 9267 1003 00000000 		.4byte	0
 9268              	.LLST78:
 9269 1007 00000000 		.4byte	.LVL218
 9270 100b 8E010000 		.4byte	.LVL269
 9271 100f 0200     		.2byte	0x2
 9272 1011 91       		.byte	0x91
 9273 1012 20       		.sleb128 32
 9274 1013 8E010000 		.4byte	.LVL269
 9275 1017 A8010000 		.4byte	.LFE2
 9276 101b 0200     		.2byte	0x2
 9277 101d 7D       		.byte	0x7d
 9278 101e 20       		.sleb128 32
 9279 101f 00000000 		.4byte	0
ARM GAS  C:\Users\jorti\AppData\Local\Temp\ccDtGf1z.s 			page 211


 9280 1023 00000000 		.4byte	0
 9281              	.LLST79:
 9282 1027 AE000000 		.4byte	.LVL245
 9283 102b B8000000 		.4byte	.LVL248
 9284 102f 0100     		.2byte	0x1
 9285 1031 53       		.byte	0x53
 9286 1032 BC000000 		.4byte	.LVL249
 9287 1036 C2000000 		.4byte	.LVL250
 9288 103a 0100     		.2byte	0x1
 9289 103c 53       		.byte	0x53
 9290 103d 00000000 		.4byte	0
 9291 1041 00000000 		.4byte	0
 9292              	.LLST80:
 9293 1045 22010000 		.4byte	.LVL253
 9294 1049 26010000 		.4byte	.LVL254
 9295 104d 0200     		.2byte	0x2
 9296 104f 30       		.byte	0x30
 9297 1050 9F       		.byte	0x9f
 9298 1051 26010000 		.4byte	.LVL254
 9299 1055 34010000 		.4byte	.LVL255
 9300 1059 0100     		.2byte	0x1
 9301 105b 53       		.byte	0x53
 9302 105c 36010000 		.4byte	.LVL256
 9303 1060 45010000 		.4byte	.LVL258-1
 9304 1064 0100     		.2byte	0x1
 9305 1066 53       		.byte	0x53
 9306 1067 00000000 		.4byte	0
 9307 106b 00000000 		.4byte	0
 9308              	.LLST81:
 9309 106f AE000000 		.4byte	.LVL245
 9310 1073 B8000000 		.4byte	.LVL248
 9311 1077 0100     		.2byte	0x1
 9312 1079 52       		.byte	0x52
 9313 107a BC000000 		.4byte	.LVL249
 9314 107e C2000000 		.4byte	.LVL250
 9315 1082 0100     		.2byte	0x1
 9316 1084 52       		.byte	0x52
 9317 1085 DC000000 		.4byte	.LVL252
 9318 1089 42010000 		.4byte	.LVL257
 9319 108d 0100     		.2byte	0x1
 9320 108f 50       		.byte	0x50
 9321 1090 00000000 		.4byte	0
 9322 1094 00000000 		.4byte	0
 9323              	.LLST82:
 9324 1098 CA000000 		.4byte	.LVL251
 9325 109c 52010000 		.4byte	.LVL261
 9326 10a0 0100     		.2byte	0x1
 9327 10a2 54       		.byte	0x54
 9328 10a3 52010000 		.4byte	.LVL261
 9329 10a7 88010000 		.4byte	.LVL268
 9330 10ab 0A00     		.2byte	0xa
 9331 10ad 91       		.byte	0x91
 9332 10ae 08       		.sleb128 8
 9333 10af 06       		.byte	0x6
 9334 10b0 32       		.byte	0x32
 9335 10b1 24       		.byte	0x24
 9336 10b2 91       		.byte	0x91
ARM GAS  C:\Users\jorti\AppData\Local\Temp\ccDtGf1z.s 			page 212


 9337 10b3 04       		.sleb128 4
 9338 10b4 06       		.byte	0x6
 9339 10b5 22       		.byte	0x22
 9340 10b6 9F       		.byte	0x9f
 9341 10b7 00000000 		.4byte	0
 9342 10bb 00000000 		.4byte	0
 9343              	.LLST83:
 9344 10bf 0E000000 		.4byte	.LVL219
 9345 10c3 52010000 		.4byte	.LVL261
 9346 10c7 0200     		.2byte	0x2
 9347 10c9 30       		.byte	0x30
 9348 10ca 9F       		.byte	0x9f
 9349 10cb 52010000 		.4byte	.LVL261
 9350 10cf 56010000 		.4byte	.LVL262
 9351 10d3 0100     		.2byte	0x1
 9352 10d5 50       		.byte	0x50
 9353 10d6 56010000 		.4byte	.LVL262
 9354 10da 88010000 		.4byte	.LVL268
 9355 10de 0100     		.2byte	0x1
 9356 10e0 54       		.byte	0x54
 9357 10e1 00000000 		.4byte	0
 9358 10e5 00000000 		.4byte	0
 9359              	.LLST84:
 9360 10e9 00000000 		.4byte	.LVL270
 9361 10ed 27000000 		.4byte	.LVL272-1
 9362 10f1 0100     		.2byte	0x1
 9363 10f3 50       		.byte	0x50
 9364 10f4 27000000 		.4byte	.LVL272-1
 9365 10f8 BC000000 		.4byte	.LVL295
 9366 10fc 0100     		.2byte	0x1
 9367 10fe 54       		.byte	0x54
 9368 10ff 00000000 		.4byte	0
 9369 1103 00000000 		.4byte	0
 9370              	.LLST85:
 9371 1107 00000000 		.4byte	.LVL270
 9372 110b 27000000 		.4byte	.LVL272-1
 9373 110f 0100     		.2byte	0x1
 9374 1111 51       		.byte	0x51
 9375 1112 27000000 		.4byte	.LVL272-1
 9376 1116 BC000000 		.4byte	.LVL295
 9377 111a 0100     		.2byte	0x1
 9378 111c 55       		.byte	0x55
 9379 111d BC000000 		.4byte	.LVL295
 9380 1121 CC000000 		.4byte	.LFE3
 9381 1125 0400     		.2byte	0x4
 9382 1127 F3       		.byte	0xf3
 9383 1128 01       		.uleb128 0x1
 9384 1129 51       		.byte	0x51
 9385 112a 9F       		.byte	0x9f
 9386 112b 00000000 		.4byte	0
 9387 112f 00000000 		.4byte	0
 9388              	.LLST86:
 9389 1133 04000000 		.4byte	.LVL271
 9390 1137 28000000 		.4byte	.LVL272
 9391 113b 0200     		.2byte	0x2
 9392 113d 30       		.byte	0x30
 9393 113e 9F       		.byte	0x9f
ARM GAS  C:\Users\jorti\AppData\Local\Temp\ccDtGf1z.s 			page 213


 9394 113f 28000000 		.4byte	.LVL272
 9395 1143 2F000000 		.4byte	.LVL274-1
 9396 1147 0100     		.2byte	0x1
 9397 1149 50       		.byte	0x50
 9398 114a 36000000 		.4byte	.LVL276
 9399 114e 4C000000 		.4byte	.LVL277
 9400 1152 0100     		.2byte	0x1
 9401 1154 50       		.byte	0x50
 9402 1155 4C000000 		.4byte	.LVL277
 9403 1159 52000000 		.4byte	.LVL279
 9404 115d 0100     		.2byte	0x1
 9405 115f 56       		.byte	0x56
 9406 1160 52000000 		.4byte	.LVL279
 9407 1164 54000000 		.4byte	.LVL280
 9408 1168 0100     		.2byte	0x1
 9409 116a 50       		.byte	0x50
 9410 116b 54000000 		.4byte	.LVL280
 9411 116f 5A000000 		.4byte	.LVL282
 9412 1173 0100     		.2byte	0x1
 9413 1175 56       		.byte	0x56
 9414 1176 5A000000 		.4byte	.LVL282
 9415 117a 5C000000 		.4byte	.LVL283
 9416 117e 0100     		.2byte	0x1
 9417 1180 50       		.byte	0x50
 9418 1181 5C000000 		.4byte	.LVL283
 9419 1185 78000000 		.4byte	.LVL286
 9420 1189 0100     		.2byte	0x1
 9421 118b 56       		.byte	0x56
 9422 118c 78000000 		.4byte	.LVL286
 9423 1190 7B000000 		.4byte	.LVL287-1
 9424 1194 0100     		.2byte	0x1
 9425 1196 50       		.byte	0x50
 9426 1197 7B000000 		.4byte	.LVL287-1
 9427 119b BC000000 		.4byte	.LVL295
 9428 119f 0100     		.2byte	0x1
 9429 11a1 56       		.byte	0x56
 9430 11a2 00000000 		.4byte	0
 9431 11a6 00000000 		.4byte	0
 9432              	.LLST87:
 9433 11aa 00000000 		.4byte	.LVL296
 9434 11ae 13000000 		.4byte	.LVL298-1
 9435 11b2 0100     		.2byte	0x1
 9436 11b4 50       		.byte	0x50
 9437 11b5 13000000 		.4byte	.LVL298-1
 9438 11b9 A8000000 		.4byte	.LVL316
 9439 11bd 0100     		.2byte	0x1
 9440 11bf 54       		.byte	0x54
 9441 11c0 00000000 		.4byte	0
 9442 11c4 00000000 		.4byte	0
 9443              	.LLST88:
 9444 11c8 00000000 		.4byte	.LVL296
 9445 11cc 13000000 		.4byte	.LVL298-1
 9446 11d0 0100     		.2byte	0x1
 9447 11d2 51       		.byte	0x51
 9448 11d3 13000000 		.4byte	.LVL298-1
 9449 11d7 A8000000 		.4byte	.LVL316
 9450 11db 0100     		.2byte	0x1
ARM GAS  C:\Users\jorti\AppData\Local\Temp\ccDtGf1z.s 			page 214


 9451 11dd 57       		.byte	0x57
 9452 11de A8000000 		.4byte	.LVL316
 9453 11e2 AC000000 		.4byte	.LFE23
 9454 11e6 0400     		.2byte	0x4
 9455 11e8 F3       		.byte	0xf3
 9456 11e9 01       		.uleb128 0x1
 9457 11ea 51       		.byte	0x51
 9458 11eb 9F       		.byte	0x9f
 9459 11ec 00000000 		.4byte	0
 9460 11f0 00000000 		.4byte	0
 9461              	.LLST89:
 9462 11f4 00000000 		.4byte	.LVL296
 9463 11f8 13000000 		.4byte	.LVL298-1
 9464 11fc 0100     		.2byte	0x1
 9465 11fe 52       		.byte	0x52
 9466 11ff 13000000 		.4byte	.LVL298-1
 9467 1203 AC000000 		.4byte	.LFE23
 9468 1207 0400     		.2byte	0x4
 9469 1209 F3       		.byte	0xf3
 9470 120a 01       		.uleb128 0x1
 9471 120b 52       		.byte	0x52
 9472 120c 9F       		.byte	0x9f
 9473 120d 00000000 		.4byte	0
 9474 1211 00000000 		.4byte	0
 9475              	.LLST90:
 9476 1215 00000000 		.4byte	.LVL296
 9477 1219 13000000 		.4byte	.LVL298-1
 9478 121d 0100     		.2byte	0x1
 9479 121f 53       		.byte	0x53
 9480 1220 13000000 		.4byte	.LVL298-1
 9481 1224 AC000000 		.4byte	.LFE23
 9482 1228 0400     		.2byte	0x4
 9483 122a F3       		.byte	0xf3
 9484 122b 01       		.uleb128 0x1
 9485 122c 53       		.byte	0x53
 9486 122d 9F       		.byte	0x9f
 9487 122e 00000000 		.4byte	0
 9488 1232 00000000 		.4byte	0
 9489              	.LLST91:
 9490 1236 00000000 		.4byte	.LVL296
 9491 123a A8000000 		.4byte	.LVL316
 9492 123e 0200     		.2byte	0x2
 9493 1240 91       		.byte	0x91
 9494 1241 00       		.sleb128 0
 9495 1242 A8000000 		.4byte	.LVL316
 9496 1246 AC000000 		.4byte	.LFE23
 9497 124a 0200     		.2byte	0x2
 9498 124c 7D       		.byte	0x7d
 9499 124d 00       		.sleb128 0
 9500 124e 00000000 		.4byte	0
 9501 1252 00000000 		.4byte	0
 9502              	.LLST92:
 9503 1256 00000000 		.4byte	.LVL296
 9504 125a A8000000 		.4byte	.LVL316
 9505 125e 0200     		.2byte	0x2
 9506 1260 91       		.byte	0x91
 9507 1261 04       		.sleb128 4
ARM GAS  C:\Users\jorti\AppData\Local\Temp\ccDtGf1z.s 			page 215


 9508 1262 A8000000 		.4byte	.LVL316
 9509 1266 AC000000 		.4byte	.LFE23
 9510 126a 0200     		.2byte	0x2
 9511 126c 7D       		.byte	0x7d
 9512 126d 04       		.sleb128 4
 9513 126e 00000000 		.4byte	0
 9514 1272 00000000 		.4byte	0
 9515              	.LLST93:
 9516 1276 10000000 		.4byte	.LVL297
 9517 127a 16000000 		.4byte	.LVL299
 9518 127e 0200     		.2byte	0x2
 9519 1280 30       		.byte	0x30
 9520 1281 9F       		.byte	0x9f
 9521 1282 16000000 		.4byte	.LVL299
 9522 1286 44000000 		.4byte	.LVL301
 9523 128a 0100     		.2byte	0x1
 9524 128c 50       		.byte	0x50
 9525 128d 44000000 		.4byte	.LVL301
 9526 1291 50000000 		.4byte	.LVL304
 9527 1295 0100     		.2byte	0x1
 9528 1297 56       		.byte	0x56
 9529 1298 50000000 		.4byte	.LVL304
 9530 129c 64000000 		.4byte	.LVL305
 9531 12a0 0100     		.2byte	0x1
 9532 12a2 50       		.byte	0x50
 9533 12a3 64000000 		.4byte	.LVL305
 9534 12a7 7A000000 		.4byte	.LVL309
 9535 12ab 0100     		.2byte	0x1
 9536 12ad 56       		.byte	0x56
 9537 12ae 7A000000 		.4byte	.LVL309
 9538 12b2 8A000000 		.4byte	.LVL310
 9539 12b6 0100     		.2byte	0x1
 9540 12b8 50       		.byte	0x50
 9541 12b9 8A000000 		.4byte	.LVL310
 9542 12bd 96000000 		.4byte	.LVL313
 9543 12c1 0100     		.2byte	0x1
 9544 12c3 56       		.byte	0x56
 9545 12c4 96000000 		.4byte	.LVL313
 9546 12c8 98000000 		.4byte	.LVL314
 9547 12cc 0100     		.2byte	0x1
 9548 12ce 50       		.byte	0x50
 9549 12cf 98000000 		.4byte	.LVL314
 9550 12d3 A8000000 		.4byte	.LVL316
 9551 12d7 0100     		.2byte	0x1
 9552 12d9 56       		.byte	0x56
 9553 12da 00000000 		.4byte	0
 9554 12de 00000000 		.4byte	0
 9555              	.LLST94:
 9556 12e2 00000000 		.4byte	.LVL317
 9557 12e6 31000000 		.4byte	.LVL321-1
 9558 12ea 0100     		.2byte	0x1
 9559 12ec 50       		.byte	0x50
 9560 12ed 31000000 		.4byte	.LVL321-1
 9561 12f1 44000000 		.4byte	.LVL323
 9562 12f5 0100     		.2byte	0x1
 9563 12f7 55       		.byte	0x55
 9564 12f8 44000000 		.4byte	.LVL323
ARM GAS  C:\Users\jorti\AppData\Local\Temp\ccDtGf1z.s 			page 216


 9565 12fc 48000000 		.4byte	.LFE7
 9566 1300 0400     		.2byte	0x4
 9567 1302 F3       		.byte	0xf3
 9568 1303 01       		.uleb128 0x1
 9569 1304 50       		.byte	0x50
 9570 1305 9F       		.byte	0x9f
 9571 1306 00000000 		.4byte	0
 9572 130a 00000000 		.4byte	0
 9573              	.LLST95:
 9574 130e 00000000 		.4byte	.LVL317
 9575 1312 31000000 		.4byte	.LVL321-1
 9576 1316 0100     		.2byte	0x1
 9577 1318 51       		.byte	0x51
 9578 1319 31000000 		.4byte	.LVL321-1
 9579 131d 44000000 		.4byte	.LVL323
 9580 1321 0100     		.2byte	0x1
 9581 1323 56       		.byte	0x56
 9582 1324 44000000 		.4byte	.LVL323
 9583 1328 48000000 		.4byte	.LFE7
 9584 132c 0400     		.2byte	0x4
 9585 132e F3       		.byte	0xf3
 9586 132f 01       		.uleb128 0x1
 9587 1330 51       		.byte	0x51
 9588 1331 9F       		.byte	0x9f
 9589 1332 00000000 		.4byte	0
 9590 1336 00000000 		.4byte	0
 9591              	.LLST96:
 9592 133a 00000000 		.4byte	.LVL317
 9593 133e 22000000 		.4byte	.LVL319
 9594 1342 0100     		.2byte	0x1
 9595 1344 52       		.byte	0x52
 9596 1345 22000000 		.4byte	.LVL319
 9597 1349 26000000 		.4byte	.LVL320
 9598 134d 0400     		.2byte	0x4
 9599 134f F3       		.byte	0xf3
 9600 1350 01       		.uleb128 0x1
 9601 1351 52       		.byte	0x52
 9602 1352 9F       		.byte	0x9f
 9603 1353 26000000 		.4byte	.LVL320
 9604 1357 31000000 		.4byte	.LVL321-1
 9605 135b 0100     		.2byte	0x1
 9606 135d 52       		.byte	0x52
 9607 135e 31000000 		.4byte	.LVL321-1
 9608 1362 48000000 		.4byte	.LFE7
 9609 1366 0400     		.2byte	0x4
 9610 1368 F3       		.byte	0xf3
 9611 1369 01       		.uleb128 0x1
 9612 136a 52       		.byte	0x52
 9613 136b 9F       		.byte	0x9f
 9614 136c 00000000 		.4byte	0
 9615 1370 00000000 		.4byte	0
 9616              	.LLST97:
 9617 1374 00000000 		.4byte	.LVL317
 9618 1378 20000000 		.4byte	.LVL318
 9619 137c 0100     		.2byte	0x1
 9620 137e 53       		.byte	0x53
 9621 137f 20000000 		.4byte	.LVL318
ARM GAS  C:\Users\jorti\AppData\Local\Temp\ccDtGf1z.s 			page 217


 9622 1383 26000000 		.4byte	.LVL320
 9623 1387 0400     		.2byte	0x4
 9624 1389 F3       		.byte	0xf3
 9625 138a 01       		.uleb128 0x1
 9626 138b 53       		.byte	0x53
 9627 138c 9F       		.byte	0x9f
 9628 138d 26000000 		.4byte	.LVL320
 9629 1391 31000000 		.4byte	.LVL321-1
 9630 1395 0100     		.2byte	0x1
 9631 1397 53       		.byte	0x53
 9632 1398 31000000 		.4byte	.LVL321-1
 9633 139c 48000000 		.4byte	.LFE7
 9634 13a0 0400     		.2byte	0x4
 9635 13a2 F3       		.byte	0xf3
 9636 13a3 01       		.uleb128 0x1
 9637 13a4 53       		.byte	0x53
 9638 13a5 9F       		.byte	0x9f
 9639 13a6 00000000 		.4byte	0
 9640 13aa 00000000 		.4byte	0
 9641              	.LLST98:
 9642 13ae 32000000 		.4byte	.LVL321
 9643 13b2 40000000 		.4byte	.LVL322
 9644 13b6 0100     		.2byte	0x1
 9645 13b8 50       		.byte	0x50
 9646 13b9 40000000 		.4byte	.LVL322
 9647 13bd 43000000 		.4byte	.LVL323-1
 9648 13c1 0200     		.2byte	0x2
 9649 13c3 7D       		.byte	0x7d
 9650 13c4 00       		.sleb128 0
 9651 13c5 00000000 		.4byte	0
 9652 13c9 00000000 		.4byte	0
 9653              	.LLST99:
 9654 13cd 00000000 		.4byte	.LVL324
 9655 13d1 09000000 		.4byte	.LVL326-1
 9656 13d5 0100     		.2byte	0x1
 9657 13d7 50       		.byte	0x50
 9658 13d8 09000000 		.4byte	.LVL326-1
 9659 13dc B6000000 		.4byte	.LFE24
 9660 13e0 0100     		.2byte	0x1
 9661 13e2 54       		.byte	0x54
 9662 13e3 00000000 		.4byte	0
 9663 13e7 00000000 		.4byte	0
 9664              	.LLST100:
 9665 13eb 00000000 		.4byte	.LVL324
 9666 13ef 09000000 		.4byte	.LVL326-1
 9667 13f3 0100     		.2byte	0x1
 9668 13f5 51       		.byte	0x51
 9669 13f6 09000000 		.4byte	.LVL326-1
 9670 13fa B6000000 		.4byte	.LFE24
 9671 13fe 0100     		.2byte	0x1
 9672 1400 55       		.byte	0x55
 9673 1401 00000000 		.4byte	0
 9674 1405 00000000 		.4byte	0
 9675              	.LLST101:
 9676 1409 06000000 		.4byte	.LVL325
 9677 140d 0C000000 		.4byte	.LVL327
 9678 1411 0200     		.2byte	0x2
ARM GAS  C:\Users\jorti\AppData\Local\Temp\ccDtGf1z.s 			page 218


 9679 1413 30       		.byte	0x30
 9680 1414 9F       		.byte	0x9f
 9681 1415 0C000000 		.4byte	.LVL327
 9682 1419 27000000 		.4byte	.LVL328-1
 9683 141d 0100     		.2byte	0x1
 9684 141f 50       		.byte	0x50
 9685 1420 27000000 		.4byte	.LVL328-1
 9686 1424 30000000 		.4byte	.LVL329
 9687 1428 0100     		.2byte	0x1
 9688 142a 56       		.byte	0x56
 9689 142b 30000000 		.4byte	.LVL329
 9690 142f 44000000 		.4byte	.LVL330
 9691 1433 0100     		.2byte	0x1
 9692 1435 50       		.byte	0x50
 9693 1436 44000000 		.4byte	.LVL330
 9694 143a 50000000 		.4byte	.LVL333
 9695 143e 0100     		.2byte	0x1
 9696 1440 56       		.byte	0x56
 9697 1441 50000000 		.4byte	.LVL333
 9698 1445 66000000 		.4byte	.LVL334
 9699 1449 0100     		.2byte	0x1
 9700 144b 50       		.byte	0x50
 9701 144c 66000000 		.4byte	.LVL334
 9702 1450 6C000000 		.4byte	.LVL336
 9703 1454 0100     		.2byte	0x1
 9704 1456 56       		.byte	0x56
 9705 1457 6C000000 		.4byte	.LVL336
 9706 145b 82000000 		.4byte	.LVL337
 9707 145f 0100     		.2byte	0x1
 9708 1461 50       		.byte	0x50
 9709 1462 82000000 		.4byte	.LVL337
 9710 1466 88000000 		.4byte	.LVL339
 9711 146a 0100     		.2byte	0x1
 9712 146c 56       		.byte	0x56
 9713 146d 88000000 		.4byte	.LVL339
 9714 1471 9E000000 		.4byte	.LVL340
 9715 1475 0100     		.2byte	0x1
 9716 1477 50       		.byte	0x50
 9717 1478 9E000000 		.4byte	.LVL340
 9718 147c A4000000 		.4byte	.LVL342
 9719 1480 0100     		.2byte	0x1
 9720 1482 56       		.byte	0x56
 9721 1483 A4000000 		.4byte	.LVL342
 9722 1487 A7000000 		.4byte	.LVL343-1
 9723 148b 0100     		.2byte	0x1
 9724 148d 50       		.byte	0x50
 9725 148e A7000000 		.4byte	.LVL343-1
 9726 1492 B6000000 		.4byte	.LFE24
 9727 1496 0100     		.2byte	0x1
 9728 1498 56       		.byte	0x56
 9729 1499 00000000 		.4byte	0
 9730 149d 00000000 		.4byte	0
 9731              	.LLST102:
 9732 14a1 00000000 		.4byte	.LVL346
 9733 14a5 17000000 		.4byte	.LVL348-1
 9734 14a9 0100     		.2byte	0x1
 9735 14ab 50       		.byte	0x50
ARM GAS  C:\Users\jorti\AppData\Local\Temp\ccDtGf1z.s 			page 219


 9736 14ac 17000000 		.4byte	.LVL348-1
 9737 14b0 3C000000 		.4byte	.LVL353
 9738 14b4 0100     		.2byte	0x1
 9739 14b6 54       		.byte	0x54
 9740 14b7 3C000000 		.4byte	.LVL353
 9741 14bb 44000000 		.4byte	.LFE11
 9742 14bf 0400     		.2byte	0x4
 9743 14c1 F3       		.byte	0xf3
 9744 14c2 01       		.uleb128 0x1
 9745 14c3 50       		.byte	0x50
 9746 14c4 9F       		.byte	0x9f
 9747 14c5 00000000 		.4byte	0
 9748 14c9 00000000 		.4byte	0
 9749              	.LLST103:
 9750 14cd 00000000 		.4byte	.LVL346
 9751 14d1 17000000 		.4byte	.LVL348-1
 9752 14d5 0100     		.2byte	0x1
 9753 14d7 51       		.byte	0x51
 9754 14d8 17000000 		.4byte	.LVL348-1
 9755 14dc 3C000000 		.4byte	.LVL353
 9756 14e0 0100     		.2byte	0x1
 9757 14e2 55       		.byte	0x55
 9758 14e3 3C000000 		.4byte	.LVL353
 9759 14e7 44000000 		.4byte	.LFE11
 9760 14eb 0400     		.2byte	0x4
 9761 14ed F3       		.byte	0xf3
 9762 14ee 01       		.uleb128 0x1
 9763 14ef 51       		.byte	0x51
 9764 14f0 9F       		.byte	0x9f
 9765 14f1 00000000 		.4byte	0
 9766 14f5 00000000 		.4byte	0
 9767              	.LLST104:
 9768 14f9 02000000 		.4byte	.LVL347
 9769 14fd 18000000 		.4byte	.LVL348
 9770 1501 0200     		.2byte	0x2
 9771 1503 30       		.byte	0x30
 9772 1504 9F       		.byte	0x9f
 9773 1505 18000000 		.4byte	.LVL348
 9774 1509 25000000 		.4byte	.LVL349-1
 9775 150d 0100     		.2byte	0x1
 9776 150f 50       		.byte	0x50
 9777 1510 2E000000 		.4byte	.LVL350
 9778 1514 31000000 		.4byte	.LVL351-1
 9779 1518 0100     		.2byte	0x1
 9780 151a 50       		.byte	0x50
 9781 151b 00000000 		.4byte	0
 9782 151f 00000000 		.4byte	0
 9783              	.LLST105:
 9784 1523 00000000 		.4byte	.LVL356
 9785 1527 11000000 		.4byte	.LVL358-1
 9786 152b 0100     		.2byte	0x1
 9787 152d 50       		.byte	0x50
 9788 152e 11000000 		.4byte	.LVL358-1
 9789 1532 BC000000 		.4byte	.LVL387
 9790 1536 0100     		.2byte	0x1
 9791 1538 54       		.byte	0x54
 9792 1539 00000000 		.4byte	0
ARM GAS  C:\Users\jorti\AppData\Local\Temp\ccDtGf1z.s 			page 220


 9793 153d 00000000 		.4byte	0
 9794              	.LLST106:
 9795 1541 00000000 		.4byte	.LVL356
 9796 1545 11000000 		.4byte	.LVL358-1
 9797 1549 0100     		.2byte	0x1
 9798 154b 51       		.byte	0x51
 9799 154c 11000000 		.4byte	.LVL358-1
 9800 1550 C0000000 		.4byte	.LFE26
 9801 1554 0400     		.2byte	0x4
 9802 1556 F3       		.byte	0xf3
 9803 1557 01       		.uleb128 0x1
 9804 1558 51       		.byte	0x51
 9805 1559 9F       		.byte	0x9f
 9806 155a 00000000 		.4byte	0
 9807 155e 00000000 		.4byte	0
 9808              	.LLST107:
 9809 1562 00000000 		.4byte	.LVL356
 9810 1566 11000000 		.4byte	.LVL358-1
 9811 156a 0100     		.2byte	0x1
 9812 156c 52       		.byte	0x52
 9813 156d 11000000 		.4byte	.LVL358-1
 9814 1571 36000000 		.4byte	.LVL361
 9815 1575 0100     		.2byte	0x1
 9816 1577 55       		.byte	0x55
 9817 1578 36000000 		.4byte	.LVL361
 9818 157c 58000000 		.4byte	.LVL368
 9819 1580 0400     		.2byte	0x4
 9820 1582 F3       		.byte	0xf3
 9821 1583 01       		.uleb128 0x1
 9822 1584 52       		.byte	0x52
 9823 1585 9F       		.byte	0x9f
 9824 1586 58000000 		.4byte	.LVL368
 9825 158a 70000000 		.4byte	.LVL371
 9826 158e 0100     		.2byte	0x1
 9827 1590 55       		.byte	0x55
 9828 1591 70000000 		.4byte	.LVL371
 9829 1595 82000000 		.4byte	.LVL374
 9830 1599 0400     		.2byte	0x4
 9831 159b F3       		.byte	0xf3
 9832 159c 01       		.uleb128 0x1
 9833 159d 52       		.byte	0x52
 9834 159e 9F       		.byte	0x9f
 9835 159f 82000000 		.4byte	.LVL374
 9836 15a3 84000000 		.4byte	.LVL375
 9837 15a7 0100     		.2byte	0x1
 9838 15a9 55       		.byte	0x55
 9839 15aa 84000000 		.4byte	.LVL375
 9840 15ae A6000000 		.4byte	.LVL382
 9841 15b2 0400     		.2byte	0x4
 9842 15b4 F3       		.byte	0xf3
 9843 15b5 01       		.uleb128 0x1
 9844 15b6 52       		.byte	0x52
 9845 15b7 9F       		.byte	0x9f
 9846 15b8 A6000000 		.4byte	.LVL382
 9847 15bc B4000000 		.4byte	.LVL386
 9848 15c0 0100     		.2byte	0x1
 9849 15c2 55       		.byte	0x55
ARM GAS  C:\Users\jorti\AppData\Local\Temp\ccDtGf1z.s 			page 221


 9850 15c3 B4000000 		.4byte	.LVL386
 9851 15c7 C0000000 		.4byte	.LFE26
 9852 15cb 0400     		.2byte	0x4
 9853 15cd F3       		.byte	0xf3
 9854 15ce 01       		.uleb128 0x1
 9855 15cf 52       		.byte	0x52
 9856 15d0 9F       		.byte	0x9f
 9857 15d1 00000000 		.4byte	0
 9858 15d5 00000000 		.4byte	0
 9859              	.LLST108:
 9860 15d9 00000000 		.4byte	.LVL356
 9861 15dd 11000000 		.4byte	.LVL358-1
 9862 15e1 0100     		.2byte	0x1
 9863 15e3 53       		.byte	0x53
 9864 15e4 11000000 		.4byte	.LVL358-1
 9865 15e8 BC000000 		.4byte	.LVL387
 9866 15ec 0100     		.2byte	0x1
 9867 15ee 56       		.byte	0x56
 9868 15ef BC000000 		.4byte	.LVL387
 9869 15f3 C0000000 		.4byte	.LFE26
 9870 15f7 0400     		.2byte	0x4
 9871 15f9 F3       		.byte	0xf3
 9872 15fa 01       		.uleb128 0x1
 9873 15fb 53       		.byte	0x53
 9874 15fc 9F       		.byte	0x9f
 9875 15fd 00000000 		.4byte	0
 9876 1601 00000000 		.4byte	0
 9877              	.LLST109:
 9878 1605 50000000 		.4byte	.LVL365
 9879 1609 58000000 		.4byte	.LVL368
 9880 160d 0100     		.2byte	0x1
 9881 160f 55       		.byte	0x55
 9882 1610 70000000 		.4byte	.LVL371
 9883 1614 82000000 		.4byte	.LVL374
 9884 1618 0100     		.2byte	0x1
 9885 161a 55       		.byte	0x55
 9886 161b 9E000000 		.4byte	.LVL379
 9887 161f A6000000 		.4byte	.LVL382
 9888 1623 0100     		.2byte	0x1
 9889 1625 55       		.byte	0x55
 9890 1626 B2000000 		.4byte	.LVL385
 9891 162a B4000000 		.4byte	.LVL386
 9892 162e 0200     		.2byte	0x2
 9893 1630 30       		.byte	0x30
 9894 1631 9F       		.byte	0x9f
 9895 1632 00000000 		.4byte	0
 9896 1636 00000000 		.4byte	0
 9897              	.LLST110:
 9898 163a 0E000000 		.4byte	.LVL357
 9899 163e 14000000 		.4byte	.LVL359
 9900 1642 0200     		.2byte	0x2
 9901 1644 30       		.byte	0x30
 9902 1645 9F       		.byte	0x9f
 9903 1646 14000000 		.4byte	.LVL359
 9904 164a 3E000000 		.4byte	.LVL362
 9905 164e 0100     		.2byte	0x1
 9906 1650 50       		.byte	0x50
ARM GAS  C:\Users\jorti\AppData\Local\Temp\ccDtGf1z.s 			page 222


 9907 1651 3E000000 		.4byte	.LVL362
 9908 1655 4C000000 		.4byte	.LVL364
 9909 1659 0100     		.2byte	0x1
 9910 165b 57       		.byte	0x57
 9911 165c 4C000000 		.4byte	.LVL364
 9912 1660 52000000 		.4byte	.LVL366
 9913 1664 0100     		.2byte	0x1
 9914 1666 50       		.byte	0x50
 9915 1667 52000000 		.4byte	.LVL366
 9916 166b 58000000 		.4byte	.LVL368
 9917 166f 0100     		.2byte	0x1
 9918 1671 57       		.byte	0x57
 9919 1672 58000000 		.4byte	.LVL368
 9920 1676 6A000000 		.4byte	.LVL369
 9921 167a 0100     		.2byte	0x1
 9922 167c 50       		.byte	0x50
 9923 167d 6A000000 		.4byte	.LVL369
 9924 1681 82000000 		.4byte	.LVL374
 9925 1685 0100     		.2byte	0x1
 9926 1687 57       		.byte	0x57
 9927 1688 82000000 		.4byte	.LVL374
 9928 168c 8C000000 		.4byte	.LVL376
 9929 1690 0100     		.2byte	0x1
 9930 1692 50       		.byte	0x50
 9931 1693 8C000000 		.4byte	.LVL376
 9932 1697 9A000000 		.4byte	.LVL378
 9933 169b 0100     		.2byte	0x1
 9934 169d 57       		.byte	0x57
 9935 169e 9A000000 		.4byte	.LVL378
 9936 16a2 A0000000 		.4byte	.LVL380
 9937 16a6 0100     		.2byte	0x1
 9938 16a8 50       		.byte	0x50
 9939 16a9 A0000000 		.4byte	.LVL380
 9940 16ad A6000000 		.4byte	.LVL382
 9941 16b1 0100     		.2byte	0x1
 9942 16b3 57       		.byte	0x57
 9943 16b4 A6000000 		.4byte	.LVL382
 9944 16b8 A8000000 		.4byte	.LVL383
 9945 16bc 0100     		.2byte	0x1
 9946 16be 50       		.byte	0x50
 9947 16bf A8000000 		.4byte	.LVL383
 9948 16c3 BC000000 		.4byte	.LVL387
 9949 16c7 0100     		.2byte	0x1
 9950 16c9 57       		.byte	0x57
 9951 16ca 00000000 		.4byte	0
 9952 16ce 00000000 		.4byte	0
 9953              	.LLST111:
 9954 16d2 00000000 		.4byte	.LVL388
 9955 16d6 14000000 		.4byte	.LVL389
 9956 16da 0100     		.2byte	0x1
 9957 16dc 50       		.byte	0x50
 9958 16dd 14000000 		.4byte	.LVL389
 9959 16e1 16000000 		.4byte	.LVL390
 9960 16e5 0400     		.2byte	0x4
 9961 16e7 F3       		.byte	0xf3
 9962 16e8 01       		.uleb128 0x1
 9963 16e9 50       		.byte	0x50
ARM GAS  C:\Users\jorti\AppData\Local\Temp\ccDtGf1z.s 			page 223


 9964 16ea 9F       		.byte	0x9f
 9965 16eb 16000000 		.4byte	.LVL390
 9966 16ef 1D000000 		.4byte	.LVL391-1
 9967 16f3 0100     		.2byte	0x1
 9968 16f5 50       		.byte	0x50
 9969 16f6 1D000000 		.4byte	.LVL391-1
 9970 16fa 2C000000 		.4byte	.LFE14
 9971 16fe 0100     		.2byte	0x1
 9972 1700 56       		.byte	0x56
 9973 1701 00000000 		.4byte	0
 9974 1705 00000000 		.4byte	0
 9975              	.LLST112:
 9976 1709 00000000 		.4byte	.LVL388
 9977 170d 1D000000 		.4byte	.LVL391-1
 9978 1711 0100     		.2byte	0x1
 9979 1713 51       		.byte	0x51
 9980 1714 1D000000 		.4byte	.LVL391-1
 9981 1718 2C000000 		.4byte	.LFE14
 9982 171c 0400     		.2byte	0x4
 9983 171e F3       		.byte	0xf3
 9984 171f 01       		.uleb128 0x1
 9985 1720 51       		.byte	0x51
 9986 1721 9F       		.byte	0x9f
 9987 1722 00000000 		.4byte	0
 9988 1726 00000000 		.4byte	0
 9989              	.LLST113:
 9990 172a 00000000 		.4byte	.LVL388
 9991 172e 1D000000 		.4byte	.LVL391-1
 9992 1732 0100     		.2byte	0x1
 9993 1734 52       		.byte	0x52
 9994 1735 1D000000 		.4byte	.LVL391-1
 9995 1739 2C000000 		.4byte	.LFE14
 9996 173d 0100     		.2byte	0x1
 9997 173f 55       		.byte	0x55
 9998 1740 00000000 		.4byte	0
 9999 1744 00000000 		.4byte	0
 10000              	.LLST114:
 10001 1748 1E000000 		.4byte	.LVL391
 10002 174c 26000000 		.4byte	.LVL392
 10003 1750 0100     		.2byte	0x1
 10004 1752 50       		.byte	0x50
 10005 1753 26000000 		.4byte	.LVL392
 10006 1757 29000000 		.4byte	.LVL393-1
 10007 175b 0100     		.2byte	0x1
 10008 175d 52       		.byte	0x52
 10009 175e 00000000 		.4byte	0
 10010 1762 00000000 		.4byte	0
 10011              	.LLST115:
 10012 1766 00000000 		.4byte	.LVL394
 10013 176a 09000000 		.4byte	.LVL396-1
 10014 176e 0100     		.2byte	0x1
 10015 1770 50       		.byte	0x50
 10016 1771 09000000 		.4byte	.LVL396-1
 10017 1775 C2000000 		.4byte	.LVL422
 10018 1779 0100     		.2byte	0x1
 10019 177b 54       		.byte	0x54
 10020 177c 00000000 		.4byte	0
ARM GAS  C:\Users\jorti\AppData\Local\Temp\ccDtGf1z.s 			page 224


 10021 1780 00000000 		.4byte	0
 10022              	.LLST116:
 10023 1784 00000000 		.4byte	.LVL394
 10024 1788 09000000 		.4byte	.LVL396-1
 10025 178c 0100     		.2byte	0x1
 10026 178e 51       		.byte	0x51
 10027 178f 09000000 		.4byte	.LVL396-1
 10028 1793 C2000000 		.4byte	.LVL422
 10029 1797 0100     		.2byte	0x1
 10030 1799 55       		.byte	0x55
 10031 179a C2000000 		.4byte	.LVL422
 10032 179e CC000000 		.4byte	.LFE27
 10033 17a2 0400     		.2byte	0x4
 10034 17a4 F3       		.byte	0xf3
 10035 17a5 01       		.uleb128 0x1
 10036 17a6 51       		.byte	0x51
 10037 17a7 9F       		.byte	0x9f
 10038 17a8 00000000 		.4byte	0
 10039 17ac 00000000 		.4byte	0
 10040              	.LLST117:
 10041 17b0 06000000 		.4byte	.LVL395
 10042 17b4 0C000000 		.4byte	.LVL397
 10043 17b8 0200     		.2byte	0x2
 10044 17ba 30       		.byte	0x30
 10045 17bb 9F       		.byte	0x9f
 10046 17bc 0C000000 		.4byte	.LVL397
 10047 17c0 22000000 		.4byte	.LVL399
 10048 17c4 0100     		.2byte	0x1
 10049 17c6 50       		.byte	0x50
 10050 17c7 22000000 		.4byte	.LVL399
 10051 17cb 2E000000 		.4byte	.LVL401
 10052 17cf 0100     		.2byte	0x1
 10053 17d1 56       		.byte	0x56
 10054 17d2 2E000000 		.4byte	.LVL401
 10055 17d6 54000000 		.4byte	.LVL402
 10056 17da 0100     		.2byte	0x1
 10057 17dc 50       		.byte	0x50
 10058 17dd 54000000 		.4byte	.LVL402
 10059 17e1 60000000 		.4byte	.LVL405
 10060 17e5 0100     		.2byte	0x1
 10061 17e7 56       		.byte	0x56
 10062 17e8 60000000 		.4byte	.LVL405
 10063 17ec 6E000000 		.4byte	.LVL406
 10064 17f0 0100     		.2byte	0x1
 10065 17f2 50       		.byte	0x50
 10066 17f3 6E000000 		.4byte	.LVL406
 10067 17f7 74000000 		.4byte	.LVL408
 10068 17fb 0100     		.2byte	0x1
 10069 17fd 56       		.byte	0x56
 10070 17fe 74000000 		.4byte	.LVL408
 10071 1802 82000000 		.4byte	.LVL409
 10072 1806 0100     		.2byte	0x1
 10073 1808 50       		.byte	0x50
 10074 1809 82000000 		.4byte	.LVL409
 10075 180d 88000000 		.4byte	.LVL411
 10076 1811 0100     		.2byte	0x1
 10077 1813 56       		.byte	0x56
ARM GAS  C:\Users\jorti\AppData\Local\Temp\ccDtGf1z.s 			page 225


 10078 1814 88000000 		.4byte	.LVL411
 10079 1818 96000000 		.4byte	.LVL412
 10080 181c 0100     		.2byte	0x1
 10081 181e 50       		.byte	0x50
 10082 181f 96000000 		.4byte	.LVL412
 10083 1823 9C000000 		.4byte	.LVL414
 10084 1827 0100     		.2byte	0x1
 10085 1829 56       		.byte	0x56
 10086 182a 9C000000 		.4byte	.LVL414
 10087 182e A8000000 		.4byte	.LVL415
 10088 1832 0100     		.2byte	0x1
 10089 1834 50       		.byte	0x50
 10090 1835 A8000000 		.4byte	.LVL415
 10091 1839 AE000000 		.4byte	.LVL417
 10092 183d 0100     		.2byte	0x1
 10093 183f 56       		.byte	0x56
 10094 1840 AE000000 		.4byte	.LVL417
 10095 1844 B0000000 		.4byte	.LVL418
 10096 1848 0100     		.2byte	0x1
 10097 184a 50       		.byte	0x50
 10098 184b B0000000 		.4byte	.LVL418
 10099 184f C2000000 		.4byte	.LVL422
 10100 1853 0100     		.2byte	0x1
 10101 1855 56       		.byte	0x56
 10102 1856 00000000 		.4byte	0
 10103 185a 00000000 		.4byte	0
 10104              	.LLST118:
 10105 185e 00000000 		.4byte	.LVL423
 10106 1862 21000000 		.4byte	.LVL424-1
 10107 1866 0100     		.2byte	0x1
 10108 1868 50       		.byte	0x50
 10109 1869 21000000 		.4byte	.LVL424-1
 10110 186d 2C000000 		.4byte	.LFE17
 10111 1871 0400     		.2byte	0x4
 10112 1873 F3       		.byte	0xf3
 10113 1874 01       		.uleb128 0x1
 10114 1875 50       		.byte	0x50
 10115 1876 9F       		.byte	0x9f
 10116 1877 00000000 		.4byte	0
 10117 187b 00000000 		.4byte	0
 10118              	.LLST119:
 10119 187f 00000000 		.4byte	.LVL423
 10120 1883 21000000 		.4byte	.LVL424-1
 10121 1887 0100     		.2byte	0x1
 10122 1889 51       		.byte	0x51
 10123 188a 21000000 		.4byte	.LVL424-1
 10124 188e 2C000000 		.4byte	.LFE17
 10125 1892 0400     		.2byte	0x4
 10126 1894 F3       		.byte	0xf3
 10127 1895 01       		.uleb128 0x1
 10128 1896 51       		.byte	0x51
 10129 1897 9F       		.byte	0x9f
 10130 1898 00000000 		.4byte	0
 10131 189c 00000000 		.4byte	0
 10132              		.section	.debug_aranges,"",%progbits
 10133 0000 EC000000 		.4byte	0xec
 10134 0004 0200     		.2byte	0x2
ARM GAS  C:\Users\jorti\AppData\Local\Temp\ccDtGf1z.s 			page 226


 10135 0006 00000000 		.4byte	.Ldebug_info0
 10136 000a 04       		.byte	0x4
 10137 000b 00       		.byte	0
 10138 000c 0000     		.2byte	0
 10139 000e 0000     		.2byte	0
 10140 0010 00000000 		.4byte	.LFB1
 10141 0014 D4000000 		.4byte	.LFE1-.LFB1
 10142 0018 00000000 		.4byte	.LFB4
 10143 001c 4C000000 		.4byte	.LFE4-.LFB4
 10144 0020 00000000 		.4byte	.LFB5
 10145 0024 60010000 		.4byte	.LFE5-.LFB5
 10146 0028 00000000 		.4byte	.LFB6
 10147 002c 90000000 		.4byte	.LFE6-.LFB6
 10148 0030 00000000 		.4byte	.LFB8
 10149 0034 38000000 		.4byte	.LFE8-.LFB8
 10150 0038 00000000 		.4byte	.LFB9
 10151 003c 34000000 		.4byte	.LFE9-.LFB9
 10152 0040 00000000 		.4byte	.LFB10
 10153 0044 34000000 		.4byte	.LFE10-.LFB10
 10154 0048 00000000 		.4byte	.LFB12
 10155 004c 30010000 		.4byte	.LFE12-.LFB12
 10156 0050 00000000 		.4byte	.LFB13
 10157 0054 90000000 		.4byte	.LFE13-.LFB13
 10158 0058 00000000 		.4byte	.LFB15
 10159 005c 3C000000 		.4byte	.LFE15-.LFB15
 10160 0060 00000000 		.4byte	.LFB16
 10161 0064 90000000 		.4byte	.LFE16-.LFB16
 10162 0068 00000000 		.4byte	.LFB18
 10163 006c 4C000000 		.4byte	.LFE18-.LFB18
 10164 0070 00000000 		.4byte	.LFB19
 10165 0074 24000000 		.4byte	.LFE19-.LFB19
 10166 0078 00000000 		.4byte	.LFB20
 10167 007c 44000000 		.4byte	.LFE20-.LFB20
 10168 0080 00000000 		.4byte	.LFB21
 10169 0084 20000000 		.4byte	.LFE21-.LFB21
 10170 0088 00000000 		.4byte	.LFB22
 10171 008c CC000000 		.4byte	.LFE22-.LFB22
 10172 0090 00000000 		.4byte	.LFB2
 10173 0094 A8010000 		.4byte	.LFE2-.LFB2
 10174 0098 00000000 		.4byte	.LFB3
 10175 009c CC000000 		.4byte	.LFE3-.LFB3
 10176 00a0 00000000 		.4byte	.LFB23
 10177 00a4 AC000000 		.4byte	.LFE23-.LFB23
 10178 00a8 00000000 		.4byte	.LFB7
 10179 00ac 48000000 		.4byte	.LFE7-.LFB7
 10180 00b0 00000000 		.4byte	.LFB24
 10181 00b4 B6000000 		.4byte	.LFE24-.LFB24
 10182 00b8 00000000 		.4byte	.LFB11
 10183 00bc 44000000 		.4byte	.LFE11-.LFB11
 10184 00c0 00000000 		.4byte	.LFB25
 10185 00c4 20000000 		.4byte	.LFE25-.LFB25
 10186 00c8 00000000 		.4byte	.LFB26
 10187 00cc C0000000 		.4byte	.LFE26-.LFB26
 10188 00d0 00000000 		.4byte	.LFB14
 10189 00d4 2C000000 		.4byte	.LFE14-.LFB14
 10190 00d8 00000000 		.4byte	.LFB27
 10191 00dc CC000000 		.4byte	.LFE27-.LFB27
ARM GAS  C:\Users\jorti\AppData\Local\Temp\ccDtGf1z.s 			page 227


 10192 00e0 00000000 		.4byte	.LFB17
 10193 00e4 2C000000 		.4byte	.LFE17-.LFB17
 10194 00e8 00000000 		.4byte	0
 10195 00ec 00000000 		.4byte	0
 10196              		.section	.debug_ranges,"",%progbits
 10197              	.Ldebug_ranges0:
 10198 0000 00000000 		.4byte	.LFB1
 10199 0004 D4000000 		.4byte	.LFE1
 10200 0008 00000000 		.4byte	.LFB4
 10201 000c 4C000000 		.4byte	.LFE4
 10202 0010 00000000 		.4byte	.LFB5
 10203 0014 60010000 		.4byte	.LFE5
 10204 0018 00000000 		.4byte	.LFB6
 10205 001c 90000000 		.4byte	.LFE6
 10206 0020 00000000 		.4byte	.LFB8
 10207 0024 38000000 		.4byte	.LFE8
 10208 0028 00000000 		.4byte	.LFB9
 10209 002c 34000000 		.4byte	.LFE9
 10210 0030 00000000 		.4byte	.LFB10
 10211 0034 34000000 		.4byte	.LFE10
 10212 0038 00000000 		.4byte	.LFB12
 10213 003c 30010000 		.4byte	.LFE12
 10214 0040 00000000 		.4byte	.LFB13
 10215 0044 90000000 		.4byte	.LFE13
 10216 0048 00000000 		.4byte	.LFB15
 10217 004c 3C000000 		.4byte	.LFE15
 10218 0050 00000000 		.4byte	.LFB16
 10219 0054 90000000 		.4byte	.LFE16
 10220 0058 00000000 		.4byte	.LFB18
 10221 005c 4C000000 		.4byte	.LFE18
 10222 0060 00000000 		.4byte	.LFB19
 10223 0064 24000000 		.4byte	.LFE19
 10224 0068 00000000 		.4byte	.LFB20
 10225 006c 44000000 		.4byte	.LFE20
 10226 0070 00000000 		.4byte	.LFB21
 10227 0074 20000000 		.4byte	.LFE21
 10228 0078 00000000 		.4byte	.LFB22
 10229 007c CC000000 		.4byte	.LFE22
 10230 0080 00000000 		.4byte	.LFB2
 10231 0084 A8010000 		.4byte	.LFE2
 10232 0088 00000000 		.4byte	.LFB3
 10233 008c CC000000 		.4byte	.LFE3
 10234 0090 00000000 		.4byte	.LFB23
 10235 0094 AC000000 		.4byte	.LFE23
 10236 0098 00000000 		.4byte	.LFB7
 10237 009c 48000000 		.4byte	.LFE7
 10238 00a0 00000000 		.4byte	.LFB24
 10239 00a4 B6000000 		.4byte	.LFE24
 10240 00a8 00000000 		.4byte	.LFB11
 10241 00ac 44000000 		.4byte	.LFE11
 10242 00b0 00000000 		.4byte	.LFB25
 10243 00b4 20000000 		.4byte	.LFE25
 10244 00b8 00000000 		.4byte	.LFB26
 10245 00bc C0000000 		.4byte	.LFE26
 10246 00c0 00000000 		.4byte	.LFB14
 10247 00c4 2C000000 		.4byte	.LFE14
 10248 00c8 00000000 		.4byte	.LFB27
ARM GAS  C:\Users\jorti\AppData\Local\Temp\ccDtGf1z.s 			page 228


 10249 00cc CC000000 		.4byte	.LFE27
 10250 00d0 00000000 		.4byte	.LFB17
 10251 00d4 2C000000 		.4byte	.LFE17
 10252 00d8 00000000 		.4byte	0
 10253 00dc 00000000 		.4byte	0
 10254              		.section	.debug_line,"",%progbits
 10255              	.Ldebug_line0:
 10256 0000 37050000 		.section	.debug_str,"MS",%progbits,1
 10256      02009200 
 10256      00000201 
 10256      FB0E0D00 
 10256      01010101 
 10257              	.LASF219:
 10258 0000 6F735F74 		.ascii	"os_tcb\000"
 10258      636200
 10259              	.LASF321:
 10260 0007 4F535461 		.ascii	"OSTaskCreate\000"
 10260      736B4372 
 10260      65617465 
 10260      00
 10261              	.LASF110:
 10262 0014 4F535F45 		.ascii	"OS_ERR_PRIO_INVALID\000"
 10262      52525F50 
 10262      52494F5F 
 10262      494E5641 
 10262      4C494400 
 10263              	.LASF203:
 10264 0028 4F535F45 		.ascii	"OS_ERR\000"
 10264      525200
 10265              	.LASF26:
 10266 002f 4F535F43 		.ascii	"OS_CTX_SW_CTR\000"
 10266      54585F53 
 10266      575F4354 
 10266      5200
 10267              	.LASF189:
 10268 003d 4F535F45 		.ascii	"OS_ERR_TMR_ISR\000"
 10268      52525F54 
 10268      4D525F49 
 10268      535200
 10269              	.LASF176:
 10270 004c 4F535F45 		.ascii	"OS_ERR_TIME_INVALID_MINUTES\000"
 10270      52525F54 
 10270      494D455F 
 10270      494E5641 
 10270      4C49445F 
 10271              	.LASF43:
 10272 0068 4F535F45 		.ascii	"OS_ERR_A\000"
 10272      52525F41 
 10272      00
 10273              	.LASF45:
 10274 0071 4F535F45 		.ascii	"OS_ERR_B\000"
 10274      52525F42 
 10274      00
 10275              	.LASF46:
 10276 007a 4F535F45 		.ascii	"OS_ERR_C\000"
 10276      52525F43 
 10276      00
ARM GAS  C:\Users\jorti\AppData\Local\Temp\ccDtGf1z.s 			page 229


 10277              	.LASF48:
 10278 0083 4F535F45 		.ascii	"OS_ERR_D\000"
 10278      52525F44 
 10278      00
 10279              	.LASF50:
 10280 008c 4F535F45 		.ascii	"OS_ERR_E\000"
 10280      52525F45 
 10280      00
 10281              	.LASF51:
 10282 0095 4F535F45 		.ascii	"OS_ERR_F\000"
 10282      52525F46 
 10282      00
 10283              	.LASF57:
 10284 009e 4F535F45 		.ascii	"OS_ERR_G\000"
 10284      52525F47 
 10284      00
 10285              	.LASF58:
 10286 00a7 4F535F45 		.ascii	"OS_ERR_H\000"
 10286      52525F48 
 10286      00
 10287              	.LASF59:
 10288 00b0 4F535F45 		.ascii	"OS_ERR_I\000"
 10288      52525F49 
 10288      00
 10289              	.LASF66:
 10290 00b9 4F535F45 		.ascii	"OS_ERR_J\000"
 10290      52525F4A 
 10290      00
 10291              	.LASF67:
 10292 00c2 4F535F45 		.ascii	"OS_ERR_K\000"
 10292      52525F4B 
 10292      00
 10293              	.LASF68:
 10294 00cb 4F535F45 		.ascii	"OS_ERR_L\000"
 10294      52525F4C 
 10294      00
 10295              	.LASF70:
 10296 00d4 4F535F45 		.ascii	"OS_ERR_M\000"
 10296      52525F4D 
 10296      00
 10297              	.LASF86:
 10298 00dd 4F535F45 		.ascii	"OS_ERR_N\000"
 10298      52525F4E 
 10298      00
 10299              	.LASF89:
 10300 00e6 4F535F45 		.ascii	"OS_ERR_O\000"
 10300      52525F4F 
 10300      00
 10301              	.LASF97:
 10302 00ef 4F535F45 		.ascii	"OS_ERR_P\000"
 10302      52525F50 
 10302      00
 10303              	.LASF112:
 10304 00f8 4F535F45 		.ascii	"OS_ERR_Q\000"
 10304      52525F51 
 10304      00
 10305              	.LASF117:
ARM GAS  C:\Users\jorti\AppData\Local\Temp\ccDtGf1z.s 			page 230


 10306 0101 4F535F45 		.ascii	"OS_ERR_R\000"
 10306      52525F52 
 10306      00
 10307              	.LASF121:
 10308 010a 4F535F45 		.ascii	"OS_ERR_S\000"
 10308      52525F53 
 10308      00
 10309              	.LASF138:
 10310 0113 4F535F45 		.ascii	"OS_ERR_T\000"
 10310      52525F54 
 10310      00
 10311              	.LASF196:
 10312 011c 4F535F45 		.ascii	"OS_ERR_U\000"
 10312      52525F55 
 10312      00
 10313              	.LASF197:
 10314 0125 4F535F45 		.ascii	"OS_ERR_V\000"
 10314      52525F56 
 10314      00
 10315              	.LASF198:
 10316 012e 4F535F45 		.ascii	"OS_ERR_W\000"
 10316      52525F57 
 10316      00
 10317              	.LASF199:
 10318 0137 4F535F45 		.ascii	"OS_ERR_X\000"
 10318      52525F58 
 10318      00
 10319              	.LASF186:
 10320 0140 4F535F45 		.ascii	"OS_ERR_TMR_INVALID_PERIOD\000"
 10320      52525F54 
 10320      4D525F49 
 10320      4E56414C 
 10320      49445F50 
 10321              	.LASF382:
 10322 015a 6F735F65 		.ascii	"os_err\000"
 10322      727200
 10323              	.LASF288:
 10324 0161 73656C66 		.ascii	"self\000"
 10324      00
 10325              	.LASF215:
 10326 0166 4E627245 		.ascii	"NbrEntries\000"
 10326      6E747269 
 10326      657300
 10327              	.LASF63:
 10328 0171 4F535F45 		.ascii	"OS_ERR_INT_Q_SIZE\000"
 10328      52525F49 
 10328      4E545F51 
 10328      5F53495A 
 10328      4500
 10329              	.LASF47:
 10330 0183 4F535F45 		.ascii	"OS_ERR_CREATE_ISR\000"
 10330      52525F43 
 10330      52454154 
 10330      455F4953 
 10330      5200
 10331              	.LASF361:
 10332 0195 4F535F52 		.ascii	"OS_RdyListInsertTail\000"
ARM GAS  C:\Users\jorti\AppData\Local\Temp\ccDtGf1z.s 			page 231


 10332      64794C69 
 10332      7374496E 
 10332      73657274 
 10332      5461696C 
 10333              	.LASF25:
 10334 01aa 4F535F43 		.ascii	"OS_CPU_USAGE\000"
 10334      50555F55 
 10334      53414745 
 10334      00
 10335              	.LASF170:
 10336 01b7 4F535F45 		.ascii	"OS_ERR_TICK_STK_SIZE_INVALID\000"
 10336      52525F54 
 10336      49434B5F 
 10336      53544B5F 
 10336      53495A45 
 10337              	.LASF9:
 10338 01d4 4350555F 		.ascii	"CPU_INT32U\000"
 10338      494E5433 
 10338      325500
 10339              	.LASF354:
 10340 01df 4F535443 		.ascii	"OSTCBCurPtr\000"
 10340      42437572 
 10340      50747200 
 10341              	.LASF135:
 10342 01eb 4F535F45 		.ascii	"OS_ERR_STK_INVALID\000"
 10342      52525F53 
 10342      544B5F49 
 10342      4E56414C 
 10342      494400
 10343              	.LASF331:
 10344 01fe 7265675F 		.ascii	"reg_nbr\000"
 10344      6E627200 
 10345              	.LASF368:
 10346 0206 4F535F50 		.ascii	"OS_PendAbort\000"
 10346      656E6441 
 10346      626F7274 
 10346      00
 10347              	.LASF250:
 10348 0213 466C6167 		.ascii	"FlagsOpt\000"
 10348      734F7074 
 10348      00
 10349              	.LASF151:
 10350 021c 4F535F45 		.ascii	"OS_ERR_TASK_RESUME_ISR\000"
 10350      52525F54 
 10350      41534B5F 
 10350      52455355 
 10350      4D455F49 
 10351              	.LASF105:
 10352 0233 4F535F45 		.ascii	"OS_ERR_PEND_WOULD_BLOCK\000"
 10352      52525F50 
 10352      454E445F 
 10352      574F554C 
 10352      445F424C 
 10353              	.LASF139:
 10354 024b 4F535F45 		.ascii	"OS_ERR_TASK_CHANGE_PRIO_ISR\000"
 10354      52525F54 
 10354      41534B5F 
ARM GAS  C:\Users\jorti\AppData\Local\Temp\ccDtGf1z.s 			page 232


 10354      4348414E 
 10354      47455F50 
 10355              	.LASF373:
 10356 0267 4F535F50 		.ascii	"OS_PendListRemove\000"
 10356      656E644C 
 10356      69737452 
 10356      656D6F76 
 10356      6500
 10357              	.LASF380:
 10358 0279 75434F53 		.ascii	"uCOS-III\\Source\\os_task.c\000"
 10358      2D494949 
 10358      5C536F75 
 10358      7263655C 
 10358      6F735F74 
 10359              	.LASF129:
 10360 0293 4F535F45 		.ascii	"OS_ERR_STAT_RESET_ISR\000"
 10360      52525F53 
 10360      5441545F 
 10360      52455345 
 10360      545F4953 
 10361              	.LASF294:
 10362 02a9 705F6D73 		.ascii	"p_msg_size\000"
 10362      675F7369 
 10362      7A6500
 10363              	.LASF104:
 10364 02b4 4F535F45 		.ascii	"OS_ERR_PEND_LOCKED\000"
 10364      52525F50 
 10364      454E445F 
 10364      4C4F434B 
 10364      454400
 10365              	.LASF32:
 10366 02c7 4F535F4F 		.ascii	"OS_OBJ_QTY\000"
 10366      424A5F51 
 10366      545900
 10367              	.LASF369:
 10368 02d2 4F535F4D 		.ascii	"OS_MsgQInit\000"
 10368      73675149 
 10368      6E697400 
 10369              	.LASF342:
 10370 02de 4F535461 		.ascii	"OSTaskSemPost\000"
 10370      736B5365 
 10370      6D506F73 
 10370      7400
 10371              	.LASF149:
 10372 02ec 4F535F45 		.ascii	"OS_ERR_TASK_NOT_SUSPENDED\000"
 10372      52525F54 
 10372      41534B5F 
 10372      4E4F545F 
 10372      53555350 
 10373              	.LASF147:
 10374 0306 4F535F45 		.ascii	"OS_ERR_TASK_NOT_DLY\000"
 10374      52525F54 
 10374      41534B5F 
 10374      4E4F545F 
 10374      444C5900 
 10375              	.LASF263:
 10376 031a 44626750 		.ascii	"DbgPrevPtr\000"
ARM GAS  C:\Users\jorti\AppData\Local\Temp\ccDtGf1z.s 			page 233


 10376      72657650 
 10376      747200
 10377              	.LASF61:
 10378 0325 4F535F45 		.ascii	"OS_ERR_INT_Q\000"
 10378      52525F49 
 10378      4E545F51 
 10378      00
 10379              	.LASF264:
 10380 0332 4462674E 		.ascii	"DbgNextPtr\000"
 10380      65787450 
 10380      747200
 10381              	.LASF309:
 10382 033d 705F7573 		.ascii	"p_used\000"
 10382      656400
 10383              	.LASF161:
 10384 0344 4F535F45 		.ascii	"OS_ERR_TASK_WAITING\000"
 10384      52525F54 
 10384      41534B5F 
 10384      57414954 
 10384      494E4700 
 10385              	.LASF44:
 10386 0358 4F535F45 		.ascii	"OS_ERR_ACCEPT_ISR\000"
 10386      52525F41 
 10386      43434550 
 10386      545F4953 
 10386      5200
 10387              	.LASF159:
 10388 036a 4F535F45 		.ascii	"OS_ERR_TASK_SUSPEND_ISR\000"
 10388      52525F54 
 10388      41534B5F 
 10388      53555350 
 10388      454E445F 
 10389              	.LASF85:
 10390 0382 4F535F45 		.ascii	"OS_ERR_MUTEX_NESTING\000"
 10390      52525F4D 
 10390      55544558 
 10390      5F4E4553 
 10390      54494E47 
 10391              	.LASF187:
 10392 0397 4F535F45 		.ascii	"OS_ERR_TMR_INVALID_STATE\000"
 10392      52525F54 
 10392      4D525F49 
 10392      4E56414C 
 10392      49445F53 
 10393              	.LASF232:
 10394 03b0 50656E64 		.ascii	"PendOn\000"
 10394      4F6E00
 10395              	.LASF237:
 10396 03b7 50656E64 		.ascii	"PendDataTblEntries\000"
 10396      44617461 
 10396      54626C45 
 10396      6E747269 
 10396      657300
 10397              	.LASF90:
 10398 03ca 4F535F45 		.ascii	"OS_ERR_OBJ_CREATED\000"
 10398      52525F4F 
 10398      424A5F43 
ARM GAS  C:\Users\jorti\AppData\Local\Temp\ccDtGf1z.s 			page 234


 10398      52454154 
 10398      454400
 10399              	.LASF280:
 10400 03dd 5461696C 		.ascii	"TailPtr\000"
 10400      50747200 
 10401              	.LASF297:
 10402 03e5 705F766F 		.ascii	"p_void\000"
 10402      696400
 10403              	.LASF157:
 10404 03ec 4F535F45 		.ascii	"OS_ERR_TASK_SUSPEND_IDLE\000"
 10404      52525F54 
 10404      41534B5F 
 10404      53555350 
 10404      454E445F 
 10405              	.LASF62:
 10406 0405 4F535F45 		.ascii	"OS_ERR_INT_Q_FULL\000"
 10406      52525F49 
 10406      4E545F51 
 10406      5F46554C 
 10406      4C00
 10407              	.LASF240:
 10408 0417 5469636B 		.ascii	"TickCtrMatch\000"
 10408      4374724D 
 10408      61746368 
 10408      00
 10409              	.LASF274:
 10410 0424 5264794D 		.ascii	"RdyMsgPtr\000"
 10410      73675074 
 10410      7200
 10411              	.LASF282:
 10412 042e 6F735F70 		.ascii	"os_pend_obj\000"
 10412      656E645F 
 10412      6F626A00 
 10413              	.LASF292:
 10414 043a 4F535461 		.ascii	"OSTaskQPend\000"
 10414      736B5150 
 10414      656E6400 
 10415              	.LASF60:
 10416 0446 4F535F45 		.ascii	"OS_ERR_ILLEGAL_CREATE_RUN_TIME\000"
 10416      52525F49 
 10416      4C4C4547 
 10416      414C5F43 
 10416      52454154 
 10417              	.LASF248:
 10418 0465 466C6167 		.ascii	"FlagsPend\000"
 10418      7350656E 
 10418      6400
 10419              	.LASF185:
 10420 046f 4F535F45 		.ascii	"OS_ERR_TMR_INVALID_DLY\000"
 10420      52525F54 
 10420      4D525F49 
 10420      4E56414C 
 10420      49445F44 
 10421              	.LASF367:
 10422 0486 4F535F50 		.ascii	"OS_Pend\000"
 10422      656E6400 
 10423              	.LASF360:
ARM GAS  C:\Users\jorti\AppData\Local\Temp\ccDtGf1z.s 			page 235


 10424 048e 4F535F52 		.ascii	"OS_RdyListInsertHead\000"
 10424      64794C69 
 10424      7374496E 
 10424      73657274 
 10424      48656164 
 10425              	.LASF254:
 10426 04a3 43747853 		.ascii	"CtxSwCtr\000"
 10426      77437472 
 10426      00
 10427              	.LASF152:
 10428 04ac 4F535F45 		.ascii	"OS_ERR_TASK_RESUME_PRIO\000"
 10428      52525F54 
 10428      41534B5F 
 10428      52455355 
 10428      4D455F50 
 10429              	.LASF316:
 10430 04c4 705F7463 		.ascii	"p_tcb_next\000"
 10430      625F6E65 
 10430      787400
 10431              	.LASF35:
 10432 04cf 4F535F50 		.ascii	"OS_PRIO\000"
 10432      52494F00 
 10433              	.LASF340:
 10434 04d7 4F535F54 		.ascii	"OS_TaskReturn\000"
 10434      61736B52 
 10434      65747572 
 10434      6E00
 10435              	.LASF13:
 10436 04e5 666C6F61 		.ascii	"float\000"
 10436      7400
 10437              	.LASF303:
 10438 04eb 4F535461 		.ascii	"OSTaskRegSet\000"
 10438      736B5265 
 10438      67536574 
 10438      00
 10439              	.LASF339:
 10440 04f8 4F535461 		.ascii	"OSTaskResume\000"
 10440      736B5265 
 10440      73756D65 
 10440      00
 10441              	.LASF106:
 10442 0505 4F535F45 		.ascii	"OS_ERR_POST_NULL_PTR\000"
 10442      52525F50 
 10442      4F53545F 
 10442      4E554C4C 
 10442      5F505452 
 10443              	.LASF88:
 10444 051a 4F535F45 		.ascii	"OS_ERR_NO_MORE_ID_AVAIL\000"
 10444      52525F4E 
 10444      4F5F4D4F 
 10444      52455F49 
 10444      445F4156 
 10445              	.LASF266:
 10446 0532 4F535F54 		.ascii	"OS_TICK_SPOKE\000"
 10446      49434B5F 
 10446      53504F4B 
 10446      4500
ARM GAS  C:\Users\jorti\AppData\Local\Temp\ccDtGf1z.s 			page 236


 10447              	.LASF78:
 10448 0540 4F535F45 		.ascii	"OS_ERR_MEM_INVALID_P_DATA\000"
 10448      52525F4D 
 10448      454D5F49 
 10448      4E56414C 
 10448      49445F50 
 10449              	.LASF289:
 10450 055a 6370755F 		.ascii	"cpu_sr\000"
 10450      737200
 10451              	.LASF190:
 10452 0561 4F535F45 		.ascii	"OS_ERR_TMR_NO_CALLBACK\000"
 10452      52525F54 
 10452      4D525F4E 
 10452      4F5F4341 
 10452      4C4C4241 
 10453              	.LASF183:
 10454 0578 4F535F45 		.ascii	"OS_ERR_TMR_INACTIVE\000"
 10454      52525F54 
 10454      4D525F49 
 10454      4E414354 
 10454      49564500 
 10455              	.LASF163:
 10456 058c 4F535F45 		.ascii	"OS_ERR_TLS_ID_INVALID\000"
 10456      52525F54 
 10456      4C535F49 
 10456      445F494E 
 10456      56414C49 
 10457              	.LASF11:
 10458 05a2 6C6F6E67 		.ascii	"long long unsigned int\000"
 10458      206C6F6E 
 10458      6720756E 
 10458      7369676E 
 10458      65642069 
 10459              	.LASF154:
 10460 05b9 4F535F45 		.ascii	"OS_ERR_TASK_RUNNING\000"
 10460      52525F54 
 10460      41534B5F 
 10460      52554E4E 
 10460      494E4700 
 10461              	.LASF261:
 10462 05cd 53746B55 		.ascii	"StkUsed\000"
 10462      73656400 
 10463              	.LASF188:
 10464 05d5 4F535F45 		.ascii	"OS_ERR_TMR_INVALID\000"
 10464      52525F54 
 10464      4D525F49 
 10464      4E56414C 
 10464      494400
 10465              	.LASF269:
 10466 05e8 4F535F50 		.ascii	"OS_PEND_DATA\000"
 10466      454E445F 
 10466      44415441 
 10466      00
 10467              	.LASF158:
 10468 05f5 4F535F45 		.ascii	"OS_ERR_TASK_SUSPEND_INT_HANDLER\000"
 10468      52525F54 
 10468      41534B5F 
ARM GAS  C:\Users\jorti\AppData\Local\Temp\ccDtGf1z.s 			page 237


 10468      53555350 
 10468      454E445F 
 10469              	.LASF143:
 10470 0615 4F535F45 		.ascii	"OS_ERR_TASK_DEL_INVALID\000"
 10470      52525F54 
 10470      41534B5F 
 10470      44454C5F 
 10470      494E5641 
 10471              	.LASF193:
 10472 062d 4F535F45 		.ascii	"OS_ERR_TMR_STK_INVALID\000"
 10472      52525F54 
 10472      4D525F53 
 10472      544B5F49 
 10472      4E56414C 
 10473              	.LASF364:
 10474 0644 4F535F4D 		.ascii	"OS_MsgQFreeAll\000"
 10474      73675146 
 10474      72656541 
 10474      6C6C00
 10475              	.LASF4:
 10476 0653 4350555F 		.ascii	"CPU_INT08U\000"
 10476      494E5430 
 10476      385500
 10477              	.LASF210:
 10478 065e 6F735F6D 		.ascii	"os_msg\000"
 10478      736700
 10479              	.LASF162:
 10480 0665 4F535F45 		.ascii	"OS_ERR_TCB_INVALID\000"
 10480      52525F54 
 10480      43425F49 
 10480      4E56414C 
 10480      494400
 10481              	.LASF362:
 10482 0678 4F535F50 		.ascii	"OS_PendListChangePrio\000"
 10482      656E644C 
 10482      69737443 
 10482      68616E67 
 10482      65507269 
 10483              	.LASF236:
 10484 068e 53746B53 		.ascii	"StkSize\000"
 10484      697A6500 
 10485              	.LASF228:
 10486 0696 53746B42 		.ascii	"StkBasePtr\000"
 10486      61736550 
 10486      747200
 10487              	.LASF300:
 10488 06a1 76616C75 		.ascii	"value\000"
 10488      6500
 10489              	.LASF114:
 10490 06a7 4F535F45 		.ascii	"OS_ERR_Q_EMPTY\000"
 10490      52525F51 
 10490      5F454D50 
 10490      545900
 10491              	.LASF178:
 10492 06b6 4F535F45 		.ascii	"OS_ERR_TIME_INVALID_MILLISECONDS\000"
 10492      52525F54 
 10492      494D455F 
ARM GAS  C:\Users\jorti\AppData\Local\Temp\ccDtGf1z.s 			page 238


 10492      494E5641 
 10492      4C49445F 
 10493              	.LASF36:
 10494 06d7 4F535F52 		.ascii	"OS_REG\000"
 10494      454700
 10495              	.LASF379:
 10496 06de 474E5520 		.ascii	"GNU C11 5.4.1 20160609 (release) [ARM/embedded-5-br"
 10496      43313120 
 10496      352E342E 
 10496      31203230 
 10496      31363036 
 10497 0711 616E6368 		.ascii	"anch revision 237715] -mcpu=cortex-m3 -mthumb -g -O"
 10497      20726576 
 10497      6973696F 
 10497      6E203233 
 10497      37373135 
 10498 0744 67202D66 		.ascii	"g -ffunction-sections -ffat-lto-objects\000"
 10498      66756E63 
 10498      74696F6E 
 10498      2D736563 
 10498      74696F6E 
 10499              	.LASF87:
 10500 076c 4F535F45 		.ascii	"OS_ERR_NAME\000"
 10500      52525F4E 
 10500      414D4500 
 10501              	.LASF345:
 10502 0778 4F534964 		.ascii	"OSIdleTaskTCB\000"
 10502      6C655461 
 10502      736B5443 
 10502      4200
 10503              	.LASF40:
 10504 0786 4F535F53 		.ascii	"OS_STATUS\000"
 10504      54415455 
 10504      5300
 10505              	.LASF234:
 10506 0790 5461736B 		.ascii	"TaskState\000"
 10506      53746174 
 10506      6500
 10507              	.LASF306:
 10508 079a 4F535461 		.ascii	"OSTaskSemSet\000"
 10508      736B5365 
 10508      6D536574 
 10508      00
 10509              	.LASF167:
 10510 07a7 4F535F45 		.ascii	"OS_ERR_TLS_DESTRUCT_ASSIGNED\000"
 10510      52525F54 
 10510      4C535F44 
 10510      45535452 
 10510      5543545F 
 10511              	.LASF83:
 10512 07c4 4F535F45 		.ascii	"OS_ERR_MUTEX_NOT_OWNER\000"
 10512      52525F4D 
 10512      55544558 
 10512      5F4E4F54 
 10512      5F4F574E 
 10513              	.LASF30:
 10514 07db 4F535F4D 		.ascii	"OS_MSG_SIZE\000"
ARM GAS  C:\Users\jorti\AppData\Local\Temp\ccDtGf1z.s 			page 239


 10514      53475F53 
 10514      495A4500 
 10515              	.LASF175:
 10516 07e7 4F535F45 		.ascii	"OS_ERR_TIME_INVALID_HOURS\000"
 10516      52525F54 
 10516      494D455F 
 10516      494E5641 
 10516      4C49445F 
 10517              	.LASF191:
 10518 0801 4F535F45 		.ascii	"OS_ERR_TMR_NON_AVAIL\000"
 10518      52525F54 
 10518      4D525F4E 
 10518      4F4E5F41 
 10518      5641494C 
 10519              	.LASF0:
 10520 0816 4350555F 		.ascii	"CPU_CHAR\000"
 10520      43484152 
 10520      00
 10521              	.LASF140:
 10522 081f 4F535F45 		.ascii	"OS_ERR_TASK_CREATE_ISR\000"
 10522      52525F54 
 10522      41534B5F 
 10522      43524541 
 10522      54455F49 
 10523              	.LASF17:
 10524 0836 4350555F 		.ascii	"CPU_STK_SIZE\000"
 10524      53544B5F 
 10524      53495A45 
 10524      00
 10525              	.LASF308:
 10526 0843 705F6672 		.ascii	"p_free\000"
 10526      656500
 10527              	.LASF29:
 10528 084a 4F535F4D 		.ascii	"OS_MSG_QTY\000"
 10528      53475F51 
 10528      545900
 10529              	.LASF96:
 10530 0855 4F535F45 		.ascii	"OS_ERR_OS_RUNNING\000"
 10530      52525F4F 
 10530      535F5255 
 10530      4E4E494E 
 10530      4700
 10531              	.LASF262:
 10532 0867 53746B46 		.ascii	"StkFree\000"
 10532      72656500 
 10533              	.LASF239:
 10534 086f 5469636B 		.ascii	"TickCtrPrev\000"
 10534      43747250 
 10534      72657600 
 10535              	.LASF214:
 10536 087b 4E627245 		.ascii	"NbrEntriesSize\000"
 10536      6E747269 
 10536      65735369 
 10536      7A6500
 10537              	.LASF181:
 10538 088a 4F535F45 		.ascii	"OS_ERR_TIME_ZERO_DLY\000"
 10538      52525F54 
ARM GAS  C:\Users\jorti\AppData\Local\Temp\ccDtGf1z.s 			page 240


 10538      494D455F 
 10538      5A45524F 
 10538      5F444C59 
 10539              	.LASF320:
 10540 089f 7265675F 		.ascii	"reg_id\000"
 10540      696400
 10541              	.LASF225:
 10542 08a6 5469636B 		.ascii	"TickPrevPtr\000"
 10542      50726576 
 10542      50747200 
 10543              	.LASF249:
 10544 08b2 466C6167 		.ascii	"FlagsRdy\000"
 10544      73526479 
 10544      00
 10545              	.LASF311:
 10546 08bb 705F7374 		.ascii	"p_stk\000"
 10546      6B00
 10547              	.LASF131:
 10548 08c1 4F535F45 		.ascii	"OS_ERR_STAT_STK_INVALID\000"
 10548      52525F53 
 10548      5441545F 
 10548      53544B5F 
 10548      494E5641 
 10549              	.LASF291:
 10550 08d9 4F535461 		.ascii	"OSTaskQFlush\000"
 10550      736B5146 
 10550      6C757368 
 10550      00
 10551              	.LASF53:
 10552 08e6 4F535F45 		.ascii	"OS_ERR_FLAG_GRP_DEPLETED\000"
 10552      52525F46 
 10552      4C41475F 
 10552      4752505F 
 10552      4445504C 
 10553              	.LASF74:
 10554 08ff 4F535F45 		.ascii	"OS_ERR_MEM_INVALID_BLKS\000"
 10554      52525F4D 
 10554      454D5F49 
 10554      4E56414C 
 10554      49445F42 
 10555              	.LASF287:
 10556 0917 705F6572 		.ascii	"p_err\000"
 10556      7200
 10557              	.LASF347:
 10558 091d 4F535275 		.ascii	"OSRunning\000"
 10558      6E6E696E 
 10558      6700
 10559              	.LASF323:
 10560 0927 705F7461 		.ascii	"p_task\000"
 10560      736B00
 10561              	.LASF371:
 10562 092e 4F535461 		.ascii	"OSTaskCreateHook\000"
 10562      736B4372 
 10562      65617465 
 10562      486F6F6B 
 10562      00
 10563              	.LASF246:
ARM GAS  C:\Users\jorti\AppData\Local\Temp\ccDtGf1z.s 			page 241


 10564 093f 4D736751 		.ascii	"MsgQPendTimeMax\000"
 10564      50656E64 
 10564      54696D65 
 10564      4D617800 
 10565              	.LASF245:
 10566 094f 4D736751 		.ascii	"MsgQPendTime\000"
 10566      50656E64 
 10566      54696D65 
 10566      00
 10567              	.LASF204:
 10568 095c 4F535F4D 		.ascii	"OS_MSG\000"
 10568      534700
 10569              	.LASF322:
 10570 0963 705F6E61 		.ascii	"p_name\000"
 10570      6D6500
 10571              	.LASF184:
 10572 096a 4F535F45 		.ascii	"OS_ERR_TMR_INVALID_DEST\000"
 10572      52525F54 
 10572      4D525F49 
 10572      4E56414C 
 10572      49445F44 
 10573              	.LASF350:
 10574 0982 4F535461 		.ascii	"OSTaskCtxSwCtr\000"
 10574      736B4374 
 10574      78537743 
 10574      747200
 10575              	.LASF325:
 10576 0991 7072696F 		.ascii	"prio\000"
 10576      00
 10577              	.LASF123:
 10578 0996 4F535F45 		.ascii	"OS_ERR_SCHED_LOCK_ISR\000"
 10578      52525F53 
 10578      43484544 
 10578      5F4C4F43 
 10578      4B5F4953 
 10579              	.LASF49:
 10580 09ac 4F535F45 		.ascii	"OS_ERR_DEL_ISR\000"
 10580      52525F44 
 10580      454C5F49 
 10580      535200
 10581              	.LASF115:
 10582 09bb 4F535F45 		.ascii	"OS_ERR_Q_MAX\000"
 10582      52525F51 
 10582      5F4D4158 
 10582      00
 10583              	.LASF223:
 10584 09c8 50726576 		.ascii	"PrevPtr\000"
 10584      50747200 
 10585              	.LASF2:
 10586 09d0 63686172 		.ascii	"char\000"
 10586      00
 10587              	.LASF356:
 10588 09d5 4350555F 		.ascii	"CPU_SR_Save\000"
 10588      53525F53 
 10588      61766500 
 10589              	.LASF33:
 10590 09e1 4F535F4F 		.ascii	"OS_OBJ_TYPE\000"
ARM GAS  C:\Users\jorti\AppData\Local\Temp\ccDtGf1z.s 			page 242


 10590      424A5F54 
 10590      59504500 
 10591              	.LASF333:
 10592 09ed 705F7374 		.ascii	"p_stk_limit\000"
 10592      6B5F6C69 
 10592      6D697400 
 10593              	.LASF166:
 10594 09f9 4F535F45 		.ascii	"OS_ERR_TLS_NOT_EN\000"
 10594      52525F54 
 10594      4C535F4E 
 10594      4F545F45 
 10594      4E00
 10595              	.LASF94:
 10596 0a0b 4F535F45 		.ascii	"OS_ERR_OPT_INVALID\000"
 10596      52525F4F 
 10596      50545F49 
 10596      4E56414C 
 10596      494400
 10597              	.LASF18:
 10598 0a1e 4350555F 		.ascii	"CPU_SR\000"
 10598      535200
 10599              	.LASF313:
 10600 0a25 74696D65 		.ascii	"time_quanta\000"
 10600      5F717561 
 10600      6E746100 
 10601              	.LASF122:
 10602 0a31 4F535F45 		.ascii	"OS_ERR_SCHED_INVALID_TIME_SLICE\000"
 10602      52525F53 
 10602      43484544 
 10602      5F494E56 
 10602      414C4944 
 10603              	.LASF365:
 10604 0a51 4F535F4D 		.ascii	"OS_MsgQGet\000"
 10604      73675147 
 10604      657400
 10605              	.LASF301:
 10606 0a5c 4F535461 		.ascii	"OSTaskRegGetID\000"
 10606      736B5265 
 10606      67476574 
 10606      494400
 10607              	.LASF244:
 10608 0a6b 4D736751 		.ascii	"MsgQ\000"
 10608      00
 10609              	.LASF229:
 10610 0a70 5461736B 		.ascii	"TaskEntryAddr\000"
 10610      456E7472 
 10610      79416464 
 10610      7200
 10611              	.LASF378:
 10612 0a7e 4F535461 		.ascii	"OSTaskReturnHook\000"
 10612      736B5265 
 10612      7475726E 
 10612      486F6F6B 
 10612      00
 10613              	.LASF130:
 10614 0a8f 4F535F45 		.ascii	"OS_ERR_STAT_PRIO_INVALID\000"
 10614      52525F53 
ARM GAS  C:\Users\jorti\AppData\Local\Temp\ccDtGf1z.s 			page 243


 10614      5441545F 
 10614      5052494F 
 10614      5F494E56 
 10615              	.LASF179:
 10616 0aa8 4F535F45 		.ascii	"OS_ERR_TIME_NOT_DLY\000"
 10616      52525F54 
 10616      494D455F 
 10616      4E4F545F 
 10616      444C5900 
 10617              	.LASF299:
 10618 0abc 4F535461 		.ascii	"OSTaskRegGet\000"
 10618      736B5265 
 10618      67476574 
 10618      00
 10619              	.LASF227:
 10620 0ac9 4E616D65 		.ascii	"NamePtr\000"
 10620      50747200 
 10621              	.LASF233:
 10622 0ad1 50656E64 		.ascii	"PendStatus\000"
 10622      53746174 
 10622      757300
 10623              	.LASF209:
 10624 0adc 4F535F4D 		.ascii	"OS_MSG_Q\000"
 10624      53475F51 
 10624      00
 10625              	.LASF243:
 10626 0ae5 54696D65 		.ascii	"TimeQuantaCtr\000"
 10626      5175616E 
 10626      74614374 
 10626      7200
 10627              	.LASF327:
 10628 0af3 73746B5F 		.ascii	"stk_limit\000"
 10628      6C696D69 
 10628      7400
 10629              	.LASF201:
 10630 0afd 4F535F45 		.ascii	"OS_ERR_YIELD_ISR\000"
 10630      52525F59 
 10630      49454C44 
 10630      5F495352 
 10630      00
 10631              	.LASF91:
 10632 0b0e 4F535F45 		.ascii	"OS_ERR_OBJ_DEL\000"
 10632      52525F4F 
 10632      424A5F44 
 10632      454C00
 10633              	.LASF24:
 10634 0b1d 4350555F 		.ascii	"CPU_TS\000"
 10634      545300
 10635              	.LASF12:
 10636 0b24 6C6F6E67 		.ascii	"long long int\000"
 10636      206C6F6E 
 10636      6720696E 
 10636      7400
 10637              	.LASF55:
 10638 0b32 4F535F45 		.ascii	"OS_ERR_FLAG_PEND_OPT\000"
 10638      52525F46 
 10638      4C41475F 
ARM GAS  C:\Users\jorti\AppData\Local\Temp\ccDtGf1z.s 			page 244


 10638      50454E44 
 10638      5F4F5054 
 10639              	.LASF220:
 10640 0b47 53746B50 		.ascii	"StkPtr\000"
 10640      747200
 10641              	.LASF267:
 10642 0b4e 6F735F74 		.ascii	"os_tick_spoke\000"
 10642      69636B5F 
 10642      73706F6B 
 10642      6500
 10643              	.LASF285:
 10644 0b5c 705F7463 		.ascii	"p_tcb\000"
 10644      6200
 10645              	.LASF332:
 10646 0b62 705F7370 		.ascii	"p_sp\000"
 10646      00
 10647              	.LASF116:
 10648 0b67 4F535F45 		.ascii	"OS_ERR_Q_SIZE\000"
 10648      52525F51 
 10648      5F53495A 
 10648      4500
 10649              	.LASF256:
 10650 0b75 4379636C 		.ascii	"CyclesStart\000"
 10650      65735374 
 10650      61727400 
 10651              	.LASF353:
 10652 0b81 4F535461 		.ascii	"OSTaskRegNextAvailID\000"
 10652      736B5265 
 10652      674E6578 
 10652      74417661 
 10652      696C4944 
 10653              	.LASF352:
 10654 0b96 4F535461 		.ascii	"OSTaskQty\000"
 10654      736B5174 
 10654      7900
 10655              	.LASF271:
 10656 0ba0 54434250 		.ascii	"TCBPtr\000"
 10656      747200
 10657              	.LASF101:
 10658 0ba7 4F535F45 		.ascii	"OS_ERR_PEND_ABORT_SELF\000"
 10658      52525F50 
 10658      454E445F 
 10658      41424F52 
 10658      545F5345 
 10659              	.LASF6:
 10660 0bbe 4350555F 		.ascii	"CPU_INT16U\000"
 10660      494E5431 
 10660      365500
 10661              	.LASF120:
 10662 0bc9 4F535F45 		.ascii	"OS_ERR_ROUND_ROBIN_DISABLED\000"
 10662      52525F52 
 10662      4F554E44 
 10662      5F524F42 
 10662      494E5F44 
 10663              	.LASF75:
 10664 0be5 4F535F45 		.ascii	"OS_ERR_MEM_INVALID_PART\000"
 10664      52525F4D 
ARM GAS  C:\Users\jorti\AppData\Local\Temp\ccDtGf1z.s 			page 245


 10664      454D5F49 
 10664      4E56414C 
 10664      49445F50 
 10665              	.LASF92:
 10666 0bfd 4F535F45 		.ascii	"OS_ERR_OBJ_PTR_NULL\000"
 10666      52525F4F 
 10666      424A5F50 
 10666      54525F4E 
 10666      554C4C00 
 10667              	.LASF118:
 10668 0c11 4F535F45 		.ascii	"OS_ERR_REG_ID_INVALID\000"
 10668      52525F52 
 10668      45475F49 
 10668      445F494E 
 10668      56414C49 
 10669              	.LASF41:
 10670 0c27 4F535F54 		.ascii	"OS_TICK\000"
 10670      49434B00 
 10671              	.LASF72:
 10672 0c2f 4F535F45 		.ascii	"OS_ERR_MEM_FULL\000"
 10672      52525F4D 
 10672      454D5F46 
 10672      554C4C00 
 10673              	.LASF146:
 10674 0c3f 4F535F45 		.ascii	"OS_ERR_TASK_NO_MORE_TCB\000"
 10674      52525F54 
 10674      41534B5F 
 10674      4E4F5F4D 
 10674      4F52455F 
 10675              	.LASF77:
 10676 0c57 4F535F45 		.ascii	"OS_ERR_MEM_INVALID_P_MEM\000"
 10676      52525F4D 
 10676      454D5F49 
 10676      4E56414C 
 10676      49445F50 
 10677              	.LASF23:
 10678 0c70 4350555F 		.ascii	"CPU_TS32\000"
 10678      54533332 
 10678      00
 10679              	.LASF251:
 10680 0c79 53757370 		.ascii	"SuspendCtr\000"
 10680      656E6443 
 10680      747200
 10681              	.LASF222:
 10682 0c84 53746B4C 		.ascii	"StkLimitPtr\000"
 10682      696D6974 
 10682      50747200 
 10683              	.LASF319:
 10684 0c90 4F535F54 		.ascii	"OS_TaskInitTCB\000"
 10684      61736B49 
 10684      6E697454 
 10684      434200
 10685              	.LASF255:
 10686 0c9f 4379636C 		.ascii	"CyclesDelta\000"
 10686      65734465 
 10686      6C746100 
 10687              	.LASF38:
ARM GAS  C:\Users\jorti\AppData\Local\Temp\ccDtGf1z.s 			page 246


 10688 0cab 4F535F53 		.ascii	"OS_SEM_CTR\000"
 10688      454D5F43 
 10688      545200
 10689              	.LASF194:
 10690 0cb6 4F535F45 		.ascii	"OS_ERR_TMR_STK_SIZE_INVALID\000"
 10690      52525F54 
 10690      4D525F53 
 10690      544B5F53 
 10690      495A455F 
 10691              	.LASF171:
 10692 0cd2 4F535F45 		.ascii	"OS_ERR_TICK_WHEEL_SIZE\000"
 10692      52525F54 
 10692      49434B5F 
 10692      57484545 
 10692      4C5F5349 
 10693              	.LASF224:
 10694 0ce9 5469636B 		.ascii	"TickNextPtr\000"
 10694      4E657874 
 10694      50747200 
 10695              	.LASF148:
 10696 0cf5 4F535F45 		.ascii	"OS_ERR_TASK_NOT_EXIST\000"
 10696      52525F54 
 10696      41534B5F 
 10696      4E4F545F 
 10696      45584953 
 10697              	.LASF355:
 10698 0d0b 4F534366 		.ascii	"OSCfg_StkSizeMin\000"
 10698      675F5374 
 10698      6B53697A 
 10698      654D696E 
 10698      00
 10699              	.LASF349:
 10700 0d1c 4F535363 		.ascii	"OSSchedRoundRobinDfltTimeQuanta\000"
 10700      68656452 
 10700      6F756E64 
 10700      526F6269 
 10700      6E44666C 
 10701              	.LASF145:
 10702 0d3c 4F535F45 		.ascii	"OS_ERR_TASK_INVALID\000"
 10702      52525F54 
 10702      41534B5F 
 10702      494E5641 
 10702      4C494400 
 10703              	.LASF192:
 10704 0d50 4F535F45 		.ascii	"OS_ERR_TMR_PRIO_INVALID\000"
 10704      52525F54 
 10704      4D525F50 
 10704      52494F5F 
 10704      494E5641 
 10705              	.LASF295:
 10706 0d68 705F7473 		.ascii	"p_ts\000"
 10706      00
 10707              	.LASF160:
 10708 0d6d 4F535F45 		.ascii	"OS_ERR_TASK_SUSPEND_PRIO\000"
 10708      52525F54 
 10708      41534B5F 
 10708      53555350 
ARM GAS  C:\Users\jorti\AppData\Local\Temp\ccDtGf1z.s 			page 247


 10708      454E445F 
 10709              	.LASF273:
 10710 0d86 5264794F 		.ascii	"RdyObjPtr\000"
 10710      626A5074 
 10710      7200
 10711              	.LASF65:
 10712 0d90 4F535F45 		.ascii	"OS_ERR_INT_Q_STK_SIZE_INVALID\000"
 10712      52525F49 
 10712      4E545F51 
 10712      5F53544B 
 10712      5F53495A 
 10713              	.LASF164:
 10714 0dae 4F535F45 		.ascii	"OS_ERR_TLS_ISR\000"
 10714      52525F54 
 10714      4C535F49 
 10714      535200
 10715              	.LASF317:
 10716 0dbd 705F7463 		.ascii	"p_tcb_prev\000"
 10716      625F7072 
 10716      657600
 10717              	.LASF144:
 10718 0dc8 4F535F45 		.ascii	"OS_ERR_TASK_DEL_ISR\000"
 10718      52525F54 
 10718      41534B5F 
 10718      44454C5F 
 10718      49535200 
 10719              	.LASF259:
 10720 0ddc 53656D50 		.ascii	"SemPendTime\000"
 10720      656E6454 
 10720      696D6500 
 10721              	.LASF111:
 10722 0de8 4F535F45 		.ascii	"OS_ERR_PTR_INVALID\000"
 10722      52525F50 
 10722      54525F49 
 10722      4E56414C 
 10722      494400
 10723              	.LASF133:
 10724 0dfb 4F535F45 		.ascii	"OS_ERR_STATE_INVALID\000"
 10724      52525F53 
 10724      54415445 
 10724      5F494E56 
 10724      414C4944 
 10725              	.LASF205:
 10726 0e10 4E657874 		.ascii	"NextPtr\000"
 10726      50747200 
 10727              	.LASF21:
 10728 0e18 6C6F6E67 		.ascii	"long double\000"
 10728      20646F75 
 10728      626C6500 
 10729              	.LASF95:
 10730 0e24 4F535F45 		.ascii	"OS_ERR_OS_NOT_RUNNING\000"
 10730      52525F4F 
 10730      535F4E4F 
 10730      545F5255 
 10730      4E4E494E 
 10731              	.LASF283:
 10732 0e3a 54797065 		.ascii	"Type\000"
ARM GAS  C:\Users\jorti\AppData\Local\Temp\ccDtGf1z.s 			page 248


 10732      00
 10733              	.LASF346:
 10734 0e3f 4F53496E 		.ascii	"OSIntNestingCtr\000"
 10734      744E6573 
 10734      74696E67 
 10734      43747200 
 10735              	.LASF180:
 10736 0e4f 4F535F45 		.ascii	"OS_ERR_TIME_SET_ISR\000"
 10736      52525F54 
 10736      494D455F 
 10736      5345545F 
 10736      49535200 
 10737              	.LASF372:
 10738 0e63 4F535F54 		.ascii	"OS_TickListRemove\000"
 10738      69636B4C 
 10738      69737452 
 10738      656D6F76 
 10738      6500
 10739              	.LASF119:
 10740 0e75 4F535F45 		.ascii	"OS_ERR_ROUND_ROBIN_1\000"
 10740      52525F52 
 10740      4F554E44 
 10740      5F524F42 
 10740      494E5F31 
 10741              	.LASF76:
 10742 0e8a 4F535F45 		.ascii	"OS_ERR_MEM_INVALID_P_BLK\000"
 10742      52525F4D 
 10742      454D5F49 
 10742      4E56414C 
 10742      49445F50 
 10743              	.LASF73:
 10744 0ea3 4F535F45 		.ascii	"OS_ERR_MEM_INVALID_P_ADDR\000"
 10744      52525F4D 
 10744      454D5F49 
 10744      4E56414C 
 10744      49445F50 
 10745              	.LASF276:
 10746 0ebd 52647954 		.ascii	"RdyTS\000"
 10746      5300
 10747              	.LASF328:
 10748 0ec3 73746B5F 		.ascii	"stk_size\000"
 10748      73697A65 
 10748      00
 10749              	.LASF69:
 10750 0ecc 4F535F45 		.ascii	"OS_ERR_LOCK_NESTING_OVF\000"
 10750      52525F4C 
 10750      4F434B5F 
 10750      4E455354 
 10750      494E475F 
 10751              	.LASF155:
 10752 0ee4 4F535F45 		.ascii	"OS_ERR_TASK_STK_CHK_ISR\000"
 10752      52525F54 
 10752      41534B5F 
 10752      53544B5F 
 10752      43484B5F 
 10753              	.LASF343:
 10754 0efc 4F535F54 		.ascii	"OS_TaskSuspend\000"
ARM GAS  C:\Users\jorti\AppData\Local\Temp\ccDtGf1z.s 			page 249


 10754      61736B53 
 10754      75737065 
 10754      6E6400
 10755              	.LASF357:
 10756 0f0b 4350555F 		.ascii	"CPU_SR_Restore\000"
 10756      53525F52 
 10756      6573746F 
 10756      726500
 10757              	.LASF8:
 10758 0f1a 73686F72 		.ascii	"short int\000"
 10758      7420696E 
 10758      7400
 10759              	.LASF275:
 10760 0f24 5264794D 		.ascii	"RdyMsgSize\000"
 10760      73675369 
 10760      7A6500
 10761              	.LASF81:
 10762 0f2f 4F535F45 		.ascii	"OS_ERR_MSG_POOL_EMPTY\000"
 10762      52525F4D 
 10762      53475F50 
 10762      4F4F4C5F 
 10762      454D5054 
 10763              	.LASF305:
 10764 0f45 4F535461 		.ascii	"OSTaskSemPendAbort\000"
 10764      736B5365 
 10764      6D50656E 
 10764      6441626F 
 10764      727400
 10765              	.LASF337:
 10766 0f58 4F535461 		.ascii	"OSTaskQPost\000"
 10766      736B5150 
 10766      6F737400 
 10767              	.LASF330:
 10768 0f64 705F6578 		.ascii	"p_ext\000"
 10768      7400
 10769              	.LASF19:
 10770 0f6a 6C6F6E67 		.ascii	"long int\000"
 10770      20696E74 
 10770      00
 10771              	.LASF126:
 10772 0f73 4F535F45 		.ascii	"OS_ERR_SCHED_UNLOCK_ISR\000"
 10772      52525F53 
 10772      43484544 
 10772      5F554E4C 
 10772      4F434B5F 
 10773              	.LASF260:
 10774 0f8b 53656D50 		.ascii	"SemPendTimeMax\000"
 10774      656E6454 
 10774      696D654D 
 10774      617800
 10775              	.LASF314:
 10776 0f9a 4F535F54 		.ascii	"OS_TaskDbgListAdd\000"
 10776      61736B44 
 10776      62674C69 
 10776      73744164 
 10776      6400
 10777              	.LASF258:
ARM GAS  C:\Users\jorti\AppData\Local\Temp\ccDtGf1z.s 			page 250


 10778 0fac 4379636C 		.ascii	"CyclesTotalPrev\000"
 10778      6573546F 
 10778      74616C50 
 10778      72657600 
 10779              	.LASF169:
 10780 0fbc 4F535F45 		.ascii	"OS_ERR_TICK_STK_INVALID\000"
 10780      52525F54 
 10780      49434B5F 
 10780      53544B5F 
 10780      494E5641 
 10781              	.LASF82:
 10782 0fd4 4F535F45 		.ascii	"OS_ERR_MSG_POOL_NULL_PTR\000"
 10782      52525F4D 
 10782      53475F50 
 10782      4F4F4C5F 
 10782      4E554C4C 
 10783              	.LASF31:
 10784 0fed 4F535F4E 		.ascii	"OS_NESTING_CTR\000"
 10784      45535449 
 10784      4E475F43 
 10784      545200
 10785              	.LASF257:
 10786 0ffc 4379636C 		.ascii	"CyclesTotal\000"
 10786      6573546F 
 10786      74616C00 
 10787              	.LASF359:
 10788 1008 4F535F50 		.ascii	"OS_PrioInsert\000"
 10788      72696F49 
 10788      6E736572 
 10788      7400
 10789              	.LASF281:
 10790 1016 4F535F50 		.ascii	"OS_PEND_OBJ\000"
 10790      454E445F 
 10790      4F424A00 
 10791              	.LASF153:
 10792 1022 4F535F45 		.ascii	"OS_ERR_TASK_RESUME_SELF\000"
 10792      52525F54 
 10792      41534B5F 
 10792      52455355 
 10792      4D455F53 
 10793              	.LASF253:
 10794 103a 43505555 		.ascii	"CPUUsageMax\000"
 10794      73616765 
 10794      4D617800 
 10795              	.LASF284:
 10796 1046 50656E64 		.ascii	"PendList\000"
 10796      4C697374 
 10796      00
 10797              	.LASF93:
 10798 104f 4F535F45 		.ascii	"OS_ERR_OBJ_TYPE\000"
 10798      52525F4F 
 10798      424A5F54 
 10798      59504500 
 10799              	.LASF231:
 10800 105f 50656E64 		.ascii	"PendDataTblPtr\000"
 10800      44617461 
 10800      54626C50 
ARM GAS  C:\Users\jorti\AppData\Local\Temp\ccDtGf1z.s 			page 251


 10800      747200
 10801              	.LASF315:
 10802 106e 4F535F54 		.ascii	"OS_TaskDbgListRemove\000"
 10802      61736B44 
 10802      62674C69 
 10802      73745265 
 10802      6D6F7665 
 10803              	.LASF238:
 10804 1083 53656D43 		.ascii	"SemCtr\000"
 10804      747200
 10805              	.LASF212:
 10806 108a 496E5074 		.ascii	"InPtr\000"
 10806      7200
 10807              	.LASF286:
 10808 1090 7072696F 		.ascii	"prio_new\000"
 10808      5F6E6577 
 10808      00
 10809              	.LASF241:
 10810 1099 5469636B 		.ascii	"TickRemain\000"
 10810      52656D61 
 10810      696E00
 10811              	.LASF279:
 10812 10a4 48656164 		.ascii	"HeadPtr\000"
 10812      50747200 
 10813              	.LASF375:
 10814 10ac 4F535F4D 		.ascii	"OS_MsgQPut\000"
 10814      73675150 
 10814      757400
 10815              	.LASF100:
 10816 10b7 4F535F45 		.ascii	"OS_ERR_PEND_ABORT_NONE\000"
 10816      52525F50 
 10816      454E445F 
 10816      41424F52 
 10816      545F4E4F 
 10817              	.LASF318:
 10818 10ce 4F535F54 		.ascii	"OS_TaskInit\000"
 10818      61736B49 
 10818      6E697400 
 10819              	.LASF10:
 10820 10da 756E7369 		.ascii	"unsigned int\000"
 10820      676E6564 
 10820      20696E74 
 10820      00
 10821              	.LASF207:
 10822 10e7 4D736753 		.ascii	"MsgSize\000"
 10822      697A6500 
 10823              	.LASF84:
 10824 10ef 4F535F45 		.ascii	"OS_ERR_MUTEX_OWNER\000"
 10824      52525F4D 
 10824      55544558 
 10824      5F4F574E 
 10824      455200
 10825              	.LASF268:
 10826 1102 46697273 		.ascii	"FirstPtr\000"
 10826      74507472 
 10826      00
 10827              	.LASF132:
ARM GAS  C:\Users\jorti\AppData\Local\Temp\ccDtGf1z.s 			page 252


 10828 110b 4F535F45 		.ascii	"OS_ERR_STAT_STK_SIZE_INVALID\000"
 10828      52525F53 
 10828      5441545F 
 10828      53544B5F 
 10828      53495A45 
 10829              	.LASF54:
 10830 1128 4F535F45 		.ascii	"OS_ERR_FLAG_NOT_RDY\000"
 10830      52525F46 
 10830      4C41475F 
 10830      4E4F545F 
 10830      52445900 
 10831              	.LASF334:
 10832 113c 4F535461 		.ascii	"OSTaskDel\000"
 10832      736B4465 
 10832      6C00
 10833              	.LASF377:
 10834 1146 4F535F54 		.ascii	"OS_TaskRdy\000"
 10834      61736B52 
 10834      647900
 10835              	.LASF307:
 10836 1151 4F535461 		.ascii	"OSTaskStkChk\000"
 10836      736B5374 
 10836      6B43686B 
 10836      00
 10837              	.LASF324:
 10838 115e 705F6172 		.ascii	"p_arg\000"
 10838      6700
 10839              	.LASF221:
 10840 1164 45787450 		.ascii	"ExtPtr\000"
 10840      747200
 10841              	.LASF22:
 10842 116b 73697A65 		.ascii	"sizetype\000"
 10842      74797065 
 10842      00
 10843              	.LASF20:
 10844 1174 6C6F6E67 		.ascii	"long unsigned int\000"
 10844      20756E73 
 10844      69676E65 
 10844      6420696E 
 10844      7400
 10845              	.LASF99:
 10846 1186 4F535F45 		.ascii	"OS_ERR_PEND_ABORT_ISR\000"
 10846      52525F50 
 10846      454E445F 
 10846      41424F52 
 10846      545F4953 
 10847              	.LASF15:
 10848 119c 4350555F 		.ascii	"CPU_ADDR\000"
 10848      41444452 
 10848      00
 10849              	.LASF107:
 10850 11a5 4F535F45 		.ascii	"OS_ERR_POST_ISR\000"
 10850      52525F50 
 10850      4F53545F 
 10850      49535200 
 10851              	.LASF172:
 10852 11b5 4F535F45 		.ascii	"OS_ERR_TIME_DLY_ISR\000"
ARM GAS  C:\Users\jorti\AppData\Local\Temp\ccDtGf1z.s 			page 253


 10852      52525F54 
 10852      494D455F 
 10852      444C595F 
 10852      49535200 
 10853              	.LASF137:
 10854 11c9 4F535F45 		.ascii	"OS_ERR_STK_LIMIT_INVALID\000"
 10854      52525F53 
 10854      544B5F4C 
 10854      494D4954 
 10854      5F494E56 
 10855              	.LASF304:
 10856 11e2 4F535461 		.ascii	"OSTaskSemPend\000"
 10856      736B5365 
 10856      6D50656E 
 10856      6400
 10857              	.LASF1:
 10858 11f0 4350555F 		.ascii	"CPU_BOOLEAN\000"
 10858      424F4F4C 
 10858      45414E00 
 10859              	.LASF338:
 10860 11fc 4F535F54 		.ascii	"OS_TaskResume\000"
 10860      61736B52 
 10860      6573756D 
 10860      6500
 10861              	.LASF298:
 10862 120a 4F535461 		.ascii	"OSTaskQPendAbort\000"
 10862      736B5150 
 10862      656E6441 
 10862      626F7274 
 10862      00
 10863              	.LASF27:
 10864 121b 4F535F43 		.ascii	"OS_CYCLES\000"
 10864      59434C45 
 10864      5300
 10865              	.LASF218:
 10866 1225 4F535F54 		.ascii	"OS_TCB\000"
 10866      434200
 10867              	.LASF374:
 10868 122c 4F535461 		.ascii	"OSTaskDelHook\000"
 10868      736B4465 
 10868      6C486F6F 
 10868      6B00
 10869              	.LASF310:
 10870 123a 66726565 		.ascii	"free_stk\000"
 10870      5F73746B 
 10870      00
 10871              	.LASF344:
 10872 1243 4F535461 		.ascii	"OSTaskSuspend\000"
 10872      736B5375 
 10872      7370656E 
 10872      6400
 10873              	.LASF136:
 10874 1251 4F535F45 		.ascii	"OS_ERR_STK_SIZE_INVALID\000"
 10874      52525F53 
 10874      544B5F53 
 10874      495A455F 
 10874      494E5641 
ARM GAS  C:\Users\jorti\AppData\Local\Temp\ccDtGf1z.s 			page 254


 10875              	.LASF326:
 10876 1269 705F7374 		.ascii	"p_stk_base\000"
 10876      6B5F6261 
 10876      736500
 10877              	.LASF195:
 10878 1274 4F535F45 		.ascii	"OS_ERR_TMR_STOPPED\000"
 10878      52525F54 
 10878      4D525F53 
 10878      544F5050 
 10878      454400
 10879              	.LASF363:
 10880 1287 4F535363 		.ascii	"OSSched\000"
 10880      68656400 
 10881              	.LASF3:
 10882 128f 756E7369 		.ascii	"unsigned char\000"
 10882      676E6564 
 10882      20636861 
 10882      7200
 10883              	.LASF150:
 10884 129d 4F535F45 		.ascii	"OS_ERR_TASK_OPT\000"
 10884      52525F54 
 10884      41534B5F 
 10884      4F505400 
 10885              	.LASF348:
 10886 12ad 4F535363 		.ascii	"OSSchedLockNestingCtr\000"
 10886      6865644C 
 10886      6F636B4E 
 10886      65737469 
 10886      6E674374 
 10887              	.LASF182:
 10888 12c3 4F535F45 		.ascii	"OS_ERR_TIMEOUT\000"
 10888      52525F54 
 10888      494D454F 
 10888      555400
 10889              	.LASF358:
 10890 12d2 4F535F52 		.ascii	"OS_RdyListRemove\000"
 10890      64794C69 
 10890      73745265 
 10890      6D6F7665 
 10890      00
 10891              	.LASF39:
 10892 12e3 4F535F53 		.ascii	"OS_STATE\000"
 10892      54415445 
 10892      00
 10893              	.LASF293:
 10894 12ec 74696D65 		.ascii	"timeout\000"
 10894      6F757400 
 10895              	.LASF34:
 10896 12f4 4F535F4F 		.ascii	"OS_OPT\000"
 10896      505400
 10897              	.LASF217:
 10898 12fb 4F535F54 		.ascii	"OS_TASK_PTR\000"
 10898      41534B5F 
 10898      50545200 
 10899              	.LASF71:
 10900 1307 4F535F45 		.ascii	"OS_ERR_MEM_CREATE_ISR\000"
 10900      52525F4D 
ARM GAS  C:\Users\jorti\AppData\Local\Temp\ccDtGf1z.s 			page 255


 10900      454D5F43 
 10900      52454154 
 10900      455F4953 
 10901              	.LASF134:
 10902 131d 4F535F45 		.ascii	"OS_ERR_STATUS_INVALID\000"
 10902      52525F53 
 10902      54415455 
 10902      535F494E 
 10902      56414C49 
 10903              	.LASF200:
 10904 1333 4F535F45 		.ascii	"OS_ERR_Y\000"
 10904      52525F59 
 10904      00
 10905              	.LASF103:
 10906 133c 4F535F45 		.ascii	"OS_ERR_PEND_ISR\000"
 10906      52525F50 
 10906      454E445F 
 10906      49535200 
 10907              	.LASF202:
 10908 134c 4F535F45 		.ascii	"OS_ERR_Z\000"
 10908      52525F5A 
 10908      00
 10909              	.LASF226:
 10910 1355 5469636B 		.ascii	"TickSpokePtr\000"
 10910      53706F6B 
 10910      65507472 
 10910      00
 10911              	.LASF381:
 10912 1362 433A5C55 		.ascii	"C:\\Users\\jorti\\Documents\\FH_Technikum\\MES1\\Sy"
 10912      73657273 
 10912      5C6A6F72 
 10912      74695C44 
 10912      6F63756D 
 10913 138f 7374656D 		.ascii	"stem_Software_1\\cypress_bldc_motor\\esw_rtos_cykit"
 10913      5F536F66 
 10913      74776172 
 10913      655F315C 
 10913      63797072 
 10914 13c0 5C657377 		.ascii	"\\esw_uCOS3_cykit.cydsn\000"
 10914      5F75434F 
 10914      53335F63 
 10914      796B6974 
 10914      2E637964 
 10915              	.LASF213:
 10916 13d7 4F757450 		.ascii	"OutPtr\000"
 10916      747200
 10917              	.LASF230:
 10918 13de 5461736B 		.ascii	"TaskEntryArg\000"
 10918      456E7472 
 10918      79417267 
 10918      00
 10919              	.LASF113:
 10920 13eb 4F535F45 		.ascii	"OS_ERR_Q_FULL\000"
 10920      52525F51 
 10920      5F46554C 
 10920      4C00
 10921              	.LASF370:
ARM GAS  C:\Users\jorti\AppData\Local\Temp\ccDtGf1z.s 			page 256


 10922 13f9 4F535461 		.ascii	"OSTaskStkInit\000"
 10922      736B5374 
 10922      6B496E69 
 10922      7400
 10923              	.LASF302:
 10924 1407 4F535461 		.ascii	"OSTaskChangePrio\000"
 10924      736B4368 
 10924      616E6765 
 10924      5072696F 
 10924      00
 10925              	.LASF376:
 10926 1418 4F535F50 		.ascii	"OS_Post\000"
 10926      6F737400 
 10927              	.LASF64:
 10928 1420 4F535F45 		.ascii	"OS_ERR_INT_Q_STK_INVALID\000"
 10928      52525F49 
 10928      4E545F51 
 10928      5F53544B 
 10928      5F494E56 
 10929              	.LASF177:
 10930 1439 4F535F45 		.ascii	"OS_ERR_TIME_INVALID_SECONDS\000"
 10930      52525F54 
 10930      494D455F 
 10930      494E5641 
 10930      4C49445F 
 10931              	.LASF141:
 10932 1455 4F535F45 		.ascii	"OS_ERR_TASK_DEL\000"
 10932      52525F54 
 10932      41534B5F 
 10932      44454C00 
 10933              	.LASF277:
 10934 1465 4F535F50 		.ascii	"OS_PEND_LIST\000"
 10934      454E445F 
 10934      4C495354 
 10934      00
 10935              	.LASF366:
 10936 1472 4350555F 		.ascii	"CPU_TS_TmrRd\000"
 10936      54535F54 
 10936      6D725264 
 10936      00
 10937              	.LASF336:
 10938 147f 6D73675F 		.ascii	"msg_size\000"
 10938      73697A65 
 10938      00
 10939              	.LASF5:
 10940 1488 7369676E 		.ascii	"signed char\000"
 10940      65642063 
 10940      68617200 
 10941              	.LASF208:
 10942 1494 4D736754 		.ascii	"MsgTS\000"
 10942      5300
 10943              	.LASF335:
 10944 149a 4F535F54 		.ascii	"OS_TaskQPost\000"
 10944      61736B51 
 10944      506F7374 
 10944      00
 10945              	.LASF52:
ARM GAS  C:\Users\jorti\AppData\Local\Temp\ccDtGf1z.s 			page 257


 10946 14a7 4F535F45 		.ascii	"OS_ERR_FATAL_RETURN\000"
 10946      52525F46 
 10946      4154414C 
 10946      5F524554 
 10946      55524E00 
 10947              	.LASF7:
 10948 14bb 73686F72 		.ascii	"short unsigned int\000"
 10948      7420756E 
 10948      7369676E 
 10948      65642069 
 10948      6E7400
 10949              	.LASF28:
 10950 14ce 4F535F46 		.ascii	"OS_FLAGS\000"
 10950      4C414753 
 10950      00
 10951              	.LASF341:
 10952 14d7 4F535F54 		.ascii	"OS_TaskSemPost\000"
 10952      61736B53 
 10952      656D506F 
 10952      737400
 10953              	.LASF206:
 10954 14e6 4D736750 		.ascii	"MsgPtr\000"
 10954      747200
 10955              	.LASF165:
 10956 14ed 4F535F45 		.ascii	"OS_ERR_TLS_NO_MORE_AVAIL\000"
 10956      52525F54 
 10956      4C535F4E 
 10956      4F5F4D4F 
 10956      52455F41 
 10957              	.LASF42:
 10958 1506 4F535F45 		.ascii	"OS_ERR_NONE\000"
 10958      52525F4E 
 10958      4F4E4500 
 10959              	.LASF290:
 10960 1512 656E7472 		.ascii	"entries\000"
 10960      69657300 
 10961              	.LASF270:
 10962 151a 6F735F70 		.ascii	"os_pend_data\000"
 10962      656E645F 
 10962      64617461 
 10962      00
 10963              	.LASF37:
 10964 1527 4F535F52 		.ascii	"OS_REG_ID\000"
 10964      45475F49 
 10964      4400
 10965              	.LASF124:
 10966 1531 4F535F45 		.ascii	"OS_ERR_SCHED_LOCKED\000"
 10966      52525F53 
 10966      43484544 
 10966      5F4C4F43 
 10966      4B454400 
 10967              	.LASF56:
 10968 1545 4F535F45 		.ascii	"OS_ERR_FLUSH_ISR\000"
 10968      52525F46 
 10968      4C555348 
 10968      5F495352 
 10968      00
ARM GAS  C:\Users\jorti\AppData\Local\Temp\ccDtGf1z.s 			page 258


 10969              	.LASF235:
 10970 1556 5072696F 		.ascii	"Prio\000"
 10970      00
 10971              	.LASF329:
 10972 155b 715F7369 		.ascii	"q_size\000"
 10972      7A6500
 10973              	.LASF14:
 10974 1562 646F7562 		.ascii	"double\000"
 10974      6C6500
 10975              	.LASF98:
 10976 1569 4F535F45 		.ascii	"OS_ERR_PEND_ABORT\000"
 10976      52525F50 
 10976      454E445F 
 10976      41424F52 
 10976      5400
 10977              	.LASF252:
 10978 157b 43505555 		.ascii	"CPUUsage\000"
 10978      73616765 
 10978      00
 10979              	.LASF125:
 10980 1584 4F535F45 		.ascii	"OS_ERR_SCHED_NOT_LOCKED\000"
 10980      52525F53 
 10980      43484544 
 10980      5F4E4F54 
 10980      5F4C4F43 
 10981              	.LASF109:
 10982 159c 4F535F45 		.ascii	"OS_ERR_PRIO\000"
 10982      52525F50 
 10982      52494F00 
 10983              	.LASF102:
 10984 15a8 4F535F45 		.ascii	"OS_ERR_PEND_DEL\000"
 10984      52525F50 
 10984      454E445F 
 10984      44454C00 
 10985              	.LASF272:
 10986 15b8 50656E64 		.ascii	"PendObjPtr\000"
 10986      4F626A50 
 10986      747200
 10987              	.LASF216:
 10988 15c3 4E627245 		.ascii	"NbrEntriesMax\000"
 10988      6E747269 
 10988      65734D61 
 10988      7800
 10989              	.LASF351:
 10990 15d1 4F535461 		.ascii	"OSTaskDbgListPtr\000"
 10990      736B4462 
 10990      674C6973 
 10990      74507472 
 10990      00
 10991              	.LASF278:
 10992 15e2 6F735F70 		.ascii	"os_pend_list\000"
 10992      656E645F 
 10992      6C697374 
 10992      00
 10993              	.LASF79:
 10994 15ef 4F535F45 		.ascii	"OS_ERR_MEM_INVALID_SIZE\000"
 10994      52525F4D 
ARM GAS  C:\Users\jorti\AppData\Local\Temp\ccDtGf1z.s 			page 259


 10994      454D5F49 
 10994      4E56414C 
 10994      49445F53 
 10995              	.LASF156:
 10996 1607 4F535F45 		.ascii	"OS_ERR_TASK_SUSPENDED\000"
 10996      52525F54 
 10996      41534B5F 
 10996      53555350 
 10996      454E4445 
 10997              	.LASF128:
 10998 161d 4F535F45 		.ascii	"OS_ERR_SET_ISR\000"
 10998      52525F53 
 10998      45545F49 
 10998      535200
 10999              	.LASF265:
 11000 162c 4462674E 		.ascii	"DbgNamePtr\000"
 11000      616D6550 
 11000      747200
 11001              	.LASF247:
 11002 1637 52656754 		.ascii	"RegTbl\000"
 11002      626C00
 11003              	.LASF296:
 11004 163e 705F6D73 		.ascii	"p_msg_q\000"
 11004      675F7100 
 11005              	.LASF127:
 11006 1646 4F535F45 		.ascii	"OS_ERR_SEM_OVF\000"
 11006      52525F53 
 11006      454D5F4F 
 11006      564600
 11007              	.LASF142:
 11008 1655 4F535F45 		.ascii	"OS_ERR_TASK_DEL_IDLE\000"
 11008      52525F54 
 11008      41534B5F 
 11008      44454C5F 
 11008      49444C45 
 11009              	.LASF174:
 11010 166a 4F535F45 		.ascii	"OS_ERR_TIME_GET_ISR\000"
 11010      52525F54 
 11010      494D455F 
 11010      4745545F 
 11010      49535200 
 11011              	.LASF242:
 11012 167e 54696D65 		.ascii	"TimeQuanta\000"
 11012      5175616E 
 11012      746100
 11013              	.LASF173:
 11014 1689 4F535F45 		.ascii	"OS_ERR_TIME_DLY_RESUME_ISR\000"
 11014      52525F54 
 11014      494D455F 
 11014      444C595F 
 11014      52455355 
 11015              	.LASF168:
 11016 16a4 4F535F45 		.ascii	"OS_ERR_TICK_PRIO_INVALID\000"
 11016      52525F54 
 11016      49434B5F 
 11016      5052494F 
 11016      5F494E56 
ARM GAS  C:\Users\jorti\AppData\Local\Temp\ccDtGf1z.s 			page 260


 11017              	.LASF312:
 11018 16bd 4F535461 		.ascii	"OSTaskTimeQuantaSet\000"
 11018      736B5469 
 11018      6D655175 
 11018      616E7461 
 11018      53657400 
 11019              	.LASF108:
 11020 16d1 4F535F45 		.ascii	"OS_ERR_PRIO_EXIST\000"
 11020      52525F50 
 11020      52494F5F 
 11020      45584953 
 11020      5400
 11021              	.LASF211:
 11022 16e3 6F735F6D 		.ascii	"os_msg_q\000"
 11022      73675F71 
 11022      00
 11023              	.LASF80:
 11024 16ec 4F535F45 		.ascii	"OS_ERR_MEM_NO_FREE_BLKS\000"
 11024      52525F4D 
 11024      454D5F4E 
 11024      4F5F4652 
 11024      45455F42 
 11025              	.LASF16:
 11026 1704 4350555F 		.ascii	"CPU_STK\000"
 11026      53544B00 
 11027              		.ident	"GCC: (GNU Tools for ARM Embedded Processors) 5.4.1 20160609 (release) [ARM/embedded-5-bran
