ARM GAS  C:\Users\jorti\AppData\Local\Temp\ccCFJwKA.s 			page 1


   1              		.syntax unified
   2              		.cpu cortex-m3
   3              		.fpu softvfp
   4              		.eabi_attribute 20, 1
   5              		.eabi_attribute 21, 1
   6              		.eabi_attribute 23, 3
   7              		.eabi_attribute 24, 1
   8              		.eabi_attribute 25, 1
   9              		.eabi_attribute 26, 1
  10              		.eabi_attribute 30, 1
  11              		.eabi_attribute 34, 1
  12              		.eabi_attribute 18, 4
  13              		.thumb
  14              		.syntax unified
  15              		.file	"os_tick.c"
  16              		.text
  17              	.Ltext0:
  18              		.cfi_sections	.debug_frame
  19              		.section	.text.OS_TickListInit,"ax",%progbits
  20              		.align	2
  21              		.global	OS_TickListInit
  22              		.thumb
  23              		.thumb_func
  24              		.type	OS_TickListInit, %function
  25              	OS_TickListInit:
  26              	.LFB3:
  27              		.file 1 "uCOS-III\\Source\\os_tick.c"
   1:uCOS-III\Source/os_tick.c **** /*
   2:uCOS-III\Source/os_tick.c **** ***************************************************************************************************
   3:uCOS-III\Source/os_tick.c **** *                                                      uC/OS-III
   4:uCOS-III\Source/os_tick.c **** *                                                 The Real-Time Kernel
   5:uCOS-III\Source/os_tick.c **** *
   6:uCOS-III\Source/os_tick.c **** *                                  (c) Copyright 2009-2012; Micrium, Inc.; Weston, FL
   7:uCOS-III\Source/os_tick.c **** *                           All rights reserved.  Protected by international copyright laws.
   8:uCOS-III\Source/os_tick.c **** *
   9:uCOS-III\Source/os_tick.c **** *                                                   TICK MANAGEMENT
  10:uCOS-III\Source/os_tick.c **** *
  11:uCOS-III\Source/os_tick.c **** * File    : OS_TICK.C
  12:uCOS-III\Source/os_tick.c **** * By      : JJL
  13:uCOS-III\Source/os_tick.c **** * Version : V3.03.01
  14:uCOS-III\Source/os_tick.c **** *
  15:uCOS-III\Source/os_tick.c **** * LICENSING TERMS:
  16:uCOS-III\Source/os_tick.c **** * ---------------
  17:uCOS-III\Source/os_tick.c **** *           uC/OS-III is provided in source form for FREE short-term evaluation, for educational us
  18:uCOS-III\Source/os_tick.c **** *           for peaceful research.  If you plan or intend to use uC/OS-III in a commercial applicat
  19:uCOS-III\Source/os_tick.c **** *           product then, you need to contact Micrium to properly license uC/OS-III for its use in 
  20:uCOS-III\Source/os_tick.c **** *           application/product.   We provide ALL the source code for your convenience and to help 
  21:uCOS-III\Source/os_tick.c **** *           experience uC/OS-III.  The fact that the source is provided does NOT mean that you can 
  22:uCOS-III\Source/os_tick.c **** *           it commercially without paying a licensing fee.
  23:uCOS-III\Source/os_tick.c **** *
  24:uCOS-III\Source/os_tick.c **** *           Knowledge of the source code may NOT be used to develop a similar product.
  25:uCOS-III\Source/os_tick.c **** *
  26:uCOS-III\Source/os_tick.c **** *           Please help us continue to provide the embedded community with the finest software avai
  27:uCOS-III\Source/os_tick.c **** *           Your honesty is greatly appreciated.
  28:uCOS-III\Source/os_tick.c **** *
  29:uCOS-III\Source/os_tick.c **** *           You can contact us at www.micrium.com, or by phone at +1 (954) 217-2036.
  30:uCOS-III\Source/os_tick.c **** ***************************************************************************************************
ARM GAS  C:\Users\jorti\AppData\Local\Temp\ccCFJwKA.s 			page 2


  31:uCOS-III\Source/os_tick.c **** */
  32:uCOS-III\Source/os_tick.c **** 
  33:uCOS-III\Source/os_tick.c **** #define  MICRIUM_SOURCE
  34:uCOS-III\Source/os_tick.c **** #include <os.h>
  35:uCOS-III\Source/os_tick.c **** 
  36:uCOS-III\Source/os_tick.c **** #ifdef VSC_INCLUDE_SOURCE_FILE_NAMES
  37:uCOS-III\Source/os_tick.c **** const  CPU_CHAR  *os_tick__c = "$Id: $";
  38:uCOS-III\Source/os_tick.c **** #endif
  39:uCOS-III\Source/os_tick.c **** 
  40:uCOS-III\Source/os_tick.c **** /*
  41:uCOS-III\Source/os_tick.c **** ***************************************************************************************************
  42:uCOS-III\Source/os_tick.c **** *                                                  LOCAL PROTOTYPES
  43:uCOS-III\Source/os_tick.c **** ***************************************************************************************************
  44:uCOS-III\Source/os_tick.c **** */
  45:uCOS-III\Source/os_tick.c **** 
  46:uCOS-III\Source/os_tick.c **** 
  47:uCOS-III\Source/os_tick.c **** /*
  48:uCOS-III\Source/os_tick.c **** ***************************************************************************************************
  49:uCOS-III\Source/os_tick.c **** *                                                      TICK TASK
  50:uCOS-III\Source/os_tick.c **** *
  51:uCOS-III\Source/os_tick.c **** * Description: This task is internal to uC/OS-III and is triggered by the tick interrupt.
  52:uCOS-III\Source/os_tick.c **** *
  53:uCOS-III\Source/os_tick.c **** * Arguments  : p_arg     is an argument passed to the task when the task is created (unused).
  54:uCOS-III\Source/os_tick.c **** *
  55:uCOS-III\Source/os_tick.c **** * Returns    : none
  56:uCOS-III\Source/os_tick.c **** *
  57:uCOS-III\Source/os_tick.c **** * Note(s)    : This function is INTERNAL to uC/OS-III and your application should not call it.
  58:uCOS-III\Source/os_tick.c **** ***************************************************************************************************
  59:uCOS-III\Source/os_tick.c **** */
  60:uCOS-III\Source/os_tick.c **** 
  61:uCOS-III\Source/os_tick.c **** void  OS_TickTask (void  *p_arg)
  62:uCOS-III\Source/os_tick.c **** {
  63:uCOS-III\Source/os_tick.c ****     OS_ERR  err;
  64:uCOS-III\Source/os_tick.c ****     CPU_TS  ts;
  65:uCOS-III\Source/os_tick.c **** 
  66:uCOS-III\Source/os_tick.c **** 
  67:uCOS-III\Source/os_tick.c ****     p_arg = p_arg;                                          /* Prevent compiler warning            
  68:uCOS-III\Source/os_tick.c **** 
  69:uCOS-III\Source/os_tick.c ****     while (DEF_ON) {
  70:uCOS-III\Source/os_tick.c ****         (void)OSTaskSemPend((OS_TICK  )0,
  71:uCOS-III\Source/os_tick.c ****                             (OS_OPT   )OS_OPT_PEND_BLOCKING,
  72:uCOS-III\Source/os_tick.c ****                             (CPU_TS  *)&ts,
  73:uCOS-III\Source/os_tick.c ****                             (OS_ERR  *)&err);               /* Wait for signal from tick interrupt 
  74:uCOS-III\Source/os_tick.c ****         if (err == OS_ERR_NONE) {
  75:uCOS-III\Source/os_tick.c ****             if (OSRunning == OS_STATE_OS_RUNNING) {
  76:uCOS-III\Source/os_tick.c ****                 OS_TickListUpdate();                        /* Update all tasks waiting for time   
  77:uCOS-III\Source/os_tick.c ****             }
  78:uCOS-III\Source/os_tick.c ****         }
  79:uCOS-III\Source/os_tick.c ****     }
  80:uCOS-III\Source/os_tick.c **** }
  81:uCOS-III\Source/os_tick.c **** 
  82:uCOS-III\Source/os_tick.c **** /*$PAGE*/
  83:uCOS-III\Source/os_tick.c **** /*
  84:uCOS-III\Source/os_tick.c **** ***************************************************************************************************
  85:uCOS-III\Source/os_tick.c **** *                                                 INITIALIZE TICK TASK
  86:uCOS-III\Source/os_tick.c **** *
  87:uCOS-III\Source/os_tick.c **** * Description: This function is called by OSInit() to create the tick task.
ARM GAS  C:\Users\jorti\AppData\Local\Temp\ccCFJwKA.s 			page 3


  88:uCOS-III\Source/os_tick.c **** *
  89:uCOS-III\Source/os_tick.c **** * Arguments  : p_err   is a pointer to a variable that will hold the value of an error code:
  90:uCOS-III\Source/os_tick.c **** *
  91:uCOS-III\Source/os_tick.c **** *                          OS_ERR_TICK_STK_INVALID   if the pointer to the tick task stack is a NUL
  92:uCOS-III\Source/os_tick.c **** *                          OS_ERR_TICK_STK_SIZE      indicates that the specified stack size
  93:uCOS-III\Source/os_tick.c **** *                          OS_ERR_PRIO_INVALID       if the priority you specified in the configura
  94:uCOS-III\Source/os_tick.c **** *                                                      (There could be only one task at the Idle Ta
  95:uCOS-III\Source/os_tick.c **** *                                                      (Maybe the priority you specified is higher 
  96:uCOS-III\Source/os_tick.c **** *                          OS_ERR_??                 other error code returned by OSTaskCreate()
  97:uCOS-III\Source/os_tick.c **** *
  98:uCOS-III\Source/os_tick.c **** * Returns    : none
  99:uCOS-III\Source/os_tick.c **** *
 100:uCOS-III\Source/os_tick.c **** * Note(s)    : This function is INTERNAL to uC/OS-III and your application should not call it.
 101:uCOS-III\Source/os_tick.c **** ***************************************************************************************************
 102:uCOS-III\Source/os_tick.c **** */
 103:uCOS-III\Source/os_tick.c **** 
 104:uCOS-III\Source/os_tick.c **** void  OS_TickTaskInit (OS_ERR  *p_err)
 105:uCOS-III\Source/os_tick.c **** {
 106:uCOS-III\Source/os_tick.c **** #ifdef OS_SAFETY_CRITICAL
 107:uCOS-III\Source/os_tick.c ****     if (p_err == (OS_ERR *)0) {
 108:uCOS-III\Source/os_tick.c ****         OS_SAFETY_CRITICAL_EXCEPTION();
 109:uCOS-III\Source/os_tick.c ****         return;
 110:uCOS-III\Source/os_tick.c ****     }
 111:uCOS-III\Source/os_tick.c **** #endif
 112:uCOS-III\Source/os_tick.c **** 
 113:uCOS-III\Source/os_tick.c ****     OSTickCtr         = (OS_TICK)0u;                        /* Clear the tick counter              
 114:uCOS-III\Source/os_tick.c **** 
 115:uCOS-III\Source/os_tick.c ****     OSTickTaskTimeMax = (CPU_TS)0u;
 116:uCOS-III\Source/os_tick.c **** 
 117:uCOS-III\Source/os_tick.c **** 
 118:uCOS-III\Source/os_tick.c ****     OS_TickListInit();                                      /* Initialize the tick list data struct
 119:uCOS-III\Source/os_tick.c **** 
 120:uCOS-III\Source/os_tick.c ****                                                             /* ---------------- CREATE THE TICK TAS
 121:uCOS-III\Source/os_tick.c ****     if (OSCfg_TickTaskStkBasePtr == (CPU_STK *)0) {
 122:uCOS-III\Source/os_tick.c ****        *p_err = OS_ERR_TICK_STK_INVALID;
 123:uCOS-III\Source/os_tick.c ****         return;
 124:uCOS-III\Source/os_tick.c ****     }
 125:uCOS-III\Source/os_tick.c **** 
 126:uCOS-III\Source/os_tick.c ****     if (OSCfg_TickTaskStkSize < OSCfg_StkSizeMin) {
 127:uCOS-III\Source/os_tick.c ****        *p_err = OS_ERR_TICK_STK_SIZE_INVALID;
 128:uCOS-III\Source/os_tick.c ****         return;
 129:uCOS-III\Source/os_tick.c ****     }
 130:uCOS-III\Source/os_tick.c **** 
 131:uCOS-III\Source/os_tick.c ****     if (OSCfg_TickTaskPrio >= (OS_CFG_PRIO_MAX - 1u)) {     /* Only one task at the 'Idle Task' pri
 132:uCOS-III\Source/os_tick.c ****        *p_err = OS_ERR_TICK_PRIO_INVALID;
 133:uCOS-III\Source/os_tick.c ****         return;
 134:uCOS-III\Source/os_tick.c ****     }
 135:uCOS-III\Source/os_tick.c **** 
 136:uCOS-III\Source/os_tick.c ****     OSTaskCreate((OS_TCB     *)&OSTickTaskTCB,
 137:uCOS-III\Source/os_tick.c ****                  (CPU_CHAR   *)((void *)"uC/OS-III Tick Task"),
 138:uCOS-III\Source/os_tick.c ****                  (OS_TASK_PTR )OS_TickTask,
 139:uCOS-III\Source/os_tick.c ****                  (void       *)0,
 140:uCOS-III\Source/os_tick.c ****                  (OS_PRIO     )OSCfg_TickTaskPrio,
 141:uCOS-III\Source/os_tick.c ****                  (CPU_STK    *)OSCfg_TickTaskStkBasePtr,
 142:uCOS-III\Source/os_tick.c ****                  (CPU_STK_SIZE)OSCfg_TickTaskStkLimit,
 143:uCOS-III\Source/os_tick.c ****                  (CPU_STK_SIZE)OSCfg_TickTaskStkSize,
 144:uCOS-III\Source/os_tick.c ****                  (OS_MSG_QTY  )0u,
ARM GAS  C:\Users\jorti\AppData\Local\Temp\ccCFJwKA.s 			page 4


 145:uCOS-III\Source/os_tick.c ****                  (OS_TICK     )0u,
 146:uCOS-III\Source/os_tick.c ****                  (void       *)0,
 147:uCOS-III\Source/os_tick.c ****                  (OS_OPT      )(OS_OPT_TASK_STK_CHK | OS_OPT_TASK_STK_CLR | OS_OPT_TASK_NO_TLS),
 148:uCOS-III\Source/os_tick.c ****                  (OS_ERR     *)p_err);
 149:uCOS-III\Source/os_tick.c **** }
 150:uCOS-III\Source/os_tick.c **** 
 151:uCOS-III\Source/os_tick.c **** /*$PAGE*/
 152:uCOS-III\Source/os_tick.c **** /*
 153:uCOS-III\Source/os_tick.c **** ***************************************************************************************************
 154:uCOS-III\Source/os_tick.c **** *                                               INITIALIZE THE TICK LIST
 155:uCOS-III\Source/os_tick.c **** *
 156:uCOS-III\Source/os_tick.c **** * Description: This function initializes the tick handling data structures of uC/OS-III.
 157:uCOS-III\Source/os_tick.c **** *
 158:uCOS-III\Source/os_tick.c **** * Arguments  : none
 159:uCOS-III\Source/os_tick.c **** *
 160:uCOS-III\Source/os_tick.c **** * Returns    : None
 161:uCOS-III\Source/os_tick.c **** *
 162:uCOS-III\Source/os_tick.c **** * Note(s)    : This function is INTERNAL to uC/OS-III and your application MUST NOT call it.
 163:uCOS-III\Source/os_tick.c **** ***************************************************************************************************
 164:uCOS-III\Source/os_tick.c **** */
 165:uCOS-III\Source/os_tick.c **** 
 166:uCOS-III\Source/os_tick.c **** void  OS_TickListInit (void)
 167:uCOS-III\Source/os_tick.c **** {
  28              		.loc 1 167 0
  29              		.cfi_startproc
  30              		@ args = 0, pretend = 0, frame = 0
  31              		@ frame_needed = 0, uses_anonymous_args = 0
  32              		@ link register save eliminated.
  33              	.LVL0:
 168:uCOS-III\Source/os_tick.c ****     OS_TICK_SPOKE_IX   i;
 169:uCOS-III\Source/os_tick.c ****     OS_TICK_SPOKE     *p_spoke;
 170:uCOS-III\Source/os_tick.c **** 
 171:uCOS-III\Source/os_tick.c **** 
 172:uCOS-III\Source/os_tick.c **** 
 173:uCOS-III\Source/os_tick.c ****     for (i = 0u; i < OSCfg_TickWheelSize; i++) {
  34              		.loc 1 173 0
  35 0000 0023     		movs	r3, #0
  36 0002 09E0     		b	.L2
  37              	.LVL1:
  38              	.L3:
 174:uCOS-III\Source/os_tick.c ****         p_spoke                = (OS_TICK_SPOKE *)&OSCfg_TickWheel[i];
 175:uCOS-III\Source/os_tick.c ****         p_spoke->FirstPtr      = (OS_TCB        *)0;
  39              		.loc 1 175 0 discriminator 3
  40 0004 074A     		ldr	r2, .L4
  41 0006 0021     		movs	r1, #0
  42 0008 42F83310 		str	r1, [r2, r3, lsl #3]
 176:uCOS-III\Source/os_tick.c ****         p_spoke->NbrEntries    = (OS_OBJ_QTY     )0u;
  43              		.loc 1 176 0 discriminator 3
  44 000c 02EBC302 		add	r2, r2, r3, lsl #3
  45 0010 9180     		strh	r1, [r2, #4]	@ movhi
 177:uCOS-III\Source/os_tick.c ****         p_spoke->NbrEntriesMax = (OS_OBJ_QTY     )0u;
  46              		.loc 1 177 0 discriminator 3
  47 0012 D180     		strh	r1, [r2, #6]	@ movhi
 173:uCOS-III\Source/os_tick.c ****         p_spoke                = (OS_TICK_SPOKE *)&OSCfg_TickWheel[i];
  48              		.loc 1 173 0 discriminator 3
  49 0014 0133     		adds	r3, r3, #1
  50              	.LVL2:
ARM GAS  C:\Users\jorti\AppData\Local\Temp\ccCFJwKA.s 			page 5


  51 0016 9BB2     		uxth	r3, r3
  52              	.LVL3:
  53              	.L2:
 173:uCOS-III\Source/os_tick.c ****         p_spoke                = (OS_TICK_SPOKE *)&OSCfg_TickWheel[i];
  54              		.loc 1 173 0 is_stmt 0 discriminator 1
  55 0018 034A     		ldr	r2, .L4+4
  56 001a 1288     		ldrh	r2, [r2]
  57 001c 9342     		cmp	r3, r2
  58 001e F1D3     		bcc	.L3
 178:uCOS-III\Source/os_tick.c ****     }
 179:uCOS-III\Source/os_tick.c **** }
  59              		.loc 1 179 0 is_stmt 1
  60 0020 7047     		bx	lr
  61              	.L5:
  62 0022 00BF     		.align	2
  63              	.L4:
  64 0024 00000000 		.word	OSCfg_TickWheel
  65 0028 00000000 		.word	OSCfg_TickWheelSize
  66              		.cfi_endproc
  67              	.LFE3:
  68              		.size	OS_TickListInit, .-OS_TickListInit
  69              		.section	.text.OS_TickTaskInit,"ax",%progbits
  70              		.align	2
  71              		.global	OS_TickTaskInit
  72              		.thumb
  73              		.thumb_func
  74              		.type	OS_TickTaskInit, %function
  75              	OS_TickTaskInit:
  76              	.LFB2:
 105:uCOS-III\Source/os_tick.c **** #ifdef OS_SAFETY_CRITICAL
  77              		.loc 1 105 0
  78              		.cfi_startproc
  79              		@ args = 0, pretend = 0, frame = 0
  80              		@ frame_needed = 0, uses_anonymous_args = 0
  81              	.LVL4:
  82 0000 10B5     		push	{r4, lr}
  83              		.cfi_def_cfa_offset 8
  84              		.cfi_offset 4, -8
  85              		.cfi_offset 14, -4
  86 0002 8AB0     		sub	sp, sp, #40
  87              		.cfi_def_cfa_offset 48
  88 0004 0446     		mov	r4, r0
 113:uCOS-III\Source/os_tick.c **** 
  89              		.loc 1 113 0
  90 0006 0023     		movs	r3, #0
  91 0008 194A     		ldr	r2, .L12
  92 000a 1360     		str	r3, [r2]
 115:uCOS-III\Source/os_tick.c **** 
  93              		.loc 1 115 0
  94 000c 194A     		ldr	r2, .L12+4
  95 000e 1360     		str	r3, [r2]
 118:uCOS-III\Source/os_tick.c **** 
  96              		.loc 1 118 0
  97 0010 FFF7FEFF 		bl	OS_TickListInit
  98              	.LVL5:
 121:uCOS-III\Source/os_tick.c ****        *p_err = OS_ERR_TICK_STK_INVALID;
  99              		.loc 1 121 0
ARM GAS  C:\Users\jorti\AppData\Local\Temp\ccCFJwKA.s 			page 6


 100 0014 184B     		ldr	r3, .L12+8
 101 0016 1A68     		ldr	r2, [r3]
 102 0018 1AB9     		cbnz	r2, .L7
 122:uCOS-III\Source/os_tick.c ****         return;
 103              		.loc 1 122 0
 104 001a 47F21223 		movw	r3, #29202
 105 001e 2380     		strh	r3, [r4]	@ movhi
 123:uCOS-III\Source/os_tick.c ****     }
 106              		.loc 1 123 0
 107 0020 23E0     		b	.L6
 108              	.L7:
 126:uCOS-III\Source/os_tick.c ****        *p_err = OS_ERR_TICK_STK_SIZE_INVALID;
 109              		.loc 1 126 0
 110 0022 164B     		ldr	r3, .L12+12
 111 0024 1968     		ldr	r1, [r3]
 112 0026 164B     		ldr	r3, .L12+16
 113 0028 1B68     		ldr	r3, [r3]
 114 002a 9942     		cmp	r1, r3
 115 002c 03D2     		bcs	.L9
 127:uCOS-III\Source/os_tick.c ****         return;
 116              		.loc 1 127 0
 117 002e 47F21323 		movw	r3, #29203
 118 0032 2380     		strh	r3, [r4]	@ movhi
 128:uCOS-III\Source/os_tick.c ****     }
 119              		.loc 1 128 0
 120 0034 19E0     		b	.L6
 121              	.L9:
 131:uCOS-III\Source/os_tick.c ****        *p_err = OS_ERR_TICK_PRIO_INVALID;
 122              		.loc 1 131 0
 123 0036 134B     		ldr	r3, .L12+20
 124 0038 1878     		ldrb	r0, [r3]	@ zero_extendqisi2
 125 003a 0628     		cmp	r0, #6
 126 003c 03D9     		bls	.L10
 132:uCOS-III\Source/os_tick.c ****         return;
 127              		.loc 1 132 0
 128 003e 47F21123 		movw	r3, #29201
 129 0042 2380     		strh	r3, [r4]	@ movhi
 133:uCOS-III\Source/os_tick.c ****     }
 130              		.loc 1 133 0
 131 0044 11E0     		b	.L6
 132              	.L10:
 136:uCOS-III\Source/os_tick.c ****                  (CPU_CHAR   *)((void *)"uC/OS-III Tick Task"),
 133              		.loc 1 136 0
 134 0046 0894     		str	r4, [sp, #32]
 135 0048 0B23     		movs	r3, #11
 136 004a 0793     		str	r3, [sp, #28]
 137 004c 0023     		movs	r3, #0
 138 004e 0693     		str	r3, [sp, #24]
 139 0050 0593     		str	r3, [sp, #20]
 140 0052 0493     		str	r3, [sp, #16]
 141 0054 0391     		str	r1, [sp, #12]
 142 0056 0C49     		ldr	r1, .L12+24
 143 0058 0968     		ldr	r1, [r1]
 144 005a 0291     		str	r1, [sp, #8]
 145 005c 0192     		str	r2, [sp, #4]
 146 005e 0090     		str	r0, [sp]
 147 0060 0A4A     		ldr	r2, .L12+28
ARM GAS  C:\Users\jorti\AppData\Local\Temp\ccCFJwKA.s 			page 7


 148 0062 0B49     		ldr	r1, .L12+32
 149 0064 0B48     		ldr	r0, .L12+36
 150 0066 FFF7FEFF 		bl	OSTaskCreate
 151              	.LVL6:
 152              	.L6:
 149:uCOS-III\Source/os_tick.c **** 
 153              		.loc 1 149 0
 154 006a 0AB0     		add	sp, sp, #40
 155              		.cfi_def_cfa_offset 8
 156              		@ sp needed
 157 006c 10BD     		pop	{r4, pc}
 158              	.LVL7:
 159              	.L13:
 160 006e 00BF     		.align	2
 161              	.L12:
 162 0070 00000000 		.word	OSTickCtr
 163 0074 00000000 		.word	OSTickTaskTimeMax
 164 0078 00000000 		.word	OSCfg_TickTaskStkBasePtr
 165 007c 00000000 		.word	OSCfg_TickTaskStkSize
 166 0080 00000000 		.word	OSCfg_StkSizeMin
 167 0084 00000000 		.word	OSCfg_TickTaskPrio
 168 0088 00000000 		.word	OSCfg_TickTaskStkLimit
 169 008c 00000000 		.word	OS_TickTask
 170 0090 00000000 		.word	.LC0
 171 0094 00000000 		.word	OSTickTaskTCB
 172              		.cfi_endproc
 173              	.LFE2:
 174              		.size	OS_TickTaskInit, .-OS_TickTaskInit
 175              		.section	.text.OS_TickListInsert,"ax",%progbits
 176              		.align	2
 177              		.global	OS_TickListInsert
 178              		.thumb
 179              		.thumb_func
 180              		.type	OS_TickListInsert, %function
 181              	OS_TickListInsert:
 182              	.LFB4:
 180:uCOS-III\Source/os_tick.c **** 
 181:uCOS-III\Source/os_tick.c **** /*$PAGE*/
 182:uCOS-III\Source/os_tick.c **** /*
 183:uCOS-III\Source/os_tick.c **** ***************************************************************************************************
 184:uCOS-III\Source/os_tick.c **** *                                                ADD TASK TO TICK LIST
 185:uCOS-III\Source/os_tick.c **** *
 186:uCOS-III\Source/os_tick.c **** * Description: This function is called to place a task in a list of task waiting for either time to
 187:uCOS-III\Source/os_tick.c **** *              timeout on a pend call.
 188:uCOS-III\Source/os_tick.c **** *
 189:uCOS-III\Source/os_tick.c **** * Arguments  : p_tcb          is a pointer to the OS_TCB of the task to add to the tick list
 190:uCOS-III\Source/os_tick.c **** *              -----
 191:uCOS-III\Source/os_tick.c **** *
 192:uCOS-III\Source/os_tick.c **** *              time           represents either the 'match' value of OSTickCtr or a relative time f
 193:uCOS-III\Source/os_tick.c **** *                             value of OSTickCtr as specified by the 'opt' argument..
 194:uCOS-III\Source/os_tick.c **** *
 195:uCOS-III\Source/os_tick.c **** *                             relative when 'opt' is set to OS_OPT_TIME_DLY
 196:uCOS-III\Source/os_tick.c **** *                             relative when 'opt' is set to OS_OPT_TIME_TIMEOUT
 197:uCOS-III\Source/os_tick.c **** *                             match    when 'opt' is set to OS_OPT_TIME_MATCH
 198:uCOS-III\Source/os_tick.c **** *                             periodic when 'opt' is set to OS_OPT_TIME_PERIODIC
 199:uCOS-III\Source/os_tick.c **** *
 200:uCOS-III\Source/os_tick.c **** *              opt            is an option specifying how to calculate time.  The valid values are:
ARM GAS  C:\Users\jorti\AppData\Local\Temp\ccCFJwKA.s 			page 8


 201:uCOS-III\Source/os_tick.c **** *              ---
 202:uCOS-III\Source/os_tick.c **** *                                 OS_OPT_TIME_DLY
 203:uCOS-III\Source/os_tick.c **** *                                 OS_OPT_TIME_TIMEOUT
 204:uCOS-III\Source/os_tick.c **** *                                 OS_OPT_TIME_PERIODIC
 205:uCOS-III\Source/os_tick.c **** *                                 OS_OPT_TIME_MATCH
 206:uCOS-III\Source/os_tick.c **** *
 207:uCOS-III\Source/os_tick.c **** *              p_err          is a pointer to a variable that will contain an error code returned b
 208:uCOS-III\Source/os_tick.c **** *              -----
 209:uCOS-III\Source/os_tick.c **** *                                 OS_ERR_NONE           the call was successful and the time delay 
 210:uCOS-III\Source/os_tick.c **** *                                 OS_ERR_TIME_ZERO_DLY  if delay is zero or already occurred.
 211:uCOS-III\Source/os_tick.c **** *
 212:uCOS-III\Source/os_tick.c **** * Returns    : None
 213:uCOS-III\Source/os_tick.c **** *
 214:uCOS-III\Source/os_tick.c **** * Note(s)    : 1) This function is INTERNAL to uC/OS-III and your application MUST NOT call it.
 215:uCOS-III\Source/os_tick.c **** *
 216:uCOS-III\Source/os_tick.c **** *              2) This function is assumed to be called with interrupts disabled.
 217:uCOS-III\Source/os_tick.c **** ***************************************************************************************************
 218:uCOS-III\Source/os_tick.c **** */
 219:uCOS-III\Source/os_tick.c **** 
 220:uCOS-III\Source/os_tick.c **** void  OS_TickListInsert (OS_TCB   *p_tcb,
 221:uCOS-III\Source/os_tick.c ****                          OS_TICK   time,
 222:uCOS-III\Source/os_tick.c ****                          OS_OPT    opt,
 223:uCOS-III\Source/os_tick.c ****                          OS_ERR   *p_err)
 224:uCOS-III\Source/os_tick.c **** {
 183              		.loc 1 224 0
 184              		.cfi_startproc
 185              		@ args = 0, pretend = 0, frame = 0
 186              		@ frame_needed = 0, uses_anonymous_args = 0
 187              		@ link register save eliminated.
 188              	.LVL8:
 189 0000 70B4     		push	{r4, r5, r6}
 190              		.cfi_def_cfa_offset 12
 191              		.cfi_offset 4, -12
 192              		.cfi_offset 5, -8
 193              		.cfi_offset 6, -4
 225:uCOS-III\Source/os_tick.c ****     OS_TICK            tick_delta;
 226:uCOS-III\Source/os_tick.c ****     OS_TICK            tick_next;
 227:uCOS-III\Source/os_tick.c ****     OS_TICK_SPOKE     *p_spoke;
 228:uCOS-III\Source/os_tick.c ****     OS_TCB            *p_tcb0;
 229:uCOS-III\Source/os_tick.c ****     OS_TCB            *p_tcb1;
 230:uCOS-III\Source/os_tick.c ****     OS_TICK_SPOKE_IX   spoke;
 231:uCOS-III\Source/os_tick.c **** 
 232:uCOS-III\Source/os_tick.c **** 
 233:uCOS-III\Source/os_tick.c **** 
 234:uCOS-III\Source/os_tick.c ****     if (opt == OS_OPT_TIME_MATCH) {                              /* Task time is absolute.         
 194              		.loc 1 234 0
 195 0002 042A     		cmp	r2, #4
 196 0004 11D1     		bne	.L15
 235:uCOS-III\Source/os_tick.c ****         tick_delta = time - OSTickCtr - 1u;
 197              		.loc 1 235 0
 198 0006 434A     		ldr	r2, .L33
 199              	.LVL9:
 200 0008 1268     		ldr	r2, [r2]
 201 000a 8A1A     		subs	r2, r1, r2
 202 000c 541E     		subs	r4, r2, #1
 203              	.LVL10:
 236:uCOS-III\Source/os_tick.c ****         if (tick_delta > OS_TICK_TH_RDY) {                       /* If delay already occurred, ... 
ARM GAS  C:\Users\jorti\AppData\Local\Temp\ccCFJwKA.s 			page 9


 204              		.loc 1 236 0
 205 000e 14F5803F 		cmn	r4, #65536
 206 0012 07D9     		bls	.L16
 237:uCOS-III\Source/os_tick.c ****             p_tcb->TickCtrMatch = (OS_TICK        )0u;
 207              		.loc 1 237 0
 208 0014 0022     		movs	r2, #0
 209 0016 C264     		str	r2, [r0, #76]
 238:uCOS-III\Source/os_tick.c ****             p_tcb->TickRemain   = (OS_TICK        )0u;
 210              		.loc 1 238 0
 211 0018 0265     		str	r2, [r0, #80]
 239:uCOS-III\Source/os_tick.c ****             p_tcb->TickSpokePtr = (OS_TICK_SPOKE *)0;
 212              		.loc 1 239 0
 213 001a C261     		str	r2, [r0, #28]
 240:uCOS-III\Source/os_tick.c ****            *p_err               =  OS_ERR_TIME_ZERO_DLY;         /* ... do NOT delay.              
 214              		.loc 1 240 0
 215 001c 47F27E22 		movw	r2, #29310
 216 0020 1A80     		strh	r2, [r3]	@ movhi
 241:uCOS-III\Source/os_tick.c ****             return;
 217              		.loc 1 241 0
 218 0022 74E0     		b	.L14
 219              	.L16:
 242:uCOS-III\Source/os_tick.c ****         }
 243:uCOS-III\Source/os_tick.c ****         p_tcb->TickCtrMatch = time;
 220              		.loc 1 243 0
 221 0024 C164     		str	r1, [r0, #76]
 244:uCOS-III\Source/os_tick.c ****         p_tcb->TickRemain   = tick_delta + 1u;
 222              		.loc 1 244 0
 223 0026 0265     		str	r2, [r0, #80]
 224 0028 21E0     		b	.L18
 225              	.LVL11:
 226              	.L15:
 245:uCOS-III\Source/os_tick.c **** 
 246:uCOS-III\Source/os_tick.c ****     } else if (time > (OS_TICK)0u) {
 227              		.loc 1 246 0
 228 002a C1B1     		cbz	r1, .L19
 247:uCOS-III\Source/os_tick.c ****         if (opt == OS_OPT_TIME_PERIODIC) {                       /* Task time is periodic.         
 229              		.loc 1 247 0
 230 002c 082A     		cmp	r2, #8
 231 002e 10D1     		bne	.L20
 248:uCOS-III\Source/os_tick.c ****             tick_next  = p_tcb->TickCtrPrev + time;
 232              		.loc 1 248 0
 233 0030 846C     		ldr	r4, [r0, #72]
 234 0032 0C44     		add	r4, r4, r1
 235              	.LVL12:
 249:uCOS-III\Source/os_tick.c ****             tick_delta = tick_next - OSTickCtr - 1u;
 236              		.loc 1 249 0
 237 0034 374A     		ldr	r2, .L33
 238              	.LVL13:
 239 0036 1268     		ldr	r2, [r2]
 240 0038 A51A     		subs	r5, r4, r2
 241 003a 013D     		subs	r5, r5, #1
 242              	.LVL14:
 250:uCOS-III\Source/os_tick.c ****             if (tick_delta < time) {                             /* If next periodic delay did NOT 
 243              		.loc 1 250 0
 244 003c A942     		cmp	r1, r5
 245 003e 01D9     		bls	.L21
 251:uCOS-III\Source/os_tick.c ****                 p_tcb->TickCtrMatch = tick_next;                 /* ... set  next  periodic delay; 
ARM GAS  C:\Users\jorti\AppData\Local\Temp\ccCFJwKA.s 			page 10


 246              		.loc 1 251 0
 247 0040 C464     		str	r4, [r0, #76]
 248 0042 01E0     		b	.L22
 249              	.L21:
 252:uCOS-III\Source/os_tick.c ****             } else {
 253:uCOS-III\Source/os_tick.c ****                 p_tcb->TickCtrMatch = OSTickCtr + time;          /* ... else reset periodic delay. 
 250              		.loc 1 253 0
 251 0044 1144     		add	r1, r1, r2
 252              	.LVL15:
 253 0046 C164     		str	r1, [r0, #76]
 254              	.L22:
 254:uCOS-III\Source/os_tick.c ****             }
 255:uCOS-III\Source/os_tick.c ****             p_tcb->TickRemain   = p_tcb->TickCtrMatch - OSTickCtr;
 255              		.loc 1 255 0
 256 0048 C16C     		ldr	r1, [r0, #76]
 257 004a 8A1A     		subs	r2, r1, r2
 258 004c 0265     		str	r2, [r0, #80]
 256:uCOS-III\Source/os_tick.c ****             p_tcb->TickCtrPrev  = p_tcb->TickCtrMatch;
 259              		.loc 1 256 0
 260 004e 8164     		str	r1, [r0, #72]
 261 0050 0DE0     		b	.L18
 262              	.LVL16:
 263              	.L20:
 257:uCOS-III\Source/os_tick.c **** 
 258:uCOS-III\Source/os_tick.c ****         } else {                                                 /* Task time is relative to curren
 259:uCOS-III\Source/os_tick.c ****             p_tcb->TickCtrMatch = OSTickCtr + time;
 264              		.loc 1 259 0
 265 0052 304A     		ldr	r2, .L33
 266              	.LVL17:
 267 0054 1268     		ldr	r2, [r2]
 268 0056 0A44     		add	r2, r2, r1
 269 0058 C264     		str	r2, [r0, #76]
 260:uCOS-III\Source/os_tick.c ****             p_tcb->TickRemain   = time;
 270              		.loc 1 260 0
 271 005a 0165     		str	r1, [r0, #80]
 272 005c 07E0     		b	.L18
 273              	.LVL18:
 274              	.L19:
 261:uCOS-III\Source/os_tick.c ****         }
 262:uCOS-III\Source/os_tick.c **** 
 263:uCOS-III\Source/os_tick.c ****     } else {                                                     /* Zero time delay; ...           
 264:uCOS-III\Source/os_tick.c ****         p_tcb->TickCtrMatch = (OS_TICK        )0u;
 275              		.loc 1 264 0
 276 005e 0022     		movs	r2, #0
 277              	.LVL19:
 278 0060 C264     		str	r2, [r0, #76]
 265:uCOS-III\Source/os_tick.c ****         p_tcb->TickRemain   = (OS_TICK        )0u;
 279              		.loc 1 265 0
 280 0062 0265     		str	r2, [r0, #80]
 266:uCOS-III\Source/os_tick.c ****         p_tcb->TickSpokePtr = (OS_TICK_SPOKE *)0;
 281              		.loc 1 266 0
 282 0064 C261     		str	r2, [r0, #28]
 267:uCOS-III\Source/os_tick.c ****        *p_err               =  OS_ERR_TIME_ZERO_DLY;             /* ... do NOT delay.              
 283              		.loc 1 267 0
 284 0066 47F27E22 		movw	r2, #29310
 285 006a 1A80     		strh	r2, [r3]	@ movhi
 268:uCOS-III\Source/os_tick.c ****         return;
ARM GAS  C:\Users\jorti\AppData\Local\Temp\ccCFJwKA.s 			page 11


 286              		.loc 1 268 0
 287 006c 4FE0     		b	.L14
 288              	.LVL20:
 289              	.L18:
 269:uCOS-III\Source/os_tick.c ****     }
 270:uCOS-III\Source/os_tick.c **** 
 271:uCOS-III\Source/os_tick.c **** 
 272:uCOS-III\Source/os_tick.c ****     spoke   = (OS_TICK_SPOKE_IX)(p_tcb->TickCtrMatch % OSCfg_TickWheelSize);
 290              		.loc 1 272 0
 291 006e C56C     		ldr	r5, [r0, #76]
 292 0070 294A     		ldr	r2, .L33+4
 293 0072 1188     		ldrh	r1, [r2]
 294 0074 B5FBF1F2 		udiv	r2, r5, r1
 295 0078 01FB1255 		mls	r5, r1, r2, r5
 296              	.LVL21:
 273:uCOS-III\Source/os_tick.c ****     p_spoke = &OSCfg_TickWheel[spoke];
 297              		.loc 1 273 0
 298 007c ADB2     		uxth	r5, r5
 299 007e 274E     		ldr	r6, .L33+8
 300 0080 06EBC506 		add	r6, r6, r5, lsl #3
 301              	.LVL22:
 274:uCOS-III\Source/os_tick.c **** 
 275:uCOS-III\Source/os_tick.c ****     if (p_spoke->NbrEntries == (OS_OBJ_QTY)0u) {                 /* First entry in the spoke       
 302              		.loc 1 275 0
 303 0084 B288     		ldrh	r2, [r6, #4]
 304 0086 3AB9     		cbnz	r2, .L23
 276:uCOS-III\Source/os_tick.c ****         p_tcb->TickNextPtr   = (OS_TCB   *)0;
 305              		.loc 1 276 0
 306 0088 4261     		str	r2, [r0, #20]
 277:uCOS-III\Source/os_tick.c ****         p_tcb->TickPrevPtr   = (OS_TCB   *)0;
 307              		.loc 1 277 0
 308 008a 8261     		str	r2, [r0, #24]
 278:uCOS-III\Source/os_tick.c ****         p_spoke->FirstPtr    =  p_tcb;
 309              		.loc 1 278 0
 310 008c 234A     		ldr	r2, .L33+8
 311 008e 42F83500 		str	r0, [r2, r5, lsl #3]
 279:uCOS-III\Source/os_tick.c ****         p_spoke->NbrEntries  = (OS_OBJ_QTY)1u;
 312              		.loc 1 279 0
 313 0092 0121     		movs	r1, #1
 314 0094 B180     		strh	r1, [r6, #4]	@ movhi
 315 0096 2CE0     		b	.L24
 316              	.L23:
 280:uCOS-III\Source/os_tick.c ****     } else {
 281:uCOS-III\Source/os_tick.c ****         p_tcb1     = p_spoke->FirstPtr;                          /* Point to current first TCB in t
 317              		.loc 1 281 0
 318 0098 204A     		ldr	r2, .L33+8
 319 009a 52F83520 		ldr	r2, [r2, r5, lsl #3]
 320              	.LVL23:
 282:uCOS-III\Source/os_tick.c ****         while (p_tcb1 != (OS_TCB *)0) {
 321              		.loc 1 282 0
 322 009e 20E0     		b	.L25
 323              	.L29:
 283:uCOS-III\Source/os_tick.c ****             p_tcb1->TickRemain = p_tcb1->TickCtrMatch            /* Compute time remaining of curre
 324              		.loc 1 283 0
 325 00a0 D16C     		ldr	r1, [r2, #76]
 284:uCOS-III\Source/os_tick.c ****                                - OSTickCtr;
 326              		.loc 1 284 0
ARM GAS  C:\Users\jorti\AppData\Local\Temp\ccCFJwKA.s 			page 12


 327 00a2 1C4C     		ldr	r4, .L33
 328 00a4 2468     		ldr	r4, [r4]
 329 00a6 091B     		subs	r1, r1, r4
 283:uCOS-III\Source/os_tick.c ****             p_tcb1->TickRemain = p_tcb1->TickCtrMatch            /* Compute time remaining of curre
 330              		.loc 1 283 0
 331 00a8 1165     		str	r1, [r2, #80]
 285:uCOS-III\Source/os_tick.c ****             if (p_tcb->TickRemain > p_tcb1->TickRemain) {        /* Do we need to insert AFTER curr
 332              		.loc 1 285 0
 333 00aa 046D     		ldr	r4, [r0, #80]
 334 00ac A142     		cmp	r1, r4
 335 00ae 07D2     		bcs	.L26
 286:uCOS-III\Source/os_tick.c ****                 if (p_tcb1->TickNextPtr != (OS_TCB *)0) {        /* Yes, are we pointing at the las
 336              		.loc 1 286 0
 337 00b0 5169     		ldr	r1, [r2, #20]
 338 00b2 A9B9     		cbnz	r1, .L31
 287:uCOS-III\Source/os_tick.c ****                     p_tcb1               =  p_tcb1->TickNextPtr; /* No,  Point to next TCB in the l
 288:uCOS-III\Source/os_tick.c ****                 } else {
 289:uCOS-III\Source/os_tick.c ****                     p_tcb->TickNextPtr   = (OS_TCB *)0;
 339              		.loc 1 289 0
 340 00b4 0024     		movs	r4, #0
 341 00b6 4461     		str	r4, [r0, #20]
 290:uCOS-III\Source/os_tick.c ****                     p_tcb->TickPrevPtr   =  p_tcb1;
 342              		.loc 1 290 0
 343 00b8 8261     		str	r2, [r0, #24]
 291:uCOS-III\Source/os_tick.c ****                     p_tcb1->TickNextPtr  =  p_tcb;               /* Yes, TCB to add is now new last
 344              		.loc 1 291 0
 345 00ba 5061     		str	r0, [r2, #20]
 346              	.LVL24:
 292:uCOS-III\Source/os_tick.c ****                     p_tcb1               = (OS_TCB *)0;          /* Break loop                     
 347              		.loc 1 292 0
 348 00bc 0A46     		mov	r2, r1
 349 00be 10E0     		b	.L25
 350              	.LVL25:
 351              	.L26:
 293:uCOS-III\Source/os_tick.c ****                 }
 294:uCOS-III\Source/os_tick.c ****             } else {                                             /* Insert before the current TCB  
 295:uCOS-III\Source/os_tick.c ****                 if (p_tcb1->TickPrevPtr == (OS_TCB *)0) {        /* Are we inserting before the fir
 352              		.loc 1 295 0
 353 00c0 9169     		ldr	r1, [r2, #24]
 354 00c2 39B9     		cbnz	r1, .L28
 296:uCOS-III\Source/os_tick.c ****                     p_tcb->TickPrevPtr   = (OS_TCB *)0;
 355              		.loc 1 296 0
 356 00c4 8161     		str	r1, [r0, #24]
 297:uCOS-III\Source/os_tick.c ****                     p_tcb->TickNextPtr   =  p_tcb1;
 357              		.loc 1 297 0
 358 00c6 4261     		str	r2, [r0, #20]
 298:uCOS-III\Source/os_tick.c ****                     p_tcb1->TickPrevPtr  =  p_tcb;
 359              		.loc 1 298 0
 360 00c8 9061     		str	r0, [r2, #24]
 299:uCOS-III\Source/os_tick.c ****                     p_spoke->FirstPtr    =  p_tcb;
 361              		.loc 1 299 0
 362 00ca 144A     		ldr	r2, .L33+8
 363              	.LVL26:
 364 00cc 42F83500 		str	r0, [r2, r5, lsl #3]
 300:uCOS-III\Source/os_tick.c ****                 } else {                                         /* Insert in between 2 TCBs alread
 301:uCOS-III\Source/os_tick.c ****                     p_tcb0               =  p_tcb1->TickPrevPtr;
 302:uCOS-III\Source/os_tick.c ****                     p_tcb->TickPrevPtr   =  p_tcb0;
ARM GAS  C:\Users\jorti\AppData\Local\Temp\ccCFJwKA.s 			page 13


 303:uCOS-III\Source/os_tick.c ****                     p_tcb->TickNextPtr   =  p_tcb1;
 304:uCOS-III\Source/os_tick.c ****                     p_tcb0->TickNextPtr  =  p_tcb;
 305:uCOS-III\Source/os_tick.c ****                     p_tcb1->TickPrevPtr  =  p_tcb;
 306:uCOS-III\Source/os_tick.c ****                 }
 307:uCOS-III\Source/os_tick.c ****                 p_tcb1 = (OS_TCB *)0;                            /* Break loop                     
 365              		.loc 1 307 0
 366 00d0 0A46     		mov	r2, r1
 367 00d2 06E0     		b	.L25
 368              	.LVL27:
 369              	.L28:
 302:uCOS-III\Source/os_tick.c ****                     p_tcb->TickNextPtr   =  p_tcb1;
 370              		.loc 1 302 0
 371 00d4 8161     		str	r1, [r0, #24]
 303:uCOS-III\Source/os_tick.c ****                     p_tcb0->TickNextPtr  =  p_tcb;
 372              		.loc 1 303 0
 373 00d6 4261     		str	r2, [r0, #20]
 304:uCOS-III\Source/os_tick.c ****                     p_tcb1->TickPrevPtr  =  p_tcb;
 374              		.loc 1 304 0
 375 00d8 4861     		str	r0, [r1, #20]
 305:uCOS-III\Source/os_tick.c ****                 }
 376              		.loc 1 305 0
 377 00da 9061     		str	r0, [r2, #24]
 378              		.loc 1 307 0
 379 00dc 0022     		movs	r2, #0
 380              	.LVL28:
 381 00de 00E0     		b	.L25
 382              	.LVL29:
 383              	.L31:
 287:uCOS-III\Source/os_tick.c ****                 } else {
 384              		.loc 1 287 0
 385 00e0 0A46     		mov	r2, r1
 386              	.LVL30:
 387              	.L25:
 282:uCOS-III\Source/os_tick.c ****             p_tcb1->TickRemain = p_tcb1->TickCtrMatch            /* Compute time remaining of curre
 388              		.loc 1 282 0
 389 00e2 002A     		cmp	r2, #0
 390 00e4 DCD1     		bne	.L29
 308:uCOS-III\Source/os_tick.c ****             }
 309:uCOS-III\Source/os_tick.c ****         }
 310:uCOS-III\Source/os_tick.c ****         p_spoke->NbrEntries++;
 391              		.loc 1 310 0
 392 00e6 0D4A     		ldr	r2, .L33+8
 393              	.LVL31:
 394 00e8 02EBC502 		add	r2, r2, r5, lsl #3
 395 00ec 9188     		ldrh	r1, [r2, #4]
 396 00ee 0131     		adds	r1, r1, #1
 397 00f0 9180     		strh	r1, [r2, #4]	@ movhi
 398              	.L24:
 311:uCOS-III\Source/os_tick.c ****     }
 312:uCOS-III\Source/os_tick.c ****     if (p_spoke->NbrEntriesMax < p_spoke->NbrEntries) {          /* Keep track of maximum # of entr
 399              		.loc 1 312 0
 400 00f2 0A4A     		ldr	r2, .L33+8
 401 00f4 02EBC502 		add	r2, r2, r5, lsl #3
 402 00f8 D188     		ldrh	r1, [r2, #6]
 403 00fa 9288     		ldrh	r2, [r2, #4]
 404 00fc 9142     		cmp	r1, r2
 405 00fe 03D2     		bcs	.L30
ARM GAS  C:\Users\jorti\AppData\Local\Temp\ccCFJwKA.s 			page 14


 313:uCOS-III\Source/os_tick.c ****         p_spoke->NbrEntriesMax = p_spoke->NbrEntries;
 406              		.loc 1 313 0
 407 0100 0649     		ldr	r1, .L33+8
 408 0102 01EBC505 		add	r5, r1, r5, lsl #3
 409              	.LVL32:
 410 0106 EA80     		strh	r2, [r5, #6]	@ movhi
 411              	.L30:
 314:uCOS-III\Source/os_tick.c ****     }
 315:uCOS-III\Source/os_tick.c ****     p_tcb->TickSpokePtr = p_spoke;                               /* Link back to tick spoke        
 412              		.loc 1 315 0
 413 0108 C661     		str	r6, [r0, #28]
 316:uCOS-III\Source/os_tick.c ****    *p_err               = OS_ERR_NONE;
 414              		.loc 1 316 0
 415 010a 0022     		movs	r2, #0
 416 010c 1A80     		strh	r2, [r3]	@ movhi
 417              	.LVL33:
 418              	.L14:
 317:uCOS-III\Source/os_tick.c **** }
 419              		.loc 1 317 0
 420 010e 70BC     		pop	{r4, r5, r6}
 421              		.cfi_restore 6
 422              		.cfi_restore 5
 423              		.cfi_restore 4
 424              		.cfi_def_cfa_offset 0
 425 0110 7047     		bx	lr
 426              	.L34:
 427 0112 00BF     		.align	2
 428              	.L33:
 429 0114 00000000 		.word	OSTickCtr
 430 0118 00000000 		.word	OSCfg_TickWheelSize
 431 011c 00000000 		.word	OSCfg_TickWheel
 432              		.cfi_endproc
 433              	.LFE4:
 434              		.size	OS_TickListInsert, .-OS_TickListInsert
 435              		.section	.text.OS_TickListRemove,"ax",%progbits
 436              		.align	2
 437              		.global	OS_TickListRemove
 438              		.thumb
 439              		.thumb_func
 440              		.type	OS_TickListRemove, %function
 441              	OS_TickListRemove:
 442              	.LFB5:
 318:uCOS-III\Source/os_tick.c **** 
 319:uCOS-III\Source/os_tick.c **** /*$PAGE*/
 320:uCOS-III\Source/os_tick.c **** /*
 321:uCOS-III\Source/os_tick.c **** ***************************************************************************************************
 322:uCOS-III\Source/os_tick.c **** *                                         REMOVE A TASK FROM THE TICK LIST
 323:uCOS-III\Source/os_tick.c **** *
 324:uCOS-III\Source/os_tick.c **** * Description: This function is called to remove a task from the tick list
 325:uCOS-III\Source/os_tick.c **** *
 326:uCOS-III\Source/os_tick.c **** * Arguments  : p_tcb          Is a pointer to the OS_TCB to remove.
 327:uCOS-III\Source/os_tick.c **** *              -----
 328:uCOS-III\Source/os_tick.c **** *
 329:uCOS-III\Source/os_tick.c **** * Returns    : none
 330:uCOS-III\Source/os_tick.c **** *
 331:uCOS-III\Source/os_tick.c **** * Note(s)    : 1) This function is INTERNAL to uC/OS-III and your application MUST NOT call it.
 332:uCOS-III\Source/os_tick.c **** *
ARM GAS  C:\Users\jorti\AppData\Local\Temp\ccCFJwKA.s 			page 15


 333:uCOS-III\Source/os_tick.c **** *              2) This function is assumed to be called with interrupts disabled.
 334:uCOS-III\Source/os_tick.c **** ***************************************************************************************************
 335:uCOS-III\Source/os_tick.c **** */
 336:uCOS-III\Source/os_tick.c **** 
 337:uCOS-III\Source/os_tick.c **** void  OS_TickListRemove (OS_TCB  *p_tcb)
 338:uCOS-III\Source/os_tick.c **** {
 443              		.loc 1 338 0
 444              		.cfi_startproc
 445              		@ args = 0, pretend = 0, frame = 0
 446              		@ frame_needed = 0, uses_anonymous_args = 0
 447              		@ link register save eliminated.
 448              	.LVL34:
 339:uCOS-III\Source/os_tick.c ****     OS_TICK_SPOKE  *p_spoke;
 340:uCOS-III\Source/os_tick.c ****     OS_TCB         *p_tcb1;
 341:uCOS-III\Source/os_tick.c ****     OS_TCB         *p_tcb2;
 342:uCOS-III\Source/os_tick.c **** 
 343:uCOS-III\Source/os_tick.c **** 
 344:uCOS-III\Source/os_tick.c **** 
 345:uCOS-III\Source/os_tick.c ****     p_spoke = p_tcb->TickSpokePtr;
 449              		.loc 1 345 0
 450 0000 C369     		ldr	r3, [r0, #28]
 451              	.LVL35:
 346:uCOS-III\Source/os_tick.c ****     if (p_spoke != (OS_TICK_SPOKE *)0) {                              /* Confirm that task is in ti
 452              		.loc 1 346 0
 453 0002 BBB1     		cbz	r3, .L35
 347:uCOS-III\Source/os_tick.c ****         p_tcb->TickRemain = (OS_TICK)0u;
 454              		.loc 1 347 0
 455 0004 0022     		movs	r2, #0
 456 0006 0265     		str	r2, [r0, #80]
 348:uCOS-III\Source/os_tick.c ****         if (p_spoke->FirstPtr == p_tcb) {                             /* Is timer to remove at the 
 457              		.loc 1 348 0
 458 0008 1A68     		ldr	r2, [r3]
 459 000a 9042     		cmp	r0, r2
 460 000c 05D1     		bne	.L37
 349:uCOS-III\Source/os_tick.c ****             p_tcb1            = (OS_TCB *)p_tcb->TickNextPtr;         /* Yes                       
 461              		.loc 1 349 0
 462 000e 4269     		ldr	r2, [r0, #20]
 463              	.LVL36:
 350:uCOS-III\Source/os_tick.c ****             p_spoke->FirstPtr = p_tcb1;
 464              		.loc 1 350 0
 465 0010 1A60     		str	r2, [r3]
 351:uCOS-III\Source/os_tick.c ****             if (p_tcb1 != (OS_TCB *)0) {
 466              		.loc 1 351 0
 467 0012 3AB1     		cbz	r2, .L38
 352:uCOS-III\Source/os_tick.c ****                 p_tcb1->TickPrevPtr = (OS_TCB *)0;
 468              		.loc 1 352 0
 469 0014 0021     		movs	r1, #0
 470 0016 9161     		str	r1, [r2, #24]
 471 0018 04E0     		b	.L38
 472              	.LVL37:
 473              	.L37:
 353:uCOS-III\Source/os_tick.c ****             }
 354:uCOS-III\Source/os_tick.c ****         } else {
 355:uCOS-III\Source/os_tick.c ****             p_tcb1              = p_tcb->TickPrevPtr;                 /* No, remove timer from some
 474              		.loc 1 355 0
 475 001a 8169     		ldr	r1, [r0, #24]
 476              	.LVL38:
ARM GAS  C:\Users\jorti\AppData\Local\Temp\ccCFJwKA.s 			page 16


 356:uCOS-III\Source/os_tick.c ****             p_tcb2              = p_tcb->TickNextPtr;
 477              		.loc 1 356 0
 478 001c 4269     		ldr	r2, [r0, #20]
 479              	.LVL39:
 357:uCOS-III\Source/os_tick.c ****             p_tcb1->TickNextPtr = p_tcb2;
 480              		.loc 1 357 0
 481 001e 4A61     		str	r2, [r1, #20]
 358:uCOS-III\Source/os_tick.c ****             if (p_tcb2 != (OS_TCB *)0) {
 482              		.loc 1 358 0
 483 0020 02B1     		cbz	r2, .L38
 359:uCOS-III\Source/os_tick.c ****                 p_tcb2->TickPrevPtr = p_tcb1;
 484              		.loc 1 359 0
 485 0022 9161     		str	r1, [r2, #24]
 486              	.LVL40:
 487              	.L38:
 360:uCOS-III\Source/os_tick.c ****             }
 361:uCOS-III\Source/os_tick.c ****         }
 362:uCOS-III\Source/os_tick.c ****         p_tcb->TickNextPtr  = (OS_TCB        *)0;
 488              		.loc 1 362 0
 489 0024 0022     		movs	r2, #0
 490 0026 4261     		str	r2, [r0, #20]
 363:uCOS-III\Source/os_tick.c ****         p_tcb->TickPrevPtr  = (OS_TCB        *)0;
 491              		.loc 1 363 0
 492 0028 8261     		str	r2, [r0, #24]
 364:uCOS-III\Source/os_tick.c ****         p_tcb->TickSpokePtr = (OS_TICK_SPOKE *)0;
 493              		.loc 1 364 0
 494 002a C261     		str	r2, [r0, #28]
 365:uCOS-III\Source/os_tick.c ****         p_tcb->TickCtrMatch = (OS_TICK        )0u;
 495              		.loc 1 365 0
 496 002c C264     		str	r2, [r0, #76]
 366:uCOS-III\Source/os_tick.c ****         p_spoke->NbrEntries--;
 497              		.loc 1 366 0
 498 002e 9A88     		ldrh	r2, [r3, #4]
 499 0030 013A     		subs	r2, r2, #1
 500 0032 9A80     		strh	r2, [r3, #4]	@ movhi
 501              	.L35:
 502 0034 7047     		bx	lr
 503              		.cfi_endproc
 504              	.LFE5:
 505              		.size	OS_TickListRemove, .-OS_TickListRemove
 506 0036 00BF     		.section	.text.OS_TickListResetPeak,"ax",%progbits
 507              		.align	2
 508              		.global	OS_TickListResetPeak
 509              		.thumb
 510              		.thumb_func
 511              		.type	OS_TickListResetPeak, %function
 512              	OS_TickListResetPeak:
 513              	.LFB6:
 367:uCOS-III\Source/os_tick.c ****     }
 368:uCOS-III\Source/os_tick.c **** }
 369:uCOS-III\Source/os_tick.c **** 
 370:uCOS-III\Source/os_tick.c **** /*$PAGE*/
 371:uCOS-III\Source/os_tick.c **** /*
 372:uCOS-III\Source/os_tick.c **** ***************************************************************************************************
 373:uCOS-III\Source/os_tick.c **** *                                              RESET TICK LIST PEAK DETECTOR
 374:uCOS-III\Source/os_tick.c **** *
 375:uCOS-III\Source/os_tick.c **** * Description: This function is used to reset the peak detector for the number of entries in each s
ARM GAS  C:\Users\jorti\AppData\Local\Temp\ccCFJwKA.s 			page 17


 376:uCOS-III\Source/os_tick.c **** *
 377:uCOS-III\Source/os_tick.c **** * Arguments  : void
 378:uCOS-III\Source/os_tick.c **** *
 379:uCOS-III\Source/os_tick.c **** * Returns    : none
 380:uCOS-III\Source/os_tick.c **** *
 381:uCOS-III\Source/os_tick.c **** * Note(s)    : This function is INTERNAL to uC/OS-III and your application should not call it.
 382:uCOS-III\Source/os_tick.c **** ***************************************************************************************************
 383:uCOS-III\Source/os_tick.c **** */
 384:uCOS-III\Source/os_tick.c **** 
 385:uCOS-III\Source/os_tick.c **** 
 386:uCOS-III\Source/os_tick.c **** void  OS_TickListResetPeak (void)
 387:uCOS-III\Source/os_tick.c **** {
 514              		.loc 1 387 0
 515              		.cfi_startproc
 516              		@ args = 0, pretend = 0, frame = 0
 517              		@ frame_needed = 0, uses_anonymous_args = 0
 518              		@ link register save eliminated.
 519              	.LVL41:
 388:uCOS-III\Source/os_tick.c ****     OS_TICK_SPOKE_IX   i;
 389:uCOS-III\Source/os_tick.c ****     OS_TICK_SPOKE     *p_spoke;
 390:uCOS-III\Source/os_tick.c **** 
 391:uCOS-III\Source/os_tick.c **** 
 392:uCOS-III\Source/os_tick.c **** 
 393:uCOS-III\Source/os_tick.c ****     for (i = 0u; i < OSCfg_TickWheelSize; i++) {
 520              		.loc 1 393 0
 521 0000 0023     		movs	r3, #0
 522 0002 06E0     		b	.L40
 523              	.LVL42:
 524              	.L41:
 394:uCOS-III\Source/os_tick.c ****         p_spoke                = (OS_TICK_SPOKE *)&OSCfg_TickWheel[i];
 395:uCOS-III\Source/os_tick.c ****         p_spoke->NbrEntriesMax = (OS_OBJ_QTY     )0u;
 525              		.loc 1 395 0 discriminator 3
 526 0004 054A     		ldr	r2, .L42
 527 0006 02EBC302 		add	r2, r2, r3, lsl #3
 528 000a 0021     		movs	r1, #0
 529 000c D180     		strh	r1, [r2, #6]	@ movhi
 393:uCOS-III\Source/os_tick.c ****         p_spoke                = (OS_TICK_SPOKE *)&OSCfg_TickWheel[i];
 530              		.loc 1 393 0 discriminator 3
 531 000e 0133     		adds	r3, r3, #1
 532              	.LVL43:
 533 0010 9BB2     		uxth	r3, r3
 534              	.LVL44:
 535              	.L40:
 393:uCOS-III\Source/os_tick.c ****         p_spoke                = (OS_TICK_SPOKE *)&OSCfg_TickWheel[i];
 536              		.loc 1 393 0 is_stmt 0 discriminator 1
 537 0012 034A     		ldr	r2, .L42+4
 538 0014 1288     		ldrh	r2, [r2]
 539 0016 9342     		cmp	r3, r2
 540 0018 F4D3     		bcc	.L41
 396:uCOS-III\Source/os_tick.c ****     }
 397:uCOS-III\Source/os_tick.c **** }
 541              		.loc 1 397 0 is_stmt 1
 542 001a 7047     		bx	lr
 543              	.L43:
 544              		.align	2
 545              	.L42:
 546 001c 00000000 		.word	OSCfg_TickWheel
ARM GAS  C:\Users\jorti\AppData\Local\Temp\ccCFJwKA.s 			page 18


 547 0020 00000000 		.word	OSCfg_TickWheelSize
 548              		.cfi_endproc
 549              	.LFE6:
 550              		.size	OS_TickListResetPeak, .-OS_TickListResetPeak
 551              		.section	.text.OS_TickListUpdate,"ax",%progbits
 552              		.align	2
 553              		.global	OS_TickListUpdate
 554              		.thumb
 555              		.thumb_func
 556              		.type	OS_TickListUpdate, %function
 557              	OS_TickListUpdate:
 558              	.LFB7:
 398:uCOS-III\Source/os_tick.c **** 
 399:uCOS-III\Source/os_tick.c **** /*$PAGE*/
 400:uCOS-III\Source/os_tick.c **** /*
 401:uCOS-III\Source/os_tick.c **** ***************************************************************************************************
 402:uCOS-III\Source/os_tick.c **** *                                                UPDATE THE TICK LIST
 403:uCOS-III\Source/os_tick.c **** *
 404:uCOS-III\Source/os_tick.c **** * Description: This function is called when a tick occurs and determines if the timeout waiting for
 405:uCOS-III\Source/os_tick.c **** *              expired or a delay has expired.
 406:uCOS-III\Source/os_tick.c **** *
 407:uCOS-III\Source/os_tick.c **** * Arguments  : non
 408:uCOS-III\Source/os_tick.c **** *
 409:uCOS-III\Source/os_tick.c **** * Returns    : none
 410:uCOS-III\Source/os_tick.c **** *
 411:uCOS-III\Source/os_tick.c **** * Note(s)    : 1) This function is INTERNAL to uC/OS-III and your application MUST NOT call it.
 412:uCOS-III\Source/os_tick.c **** ***************************************************************************************************
 413:uCOS-III\Source/os_tick.c **** */
 414:uCOS-III\Source/os_tick.c **** 
 415:uCOS-III\Source/os_tick.c **** void  OS_TickListUpdate (void)
 416:uCOS-III\Source/os_tick.c **** {
 559              		.loc 1 416 0
 560              		.cfi_startproc
 561              		@ args = 0, pretend = 0, frame = 0
 562              		@ frame_needed = 0, uses_anonymous_args = 0
 563 0000 2DE9F843 		push	{r3, r4, r5, r6, r7, r8, r9, lr}
 564              		.cfi_def_cfa_offset 32
 565              		.cfi_offset 3, -32
 566              		.cfi_offset 4, -28
 567              		.cfi_offset 5, -24
 568              		.cfi_offset 6, -20
 569              		.cfi_offset 7, -16
 570              		.cfi_offset 8, -12
 571              		.cfi_offset 9, -8
 572              		.cfi_offset 14, -4
 573              	.LVL45:
 417:uCOS-III\Source/os_tick.c ****     CPU_BOOLEAN        done;
 418:uCOS-III\Source/os_tick.c ****     OS_TICK_SPOKE     *p_spoke;
 419:uCOS-III\Source/os_tick.c ****     OS_TCB            *p_tcb;
 420:uCOS-III\Source/os_tick.c ****     OS_TCB            *p_tcb_next;
 421:uCOS-III\Source/os_tick.c ****     OS_TICK_SPOKE_IX   spoke;
 422:uCOS-III\Source/os_tick.c ****     CPU_TS             ts_start;
 423:uCOS-III\Source/os_tick.c ****     CPU_TS             ts_end;
 424:uCOS-III\Source/os_tick.c ****     CPU_SR_ALLOC();
 425:uCOS-III\Source/os_tick.c **** 
 426:uCOS-III\Source/os_tick.c **** 
 427:uCOS-III\Source/os_tick.c ****     OS_CRITICAL_ENTER();
ARM GAS  C:\Users\jorti\AppData\Local\Temp\ccCFJwKA.s 			page 19


 574              		.loc 1 427 0
 575 0004 FFF7FEFF 		bl	CPU_SR_Save
 576              	.LVL46:
 577 0008 8046     		mov	r8, r0
 578              	.LVL47:
 428:uCOS-III\Source/os_tick.c ****     ts_start = OS_TS_GET();
 579              		.loc 1 428 0
 580 000a FFF7FEFF 		bl	CPU_TS_TmrRd
 581              	.LVL48:
 582 000e 0746     		mov	r7, r0
 583              	.LVL49:
 429:uCOS-III\Source/os_tick.c ****     OSTickCtr++;                                                       /* Keep track of the number 
 584              		.loc 1 429 0
 585 0010 484A     		ldr	r2, .L61
 586 0012 1368     		ldr	r3, [r2]
 587 0014 0133     		adds	r3, r3, #1
 588 0016 1360     		str	r3, [r2]
 430:uCOS-III\Source/os_tick.c ****     spoke    = (OS_TICK_SPOKE_IX)(OSTickCtr % OSCfg_TickWheelSize);
 589              		.loc 1 430 0
 590 0018 474A     		ldr	r2, .L61+4
 591 001a 1188     		ldrh	r1, [r2]
 592 001c B3FBF1F2 		udiv	r2, r3, r1
 593 0020 01FB1233 		mls	r3, r1, r2, r3
 594              	.LVL50:
 431:uCOS-III\Source/os_tick.c ****     p_spoke  = &OSCfg_TickWheel[spoke];
 595              		.loc 1 431 0
 596 0024 9BB2     		uxth	r3, r3
 597              	.LVL51:
 432:uCOS-III\Source/os_tick.c ****     p_tcb    = p_spoke->FirstPtr;
 598              		.loc 1 432 0
 599 0026 454A     		ldr	r2, .L61+8
 600 0028 52F83340 		ldr	r4, [r2, r3, lsl #3]
 601              	.LVL52:
 433:uCOS-III\Source/os_tick.c ****     done     = DEF_FALSE;
 602              		.loc 1 433 0
 603 002c 0026     		movs	r6, #0
 434:uCOS-III\Source/os_tick.c ****     while (done == DEF_FALSE) {
 604              		.loc 1 434 0
 605 002e 70E0     		b	.L46
 606              	.LVL53:
 607              	.L53:
 435:uCOS-III\Source/os_tick.c ****         if (p_tcb != (OS_TCB *)0) {
 608              		.loc 1 435 0
 609 0030 002C     		cmp	r4, #0
 610 0032 6DD0     		beq	.L55
 436:uCOS-III\Source/os_tick.c ****             p_tcb_next = p_tcb->TickNextPtr;                           /* Point to next TCB to upda
 611              		.loc 1 436 0
 612 0034 6569     		ldr	r5, [r4, #20]
 613              	.LVL54:
 437:uCOS-III\Source/os_tick.c ****             switch (p_tcb->TaskState) {
 614              		.loc 1 437 0
 615 0036 94F83630 		ldrb	r3, [r4, #54]	@ zero_extendqisi2
 616 003a 013B     		subs	r3, r3, #1
 617 003c 062B     		cmp	r3, #6
 618 003e 65D8     		bhi	.L47
 619 0040 DFE803F0 		tbb	[pc, r3]
 620              	.L49:
ARM GAS  C:\Users\jorti\AppData\Local\Temp\ccCFJwKA.s 			page 20


 621 0044 04       		.byte	(.L48-.L49)/2
 622 0045 64       		.byte	(.L47-.L49)/2
 623 0046 12       		.byte	(.L50-.L49)/2
 624 0047 64       		.byte	(.L47-.L49)/2
 625 0048 30       		.byte	(.L51-.L49)/2
 626 0049 64       		.byte	(.L47-.L49)/2
 627 004a 3E       		.byte	(.L52-.L49)/2
 628 004b 00       		.p2align 1
 629              	.L48:
 438:uCOS-III\Source/os_tick.c ****                 case OS_TASK_STATE_RDY:
 439:uCOS-III\Source/os_tick.c ****                 case OS_TASK_STATE_PEND:
 440:uCOS-III\Source/os_tick.c ****                 case OS_TASK_STATE_SUSPENDED:
 441:uCOS-III\Source/os_tick.c ****                 case OS_TASK_STATE_PEND_SUSPENDED:
 442:uCOS-III\Source/os_tick.c ****                      break;
 443:uCOS-III\Source/os_tick.c **** 
 444:uCOS-III\Source/os_tick.c ****                 case OS_TASK_STATE_DLY:
 445:uCOS-III\Source/os_tick.c ****                      p_tcb->TickRemain = p_tcb->TickCtrMatch           /* Compute time remaining of
 630              		.loc 1 445 0
 631 004c E26C     		ldr	r2, [r4, #76]
 446:uCOS-III\Source/os_tick.c ****                                        - OSTickCtr;
 632              		.loc 1 446 0
 633 004e 394B     		ldr	r3, .L61
 634 0050 1B68     		ldr	r3, [r3]
 635 0052 D11A     		subs	r1, r2, r3
 445:uCOS-III\Source/os_tick.c ****                                        - OSTickCtr;
 636              		.loc 1 445 0
 637 0054 2165     		str	r1, [r4, #80]
 447:uCOS-III\Source/os_tick.c ****                      if (OSTickCtr == p_tcb->TickCtrMatch) {           /* Process each TCB that exp
 638              		.loc 1 447 0
 639 0056 9A42     		cmp	r2, r3
 640 0058 51D1     		bne	.L56
 448:uCOS-III\Source/os_tick.c ****                          p_tcb->TaskState = OS_TASK_STATE_RDY;
 641              		.loc 1 448 0
 642 005a 0023     		movs	r3, #0
 643 005c 84F83630 		strb	r3, [r4, #54]
 449:uCOS-III\Source/os_tick.c ****                          OS_TaskRdy(p_tcb);                            /* Make task ready to run   
 644              		.loc 1 449 0
 645 0060 2046     		mov	r0, r4
 646 0062 FFF7FEFF 		bl	OS_TaskRdy
 647              	.LVL55:
 648 0066 51E0     		b	.L47
 649              	.L50:
 450:uCOS-III\Source/os_tick.c ****                      } else {
 451:uCOS-III\Source/os_tick.c ****                          done             = DEF_TRUE;                  /* Don't find a match, we're
 452:uCOS-III\Source/os_tick.c ****                      }
 453:uCOS-III\Source/os_tick.c ****                      break;
 454:uCOS-III\Source/os_tick.c **** 
 455:uCOS-III\Source/os_tick.c ****                 case OS_TASK_STATE_PEND_TIMEOUT:
 456:uCOS-III\Source/os_tick.c ****                      p_tcb->TickRemain = p_tcb->TickCtrMatch           /* Compute time remaining of
 650              		.loc 1 456 0
 651 0068 E26C     		ldr	r2, [r4, #76]
 457:uCOS-III\Source/os_tick.c ****                                        - OSTickCtr;
 652              		.loc 1 457 0
 653 006a 324B     		ldr	r3, .L61
 654 006c 1B68     		ldr	r3, [r3]
 655 006e D11A     		subs	r1, r2, r3
 456:uCOS-III\Source/os_tick.c ****                                        - OSTickCtr;
ARM GAS  C:\Users\jorti\AppData\Local\Temp\ccCFJwKA.s 			page 21


 656              		.loc 1 456 0
 657 0070 2165     		str	r1, [r4, #80]
 458:uCOS-III\Source/os_tick.c ****                      if (OSTickCtr == p_tcb->TickCtrMatch) {           /* Process each TCB that exp
 658              		.loc 1 458 0
 659 0072 9A42     		cmp	r2, r3
 660 0074 45D1     		bne	.L57
 459:uCOS-III\Source/os_tick.c **** #if (OS_MSG_EN > 0u)
 460:uCOS-III\Source/os_tick.c ****                          p_tcb->MsgPtr     = (void      *)0;
 661              		.loc 1 460 0
 662 0076 4FF00009 		mov	r9, #0
 663 007a C4F85C90 		str	r9, [r4, #92]
 461:uCOS-III\Source/os_tick.c ****                          p_tcb->MsgSize    = (OS_MSG_SIZE)0u;
 664              		.loc 1 461 0
 665 007e A4F86090 		strh	r9, [r4, #96]	@ movhi
 462:uCOS-III\Source/os_tick.c **** #endif
 463:uCOS-III\Source/os_tick.c ****                          p_tcb->TS         = OS_TS_GET();
 666              		.loc 1 463 0
 667 0082 FFF7FEFF 		bl	CPU_TS_TmrRd
 668              	.LVL56:
 669 0086 2064     		str	r0, [r4, #64]
 464:uCOS-III\Source/os_tick.c ****                          OS_PendListRemove(p_tcb);                     /* Remove from wait list    
 670              		.loc 1 464 0
 671 0088 2046     		mov	r0, r4
 672 008a FFF7FEFF 		bl	OS_PendListRemove
 673              	.LVL57:
 465:uCOS-III\Source/os_tick.c ****                          OS_TaskRdy(p_tcb);
 674              		.loc 1 465 0
 675 008e 2046     		mov	r0, r4
 676 0090 FFF7FEFF 		bl	OS_TaskRdy
 677              	.LVL58:
 466:uCOS-III\Source/os_tick.c ****                          p_tcb->TaskState  = OS_TASK_STATE_RDY;
 678              		.loc 1 466 0
 679 0094 84F83690 		strb	r9, [r4, #54]
 467:uCOS-III\Source/os_tick.c ****                          p_tcb->PendStatus = OS_STATUS_PEND_TIMEOUT;   /* Indicate pend timed out  
 680              		.loc 1 467 0
 681 0098 0323     		movs	r3, #3
 682 009a 84F83530 		strb	r3, [r4, #53]
 468:uCOS-III\Source/os_tick.c ****                          p_tcb->PendOn     = OS_TASK_PEND_ON_NOTHING;  /* Indicate no longer pendin
 683              		.loc 1 468 0
 684 009e 84F83490 		strb	r9, [r4, #52]
 685 00a2 33E0     		b	.L47
 686              	.L51:
 469:uCOS-III\Source/os_tick.c ****                      } else {
 470:uCOS-III\Source/os_tick.c ****                          done              = DEF_TRUE;                 /* Don't find a match, we're
 471:uCOS-III\Source/os_tick.c ****                      }
 472:uCOS-III\Source/os_tick.c ****                      break;
 473:uCOS-III\Source/os_tick.c **** 
 474:uCOS-III\Source/os_tick.c ****                 case OS_TASK_STATE_DLY_SUSPENDED:
 475:uCOS-III\Source/os_tick.c ****                      p_tcb->TickRemain = p_tcb->TickCtrMatch           /* Compute time remaining of
 687              		.loc 1 475 0
 688 00a4 E26C     		ldr	r2, [r4, #76]
 476:uCOS-III\Source/os_tick.c ****                                        - OSTickCtr;
 689              		.loc 1 476 0
 690 00a6 234B     		ldr	r3, .L61
 691 00a8 1B68     		ldr	r3, [r3]
 692 00aa D11A     		subs	r1, r2, r3
 475:uCOS-III\Source/os_tick.c ****                                        - OSTickCtr;
ARM GAS  C:\Users\jorti\AppData\Local\Temp\ccCFJwKA.s 			page 22


 693              		.loc 1 475 0
 694 00ac 2165     		str	r1, [r4, #80]
 477:uCOS-III\Source/os_tick.c ****                      if (OSTickCtr == p_tcb->TickCtrMatch) {           /* Process each TCB that exp
 695              		.loc 1 477 0
 696 00ae 9A42     		cmp	r2, r3
 697 00b0 29D1     		bne	.L58
 478:uCOS-III\Source/os_tick.c ****                          p_tcb->TaskState  = OS_TASK_STATE_SUSPENDED;
 698              		.loc 1 478 0
 699 00b2 0423     		movs	r3, #4
 700 00b4 84F83630 		strb	r3, [r4, #54]
 479:uCOS-III\Source/os_tick.c ****                          OS_TickListRemove(p_tcb);                     /* Remove from current wheel
 701              		.loc 1 479 0
 702 00b8 2046     		mov	r0, r4
 703 00ba FFF7FEFF 		bl	OS_TickListRemove
 704              	.LVL59:
 705 00be 25E0     		b	.L47
 706              	.L52:
 480:uCOS-III\Source/os_tick.c ****                      } else {
 481:uCOS-III\Source/os_tick.c ****                          done              = DEF_TRUE;                 /* Don't find a match, we're
 482:uCOS-III\Source/os_tick.c ****                      }
 483:uCOS-III\Source/os_tick.c ****                      break;
 484:uCOS-III\Source/os_tick.c **** 
 485:uCOS-III\Source/os_tick.c ****                 case OS_TASK_STATE_PEND_TIMEOUT_SUSPENDED:
 486:uCOS-III\Source/os_tick.c ****                      p_tcb->TickRemain = p_tcb->TickCtrMatch           /* Compute time remaining of
 707              		.loc 1 486 0
 708 00c0 E26C     		ldr	r2, [r4, #76]
 487:uCOS-III\Source/os_tick.c ****                                        - OSTickCtr;
 709              		.loc 1 487 0
 710 00c2 1C4B     		ldr	r3, .L61
 711 00c4 1B68     		ldr	r3, [r3]
 712 00c6 D11A     		subs	r1, r2, r3
 486:uCOS-III\Source/os_tick.c ****                                        - OSTickCtr;
 713              		.loc 1 486 0
 714 00c8 2165     		str	r1, [r4, #80]
 488:uCOS-III\Source/os_tick.c ****                      if (OSTickCtr == p_tcb->TickCtrMatch) {           /* Process each TCB that exp
 715              		.loc 1 488 0
 716 00ca 9A42     		cmp	r2, r3
 717 00cc 1DD1     		bne	.L59
 489:uCOS-III\Source/os_tick.c **** #if (OS_MSG_EN > 0u)
 490:uCOS-III\Source/os_tick.c ****                          p_tcb->MsgPtr     = (void      *)0;
 718              		.loc 1 490 0
 719 00ce 4FF00009 		mov	r9, #0
 720 00d2 C4F85C90 		str	r9, [r4, #92]
 491:uCOS-III\Source/os_tick.c ****                          p_tcb->MsgSize    = (OS_MSG_SIZE)0u;
 721              		.loc 1 491 0
 722 00d6 A4F86090 		strh	r9, [r4, #96]	@ movhi
 492:uCOS-III\Source/os_tick.c **** #endif
 493:uCOS-III\Source/os_tick.c ****                          p_tcb->TS         = OS_TS_GET();
 723              		.loc 1 493 0
 724 00da FFF7FEFF 		bl	CPU_TS_TmrRd
 725              	.LVL60:
 726 00de 2064     		str	r0, [r4, #64]
 494:uCOS-III\Source/os_tick.c ****                          OS_PendListRemove(p_tcb);                     /* Remove from wait list    
 727              		.loc 1 494 0
 728 00e0 2046     		mov	r0, r4
 729 00e2 FFF7FEFF 		bl	OS_PendListRemove
 730              	.LVL61:
ARM GAS  C:\Users\jorti\AppData\Local\Temp\ccCFJwKA.s 			page 23


 495:uCOS-III\Source/os_tick.c ****                          OS_TickListRemove(p_tcb);                     /* Remove from current wheel
 731              		.loc 1 495 0
 732 00e6 2046     		mov	r0, r4
 733 00e8 FFF7FEFF 		bl	OS_TickListRemove
 734              	.LVL62:
 496:uCOS-III\Source/os_tick.c ****                          p_tcb->TaskState  = OS_TASK_STATE_SUSPENDED;
 735              		.loc 1 496 0
 736 00ec 0423     		movs	r3, #4
 737 00ee 84F83630 		strb	r3, [r4, #54]
 497:uCOS-III\Source/os_tick.c ****                          p_tcb->PendStatus = OS_STATUS_PEND_TIMEOUT;   /* Indicate pend timed out  
 738              		.loc 1 497 0
 739 00f2 0323     		movs	r3, #3
 740 00f4 84F83530 		strb	r3, [r4, #53]
 498:uCOS-III\Source/os_tick.c ****                          p_tcb->PendOn     = OS_TASK_PEND_ON_NOTHING;  /* Indicate no longer pendin
 741              		.loc 1 498 0
 742 00f8 84F83490 		strb	r9, [r4, #52]
 743 00fc 06E0     		b	.L47
 744              	.L56:
 451:uCOS-III\Source/os_tick.c ****                      }
 745              		.loc 1 451 0
 746 00fe 0126     		movs	r6, #1
 747              	.LVL63:
 748 0100 04E0     		b	.L47
 749              	.LVL64:
 750              	.L57:
 470:uCOS-III\Source/os_tick.c ****                      }
 751              		.loc 1 470 0
 752 0102 0126     		movs	r6, #1
 753              	.LVL65:
 754 0104 02E0     		b	.L47
 755              	.LVL66:
 756              	.L58:
 481:uCOS-III\Source/os_tick.c ****                      }
 757              		.loc 1 481 0
 758 0106 0126     		movs	r6, #1
 759              	.LVL67:
 760 0108 00E0     		b	.L47
 761              	.LVL68:
 762              	.L59:
 499:uCOS-III\Source/os_tick.c ****                      } else {
 500:uCOS-III\Source/os_tick.c ****                          done              = DEF_TRUE;                 /* Don't find a match, we're
 763              		.loc 1 500 0
 764 010a 0126     		movs	r6, #1
 765              	.LVL69:
 766              	.L47:
 767 010c 2C46     		mov	r4, r5
 768              	.LVL70:
 769 010e 00E0     		b	.L46
 770              	.LVL71:
 771              	.L55:
 501:uCOS-III\Source/os_tick.c ****                      }
 502:uCOS-III\Source/os_tick.c ****                      break;
 503:uCOS-III\Source/os_tick.c **** 
 504:uCOS-III\Source/os_tick.c ****                 default:
 505:uCOS-III\Source/os_tick.c ****                      break;
 506:uCOS-III\Source/os_tick.c ****             }
 507:uCOS-III\Source/os_tick.c ****             p_tcb = p_tcb_next;
ARM GAS  C:\Users\jorti\AppData\Local\Temp\ccCFJwKA.s 			page 24


 508:uCOS-III\Source/os_tick.c ****         } else {
 509:uCOS-III\Source/os_tick.c ****             done  = DEF_TRUE;
 772              		.loc 1 509 0
 773 0110 0126     		movs	r6, #1
 774              	.LVL72:
 775              	.L46:
 434:uCOS-III\Source/os_tick.c ****         if (p_tcb != (OS_TCB *)0) {
 776              		.loc 1 434 0
 777 0112 002E     		cmp	r6, #0
 778 0114 8CD0     		beq	.L53
 510:uCOS-III\Source/os_tick.c ****         }
 511:uCOS-III\Source/os_tick.c ****     }
 512:uCOS-III\Source/os_tick.c ****     ts_end = OS_TS_GET() - ts_start;                                   /* Measure execution time of
 779              		.loc 1 512 0
 780 0116 FFF7FEFF 		bl	CPU_TS_TmrRd
 781              	.LVL73:
 782 011a C01B     		subs	r0, r0, r7
 783              	.LVL74:
 513:uCOS-III\Source/os_tick.c ****     if (OSTickTaskTimeMax < ts_end) {
 784              		.loc 1 513 0
 785 011c 084B     		ldr	r3, .L61+12
 786 011e 1B68     		ldr	r3, [r3]
 787 0120 9842     		cmp	r0, r3
 788 0122 01D9     		bls	.L54
 514:uCOS-III\Source/os_tick.c ****         OSTickTaskTimeMax = ts_end;
 789              		.loc 1 514 0
 790 0124 064B     		ldr	r3, .L61+12
 791 0126 1860     		str	r0, [r3]
 792              	.L54:
 515:uCOS-III\Source/os_tick.c ****     }
 516:uCOS-III\Source/os_tick.c ****     OS_CRITICAL_EXIT();
 793              		.loc 1 516 0
 794 0128 4046     		mov	r0, r8
 795              	.LVL75:
 796 012a FFF7FEFF 		bl	CPU_SR_Restore
 797              	.LVL76:
 798 012e BDE8F883 		pop	{r3, r4, r5, r6, r7, r8, r9, pc}
 799              	.LVL77:
 800              	.L62:
 801 0132 00BF     		.align	2
 802              	.L61:
 803 0134 00000000 		.word	OSTickCtr
 804 0138 00000000 		.word	OSCfg_TickWheelSize
 805 013c 00000000 		.word	OSCfg_TickWheel
 806 0140 00000000 		.word	OSTickTaskTimeMax
 807              		.cfi_endproc
 808              	.LFE7:
 809              		.size	OS_TickListUpdate, .-OS_TickListUpdate
 810              		.section	.text.OS_TickTask,"ax",%progbits
 811              		.align	2
 812              		.global	OS_TickTask
 813              		.thumb
 814              		.thumb_func
 815              		.type	OS_TickTask, %function
 816              	OS_TickTask:
 817              	.LFB1:
  62:uCOS-III\Source/os_tick.c ****     OS_ERR  err;
ARM GAS  C:\Users\jorti\AppData\Local\Temp\ccCFJwKA.s 			page 25


 818              		.loc 1 62 0
 819              		.cfi_startproc
 820              		@ args = 0, pretend = 0, frame = 8
 821              		@ frame_needed = 0, uses_anonymous_args = 0
 822              	.LVL78:
 823 0000 00B5     		push	{lr}
 824              		.cfi_def_cfa_offset 4
 825              		.cfi_offset 14, -4
 826 0002 83B0     		sub	sp, sp, #12
 827              		.cfi_def_cfa_offset 16
 828              	.LVL79:
 829              	.L64:
  70:uCOS-III\Source/os_tick.c ****                             (OS_OPT   )OS_OPT_PEND_BLOCKING,
 830              		.loc 1 70 0
 831 0004 0DF10603 		add	r3, sp, #6
 832 0008 6A46     		mov	r2, sp
 833 000a 0021     		movs	r1, #0
 834 000c 0846     		mov	r0, r1
 835 000e FFF7FEFF 		bl	OSTaskSemPend
 836              	.LVL80:
  74:uCOS-III\Source/os_tick.c ****             if (OSRunning == OS_STATE_OS_RUNNING) {
 837              		.loc 1 74 0
 838 0012 BDF80630 		ldrh	r3, [sp, #6]
 839 0016 002B     		cmp	r3, #0
 840 0018 F4D1     		bne	.L64
  75:uCOS-III\Source/os_tick.c ****                 OS_TickListUpdate();                        /* Update all tasks waiting for time   
 841              		.loc 1 75 0
 842 001a 034B     		ldr	r3, .L67
 843 001c 1B78     		ldrb	r3, [r3]	@ zero_extendqisi2
 844 001e 012B     		cmp	r3, #1
 845 0020 F0D1     		bne	.L64
  76:uCOS-III\Source/os_tick.c ****             }
 846              		.loc 1 76 0
 847 0022 FFF7FEFF 		bl	OS_TickListUpdate
 848              	.LVL81:
 849 0026 EDE7     		b	.L64
 850              	.L68:
 851              		.align	2
 852              	.L67:
 853 0028 00000000 		.word	OSRunning
 854              		.cfi_endproc
 855              	.LFE1:
 856              		.size	OS_TickTask, .-OS_TickTask
 857              		.section	.rodata.str1.4,"aMS",%progbits,1
 858              		.align	2
 859              	.LC0:
 860 0000 75432F4F 		.ascii	"uC/OS-III Tick Task\000"
 860      532D4949 
 860      49205469 
 860      636B2054 
 860      61736B00 
 861              		.text
 862              	.Letext0:
 863              		.file 2 ".\\uC-CPU\\ARM-Cortex-M3\\GNU/cpu.h"
 864              		.file 3 ".\\uC-CPU/cpu_core.h"
 865              		.file 4 ".\\uCOS-III\\Source/os_type.h"
 866              		.file 5 ".\\uCOS-III\\Source/os.h"
ARM GAS  C:\Users\jorti\AppData\Local\Temp\ccCFJwKA.s 			page 26

