ARM GAS  C:\Users\jorti\AppData\Local\Temp\ccmiXXpF.s 			page 1


   1              		.syntax unified
   2              		.cpu cortex-m3
   3              		.fpu softvfp
   4              		.eabi_attribute 20, 1
   5              		.eabi_attribute 21, 1
   6              		.eabi_attribute 23, 3
   7              		.eabi_attribute 24, 1
   8              		.eabi_attribute 25, 1
   9              		.eabi_attribute 26, 1
  10              		.eabi_attribute 30, 1
  11              		.eabi_attribute 34, 1
  12              		.eabi_attribute 18, 4
  13              		.thumb
  14              		.syntax unified
  15              		.file	"os_tmr.c"
  16              		.text
  17              	.Ltext0:
  18              		.cfi_sections	.debug_frame
  19              		.section	.text.OSTmrRemainGet,"ax",%progbits
  20              		.align	2
  21              		.global	OSTmrRemainGet
  22              		.thumb
  23              		.thumb_func
  24              		.type	OSTmrRemainGet, %function
  25              	OSTmrRemainGet:
  26              	.LFB3:
  27              		.file 1 "uCOS-III\\Source\\os_tmr.c"
   1:uCOS-III\Source/os_tmr.c **** /*
   2:uCOS-III\Source/os_tmr.c **** ***************************************************************************************************
   3:uCOS-III\Source/os_tmr.c **** *                                                      uC/OS-III
   4:uCOS-III\Source/os_tmr.c **** *                                                 The Real-Time Kernel
   5:uCOS-III\Source/os_tmr.c **** *
   6:uCOS-III\Source/os_tmr.c **** *                                  (c) Copyright 2009-2012; Micrium, Inc.; Weston, FL
   7:uCOS-III\Source/os_tmr.c **** *                           All rights reserved.  Protected by international copyright laws.
   8:uCOS-III\Source/os_tmr.c **** *
   9:uCOS-III\Source/os_tmr.c **** *                                                   TIMER MANAGEMENT
  10:uCOS-III\Source/os_tmr.c **** *
  11:uCOS-III\Source/os_tmr.c **** * File    : OS_TMR.C
  12:uCOS-III\Source/os_tmr.c **** * By      : JJL
  13:uCOS-III\Source/os_tmr.c **** * Version : V3.03.01
  14:uCOS-III\Source/os_tmr.c **** *
  15:uCOS-III\Source/os_tmr.c **** * LICENSING TERMS:
  16:uCOS-III\Source/os_tmr.c **** * ---------------
  17:uCOS-III\Source/os_tmr.c **** *           uC/OS-III is provided in source form for FREE short-term evaluation, for educational us
  18:uCOS-III\Source/os_tmr.c **** *           for peaceful research.  If you plan or intend to use uC/OS-III in a commercial applicat
  19:uCOS-III\Source/os_tmr.c **** *           product then, you need to contact Micrium to properly license uC/OS-III for its use in 
  20:uCOS-III\Source/os_tmr.c **** *           application/product.   We provide ALL the source code for your convenience and to help 
  21:uCOS-III\Source/os_tmr.c **** *           experience uC/OS-III.  The fact that the source is provided does NOT mean that you can 
  22:uCOS-III\Source/os_tmr.c **** *           it commercially without paying a licensing fee.
  23:uCOS-III\Source/os_tmr.c **** *
  24:uCOS-III\Source/os_tmr.c **** *           Knowledge of the source code may NOT be used to develop a similar product.
  25:uCOS-III\Source/os_tmr.c **** *
  26:uCOS-III\Source/os_tmr.c **** *           Please help us continue to provide the embedded community with the finest software avai
  27:uCOS-III\Source/os_tmr.c **** *           Your honesty is greatly appreciated.
  28:uCOS-III\Source/os_tmr.c **** *
  29:uCOS-III\Source/os_tmr.c **** *           You can contact us at www.micrium.com, or by phone at +1 (954) 217-2036.
  30:uCOS-III\Source/os_tmr.c **** ***************************************************************************************************
ARM GAS  C:\Users\jorti\AppData\Local\Temp\ccmiXXpF.s 			page 2


  31:uCOS-III\Source/os_tmr.c **** */
  32:uCOS-III\Source/os_tmr.c **** 
  33:uCOS-III\Source/os_tmr.c **** #define  MICRIUM_SOURCE
  34:uCOS-III\Source/os_tmr.c **** #include <os.h>
  35:uCOS-III\Source/os_tmr.c **** 
  36:uCOS-III\Source/os_tmr.c **** #ifdef VSC_INCLUDE_SOURCE_FILE_NAMES
  37:uCOS-III\Source/os_tmr.c **** const  CPU_CHAR  *os_tmr__c = "$Id: $";
  38:uCOS-III\Source/os_tmr.c **** #endif
  39:uCOS-III\Source/os_tmr.c **** 
  40:uCOS-III\Source/os_tmr.c **** 
  41:uCOS-III\Source/os_tmr.c **** #if OS_CFG_TMR_EN > 0u
  42:uCOS-III\Source/os_tmr.c **** /*
  43:uCOS-III\Source/os_tmr.c **** ***************************************************************************************************
  44:uCOS-III\Source/os_tmr.c **** *                                                     CONSTANTS
  45:uCOS-III\Source/os_tmr.c **** ***************************************************************************************************
  46:uCOS-III\Source/os_tmr.c **** */
  47:uCOS-III\Source/os_tmr.c **** 
  48:uCOS-III\Source/os_tmr.c **** #define  OS_OPT_LINK_DLY       (OS_OPT)(0u)
  49:uCOS-III\Source/os_tmr.c **** #define  OS_OPT_LINK_PERIODIC  (OS_OPT)(1u)
  50:uCOS-III\Source/os_tmr.c **** 
  51:uCOS-III\Source/os_tmr.c **** /*$PAGE*/
  52:uCOS-III\Source/os_tmr.c **** /*
  53:uCOS-III\Source/os_tmr.c **** ***************************************************************************************************
  54:uCOS-III\Source/os_tmr.c **** *                                                   CREATE A TIMER
  55:uCOS-III\Source/os_tmr.c **** *
  56:uCOS-III\Source/os_tmr.c **** * Description: This function is called by your application code to create a timer.
  57:uCOS-III\Source/os_tmr.c **** *
  58:uCOS-III\Source/os_tmr.c **** * Arguments  : p_tmr           Is a pointer to a timer control block
  59:uCOS-III\Source/os_tmr.c **** *
  60:uCOS-III\Source/os_tmr.c **** *              p_name          Is a pointer to an ASCII string that is used to name the timer.  Nam
  61:uCOS-III\Source/os_tmr.c **** *                              debugging.
  62:uCOS-III\Source/os_tmr.c **** *
  63:uCOS-III\Source/os_tmr.c **** *              dly             Initial delay.
  64:uCOS-III\Source/os_tmr.c **** *                              If the timer is configured for ONE-SHOT mode, this is the timeout us
  65:uCOS-III\Source/os_tmr.c **** *                              If the timer is configured for PERIODIC mode, this is the first time
  66:uCOS-III\Source/os_tmr.c **** *                              before the timer starts entering periodic mode
  67:uCOS-III\Source/os_tmr.c **** *
  68:uCOS-III\Source/os_tmr.c **** *              period          The 'period' being repeated for the timer.
  69:uCOS-III\Source/os_tmr.c **** *                              If you specified 'OS_OPT_TMR_PERIODIC' as an option, when the timer 
  70:uCOS-III\Source/os_tmr.c **** *                              automatically restart with the same period.
  71:uCOS-III\Source/os_tmr.c **** *
  72:uCOS-III\Source/os_tmr.c **** *              opt             Specifies either:
  73:uCOS-III\Source/os_tmr.c **** *
  74:uCOS-III\Source/os_tmr.c **** *                                  OS_OPT_TMR_ONE_SHOT       The timer counts down only once
  75:uCOS-III\Source/os_tmr.c **** *                                  OS_OPT_TMR_PERIODIC       The timer counts down and then reloads
  76:uCOS-III\Source/os_tmr.c **** *
  77:uCOS-III\Source/os_tmr.c **** *              p_callback      Is a pointer to a callback function that will be called when the tim
  78:uCOS-III\Source/os_tmr.c **** *                              callback function must be declared as follows:
  79:uCOS-III\Source/os_tmr.c **** *
  80:uCOS-III\Source/os_tmr.c **** *                                  void  MyCallback (OS_TMR *p_tmr, void *p_arg);
  81:uCOS-III\Source/os_tmr.c **** *
  82:uCOS-III\Source/os_tmr.c **** *              p_callback_arg  Is an argument (a pointer) that is passed to the callback function w
  83:uCOS-III\Source/os_tmr.c **** *
  84:uCOS-III\Source/os_tmr.c **** *              p_err           Is a pointer to an error code.  '*p_err' will contain one of the fol
  85:uCOS-III\Source/os_tmr.c **** *
  86:uCOS-III\Source/os_tmr.c **** *                                 OS_ERR_NONE
  87:uCOS-III\Source/os_tmr.c **** *                                 OS_ERR_ILLEGAL_CREATE_RUN_TIME if you are trying to create the ti
ARM GAS  C:\Users\jorti\AppData\Local\Temp\ccmiXXpF.s 			page 3


  88:uCOS-III\Source/os_tmr.c **** *                                                                  OSSafetyCriticalStart().
  89:uCOS-III\Source/os_tmr.c **** *                                 OS_ERR_OBJ_CREATED             if the timer has already been crea
  90:uCOS-III\Source/os_tmr.c **** *                                 OS_ERR_OBJ_PTR_NULL            is 'p_tmr' is a NULL pointer
  91:uCOS-III\Source/os_tmr.c **** *                                 OS_ERR_OBJ_TYPE                if the object type is invalid
  92:uCOS-III\Source/os_tmr.c **** *                                 OS_ERR_OPT_INVALID             you specified an invalid option
  93:uCOS-III\Source/os_tmr.c **** *                                 OS_ERR_TMR_INVALID_DLY         you specified an invalid delay
  94:uCOS-III\Source/os_tmr.c **** *                                 OS_ERR_TMR_INVALID_PERIOD      you specified an invalid period
  95:uCOS-III\Source/os_tmr.c **** *                                 OS_ERR_TMR_ISR                 if the call was made from an ISR
  96:uCOS-III\Source/os_tmr.c **** *
  97:uCOS-III\Source/os_tmr.c **** * Returns    : none
  98:uCOS-III\Source/os_tmr.c **** *
  99:uCOS-III\Source/os_tmr.c **** * Note(s)    : 1) This function only creates the timer.  In other words, the timer is not started w
 100:uCOS-III\Source/os_tmr.c **** *                 start the timer, call OSTmrStart().
 101:uCOS-III\Source/os_tmr.c **** ***************************************************************************************************
 102:uCOS-III\Source/os_tmr.c **** */
 103:uCOS-III\Source/os_tmr.c **** 
 104:uCOS-III\Source/os_tmr.c **** void  OSTmrCreate (OS_TMR               *p_tmr,
 105:uCOS-III\Source/os_tmr.c ****                    CPU_CHAR             *p_name,
 106:uCOS-III\Source/os_tmr.c ****                    OS_TICK               dly,
 107:uCOS-III\Source/os_tmr.c ****                    OS_TICK               period,
 108:uCOS-III\Source/os_tmr.c ****                    OS_OPT                opt,
 109:uCOS-III\Source/os_tmr.c ****                    OS_TMR_CALLBACK_PTR   p_callback,
 110:uCOS-III\Source/os_tmr.c ****                    void                 *p_callback_arg,
 111:uCOS-III\Source/os_tmr.c ****                    OS_ERR               *p_err)
 112:uCOS-III\Source/os_tmr.c **** {
 113:uCOS-III\Source/os_tmr.c ****     CPU_SR_ALLOC();
 114:uCOS-III\Source/os_tmr.c **** 
 115:uCOS-III\Source/os_tmr.c **** 
 116:uCOS-III\Source/os_tmr.c **** 
 117:uCOS-III\Source/os_tmr.c **** #ifdef OS_SAFETY_CRITICAL
 118:uCOS-III\Source/os_tmr.c ****     if (p_err == (OS_ERR *)0) {
 119:uCOS-III\Source/os_tmr.c ****         OS_SAFETY_CRITICAL_EXCEPTION();
 120:uCOS-III\Source/os_tmr.c ****         return;
 121:uCOS-III\Source/os_tmr.c ****     }
 122:uCOS-III\Source/os_tmr.c **** #endif
 123:uCOS-III\Source/os_tmr.c **** 
 124:uCOS-III\Source/os_tmr.c **** #ifdef OS_SAFETY_CRITICAL_IEC61508
 125:uCOS-III\Source/os_tmr.c ****     if (OSSafetyCriticalStartFlag == DEF_TRUE) {
 126:uCOS-III\Source/os_tmr.c ****        *p_err = OS_ERR_ILLEGAL_CREATE_RUN_TIME;
 127:uCOS-III\Source/os_tmr.c ****         return;
 128:uCOS-III\Source/os_tmr.c ****     }
 129:uCOS-III\Source/os_tmr.c **** #endif
 130:uCOS-III\Source/os_tmr.c **** 
 131:uCOS-III\Source/os_tmr.c **** #if OS_CFG_CALLED_FROM_ISR_CHK_EN > 0u
 132:uCOS-III\Source/os_tmr.c ****     if (OSIntNestingCtr > (OS_NESTING_CTR)0) {              /* See if trying to call from an ISR   
 133:uCOS-III\Source/os_tmr.c ****        *p_err = OS_ERR_TMR_ISR;
 134:uCOS-III\Source/os_tmr.c ****         return;
 135:uCOS-III\Source/os_tmr.c ****     }
 136:uCOS-III\Source/os_tmr.c **** #endif
 137:uCOS-III\Source/os_tmr.c **** 
 138:uCOS-III\Source/os_tmr.c **** #if OS_CFG_ARG_CHK_EN > 0u
 139:uCOS-III\Source/os_tmr.c ****     if (p_tmr == (OS_TMR *)0) {                             /* Validate 'p_tmr'                    
 140:uCOS-III\Source/os_tmr.c ****        *p_err = OS_ERR_OBJ_PTR_NULL;
 141:uCOS-III\Source/os_tmr.c ****         return;
 142:uCOS-III\Source/os_tmr.c ****     }
 143:uCOS-III\Source/os_tmr.c **** 
 144:uCOS-III\Source/os_tmr.c ****     switch (opt) {
ARM GAS  C:\Users\jorti\AppData\Local\Temp\ccmiXXpF.s 			page 4


 145:uCOS-III\Source/os_tmr.c ****         case OS_OPT_TMR_PERIODIC:
 146:uCOS-III\Source/os_tmr.c ****              if (period == (OS_TICK)0) {
 147:uCOS-III\Source/os_tmr.c ****                 *p_err = OS_ERR_TMR_INVALID_PERIOD;
 148:uCOS-III\Source/os_tmr.c ****                  return;
 149:uCOS-III\Source/os_tmr.c ****              }
 150:uCOS-III\Source/os_tmr.c ****              break;
 151:uCOS-III\Source/os_tmr.c **** 
 152:uCOS-III\Source/os_tmr.c ****         case OS_OPT_TMR_ONE_SHOT:
 153:uCOS-III\Source/os_tmr.c ****              if (dly == (OS_TICK)0) {
 154:uCOS-III\Source/os_tmr.c ****                 *p_err = OS_ERR_TMR_INVALID_DLY;
 155:uCOS-III\Source/os_tmr.c ****                  return;
 156:uCOS-III\Source/os_tmr.c ****              }
 157:uCOS-III\Source/os_tmr.c ****              break;
 158:uCOS-III\Source/os_tmr.c **** 
 159:uCOS-III\Source/os_tmr.c ****         default:
 160:uCOS-III\Source/os_tmr.c ****             *p_err = OS_ERR_OPT_INVALID;
 161:uCOS-III\Source/os_tmr.c ****              return;
 162:uCOS-III\Source/os_tmr.c ****     }
 163:uCOS-III\Source/os_tmr.c **** #endif
 164:uCOS-III\Source/os_tmr.c **** 
 165:uCOS-III\Source/os_tmr.c ****     OS_CRITICAL_ENTER();
 166:uCOS-III\Source/os_tmr.c ****     p_tmr->State          = (OS_STATE           )OS_TMR_STATE_STOPPED;     /* Initialize the timer 
 167:uCOS-III\Source/os_tmr.c ****     p_tmr->Type           = (OS_OBJ_TYPE        )OS_OBJ_TYPE_TMR;
 168:uCOS-III\Source/os_tmr.c ****     p_tmr->NamePtr        = (CPU_CHAR          *)p_name;
 169:uCOS-III\Source/os_tmr.c ****     p_tmr->Dly            = (OS_TICK            )dly;
 170:uCOS-III\Source/os_tmr.c ****     p_tmr->Match          = (OS_TICK            )0;
 171:uCOS-III\Source/os_tmr.c ****     p_tmr->Remain         = (OS_TICK            )0;
 172:uCOS-III\Source/os_tmr.c ****     p_tmr->Period         = (OS_TICK            )period;
 173:uCOS-III\Source/os_tmr.c ****     p_tmr->Opt            = (OS_OPT             )opt;
 174:uCOS-III\Source/os_tmr.c ****     p_tmr->CallbackPtr    = (OS_TMR_CALLBACK_PTR)p_callback;
 175:uCOS-III\Source/os_tmr.c ****     p_tmr->CallbackPtrArg = (void              *)p_callback_arg;
 176:uCOS-III\Source/os_tmr.c ****     p_tmr->NextPtr        = (OS_TMR            *)0;
 177:uCOS-III\Source/os_tmr.c ****     p_tmr->PrevPtr        = (OS_TMR            *)0;
 178:uCOS-III\Source/os_tmr.c **** 
 179:uCOS-III\Source/os_tmr.c **** #if OS_CFG_DBG_EN > 0u
 180:uCOS-III\Source/os_tmr.c ****     OS_TmrDbgListAdd(p_tmr);
 181:uCOS-III\Source/os_tmr.c **** #endif
 182:uCOS-III\Source/os_tmr.c ****     OSTmrQty++;                                             /* Keep track of the number of timers c
 183:uCOS-III\Source/os_tmr.c **** 
 184:uCOS-III\Source/os_tmr.c ****     OS_CRITICAL_EXIT_NO_SCHED();
 185:uCOS-III\Source/os_tmr.c ****    *p_err = OS_ERR_NONE;
 186:uCOS-III\Source/os_tmr.c **** }
 187:uCOS-III\Source/os_tmr.c **** 
 188:uCOS-III\Source/os_tmr.c **** /*$PAGE*/
 189:uCOS-III\Source/os_tmr.c **** /*
 190:uCOS-III\Source/os_tmr.c **** ***************************************************************************************************
 191:uCOS-III\Source/os_tmr.c **** *                                                   DELETE A TIMER
 192:uCOS-III\Source/os_tmr.c **** *
 193:uCOS-III\Source/os_tmr.c **** * Description: This function is called by your application code to delete a timer.
 194:uCOS-III\Source/os_tmr.c **** *
 195:uCOS-III\Source/os_tmr.c **** * Arguments  : p_tmr          Is a pointer to the timer to stop and delete.
 196:uCOS-III\Source/os_tmr.c **** *
 197:uCOS-III\Source/os_tmr.c **** *              p_err          Is a pointer to an error code.  '*p_err' will contain one of the foll
 198:uCOS-III\Source/os_tmr.c **** *
 199:uCOS-III\Source/os_tmr.c **** *                                 OS_ERR_NONE
 200:uCOS-III\Source/os_tmr.c **** *                                 OS_ERR_OBJ_TYPE             'p_tmr' is not pointing to a timer
 201:uCOS-III\Source/os_tmr.c **** *                                 OS_ERR_TMR_INVALID          'p_tmr' is a NULL pointer
ARM GAS  C:\Users\jorti\AppData\Local\Temp\ccmiXXpF.s 			page 5


 202:uCOS-III\Source/os_tmr.c **** *                                 OS_ERR_TMR_ISR              if the function was called from an IS
 203:uCOS-III\Source/os_tmr.c **** *                                 OS_ERR_TMR_INACTIVE         if the timer was not created
 204:uCOS-III\Source/os_tmr.c **** *                                 OS_ERR_TMR_INVALID_STATE    the timer is in an invalid state
 205:uCOS-III\Source/os_tmr.c **** *
 206:uCOS-III\Source/os_tmr.c **** * Returns    : DEF_TRUE   if the timer was deleted
 207:uCOS-III\Source/os_tmr.c **** *              DEF_FALSE  if not or upon an error
 208:uCOS-III\Source/os_tmr.c **** ***************************************************************************************************
 209:uCOS-III\Source/os_tmr.c **** */
 210:uCOS-III\Source/os_tmr.c **** 
 211:uCOS-III\Source/os_tmr.c **** #if OS_CFG_TMR_DEL_EN > 0u
 212:uCOS-III\Source/os_tmr.c **** CPU_BOOLEAN  OSTmrDel (OS_TMR  *p_tmr,
 213:uCOS-III\Source/os_tmr.c ****                        OS_ERR  *p_err)
 214:uCOS-III\Source/os_tmr.c **** {
 215:uCOS-III\Source/os_tmr.c ****     OS_ERR       err;
 216:uCOS-III\Source/os_tmr.c ****     CPU_BOOLEAN  success;
 217:uCOS-III\Source/os_tmr.c **** 
 218:uCOS-III\Source/os_tmr.c **** 
 219:uCOS-III\Source/os_tmr.c **** 
 220:uCOS-III\Source/os_tmr.c **** #ifdef OS_SAFETY_CRITICAL
 221:uCOS-III\Source/os_tmr.c ****     if (p_err == (OS_ERR *)0) {
 222:uCOS-III\Source/os_tmr.c ****         OS_SAFETY_CRITICAL_EXCEPTION();
 223:uCOS-III\Source/os_tmr.c ****         return (DEF_FALSE);
 224:uCOS-III\Source/os_tmr.c ****     }
 225:uCOS-III\Source/os_tmr.c **** #endif
 226:uCOS-III\Source/os_tmr.c **** 
 227:uCOS-III\Source/os_tmr.c **** #if OS_CFG_CALLED_FROM_ISR_CHK_EN > 0u
 228:uCOS-III\Source/os_tmr.c ****     if (OSIntNestingCtr > (OS_NESTING_CTR)0) {              /* See if trying to call from an ISR   
 229:uCOS-III\Source/os_tmr.c ****        *p_err  = OS_ERR_TMR_ISR;
 230:uCOS-III\Source/os_tmr.c ****         return (DEF_FALSE);
 231:uCOS-III\Source/os_tmr.c ****     }
 232:uCOS-III\Source/os_tmr.c **** #endif
 233:uCOS-III\Source/os_tmr.c **** 
 234:uCOS-III\Source/os_tmr.c **** #if OS_CFG_ARG_CHK_EN > 0u
 235:uCOS-III\Source/os_tmr.c ****     if (p_tmr == (OS_TMR *)0) {
 236:uCOS-III\Source/os_tmr.c ****        *p_err = OS_ERR_TMR_INVALID;
 237:uCOS-III\Source/os_tmr.c ****         return (DEF_FALSE);
 238:uCOS-III\Source/os_tmr.c ****     }
 239:uCOS-III\Source/os_tmr.c **** #endif
 240:uCOS-III\Source/os_tmr.c **** 
 241:uCOS-III\Source/os_tmr.c **** #if OS_CFG_OBJ_TYPE_CHK_EN > 0u
 242:uCOS-III\Source/os_tmr.c ****     if (p_tmr->Type != OS_OBJ_TYPE_TMR) {                   /* Make sure timer was created         
 243:uCOS-III\Source/os_tmr.c ****        *p_err = OS_ERR_OBJ_TYPE;
 244:uCOS-III\Source/os_tmr.c ****         return (DEF_FALSE);
 245:uCOS-III\Source/os_tmr.c ****     }
 246:uCOS-III\Source/os_tmr.c **** #endif
 247:uCOS-III\Source/os_tmr.c **** 
 248:uCOS-III\Source/os_tmr.c ****     OSSchedLock(&err);
 249:uCOS-III\Source/os_tmr.c **** #if OS_CFG_DBG_EN > 0u
 250:uCOS-III\Source/os_tmr.c ****     OS_TmrDbgListRemove(p_tmr);
 251:uCOS-III\Source/os_tmr.c **** #endif
 252:uCOS-III\Source/os_tmr.c ****     OSTmrQty--;                                             /* One less timer                      
 253:uCOS-III\Source/os_tmr.c **** 
 254:uCOS-III\Source/os_tmr.c ****     switch (p_tmr->State) {
 255:uCOS-III\Source/os_tmr.c ****         case OS_TMR_STATE_RUNNING:
 256:uCOS-III\Source/os_tmr.c ****              OS_TmrUnlink(p_tmr);                           /* Remove from current wheel spoke     
 257:uCOS-III\Source/os_tmr.c ****              OS_TmrClr(p_tmr);
 258:uCOS-III\Source/os_tmr.c ****              OSSchedUnlock(&err);
ARM GAS  C:\Users\jorti\AppData\Local\Temp\ccmiXXpF.s 			page 6


 259:uCOS-III\Source/os_tmr.c ****             *p_err   = OS_ERR_NONE;
 260:uCOS-III\Source/os_tmr.c ****              success = DEF_TRUE;
 261:uCOS-III\Source/os_tmr.c ****              break;
 262:uCOS-III\Source/os_tmr.c **** 
 263:uCOS-III\Source/os_tmr.c ****         case OS_TMR_STATE_STOPPED:                          /* Timer has not started or ...        
 264:uCOS-III\Source/os_tmr.c ****         case OS_TMR_STATE_COMPLETED:                        /* ... timer has completed the ONE-SHOT
 265:uCOS-III\Source/os_tmr.c ****              OS_TmrClr(p_tmr);                              /* Clear timer fields                  
 266:uCOS-III\Source/os_tmr.c ****              OSSchedUnlock(&err);
 267:uCOS-III\Source/os_tmr.c ****             *p_err   = OS_ERR_NONE;
 268:uCOS-III\Source/os_tmr.c ****              success = DEF_TRUE;
 269:uCOS-III\Source/os_tmr.c ****              break;
 270:uCOS-III\Source/os_tmr.c ****              
 271:uCOS-III\Source/os_tmr.c ****         case OS_TMR_STATE_UNUSED:                           /* Already deleted                     
 272:uCOS-III\Source/os_tmr.c ****              OSSchedUnlock(&err);
 273:uCOS-III\Source/os_tmr.c ****             *p_err   = OS_ERR_TMR_INACTIVE;
 274:uCOS-III\Source/os_tmr.c ****              success = DEF_FALSE;
 275:uCOS-III\Source/os_tmr.c ****              break;
 276:uCOS-III\Source/os_tmr.c **** 
 277:uCOS-III\Source/os_tmr.c ****         default:
 278:uCOS-III\Source/os_tmr.c ****              OSSchedUnlock(&err);
 279:uCOS-III\Source/os_tmr.c ****             *p_err   = OS_ERR_TMR_INVALID_STATE;
 280:uCOS-III\Source/os_tmr.c ****              success = DEF_FALSE;
 281:uCOS-III\Source/os_tmr.c ****              break;
 282:uCOS-III\Source/os_tmr.c ****     }
 283:uCOS-III\Source/os_tmr.c ****     return (success);
 284:uCOS-III\Source/os_tmr.c **** }
 285:uCOS-III\Source/os_tmr.c **** #endif
 286:uCOS-III\Source/os_tmr.c **** 
 287:uCOS-III\Source/os_tmr.c **** /*$PAGE*/
 288:uCOS-III\Source/os_tmr.c **** /*
 289:uCOS-III\Source/os_tmr.c **** ***************************************************************************************************
 290:uCOS-III\Source/os_tmr.c **** *                                    GET HOW MUCH TIME IS LEFT BEFORE A TIMER EXPIRES
 291:uCOS-III\Source/os_tmr.c **** *
 292:uCOS-III\Source/os_tmr.c **** * Description: This function is called to get the number of ticks before a timer times out.
 293:uCOS-III\Source/os_tmr.c **** *
 294:uCOS-III\Source/os_tmr.c **** * Arguments  : p_tmr    Is a pointer to the timer to obtain the remaining time from.
 295:uCOS-III\Source/os_tmr.c **** *
 296:uCOS-III\Source/os_tmr.c **** *              p_err    Is a pointer to an error code.  '*p_err' will contain one of the following:
 297:uCOS-III\Source/os_tmr.c **** *
 298:uCOS-III\Source/os_tmr.c **** *                           OS_ERR_NONE
 299:uCOS-III\Source/os_tmr.c **** *                           OS_ERR_OBJ_TYPE           'p_tmr' is not pointing to a timer
 300:uCOS-III\Source/os_tmr.c **** *                           OS_ERR_TMR_INVALID        'p_tmr' is a NULL pointer
 301:uCOS-III\Source/os_tmr.c **** *                           OS_ERR_TMR_ISR            if the call was made from an ISR
 302:uCOS-III\Source/os_tmr.c **** *                           OS_ERR_TMR_INACTIVE       'p_tmr' points to a timer that is not active
 303:uCOS-III\Source/os_tmr.c **** *                           OS_ERR_TMR_INVALID_STATE  the timer is in an invalid state
 304:uCOS-III\Source/os_tmr.c **** *
 305:uCOS-III\Source/os_tmr.c **** * Returns    : The time remaining for the timer to expire.  The time represents 'timer' increments.
 306:uCOS-III\Source/os_tmr.c **** *              OS_TmrTask() is signaled every 1/10 of a second then the returned value represents t
 307:uCOS-III\Source/os_tmr.c **** *              a second remaining before the timer expires.
 308:uCOS-III\Source/os_tmr.c **** ***************************************************************************************************
 309:uCOS-III\Source/os_tmr.c **** */
 310:uCOS-III\Source/os_tmr.c **** 
 311:uCOS-III\Source/os_tmr.c **** OS_TICK  OSTmrRemainGet (OS_TMR  *p_tmr,
 312:uCOS-III\Source/os_tmr.c ****                          OS_ERR  *p_err)
 313:uCOS-III\Source/os_tmr.c **** {
  28              		.loc 1 313 0
  29              		.cfi_startproc
ARM GAS  C:\Users\jorti\AppData\Local\Temp\ccmiXXpF.s 			page 7


  30              		@ args = 0, pretend = 0, frame = 8
  31              		@ frame_needed = 0, uses_anonymous_args = 0
  32              	.LVL0:
 314:uCOS-III\Source/os_tmr.c ****     OS_TICK  remain;
 315:uCOS-III\Source/os_tmr.c ****     OS_ERR   err;
 316:uCOS-III\Source/os_tmr.c **** 
 317:uCOS-III\Source/os_tmr.c **** 
 318:uCOS-III\Source/os_tmr.c **** 
 319:uCOS-III\Source/os_tmr.c **** #ifdef OS_SAFETY_CRITICAL
 320:uCOS-III\Source/os_tmr.c ****     if (p_err == (OS_ERR *)0) {
 321:uCOS-III\Source/os_tmr.c ****         OS_SAFETY_CRITICAL_EXCEPTION();
 322:uCOS-III\Source/os_tmr.c ****         return ((OS_TICK)0);
 323:uCOS-III\Source/os_tmr.c ****     }
 324:uCOS-III\Source/os_tmr.c **** #endif
 325:uCOS-III\Source/os_tmr.c **** 
 326:uCOS-III\Source/os_tmr.c **** #if OS_CFG_CALLED_FROM_ISR_CHK_EN > 0u
 327:uCOS-III\Source/os_tmr.c ****     if (OSIntNestingCtr > (OS_NESTING_CTR)0) {              /* See if trying to call from an ISR   
  33              		.loc 1 327 0
  34 0000 2A4B     		ldr	r3, .L15
  35 0002 1B78     		ldrb	r3, [r3]	@ zero_extendqisi2
  36 0004 23B1     		cbz	r3, .L2
 328:uCOS-III\Source/os_tmr.c ****        *p_err = OS_ERR_TMR_ISR;
  37              		.loc 1 328 0
  38 0006 47F24333 		movw	r3, #29507
  39 000a 0B80     		strh	r3, [r1]	@ movhi
 329:uCOS-III\Source/os_tmr.c ****         return ((OS_TICK)0);
  40              		.loc 1 329 0
  41 000c 0020     		movs	r0, #0
  42              	.LVL1:
 330:uCOS-III\Source/os_tmr.c ****     }
 331:uCOS-III\Source/os_tmr.c **** #endif
 332:uCOS-III\Source/os_tmr.c **** 
 333:uCOS-III\Source/os_tmr.c **** #if OS_CFG_ARG_CHK_EN > 0u
 334:uCOS-III\Source/os_tmr.c ****     if (p_tmr == (OS_TMR *)0) {
 335:uCOS-III\Source/os_tmr.c ****        *p_err = OS_ERR_TMR_INVALID;
 336:uCOS-III\Source/os_tmr.c ****         return ((OS_TICK)0);
 337:uCOS-III\Source/os_tmr.c ****     }
 338:uCOS-III\Source/os_tmr.c **** #endif
 339:uCOS-III\Source/os_tmr.c **** 
 340:uCOS-III\Source/os_tmr.c **** #if OS_CFG_OBJ_TYPE_CHK_EN > 0u
 341:uCOS-III\Source/os_tmr.c ****     if (p_tmr->Type != OS_OBJ_TYPE_TMR) {                   /* Make sure timer was created         
 342:uCOS-III\Source/os_tmr.c ****        *p_err = OS_ERR_OBJ_TYPE;
 343:uCOS-III\Source/os_tmr.c ****         return ((OS_TICK)0);
 344:uCOS-III\Source/os_tmr.c ****     }
 345:uCOS-III\Source/os_tmr.c **** #endif
 346:uCOS-III\Source/os_tmr.c **** 
 347:uCOS-III\Source/os_tmr.c ****     OSSchedLock(&err);
 348:uCOS-III\Source/os_tmr.c ****     switch (p_tmr->State) {
 349:uCOS-III\Source/os_tmr.c ****         case OS_TMR_STATE_RUNNING:
 350:uCOS-III\Source/os_tmr.c ****              remain        = p_tmr->Match                   /* Determine how much time is left to t
 351:uCOS-III\Source/os_tmr.c ****                            - OSTmrTickCtr;
 352:uCOS-III\Source/os_tmr.c ****              p_tmr->Remain = remain;
 353:uCOS-III\Source/os_tmr.c ****              OSSchedUnlock(&err);
 354:uCOS-III\Source/os_tmr.c ****             *p_err         = OS_ERR_NONE;
 355:uCOS-III\Source/os_tmr.c ****              break;
 356:uCOS-III\Source/os_tmr.c **** 
 357:uCOS-III\Source/os_tmr.c ****         case OS_TMR_STATE_STOPPED:                          /* It's assumed that the timer has not 
ARM GAS  C:\Users\jorti\AppData\Local\Temp\ccmiXXpF.s 			page 8


 358:uCOS-III\Source/os_tmr.c ****              if (p_tmr->Opt == OS_OPT_TMR_PERIODIC) {
 359:uCOS-III\Source/os_tmr.c ****                  if (p_tmr->Dly == 0u) {
 360:uCOS-III\Source/os_tmr.c ****                      remain = p_tmr->Period;
 361:uCOS-III\Source/os_tmr.c ****                  } else {
 362:uCOS-III\Source/os_tmr.c ****                      remain = p_tmr->Dly;
 363:uCOS-III\Source/os_tmr.c ****                  }
 364:uCOS-III\Source/os_tmr.c ****              } else {
 365:uCOS-III\Source/os_tmr.c ****                  remain = p_tmr->Dly;
 366:uCOS-III\Source/os_tmr.c ****              }
 367:uCOS-III\Source/os_tmr.c ****              p_tmr->Remain = remain;
 368:uCOS-III\Source/os_tmr.c ****              OSSchedUnlock(&err);
 369:uCOS-III\Source/os_tmr.c ****             *p_err         = OS_ERR_NONE;
 370:uCOS-III\Source/os_tmr.c ****              break;
 371:uCOS-III\Source/os_tmr.c **** 
 372:uCOS-III\Source/os_tmr.c ****         case OS_TMR_STATE_COMPLETED:                        /* Only ONE-SHOT that timed out can be 
 373:uCOS-III\Source/os_tmr.c ****              OSSchedUnlock(&err);
 374:uCOS-III\Source/os_tmr.c ****             *p_err  = OS_ERR_NONE;
 375:uCOS-III\Source/os_tmr.c ****              remain = (OS_TICK)0;
 376:uCOS-III\Source/os_tmr.c ****              break;
 377:uCOS-III\Source/os_tmr.c **** 
 378:uCOS-III\Source/os_tmr.c ****         case OS_TMR_STATE_UNUSED:
 379:uCOS-III\Source/os_tmr.c ****              OSSchedUnlock(&err);
 380:uCOS-III\Source/os_tmr.c ****             *p_err  = OS_ERR_TMR_INACTIVE;
 381:uCOS-III\Source/os_tmr.c ****              remain = (OS_TICK)0;
 382:uCOS-III\Source/os_tmr.c ****              break;
 383:uCOS-III\Source/os_tmr.c **** 
 384:uCOS-III\Source/os_tmr.c ****         default:
 385:uCOS-III\Source/os_tmr.c ****              OSSchedUnlock(&err);
 386:uCOS-III\Source/os_tmr.c ****             *p_err = OS_ERR_TMR_INVALID_STATE;
 387:uCOS-III\Source/os_tmr.c ****              remain = (OS_TICK)0;
 388:uCOS-III\Source/os_tmr.c ****              break;
 389:uCOS-III\Source/os_tmr.c ****     }
 390:uCOS-III\Source/os_tmr.c ****     return (remain);
 391:uCOS-III\Source/os_tmr.c **** }
  43              		.loc 1 391 0
  44 000e 7047     		bx	lr
  45              	.LVL2:
  46              	.L2:
 334:uCOS-III\Source/os_tmr.c ****        *p_err = OS_ERR_TMR_INVALID;
  47              		.loc 1 334 0
  48 0010 18B9     		cbnz	r0, .L4
 335:uCOS-III\Source/os_tmr.c ****         return ((OS_TICK)0);
  49              		.loc 1 335 0
  50 0012 47F24233 		movw	r3, #29506
  51 0016 0B80     		strh	r3, [r1]	@ movhi
 336:uCOS-III\Source/os_tmr.c ****     }
  52              		.loc 1 336 0
  53 0018 7047     		bx	lr
  54              	.L4:
 313:uCOS-III\Source/os_tmr.c ****     OS_TICK  remain;
  55              		.loc 1 313 0
  56 001a 70B5     		push	{r4, r5, r6, lr}
  57              		.cfi_def_cfa_offset 16
  58              		.cfi_offset 4, -16
  59              		.cfi_offset 5, -12
  60              		.cfi_offset 6, -8
  61              		.cfi_offset 14, -4
ARM GAS  C:\Users\jorti\AppData\Local\Temp\ccmiXXpF.s 			page 9


  62 001c 82B0     		sub	sp, sp, #8
  63              		.cfi_def_cfa_offset 24
  64 001e 0E46     		mov	r6, r1
  65 0020 0546     		mov	r5, r0
 347:uCOS-III\Source/os_tmr.c ****     switch (p_tmr->State) {
  66              		.loc 1 347 0
  67 0022 0DF10600 		add	r0, sp, #6
  68              	.LVL3:
  69 0026 FFF7FEFF 		bl	OSSchedLock
  70              	.LVL4:
 348:uCOS-III\Source/os_tmr.c ****         case OS_TMR_STATE_RUNNING:
  71              		.loc 1 348 0
  72 002a 95F82A30 		ldrb	r3, [r5, #42]	@ zero_extendqisi2
  73 002e 032B     		cmp	r3, #3
  74 0030 31D8     		bhi	.L5
  75 0032 DFE803F0 		tbb	[pc, r3]
  76              	.L7:
  77 0036 27       		.byte	(.L6-.L7)/2
  78 0037 0F       		.byte	(.L8-.L7)/2
  79 0038 02       		.byte	(.L9-.L7)/2
  80 0039 20       		.byte	(.L10-.L7)/2
  81              		.p2align 1
  82              	.L9:
 350:uCOS-III\Source/os_tmr.c ****                            - OSTmrTickCtr;
  83              		.loc 1 350 0
  84 003a AB69     		ldr	r3, [r5, #24]
 351:uCOS-III\Source/os_tmr.c ****              p_tmr->Remain = remain;
  85              		.loc 1 351 0
  86 003c 1C4A     		ldr	r2, .L15+4
  87 003e 1068     		ldr	r0, [r2]
 350:uCOS-III\Source/os_tmr.c ****                            - OSTmrTickCtr;
  88              		.loc 1 350 0
  89 0040 1C1A     		subs	r4, r3, r0
  90              	.LVL5:
 352:uCOS-III\Source/os_tmr.c ****              OSSchedUnlock(&err);
  91              		.loc 1 352 0
  92 0042 EC61     		str	r4, [r5, #28]
 353:uCOS-III\Source/os_tmr.c ****             *p_err         = OS_ERR_NONE;
  93              		.loc 1 353 0
  94 0044 0DF10600 		add	r0, sp, #6
  95 0048 FFF7FEFF 		bl	OSSchedUnlock
  96              	.LVL6:
 354:uCOS-III\Source/os_tmr.c ****              break;
  97              		.loc 1 354 0
  98 004c 0023     		movs	r3, #0
  99 004e 3380     		strh	r3, [r6]	@ movhi
 350:uCOS-III\Source/os_tmr.c ****                            - OSTmrTickCtr;
 100              		.loc 1 350 0
 101 0050 2046     		mov	r0, r4
 355:uCOS-III\Source/os_tmr.c **** 
 102              		.loc 1 355 0
 103 0052 28E0     		b	.L3
 104              	.LVL7:
 105              	.L8:
 358:uCOS-III\Source/os_tmr.c ****                  if (p_tmr->Dly == 0u) {
 106              		.loc 1 358 0
 107 0054 2B8D     		ldrh	r3, [r5, #40]
ARM GAS  C:\Users\jorti\AppData\Local\Temp\ccmiXXpF.s 			page 10


 108 0056 022B     		cmp	r3, #2
 109 0058 03D1     		bne	.L11
 359:uCOS-III\Source/os_tmr.c ****                      remain = p_tmr->Period;
 110              		.loc 1 359 0
 111 005a 2C6A     		ldr	r4, [r5, #32]
 112 005c 14B9     		cbnz	r4, .L12
 360:uCOS-III\Source/os_tmr.c ****                  } else {
 113              		.loc 1 360 0
 114 005e 6C6A     		ldr	r4, [r5, #36]
 115              	.LVL8:
 116 0060 00E0     		b	.L12
 117              	.LVL9:
 118              	.L11:
 365:uCOS-III\Source/os_tmr.c ****              }
 119              		.loc 1 365 0
 120 0062 2C6A     		ldr	r4, [r5, #32]
 121              	.LVL10:
 122              	.L12:
 367:uCOS-III\Source/os_tmr.c ****              OSSchedUnlock(&err);
 123              		.loc 1 367 0
 124 0064 EC61     		str	r4, [r5, #28]
 368:uCOS-III\Source/os_tmr.c ****             *p_err         = OS_ERR_NONE;
 125              		.loc 1 368 0
 126 0066 0DF10600 		add	r0, sp, #6
 127 006a FFF7FEFF 		bl	OSSchedUnlock
 128              	.LVL11:
 369:uCOS-III\Source/os_tmr.c ****              break;
 129              		.loc 1 369 0
 130 006e 0023     		movs	r3, #0
 131 0070 3380     		strh	r3, [r6]	@ movhi
 370:uCOS-III\Source/os_tmr.c **** 
 132              		.loc 1 370 0
 133 0072 2046     		mov	r0, r4
 134 0074 17E0     		b	.L3
 135              	.LVL12:
 136              	.L10:
 373:uCOS-III\Source/os_tmr.c ****             *p_err  = OS_ERR_NONE;
 137              		.loc 1 373 0
 138 0076 0DF10600 		add	r0, sp, #6
 139 007a FFF7FEFF 		bl	OSSchedUnlock
 140              	.LVL13:
 374:uCOS-III\Source/os_tmr.c ****              remain = (OS_TICK)0;
 141              		.loc 1 374 0
 142 007e 0020     		movs	r0, #0
 143 0080 3080     		strh	r0, [r6]	@ movhi
 144              	.LVL14:
 376:uCOS-III\Source/os_tmr.c **** 
 145              		.loc 1 376 0
 146 0082 10E0     		b	.L3
 147              	.LVL15:
 148              	.L6:
 379:uCOS-III\Source/os_tmr.c ****             *p_err  = OS_ERR_TMR_INACTIVE;
 149              		.loc 1 379 0
 150 0084 0DF10600 		add	r0, sp, #6
 151 0088 FFF7FEFF 		bl	OSSchedUnlock
 152              	.LVL16:
 380:uCOS-III\Source/os_tmr.c ****              remain = (OS_TICK)0;
ARM GAS  C:\Users\jorti\AppData\Local\Temp\ccmiXXpF.s 			page 11


 153              		.loc 1 380 0
 154 008c 47F23D33 		movw	r3, #29501
 155 0090 3380     		strh	r3, [r6]	@ movhi
 156              	.LVL17:
 381:uCOS-III\Source/os_tmr.c ****              break;
 157              		.loc 1 381 0
 158 0092 0020     		movs	r0, #0
 382:uCOS-III\Source/os_tmr.c **** 
 159              		.loc 1 382 0
 160 0094 07E0     		b	.L3
 161              	.LVL18:
 162              	.L5:
 385:uCOS-III\Source/os_tmr.c ****             *p_err = OS_ERR_TMR_INVALID_STATE;
 163              		.loc 1 385 0
 164 0096 0DF10600 		add	r0, sp, #6
 165 009a FFF7FEFF 		bl	OSSchedUnlock
 166              	.LVL19:
 386:uCOS-III\Source/os_tmr.c ****              remain = (OS_TICK)0;
 167              		.loc 1 386 0
 168 009e 47F24133 		movw	r3, #29505
 169 00a2 3380     		strh	r3, [r6]	@ movhi
 170              	.LVL20:
 387:uCOS-III\Source/os_tmr.c ****              break;
 171              		.loc 1 387 0
 172 00a4 0020     		movs	r0, #0
 173              	.LVL21:
 174              	.L3:
 175              		.loc 1 391 0
 176 00a6 02B0     		add	sp, sp, #8
 177              		.cfi_def_cfa_offset 16
 178              		@ sp needed
 179 00a8 70BD     		pop	{r4, r5, r6, pc}
 180              	.LVL22:
 181              	.L16:
 182 00aa 00BF     		.align	2
 183              	.L15:
 184 00ac 00000000 		.word	OSIntNestingCtr
 185 00b0 00000000 		.word	OSTmrTickCtr
 186              		.cfi_endproc
 187              	.LFE3:
 188              		.size	OSTmrRemainGet, .-OSTmrRemainGet
 189              		.section	.text.OSTmrStateGet,"ax",%progbits
 190              		.align	2
 191              		.global	OSTmrStateGet
 192              		.thumb
 193              		.thumb_func
 194              		.type	OSTmrStateGet, %function
 195              	OSTmrStateGet:
 196              	.LFB5:
 392:uCOS-III\Source/os_tmr.c **** 
 393:uCOS-III\Source/os_tmr.c **** /*$PAGE*/
 394:uCOS-III\Source/os_tmr.c **** /*
 395:uCOS-III\Source/os_tmr.c **** ***************************************************************************************************
 396:uCOS-III\Source/os_tmr.c **** *                                                   START A TIMER
 397:uCOS-III\Source/os_tmr.c **** *
 398:uCOS-III\Source/os_tmr.c **** * Description: This function is called by your application code to start a timer.
 399:uCOS-III\Source/os_tmr.c **** *
ARM GAS  C:\Users\jorti\AppData\Local\Temp\ccmiXXpF.s 			page 12


 400:uCOS-III\Source/os_tmr.c **** * Arguments  : p_tmr    Is a pointer to an OS_TMR
 401:uCOS-III\Source/os_tmr.c **** *
 402:uCOS-III\Source/os_tmr.c **** *              p_err    Is a pointer to an error code.  '*p_err' will contain one of the following:
 403:uCOS-III\Source/os_tmr.c **** *
 404:uCOS-III\Source/os_tmr.c **** *                           OS_ERR_NONE
 405:uCOS-III\Source/os_tmr.c **** *                           OS_ERR_OBJ_TYPE            if 'p_tmr' is not pointing to a timer
 406:uCOS-III\Source/os_tmr.c **** *                           OS_ERR_TMR_INVALID
 407:uCOS-III\Source/os_tmr.c **** *                           OS_ERR_TMR_INACTIVE        if the timer was not created
 408:uCOS-III\Source/os_tmr.c **** *                           OS_ERR_TMR_INVALID_STATE   the timer is in an invalid state
 409:uCOS-III\Source/os_tmr.c **** *                           OS_ERR_TMR_ISR             if the call was made from an ISR
 410:uCOS-III\Source/os_tmr.c **** *
 411:uCOS-III\Source/os_tmr.c **** * Returns    : DEF_TRUE      is the timer was started
 412:uCOS-III\Source/os_tmr.c **** *              DEF_FALSE     if not or upon an error
 413:uCOS-III\Source/os_tmr.c **** *
 414:uCOS-III\Source/os_tmr.c **** * Note(s)    : 1) When starting/restarting a timer, regardless if it is in PERIODIC or ONE-SHOT mod
 415:uCOS-III\Source/os_tmr.c **** *                 linked to the timer wheel with the OS_OPT_LINK_DLY option. This option sets the i
 416:uCOS-III\Source/os_tmr.c **** *                 time for the timer. For timers in PERIODIC mode, subsequent expiration times are 
 417:uCOS-III\Source/os_tmr.c **** *                 the OS_TmrTask().
 418:uCOS-III\Source/os_tmr.c **** ***************************************************************************************************
 419:uCOS-III\Source/os_tmr.c **** */
 420:uCOS-III\Source/os_tmr.c **** 
 421:uCOS-III\Source/os_tmr.c **** CPU_BOOLEAN  OSTmrStart (OS_TMR  *p_tmr,
 422:uCOS-III\Source/os_tmr.c ****                          OS_ERR  *p_err)
 423:uCOS-III\Source/os_tmr.c **** {
 424:uCOS-III\Source/os_tmr.c ****     OS_ERR       err;
 425:uCOS-III\Source/os_tmr.c ****     CPU_BOOLEAN  success;
 426:uCOS-III\Source/os_tmr.c **** 
 427:uCOS-III\Source/os_tmr.c **** 
 428:uCOS-III\Source/os_tmr.c **** 
 429:uCOS-III\Source/os_tmr.c **** #ifdef OS_SAFETY_CRITICAL
 430:uCOS-III\Source/os_tmr.c ****     if (p_err == (OS_ERR *)0) {
 431:uCOS-III\Source/os_tmr.c ****         OS_SAFETY_CRITICAL_EXCEPTION();
 432:uCOS-III\Source/os_tmr.c ****         return (DEF_FALSE);
 433:uCOS-III\Source/os_tmr.c ****     }
 434:uCOS-III\Source/os_tmr.c **** #endif
 435:uCOS-III\Source/os_tmr.c **** 
 436:uCOS-III\Source/os_tmr.c **** #if OS_CFG_CALLED_FROM_ISR_CHK_EN > 0u
 437:uCOS-III\Source/os_tmr.c ****     if (OSIntNestingCtr > (OS_NESTING_CTR)0) {              /* See if trying to call from an ISR   
 438:uCOS-III\Source/os_tmr.c ****        *p_err = OS_ERR_TMR_ISR;
 439:uCOS-III\Source/os_tmr.c ****         return (DEF_FALSE);
 440:uCOS-III\Source/os_tmr.c ****     }
 441:uCOS-III\Source/os_tmr.c **** #endif
 442:uCOS-III\Source/os_tmr.c **** 
 443:uCOS-III\Source/os_tmr.c **** #if OS_CFG_ARG_CHK_EN > 0u
 444:uCOS-III\Source/os_tmr.c ****     if (p_tmr == (OS_TMR *)0) {
 445:uCOS-III\Source/os_tmr.c ****        *p_err = OS_ERR_TMR_INVALID;
 446:uCOS-III\Source/os_tmr.c ****         return (DEF_FALSE);
 447:uCOS-III\Source/os_tmr.c ****     }
 448:uCOS-III\Source/os_tmr.c **** #endif
 449:uCOS-III\Source/os_tmr.c **** 
 450:uCOS-III\Source/os_tmr.c **** #if OS_CFG_OBJ_TYPE_CHK_EN > 0u
 451:uCOS-III\Source/os_tmr.c ****     if (p_tmr->Type != OS_OBJ_TYPE_TMR) {                   /* Make sure timer was created         
 452:uCOS-III\Source/os_tmr.c ****        *p_err = OS_ERR_OBJ_TYPE;
 453:uCOS-III\Source/os_tmr.c ****         return (DEF_FALSE);
 454:uCOS-III\Source/os_tmr.c ****     }
 455:uCOS-III\Source/os_tmr.c **** #endif
 456:uCOS-III\Source/os_tmr.c **** 
ARM GAS  C:\Users\jorti\AppData\Local\Temp\ccmiXXpF.s 			page 13


 457:uCOS-III\Source/os_tmr.c ****     OSSchedLock(&err);
 458:uCOS-III\Source/os_tmr.c ****     switch (p_tmr->State) {
 459:uCOS-III\Source/os_tmr.c ****         case OS_TMR_STATE_RUNNING:                          /* Restart the timer                   
 460:uCOS-III\Source/os_tmr.c ****              OS_TmrUnlink(p_tmr);                           /* ... Stop the timer                  
 461:uCOS-III\Source/os_tmr.c ****              OS_TmrLink(p_tmr, OS_OPT_LINK_DLY);            /* ... Link timer to timer wheel (see N
 462:uCOS-III\Source/os_tmr.c ****              OSSchedUnlock(&err);
 463:uCOS-III\Source/os_tmr.c ****             *p_err   = OS_ERR_NONE;
 464:uCOS-III\Source/os_tmr.c ****              success = DEF_TRUE;
 465:uCOS-III\Source/os_tmr.c ****              break;
 466:uCOS-III\Source/os_tmr.c **** 
 467:uCOS-III\Source/os_tmr.c ****         case OS_TMR_STATE_STOPPED:                          /* Start the timer                     
 468:uCOS-III\Source/os_tmr.c ****         case OS_TMR_STATE_COMPLETED:
 469:uCOS-III\Source/os_tmr.c ****              OS_TmrLink(p_tmr, OS_OPT_LINK_DLY);            /* ... Link timer to timer wheel (see N
 470:uCOS-III\Source/os_tmr.c ****              OSSchedUnlock(&err);
 471:uCOS-III\Source/os_tmr.c ****             *p_err   = OS_ERR_NONE;
 472:uCOS-III\Source/os_tmr.c ****              success = DEF_TRUE;
 473:uCOS-III\Source/os_tmr.c ****              break;
 474:uCOS-III\Source/os_tmr.c **** 
 475:uCOS-III\Source/os_tmr.c ****         case OS_TMR_STATE_UNUSED:                           /* Timer not created                   
 476:uCOS-III\Source/os_tmr.c ****              OSSchedUnlock(&err);
 477:uCOS-III\Source/os_tmr.c ****             *p_err   = OS_ERR_TMR_INACTIVE;
 478:uCOS-III\Source/os_tmr.c ****              success = DEF_FALSE;
 479:uCOS-III\Source/os_tmr.c ****              break;
 480:uCOS-III\Source/os_tmr.c **** 
 481:uCOS-III\Source/os_tmr.c ****         default:
 482:uCOS-III\Source/os_tmr.c ****              OSSchedUnlock(&err);
 483:uCOS-III\Source/os_tmr.c ****             *p_err = OS_ERR_TMR_INVALID_STATE;
 484:uCOS-III\Source/os_tmr.c ****              success = DEF_FALSE;
 485:uCOS-III\Source/os_tmr.c ****              break;
 486:uCOS-III\Source/os_tmr.c ****     }
 487:uCOS-III\Source/os_tmr.c ****     return (success);
 488:uCOS-III\Source/os_tmr.c **** }
 489:uCOS-III\Source/os_tmr.c **** 
 490:uCOS-III\Source/os_tmr.c **** /*$PAGE*/
 491:uCOS-III\Source/os_tmr.c **** /*
 492:uCOS-III\Source/os_tmr.c **** ***************************************************************************************************
 493:uCOS-III\Source/os_tmr.c **** *                                           FIND OUT WHAT STATE A TIMER IS IN
 494:uCOS-III\Source/os_tmr.c **** *
 495:uCOS-III\Source/os_tmr.c **** * Description: This function is called to determine what state the timer is in:
 496:uCOS-III\Source/os_tmr.c **** *
 497:uCOS-III\Source/os_tmr.c **** *                  OS_TMR_STATE_UNUSED     the timer has not been created
 498:uCOS-III\Source/os_tmr.c **** *                  OS_TMR_STATE_STOPPED    the timer has been created but has not been started or h
 499:uCOS-III\Source/os_tmr.c **** *                  OS_TMR_COMPLETED        the timer is in ONE-SHOT mode and has completed it's tim
 500:uCOS-III\Source/os_tmr.c **** *                  OS_TMR_RUNNING          the timer is currently running
 501:uCOS-III\Source/os_tmr.c **** *
 502:uCOS-III\Source/os_tmr.c **** * Arguments  : p_tmr    Is a pointer to the desired timer
 503:uCOS-III\Source/os_tmr.c **** *
 504:uCOS-III\Source/os_tmr.c **** *              p_err    Is a pointer to an error code.  '*p_err' will contain one of the following:
 505:uCOS-III\Source/os_tmr.c **** *
 506:uCOS-III\Source/os_tmr.c **** *                           OS_ERR_NONE
 507:uCOS-III\Source/os_tmr.c **** *                           OS_ERR_OBJ_TYPE            if 'p_tmr' is not pointing to a timer
 508:uCOS-III\Source/os_tmr.c **** *                           OS_ERR_TMR_INVALID        'p_tmr' is a NULL pointer
 509:uCOS-III\Source/os_tmr.c **** *                           OS_ERR_TMR_INVALID_STATE  if the timer is not in a valid state
 510:uCOS-III\Source/os_tmr.c **** *                           OS_ERR_TMR_ISR            if the call was made from an ISR
 511:uCOS-III\Source/os_tmr.c **** *
 512:uCOS-III\Source/os_tmr.c **** * Returns    : The current state of the timer (see description).
 513:uCOS-III\Source/os_tmr.c **** ***************************************************************************************************
ARM GAS  C:\Users\jorti\AppData\Local\Temp\ccmiXXpF.s 			page 14


 514:uCOS-III\Source/os_tmr.c **** */
 515:uCOS-III\Source/os_tmr.c **** 
 516:uCOS-III\Source/os_tmr.c **** OS_STATE  OSTmrStateGet (OS_TMR  *p_tmr,
 517:uCOS-III\Source/os_tmr.c ****                          OS_ERR  *p_err)
 518:uCOS-III\Source/os_tmr.c **** {
 197              		.loc 1 518 0
 198              		.cfi_startproc
 199              		@ args = 0, pretend = 0, frame = 0
 200              		@ frame_needed = 0, uses_anonymous_args = 0
 201              	.LVL23:
 202 0000 38B5     		push	{r3, r4, r5, lr}
 203              		.cfi_def_cfa_offset 16
 204              		.cfi_offset 3, -16
 205              		.cfi_offset 4, -12
 206              		.cfi_offset 5, -8
 207              		.cfi_offset 14, -4
 208              	.LVL24:
 519:uCOS-III\Source/os_tmr.c ****     OS_STATE  state;
 520:uCOS-III\Source/os_tmr.c ****     CPU_SR_ALLOC();
 521:uCOS-III\Source/os_tmr.c **** 
 522:uCOS-III\Source/os_tmr.c **** 
 523:uCOS-III\Source/os_tmr.c **** 
 524:uCOS-III\Source/os_tmr.c **** #ifdef OS_SAFETY_CRITICAL
 525:uCOS-III\Source/os_tmr.c ****     if (p_err == (OS_ERR *)0) {
 526:uCOS-III\Source/os_tmr.c ****         OS_SAFETY_CRITICAL_EXCEPTION();
 527:uCOS-III\Source/os_tmr.c ****         return (OS_TMR_STATE_UNUSED);
 528:uCOS-III\Source/os_tmr.c ****     }
 529:uCOS-III\Source/os_tmr.c **** #endif
 530:uCOS-III\Source/os_tmr.c **** 
 531:uCOS-III\Source/os_tmr.c **** #if OS_CFG_CALLED_FROM_ISR_CHK_EN > 0u
 532:uCOS-III\Source/os_tmr.c ****     if (OSIntNestingCtr > (OS_NESTING_CTR)0) {              /* See if trying to call from an ISR   
 209              		.loc 1 532 0
 210 0002 104B     		ldr	r3, .L25
 211 0004 1B78     		ldrb	r3, [r3]	@ zero_extendqisi2
 212 0006 23B1     		cbz	r3, .L18
 533:uCOS-III\Source/os_tmr.c ****        *p_err = OS_ERR_TMR_ISR;
 213              		.loc 1 533 0
 214 0008 47F24333 		movw	r3, #29507
 215 000c 0B80     		strh	r3, [r1]	@ movhi
 534:uCOS-III\Source/os_tmr.c ****         return (OS_TMR_STATE_UNUSED);
 216              		.loc 1 534 0
 217 000e 0023     		movs	r3, #0
 218 0010 15E0     		b	.L19
 219              	.L18:
 535:uCOS-III\Source/os_tmr.c ****     }
 536:uCOS-III\Source/os_tmr.c **** #endif
 537:uCOS-III\Source/os_tmr.c **** 
 538:uCOS-III\Source/os_tmr.c **** #if OS_CFG_ARG_CHK_EN > 0u
 539:uCOS-III\Source/os_tmr.c ****     if (p_tmr == (OS_TMR *)0) {
 220              		.loc 1 539 0
 221 0012 18B9     		cbnz	r0, .L20
 540:uCOS-III\Source/os_tmr.c ****        *p_err = OS_ERR_TMR_INVALID;
 222              		.loc 1 540 0
 223 0014 47F24232 		movw	r2, #29506
 224 0018 0A80     		strh	r2, [r1]	@ movhi
 541:uCOS-III\Source/os_tmr.c ****         return (OS_TMR_STATE_UNUSED);
 225              		.loc 1 541 0
ARM GAS  C:\Users\jorti\AppData\Local\Temp\ccmiXXpF.s 			page 15


 226 001a 10E0     		b	.L19
 227              	.L20:
 228 001c 0D46     		mov	r5, r1
 229 001e 0446     		mov	r4, r0
 542:uCOS-III\Source/os_tmr.c ****     }
 543:uCOS-III\Source/os_tmr.c **** #endif
 544:uCOS-III\Source/os_tmr.c **** 
 545:uCOS-III\Source/os_tmr.c **** #if OS_CFG_OBJ_TYPE_CHK_EN > 0u
 546:uCOS-III\Source/os_tmr.c ****     if (p_tmr->Type != OS_OBJ_TYPE_TMR) {                   /* Make sure timer was created         
 547:uCOS-III\Source/os_tmr.c ****        *p_err = OS_ERR_OBJ_TYPE;
 548:uCOS-III\Source/os_tmr.c ****         return (OS_TMR_STATE_UNUSED);
 549:uCOS-III\Source/os_tmr.c ****     }
 550:uCOS-III\Source/os_tmr.c **** #endif
 551:uCOS-III\Source/os_tmr.c **** 
 552:uCOS-III\Source/os_tmr.c ****     CPU_CRITICAL_ENTER();
 230              		.loc 1 552 0
 231 0020 FFF7FEFF 		bl	CPU_SR_Save
 232              	.LVL25:
 553:uCOS-III\Source/os_tmr.c ****     state = p_tmr->State;
 233              		.loc 1 553 0
 234 0024 94F82A40 		ldrb	r4, [r4, #42]	@ zero_extendqisi2
 235              	.LVL26:
 554:uCOS-III\Source/os_tmr.c ****     switch (state) {
 236              		.loc 1 554 0
 237 0028 032C     		cmp	r4, #3
 238 002a 02D8     		bhi	.L21
 555:uCOS-III\Source/os_tmr.c ****         case OS_TMR_STATE_UNUSED:
 556:uCOS-III\Source/os_tmr.c ****         case OS_TMR_STATE_STOPPED:
 557:uCOS-III\Source/os_tmr.c ****         case OS_TMR_STATE_COMPLETED:
 558:uCOS-III\Source/os_tmr.c ****         case OS_TMR_STATE_RUNNING:
 559:uCOS-III\Source/os_tmr.c ****             *p_err = OS_ERR_NONE;
 239              		.loc 1 559 0
 240 002c 0023     		movs	r3, #0
 241 002e 2B80     		strh	r3, [r5]	@ movhi
 560:uCOS-III\Source/os_tmr.c ****              break;
 242              		.loc 1 560 0
 243 0030 02E0     		b	.L23
 244              	.L21:
 561:uCOS-III\Source/os_tmr.c **** 
 562:uCOS-III\Source/os_tmr.c ****         default:
 563:uCOS-III\Source/os_tmr.c ****             *p_err = OS_ERR_TMR_INVALID_STATE;
 245              		.loc 1 563 0
 246 0032 47F24133 		movw	r3, #29505
 247 0036 2B80     		strh	r3, [r5]	@ movhi
 248              	.L23:
 564:uCOS-III\Source/os_tmr.c ****              break;
 565:uCOS-III\Source/os_tmr.c ****     }
 566:uCOS-III\Source/os_tmr.c ****     CPU_CRITICAL_EXIT();
 249              		.loc 1 566 0
 250 0038 FFF7FEFF 		bl	CPU_SR_Restore
 251              	.LVL27:
 567:uCOS-III\Source/os_tmr.c ****     return (state);
 252              		.loc 1 567 0
 253 003c 2346     		mov	r3, r4
 254              	.LVL28:
 255              	.L19:
 568:uCOS-III\Source/os_tmr.c **** }
ARM GAS  C:\Users\jorti\AppData\Local\Temp\ccmiXXpF.s 			page 16


 256              		.loc 1 568 0
 257 003e 1846     		mov	r0, r3
 258 0040 38BD     		pop	{r3, r4, r5, pc}
 259              	.L26:
 260 0042 00BF     		.align	2
 261              	.L25:
 262 0044 00000000 		.word	OSIntNestingCtr
 263              		.cfi_endproc
 264              	.LFE5:
 265              		.size	OSTmrStateGet, .-OSTmrStateGet
 266              		.section	.text.OS_TmrClr,"ax",%progbits
 267              		.align	2
 268              		.global	OS_TmrClr
 269              		.thumb
 270              		.thumb_func
 271              		.type	OS_TmrClr, %function
 272              	OS_TmrClr:
 273              	.LFB7:
 569:uCOS-III\Source/os_tmr.c **** 
 570:uCOS-III\Source/os_tmr.c **** /*$PAGE*/
 571:uCOS-III\Source/os_tmr.c **** /*
 572:uCOS-III\Source/os_tmr.c **** ***************************************************************************************************
 573:uCOS-III\Source/os_tmr.c **** *                                                    STOP A TIMER
 574:uCOS-III\Source/os_tmr.c **** *
 575:uCOS-III\Source/os_tmr.c **** * Description: This function is called by your application code to stop a timer.
 576:uCOS-III\Source/os_tmr.c **** *
 577:uCOS-III\Source/os_tmr.c **** * Arguments  : p_tmr          Is a pointer to the timer to stop.
 578:uCOS-III\Source/os_tmr.c **** *
 579:uCOS-III\Source/os_tmr.c **** *              opt           Allows you to specify an option to this functions which can be:
 580:uCOS-III\Source/os_tmr.c **** *
 581:uCOS-III\Source/os_tmr.c **** *                               OS_OPT_TMR_NONE            Do nothing special but stop the timer
 582:uCOS-III\Source/os_tmr.c **** *                               OS_OPT_TMR_CALLBACK        Execute the callback function, pass it t
 583:uCOS-III\Source/os_tmr.c **** *                                                          specified when the timer was created.
 584:uCOS-III\Source/os_tmr.c **** *                               OS_OPT_TMR_CALLBACK_ARG    Execute the callback function, pass it t
 585:uCOS-III\Source/os_tmr.c **** *                                                          specified in THIS function call
 586:uCOS-III\Source/os_tmr.c **** *
 587:uCOS-III\Source/os_tmr.c **** *              callback_arg  Is a pointer to a 'new' callback argument that can be passed to the ca
 588:uCOS-III\Source/os_tmr.c **** *                               instead of the timer's callback argument.  In other words, use 'cal
 589:uCOS-III\Source/os_tmr.c **** *                               THIS function INSTEAD of p_tmr->OSTmrCallbackArg
 590:uCOS-III\Source/os_tmr.c **** *
 591:uCOS-III\Source/os_tmr.c **** *              p_err          Is a pointer to an error code.  '*p_err' will contain one of the foll
 592:uCOS-III\Source/os_tmr.c **** *                               OS_ERR_NONE
 593:uCOS-III\Source/os_tmr.c **** *                               OS_ERR_OBJ_TYPE            if 'p_tmr' is not pointing to a timer
 594:uCOS-III\Source/os_tmr.c **** *                               OS_ERR_OPT_INVALID         if you specified an invalid option for '
 595:uCOS-III\Source/os_tmr.c **** *                               OS_ERR_TMR_INACTIVE        if the timer was not created
 596:uCOS-III\Source/os_tmr.c **** *                               OS_ERR_TMR_INVALID         'p_tmr' is a NULL pointer
 597:uCOS-III\Source/os_tmr.c **** *                               OS_ERR_TMR_INVALID_STATE   the timer is in an invalid state
 598:uCOS-III\Source/os_tmr.c **** *                               OS_ERR_TMR_ISR             if the function was called from an ISR
 599:uCOS-III\Source/os_tmr.c **** *                               OS_ERR_TMR_NO_CALLBACK     if the timer does not have a callback fu
 600:uCOS-III\Source/os_tmr.c **** *                               OS_ERR_TMR_STOPPED         if the timer was already stopped
 601:uCOS-III\Source/os_tmr.c **** *
 602:uCOS-III\Source/os_tmr.c **** * Returns    : DEF_TRUE       If we stopped the timer (if the timer is already stopped, we also ret
 603:uCOS-III\Source/os_tmr.c **** *              DEF_FALSE      If not
 604:uCOS-III\Source/os_tmr.c **** ***************************************************************************************************
 605:uCOS-III\Source/os_tmr.c **** */
 606:uCOS-III\Source/os_tmr.c **** 
 607:uCOS-III\Source/os_tmr.c **** CPU_BOOLEAN  OSTmrStop (OS_TMR  *p_tmr,
ARM GAS  C:\Users\jorti\AppData\Local\Temp\ccmiXXpF.s 			page 17


 608:uCOS-III\Source/os_tmr.c ****                         OS_OPT   opt,
 609:uCOS-III\Source/os_tmr.c ****                         void    *p_callback_arg,
 610:uCOS-III\Source/os_tmr.c ****                         OS_ERR  *p_err)
 611:uCOS-III\Source/os_tmr.c **** {
 612:uCOS-III\Source/os_tmr.c ****     OS_TMR_CALLBACK_PTR  p_fnct;
 613:uCOS-III\Source/os_tmr.c ****     OS_ERR               err;
 614:uCOS-III\Source/os_tmr.c ****     CPU_BOOLEAN          success;
 615:uCOS-III\Source/os_tmr.c **** 
 616:uCOS-III\Source/os_tmr.c **** 
 617:uCOS-III\Source/os_tmr.c **** 
 618:uCOS-III\Source/os_tmr.c **** #ifdef OS_SAFETY_CRITICAL
 619:uCOS-III\Source/os_tmr.c ****     if (p_err == (OS_ERR *)0) {
 620:uCOS-III\Source/os_tmr.c ****         OS_SAFETY_CRITICAL_EXCEPTION();
 621:uCOS-III\Source/os_tmr.c ****         return (DEF_FALSE);
 622:uCOS-III\Source/os_tmr.c ****     }
 623:uCOS-III\Source/os_tmr.c **** #endif
 624:uCOS-III\Source/os_tmr.c **** 
 625:uCOS-III\Source/os_tmr.c **** #if OS_CFG_CALLED_FROM_ISR_CHK_EN > 0u
 626:uCOS-III\Source/os_tmr.c ****     if (OSIntNestingCtr > (OS_NESTING_CTR)0) {                        /* See if trying to call from
 627:uCOS-III\Source/os_tmr.c ****        *p_err = OS_ERR_TMR_ISR;
 628:uCOS-III\Source/os_tmr.c ****         return (DEF_FALSE);
 629:uCOS-III\Source/os_tmr.c ****     }
 630:uCOS-III\Source/os_tmr.c **** #endif
 631:uCOS-III\Source/os_tmr.c **** 
 632:uCOS-III\Source/os_tmr.c **** #if OS_CFG_ARG_CHK_EN > 0u
 633:uCOS-III\Source/os_tmr.c ****     if (p_tmr == (OS_TMR *)0) {
 634:uCOS-III\Source/os_tmr.c ****        *p_err = OS_ERR_TMR_INVALID;
 635:uCOS-III\Source/os_tmr.c ****         return (DEF_FALSE);
 636:uCOS-III\Source/os_tmr.c ****     }
 637:uCOS-III\Source/os_tmr.c **** #endif
 638:uCOS-III\Source/os_tmr.c **** 
 639:uCOS-III\Source/os_tmr.c **** #if OS_CFG_OBJ_TYPE_CHK_EN > 0u
 640:uCOS-III\Source/os_tmr.c ****     if (p_tmr->Type != OS_OBJ_TYPE_TMR) {                             /* Make sure timer was create
 641:uCOS-III\Source/os_tmr.c ****        *p_err = OS_ERR_OBJ_TYPE;
 642:uCOS-III\Source/os_tmr.c ****         return (DEF_FALSE);
 643:uCOS-III\Source/os_tmr.c ****     }
 644:uCOS-III\Source/os_tmr.c **** #endif
 645:uCOS-III\Source/os_tmr.c **** 
 646:uCOS-III\Source/os_tmr.c ****     OSSchedLock(&err);
 647:uCOS-III\Source/os_tmr.c ****     switch (p_tmr->State) {
 648:uCOS-III\Source/os_tmr.c ****         case OS_TMR_STATE_RUNNING:
 649:uCOS-III\Source/os_tmr.c ****              OS_TmrUnlink(p_tmr);                                     /* Remove from current wheel 
 650:uCOS-III\Source/os_tmr.c ****             *p_err = OS_ERR_NONE;
 651:uCOS-III\Source/os_tmr.c ****              switch (opt) {
 652:uCOS-III\Source/os_tmr.c ****                  case OS_OPT_TMR_CALLBACK:
 653:uCOS-III\Source/os_tmr.c ****                       p_fnct = p_tmr->CallbackPtr;                         /* Execute callback func
 654:uCOS-III\Source/os_tmr.c ****                       if (p_fnct != (OS_TMR_CALLBACK_PTR)0) {              /* ... if available     
 655:uCOS-III\Source/os_tmr.c ****                         (*p_fnct)((void *)p_tmr, p_tmr->CallbackPtrArg);   /* Use callback arg when
 656:uCOS-III\Source/os_tmr.c ****                       } else {
 657:uCOS-III\Source/os_tmr.c ****                          *p_err = OS_ERR_TMR_NO_CALLBACK;
 658:uCOS-III\Source/os_tmr.c ****                       }
 659:uCOS-III\Source/os_tmr.c ****                       break;
 660:uCOS-III\Source/os_tmr.c **** 
 661:uCOS-III\Source/os_tmr.c ****                  case OS_OPT_TMR_CALLBACK_ARG:
 662:uCOS-III\Source/os_tmr.c ****                       p_fnct = p_tmr->CallbackPtr;                    /* Execute callback function 
 663:uCOS-III\Source/os_tmr.c ****                       if (p_fnct != (OS_TMR_CALLBACK_PTR)0) {
 664:uCOS-III\Source/os_tmr.c ****                         (*p_fnct)((void *)p_tmr, p_callback_arg);     /* .. using the 'callback_arg
ARM GAS  C:\Users\jorti\AppData\Local\Temp\ccmiXXpF.s 			page 18


 665:uCOS-III\Source/os_tmr.c ****                       } else {
 666:uCOS-III\Source/os_tmr.c ****                          *p_err = OS_ERR_TMR_NO_CALLBACK;
 667:uCOS-III\Source/os_tmr.c ****                       }
 668:uCOS-III\Source/os_tmr.c ****                       break;
 669:uCOS-III\Source/os_tmr.c **** 
 670:uCOS-III\Source/os_tmr.c ****                  case OS_OPT_TMR_NONE:
 671:uCOS-III\Source/os_tmr.c ****                       break;
 672:uCOS-III\Source/os_tmr.c **** 
 673:uCOS-III\Source/os_tmr.c ****                  default:
 674:uCOS-III\Source/os_tmr.c ****                      OSSchedUnlock(&err);
 675:uCOS-III\Source/os_tmr.c ****                     *p_err = OS_ERR_OPT_INVALID;
 676:uCOS-III\Source/os_tmr.c ****                      return (DEF_FALSE);
 677:uCOS-III\Source/os_tmr.c ****              }
 678:uCOS-III\Source/os_tmr.c ****              OSSchedUnlock(&err);
 679:uCOS-III\Source/os_tmr.c ****              success = DEF_TRUE;
 680:uCOS-III\Source/os_tmr.c ****              break;
 681:uCOS-III\Source/os_tmr.c **** 
 682:uCOS-III\Source/os_tmr.c ****         case OS_TMR_STATE_COMPLETED:                                  /* Timer has already complete
 683:uCOS-III\Source/os_tmr.c ****         case OS_TMR_STATE_STOPPED:                                    /* ... timer has not started 
 684:uCOS-III\Source/os_tmr.c ****              OSSchedUnlock(&err);
 685:uCOS-III\Source/os_tmr.c ****             *p_err   = OS_ERR_TMR_STOPPED;
 686:uCOS-III\Source/os_tmr.c ****              success = DEF_TRUE;
 687:uCOS-III\Source/os_tmr.c ****              break;
 688:uCOS-III\Source/os_tmr.c **** 
 689:uCOS-III\Source/os_tmr.c ****         case OS_TMR_STATE_UNUSED:                                     /* Timer was not created     
 690:uCOS-III\Source/os_tmr.c ****              OSSchedUnlock(&err);
 691:uCOS-III\Source/os_tmr.c ****             *p_err   = OS_ERR_TMR_INACTIVE;
 692:uCOS-III\Source/os_tmr.c ****              success = DEF_FALSE;
 693:uCOS-III\Source/os_tmr.c ****              break;
 694:uCOS-III\Source/os_tmr.c **** 
 695:uCOS-III\Source/os_tmr.c ****         default:
 696:uCOS-III\Source/os_tmr.c ****              OSSchedUnlock(&err);
 697:uCOS-III\Source/os_tmr.c ****             *p_err   = OS_ERR_TMR_INVALID_STATE;
 698:uCOS-III\Source/os_tmr.c ****              success = DEF_FALSE;
 699:uCOS-III\Source/os_tmr.c ****              break;
 700:uCOS-III\Source/os_tmr.c ****     }
 701:uCOS-III\Source/os_tmr.c ****     return (success);
 702:uCOS-III\Source/os_tmr.c **** }
 703:uCOS-III\Source/os_tmr.c **** 
 704:uCOS-III\Source/os_tmr.c **** /*$PAGE*/
 705:uCOS-III\Source/os_tmr.c **** /*
 706:uCOS-III\Source/os_tmr.c **** ***************************************************************************************************
 707:uCOS-III\Source/os_tmr.c **** *                                                 CLEAR TIMER FIELDS
 708:uCOS-III\Source/os_tmr.c **** *
 709:uCOS-III\Source/os_tmr.c **** * Description: This function is called to clear all timer fields.
 710:uCOS-III\Source/os_tmr.c **** *
 711:uCOS-III\Source/os_tmr.c **** * Argument(s): p_tmr    is a pointer to the timer to clear
 712:uCOS-III\Source/os_tmr.c **** *              -----
 713:uCOS-III\Source/os_tmr.c **** *
 714:uCOS-III\Source/os_tmr.c **** * Returns    : none
 715:uCOS-III\Source/os_tmr.c **** *
 716:uCOS-III\Source/os_tmr.c **** * Note(s)    : 1) This function is INTERNAL to uC/OS-III and your application MUST NOT call it.
 717:uCOS-III\Source/os_tmr.c **** ***************************************************************************************************
 718:uCOS-III\Source/os_tmr.c **** */
 719:uCOS-III\Source/os_tmr.c **** 
 720:uCOS-III\Source/os_tmr.c **** void  OS_TmrClr (OS_TMR  *p_tmr)
 721:uCOS-III\Source/os_tmr.c **** {
ARM GAS  C:\Users\jorti\AppData\Local\Temp\ccmiXXpF.s 			page 19


 274              		.loc 1 721 0
 275              		.cfi_startproc
 276              		@ args = 0, pretend = 0, frame = 0
 277              		@ frame_needed = 0, uses_anonymous_args = 0
 278              		@ link register save eliminated.
 279              	.LVL29:
 722:uCOS-III\Source/os_tmr.c ****     p_tmr->State          = OS_TMR_STATE_UNUSED;            /* Clear timer fields                  
 280              		.loc 1 722 0
 281 0000 0023     		movs	r3, #0
 282 0002 80F82A30 		strb	r3, [r0, #42]
 723:uCOS-III\Source/os_tmr.c ****     p_tmr->Type           = OS_OBJ_TYPE_NONE;
 283              		.loc 1 723 0
 284 0006 074A     		ldr	r2, .L28
 285 0008 0260     		str	r2, [r0]
 724:uCOS-III\Source/os_tmr.c ****     p_tmr->NamePtr        = (CPU_CHAR          *)((void *)"?TMR");
 286              		.loc 1 724 0
 287 000a 074A     		ldr	r2, .L28+4
 288 000c 4260     		str	r2, [r0, #4]
 725:uCOS-III\Source/os_tmr.c ****     p_tmr->Dly            = (OS_TICK            )0;
 289              		.loc 1 725 0
 290 000e 0362     		str	r3, [r0, #32]
 726:uCOS-III\Source/os_tmr.c ****     p_tmr->Match          = (OS_TICK            )0;
 291              		.loc 1 726 0
 292 0010 8361     		str	r3, [r0, #24]
 727:uCOS-III\Source/os_tmr.c ****     p_tmr->Remain         = (OS_TICK            )0;
 293              		.loc 1 727 0
 294 0012 C361     		str	r3, [r0, #28]
 728:uCOS-III\Source/os_tmr.c ****     p_tmr->Period         = (OS_TICK            )0;
 295              		.loc 1 728 0
 296 0014 4362     		str	r3, [r0, #36]
 729:uCOS-III\Source/os_tmr.c ****     p_tmr->Opt            = (OS_OPT             )0;
 297              		.loc 1 729 0
 298 0016 0385     		strh	r3, [r0, #40]	@ movhi
 730:uCOS-III\Source/os_tmr.c ****     p_tmr->CallbackPtr    = (OS_TMR_CALLBACK_PTR)0;
 299              		.loc 1 730 0
 300 0018 8360     		str	r3, [r0, #8]
 731:uCOS-III\Source/os_tmr.c ****     p_tmr->CallbackPtrArg = (void              *)0;
 301              		.loc 1 731 0
 302 001a C360     		str	r3, [r0, #12]
 732:uCOS-III\Source/os_tmr.c ****     p_tmr->NextPtr        = (OS_TMR            *)0;
 303              		.loc 1 732 0
 304 001c 0361     		str	r3, [r0, #16]
 733:uCOS-III\Source/os_tmr.c ****     p_tmr->PrevPtr        = (OS_TMR            *)0;
 305              		.loc 1 733 0
 306 001e 4361     		str	r3, [r0, #20]
 307 0020 7047     		bx	lr
 308              	.L29:
 309 0022 00BF     		.align	2
 310              	.L28:
 311 0024 4E4F4E45 		.word	1162760014
 312 0028 00000000 		.word	.LC0
 313              		.cfi_endproc
 314              	.LFE7:
 315              		.size	OS_TmrClr, .-OS_TmrClr
 316              		.section	.text.OS_TmrDbgListAdd,"ax",%progbits
 317              		.align	2
 318              		.global	OS_TmrDbgListAdd
ARM GAS  C:\Users\jorti\AppData\Local\Temp\ccmiXXpF.s 			page 20


 319              		.thumb
 320              		.thumb_func
 321              		.type	OS_TmrDbgListAdd, %function
 322              	OS_TmrDbgListAdd:
 323              	.LFB8:
 734:uCOS-III\Source/os_tmr.c **** }
 735:uCOS-III\Source/os_tmr.c **** 
 736:uCOS-III\Source/os_tmr.c **** /*$PAGE*/
 737:uCOS-III\Source/os_tmr.c **** /*
 738:uCOS-III\Source/os_tmr.c **** ***************************************************************************************************
 739:uCOS-III\Source/os_tmr.c **** *                                         ADD/REMOVE TIMER TO/FROM DEBUG TABLE
 740:uCOS-III\Source/os_tmr.c **** *
 741:uCOS-III\Source/os_tmr.c **** * Description: These functions are called by uC/OS-III to add or remove a timer to/from a timer deb
 742:uCOS-III\Source/os_tmr.c **** *
 743:uCOS-III\Source/os_tmr.c **** * Arguments  : p_tmr     is a pointer to the timer to add/remove
 744:uCOS-III\Source/os_tmr.c **** *
 745:uCOS-III\Source/os_tmr.c **** * Returns    : none
 746:uCOS-III\Source/os_tmr.c **** *
 747:uCOS-III\Source/os_tmr.c **** * Note(s)    : These functions are INTERNAL to uC/OS-III and your application should not call it.
 748:uCOS-III\Source/os_tmr.c **** ***************************************************************************************************
 749:uCOS-III\Source/os_tmr.c **** */
 750:uCOS-III\Source/os_tmr.c **** 
 751:uCOS-III\Source/os_tmr.c **** 
 752:uCOS-III\Source/os_tmr.c **** #if OS_CFG_DBG_EN > 0u
 753:uCOS-III\Source/os_tmr.c **** void  OS_TmrDbgListAdd (OS_TMR  *p_tmr)
 754:uCOS-III\Source/os_tmr.c **** {
 324              		.loc 1 754 0
 325              		.cfi_startproc
 326              		@ args = 0, pretend = 0, frame = 0
 327              		@ frame_needed = 0, uses_anonymous_args = 0
 328              		@ link register save eliminated.
 329              	.LVL30:
 755:uCOS-III\Source/os_tmr.c ****     p_tmr->DbgPrevPtr               = (OS_TMR *)0;
 330              		.loc 1 755 0
 331 0000 0023     		movs	r3, #0
 332 0002 C362     		str	r3, [r0, #44]
 756:uCOS-III\Source/os_tmr.c ****     if (OSTmrDbgListPtr == (OS_TMR *)0) {
 333              		.loc 1 756 0
 334 0004 044B     		ldr	r3, .L33
 335 0006 1B68     		ldr	r3, [r3]
 336 0008 0BB9     		cbnz	r3, .L31
 757:uCOS-III\Source/os_tmr.c ****         p_tmr->DbgNextPtr           = (OS_TMR *)0;
 337              		.loc 1 757 0
 338 000a 0363     		str	r3, [r0, #48]
 339 000c 01E0     		b	.L32
 340              	.L31:
 758:uCOS-III\Source/os_tmr.c ****     } else {
 759:uCOS-III\Source/os_tmr.c ****         p_tmr->DbgNextPtr           =  OSTmrDbgListPtr;
 341              		.loc 1 759 0
 342 000e 0363     		str	r3, [r0, #48]
 760:uCOS-III\Source/os_tmr.c ****         OSTmrDbgListPtr->DbgPrevPtr =  p_tmr;
 343              		.loc 1 760 0
 344 0010 D862     		str	r0, [r3, #44]
 345              	.L32:
 761:uCOS-III\Source/os_tmr.c ****     }
 762:uCOS-III\Source/os_tmr.c ****     OSTmrDbgListPtr                 =  p_tmr;
 346              		.loc 1 762 0
ARM GAS  C:\Users\jorti\AppData\Local\Temp\ccmiXXpF.s 			page 21


 347 0012 014B     		ldr	r3, .L33
 348 0014 1860     		str	r0, [r3]
 349 0016 7047     		bx	lr
 350              	.L34:
 351              		.align	2
 352              	.L33:
 353 0018 00000000 		.word	OSTmrDbgListPtr
 354              		.cfi_endproc
 355              	.LFE8:
 356              		.size	OS_TmrDbgListAdd, .-OS_TmrDbgListAdd
 357              		.section	.text.OSTmrCreate,"ax",%progbits
 358              		.align	2
 359              		.global	OSTmrCreate
 360              		.thumb
 361              		.thumb_func
 362              		.type	OSTmrCreate, %function
 363              	OSTmrCreate:
 364              	.LFB1:
 112:uCOS-III\Source/os_tmr.c ****     CPU_SR_ALLOC();
 365              		.loc 1 112 0
 366              		.cfi_startproc
 367              		@ args = 16, pretend = 0, frame = 0
 368              		@ frame_needed = 0, uses_anonymous_args = 0
 369              	.LVL31:
 370 0000 2DE9F843 		push	{r3, r4, r5, r6, r7, r8, r9, lr}
 371              		.cfi_def_cfa_offset 32
 372              		.cfi_offset 3, -32
 373              		.cfi_offset 4, -28
 374              		.cfi_offset 5, -24
 375              		.cfi_offset 6, -20
 376              		.cfi_offset 7, -16
 377              		.cfi_offset 8, -12
 378              		.cfi_offset 9, -8
 379              		.cfi_offset 14, -4
 380 0004 BDF82060 		ldrh	r6, [sp, #32]
 381              	.LVL32:
 132:uCOS-III\Source/os_tmr.c ****        *p_err = OS_ERR_TMR_ISR;
 382              		.loc 1 132 0
 383 0008 274D     		ldr	r5, .L45
 384 000a 2D78     		ldrb	r5, [r5]	@ zero_extendqisi2
 385 000c 2DB1     		cbz	r5, .L36
 133:uCOS-III\Source/os_tmr.c ****         return;
 386              		.loc 1 133 0
 387 000e 47F24333 		movw	r3, #29507
 388              	.LVL33:
 389 0012 0B9A     		ldr	r2, [sp, #44]
 390              	.LVL34:
 391 0014 1380     		strh	r3, [r2]	@ movhi
 134:uCOS-III\Source/os_tmr.c ****     }
 392              		.loc 1 134 0
 393 0016 BDE8F883 		pop	{r3, r4, r5, r6, r7, r8, r9, pc}
 394              	.LVL35:
 395              	.L36:
 139:uCOS-III\Source/os_tmr.c ****        *p_err = OS_ERR_OBJ_PTR_NULL;
 396              		.loc 1 139 0
 397 001a 28B9     		cbnz	r0, .L38
 140:uCOS-III\Source/os_tmr.c ****         return;
ARM GAS  C:\Users\jorti\AppData\Local\Temp\ccmiXXpF.s 			page 22


 398              		.loc 1 140 0
 399 001c 45F6C353 		movw	r3, #24003
 400              	.LVL36:
 401 0020 0B9A     		ldr	r2, [sp, #44]
 402              	.LVL37:
 403 0022 1380     		strh	r3, [r2]	@ movhi
 141:uCOS-III\Source/os_tmr.c ****     }
 404              		.loc 1 141 0
 405 0024 BDE8F883 		pop	{r3, r4, r5, r6, r7, r8, r9, pc}
 406              	.LVL38:
 407              	.L38:
 144:uCOS-III\Source/os_tmr.c ****         case OS_OPT_TMR_PERIODIC:
 408              		.loc 1 144 0
 409 0028 012E     		cmp	r6, #1
 410 002a 08D0     		beq	.L40
 411 002c 022E     		cmp	r6, #2
 412 002e 0DD1     		bne	.L43
 146:uCOS-III\Source/os_tmr.c ****                 *p_err = OS_ERR_TMR_INVALID_PERIOD;
 413              		.loc 1 146 0
 414 0030 93B9     		cbnz	r3, .L42
 147:uCOS-III\Source/os_tmr.c ****                  return;
 415              		.loc 1 147 0
 416 0032 47F24033 		movw	r3, #29504
 417              	.LVL39:
 418 0036 0B9A     		ldr	r2, [sp, #44]
 419              	.LVL40:
 420 0038 1380     		strh	r3, [r2]	@ movhi
 148:uCOS-III\Source/os_tmr.c ****              }
 421              		.loc 1 148 0
 422 003a BDE8F883 		pop	{r3, r4, r5, r6, r7, r8, r9, pc}
 423              	.LVL41:
 424              	.L40:
 153:uCOS-III\Source/os_tmr.c ****                 *p_err = OS_ERR_TMR_INVALID_DLY;
 425              		.loc 1 153 0
 426 003e 5AB9     		cbnz	r2, .L42
 154:uCOS-III\Source/os_tmr.c ****                  return;
 427              		.loc 1 154 0
 428 0040 47F23F33 		movw	r3, #29503
 429              	.LVL42:
 430 0044 0B9A     		ldr	r2, [sp, #44]
 431              	.LVL43:
 432 0046 1380     		strh	r3, [r2]	@ movhi
 155:uCOS-III\Source/os_tmr.c ****              }
 433              		.loc 1 155 0
 434 0048 BDE8F883 		pop	{r3, r4, r5, r6, r7, r8, r9, pc}
 435              	.LVL44:
 436              	.L43:
 160:uCOS-III\Source/os_tmr.c ****              return;
 437              		.loc 1 160 0
 438 004c 45F62563 		movw	r3, #24101
 439              	.LVL45:
 440 0050 0B9A     		ldr	r2, [sp, #44]
 441              	.LVL46:
 442 0052 1380     		strh	r3, [r2]	@ movhi
 161:uCOS-III\Source/os_tmr.c ****     }
 443              		.loc 1 161 0
 444 0054 BDE8F883 		pop	{r3, r4, r5, r6, r7, r8, r9, pc}
ARM GAS  C:\Users\jorti\AppData\Local\Temp\ccmiXXpF.s 			page 23


 445              	.LVL47:
 446              	.L42:
 447 0058 1F46     		mov	r7, r3
 448 005a 1546     		mov	r5, r2
 449 005c 8846     		mov	r8, r1
 450 005e 0446     		mov	r4, r0
 165:uCOS-III\Source/os_tmr.c ****     p_tmr->State          = (OS_STATE           )OS_TMR_STATE_STOPPED;     /* Initialize the timer 
 451              		.loc 1 165 0
 452 0060 FFF7FEFF 		bl	CPU_SR_Save
 453              	.LVL48:
 454 0064 8146     		mov	r9, r0
 455              	.LVL49:
 166:uCOS-III\Source/os_tmr.c ****     p_tmr->Type           = (OS_OBJ_TYPE        )OS_OBJ_TYPE_TMR;
 456              		.loc 1 166 0
 457 0066 0123     		movs	r3, #1
 458 0068 84F82A30 		strb	r3, [r4, #42]
 167:uCOS-III\Source/os_tmr.c ****     p_tmr->NamePtr        = (CPU_CHAR          *)p_name;
 459              		.loc 1 167 0
 460 006c 0F4B     		ldr	r3, .L45+4
 461 006e 2360     		str	r3, [r4]
 168:uCOS-III\Source/os_tmr.c ****     p_tmr->Dly            = (OS_TICK            )dly;
 462              		.loc 1 168 0
 463 0070 C4F80480 		str	r8, [r4, #4]
 169:uCOS-III\Source/os_tmr.c ****     p_tmr->Match          = (OS_TICK            )0;
 464              		.loc 1 169 0
 465 0074 2562     		str	r5, [r4, #32]
 170:uCOS-III\Source/os_tmr.c ****     p_tmr->Remain         = (OS_TICK            )0;
 466              		.loc 1 170 0
 467 0076 0025     		movs	r5, #0
 468              	.LVL50:
 469 0078 A561     		str	r5, [r4, #24]
 171:uCOS-III\Source/os_tmr.c ****     p_tmr->Period         = (OS_TICK            )period;
 470              		.loc 1 171 0
 471 007a E561     		str	r5, [r4, #28]
 172:uCOS-III\Source/os_tmr.c ****     p_tmr->Opt            = (OS_OPT             )opt;
 472              		.loc 1 172 0
 473 007c 6762     		str	r7, [r4, #36]
 173:uCOS-III\Source/os_tmr.c ****     p_tmr->CallbackPtr    = (OS_TMR_CALLBACK_PTR)p_callback;
 474              		.loc 1 173 0
 475 007e 2685     		strh	r6, [r4, #40]	@ movhi
 174:uCOS-III\Source/os_tmr.c ****     p_tmr->CallbackPtrArg = (void              *)p_callback_arg;
 476              		.loc 1 174 0
 477 0080 099B     		ldr	r3, [sp, #36]
 478 0082 A360     		str	r3, [r4, #8]
 175:uCOS-III\Source/os_tmr.c ****     p_tmr->NextPtr        = (OS_TMR            *)0;
 479              		.loc 1 175 0
 480 0084 0A9B     		ldr	r3, [sp, #40]
 481 0086 E360     		str	r3, [r4, #12]
 176:uCOS-III\Source/os_tmr.c ****     p_tmr->PrevPtr        = (OS_TMR            *)0;
 482              		.loc 1 176 0
 483 0088 2561     		str	r5, [r4, #16]
 177:uCOS-III\Source/os_tmr.c **** 
 484              		.loc 1 177 0
 485 008a 6561     		str	r5, [r4, #20]
 180:uCOS-III\Source/os_tmr.c **** #endif
 486              		.loc 1 180 0
 487 008c 2046     		mov	r0, r4
ARM GAS  C:\Users\jorti\AppData\Local\Temp\ccmiXXpF.s 			page 24


 488              	.LVL51:
 489 008e FFF7FEFF 		bl	OS_TmrDbgListAdd
 490              	.LVL52:
 182:uCOS-III\Source/os_tmr.c **** 
 491              		.loc 1 182 0
 492 0092 074A     		ldr	r2, .L45+8
 493 0094 1388     		ldrh	r3, [r2]
 494 0096 0133     		adds	r3, r3, #1
 495 0098 1380     		strh	r3, [r2]	@ movhi
 184:uCOS-III\Source/os_tmr.c ****    *p_err = OS_ERR_NONE;
 496              		.loc 1 184 0
 497 009a 4846     		mov	r0, r9
 498 009c FFF7FEFF 		bl	CPU_SR_Restore
 499              	.LVL53:
 185:uCOS-III\Source/os_tmr.c **** }
 500              		.loc 1 185 0
 501 00a0 0B9B     		ldr	r3, [sp, #44]
 502 00a2 1D80     		strh	r5, [r3]	@ movhi
 503 00a4 BDE8F883 		pop	{r3, r4, r5, r6, r7, r8, r9, pc}
 504              	.LVL54:
 505              	.L46:
 506              		.align	2
 507              	.L45:
 508 00a8 00000000 		.word	OSIntNestingCtr
 509 00ac 544D5220 		.word	542264660
 510 00b0 00000000 		.word	OSTmrQty
 511              		.cfi_endproc
 512              	.LFE1:
 513              		.size	OSTmrCreate, .-OSTmrCreate
 514              		.section	.text.OS_TmrDbgListRemove,"ax",%progbits
 515              		.align	2
 516              		.global	OS_TmrDbgListRemove
 517              		.thumb
 518              		.thumb_func
 519              		.type	OS_TmrDbgListRemove, %function
 520              	OS_TmrDbgListRemove:
 521              	.LFB9:
 763:uCOS-III\Source/os_tmr.c **** }
 764:uCOS-III\Source/os_tmr.c **** 
 765:uCOS-III\Source/os_tmr.c **** 
 766:uCOS-III\Source/os_tmr.c **** 
 767:uCOS-III\Source/os_tmr.c **** void  OS_TmrDbgListRemove (OS_TMR  *p_tmr)
 768:uCOS-III\Source/os_tmr.c **** {
 522              		.loc 1 768 0
 523              		.cfi_startproc
 524              		@ args = 0, pretend = 0, frame = 0
 525              		@ frame_needed = 0, uses_anonymous_args = 0
 526              		@ link register save eliminated.
 527              	.LVL55:
 769:uCOS-III\Source/os_tmr.c ****     OS_TMR  *p_tmr_next;
 770:uCOS-III\Source/os_tmr.c ****     OS_TMR  *p_tmr_prev;
 771:uCOS-III\Source/os_tmr.c **** 
 772:uCOS-III\Source/os_tmr.c **** 
 773:uCOS-III\Source/os_tmr.c ****     p_tmr_prev = p_tmr->DbgPrevPtr;
 528              		.loc 1 773 0
 529 0000 C26A     		ldr	r2, [r0, #44]
 530              	.LVL56:
ARM GAS  C:\Users\jorti\AppData\Local\Temp\ccmiXXpF.s 			page 25


 774:uCOS-III\Source/os_tmr.c ****     p_tmr_next = p_tmr->DbgNextPtr;
 531              		.loc 1 774 0
 532 0002 036B     		ldr	r3, [r0, #48]
 533              	.LVL57:
 775:uCOS-III\Source/os_tmr.c **** 
 776:uCOS-III\Source/os_tmr.c ****     if (p_tmr_prev == (OS_TMR *)0) {
 534              		.loc 1 776 0
 535 0004 3AB9     		cbnz	r2, .L48
 777:uCOS-III\Source/os_tmr.c ****         OSTmrDbgListPtr = p_tmr_next;
 536              		.loc 1 777 0
 537 0006 094A     		ldr	r2, .L52
 538              	.LVL58:
 539 0008 1360     		str	r3, [r2]
 778:uCOS-III\Source/os_tmr.c ****         if (p_tmr_next != (OS_TMR *)0) {
 540              		.loc 1 778 0
 541 000a 0BB1     		cbz	r3, .L49
 779:uCOS-III\Source/os_tmr.c ****             p_tmr_next->DbgPrevPtr = (OS_TMR *)0;
 542              		.loc 1 779 0
 543 000c 0022     		movs	r2, #0
 544 000e DA62     		str	r2, [r3, #44]
 545              	.LVL59:
 546              	.L49:
 780:uCOS-III\Source/os_tmr.c ****         }
 781:uCOS-III\Source/os_tmr.c ****         p_tmr->DbgNextPtr = (OS_TMR *)0;
 547              		.loc 1 781 0
 548 0010 0023     		movs	r3, #0
 549              	.LVL60:
 550 0012 0363     		str	r3, [r0, #48]
 551 0014 7047     		bx	lr
 552              	.LVL61:
 553              	.L48:
 782:uCOS-III\Source/os_tmr.c **** 
 783:uCOS-III\Source/os_tmr.c ****     } else if (p_tmr_next == (OS_TMR *)0) {
 554              		.loc 1 783 0
 555 0016 13B9     		cbnz	r3, .L51
 784:uCOS-III\Source/os_tmr.c ****         p_tmr_prev->DbgNextPtr = (OS_TMR *)0;
 556              		.loc 1 784 0
 557 0018 1363     		str	r3, [r2, #48]
 785:uCOS-III\Source/os_tmr.c ****         p_tmr->DbgPrevPtr      = (OS_TMR *)0;
 558              		.loc 1 785 0
 559 001a C362     		str	r3, [r0, #44]
 560 001c 7047     		bx	lr
 561              	.L51:
 786:uCOS-III\Source/os_tmr.c **** 
 787:uCOS-III\Source/os_tmr.c ****     } else {
 788:uCOS-III\Source/os_tmr.c ****         p_tmr_prev->DbgNextPtr =  p_tmr_next;
 562              		.loc 1 788 0
 563 001e 1363     		str	r3, [r2, #48]
 789:uCOS-III\Source/os_tmr.c ****         p_tmr_next->DbgPrevPtr =  p_tmr_prev;
 564              		.loc 1 789 0
 565 0020 DA62     		str	r2, [r3, #44]
 790:uCOS-III\Source/os_tmr.c ****         p_tmr->DbgNextPtr      = (OS_TMR *)0;
 566              		.loc 1 790 0
 567 0022 0023     		movs	r3, #0
 568              	.LVL62:
 569 0024 0363     		str	r3, [r0, #48]
 791:uCOS-III\Source/os_tmr.c ****         p_tmr->DbgPrevPtr      = (OS_TMR *)0;
ARM GAS  C:\Users\jorti\AppData\Local\Temp\ccmiXXpF.s 			page 26


 570              		.loc 1 791 0
 571 0026 C362     		str	r3, [r0, #44]
 572 0028 7047     		bx	lr
 573              	.L53:
 574 002a 00BF     		.align	2
 575              	.L52:
 576 002c 00000000 		.word	OSTmrDbgListPtr
 577              		.cfi_endproc
 578              	.LFE9:
 579              		.size	OS_TmrDbgListRemove, .-OS_TmrDbgListRemove
 580              		.section	.text.OS_TmrInit,"ax",%progbits
 581              		.align	2
 582              		.global	OS_TmrInit
 583              		.thumb
 584              		.thumb_func
 585              		.type	OS_TmrInit, %function
 586              	OS_TmrInit:
 587              	.LFB10:
 792:uCOS-III\Source/os_tmr.c ****     }
 793:uCOS-III\Source/os_tmr.c **** }
 794:uCOS-III\Source/os_tmr.c **** #endif
 795:uCOS-III\Source/os_tmr.c **** 
 796:uCOS-III\Source/os_tmr.c **** /*$PAGE*/
 797:uCOS-III\Source/os_tmr.c **** /*
 798:uCOS-III\Source/os_tmr.c **** ***************************************************************************************************
 799:uCOS-III\Source/os_tmr.c **** *                                             INITIALIZE THE TIMER MANAGER
 800:uCOS-III\Source/os_tmr.c **** *
 801:uCOS-III\Source/os_tmr.c **** * Description: This function is called by OSInit() to initialize the timer manager module.
 802:uCOS-III\Source/os_tmr.c **** *
 803:uCOS-III\Source/os_tmr.c **** * Argument(s): p_err    is a pointer to a variable that will contain an error code returned by this
 804:uCOS-III\Source/os_tmr.c **** *
 805:uCOS-III\Source/os_tmr.c **** *                           OS_ERR_NONE
 806:uCOS-III\Source/os_tmr.c **** *                           OS_ERR_TMR_STK_INVALID       if you didn't specify a stack for the time
 807:uCOS-III\Source/os_tmr.c **** *                           OS_ERR_TMR_STK_SIZE_INVALID  if you didn't allocate enough space for th
 808:uCOS-III\Source/os_tmr.c **** *                           OS_ERR_PRIO_INVALID          if you specified the same priority as the 
 809:uCOS-III\Source/os_tmr.c **** *                           OS_ERR_xxx                   any error code returned by OSTaskCreate()
 810:uCOS-III\Source/os_tmr.c **** *
 811:uCOS-III\Source/os_tmr.c **** * Returns    : none
 812:uCOS-III\Source/os_tmr.c **** *
 813:uCOS-III\Source/os_tmr.c **** * Note(s)    : 1) This function is INTERNAL to uC/OS-III and your application MUST NOT call it.
 814:uCOS-III\Source/os_tmr.c **** ***************************************************************************************************
 815:uCOS-III\Source/os_tmr.c **** */
 816:uCOS-III\Source/os_tmr.c **** 
 817:uCOS-III\Source/os_tmr.c **** void  OS_TmrInit (OS_ERR  *p_err)
 818:uCOS-III\Source/os_tmr.c **** {
 588              		.loc 1 818 0
 589              		.cfi_startproc
 590              		@ args = 0, pretend = 0, frame = 0
 591              		@ frame_needed = 0, uses_anonymous_args = 0
 592              	.LVL63:
 593 0000 10B5     		push	{r4, lr}
 594              		.cfi_def_cfa_offset 8
 595              		.cfi_offset 4, -8
 596              		.cfi_offset 14, -4
 597 0002 8AB0     		sub	sp, sp, #40
 598              		.cfi_def_cfa_offset 48
 819:uCOS-III\Source/os_tmr.c ****     OS_TMR_SPOKE_IX   i;
ARM GAS  C:\Users\jorti\AppData\Local\Temp\ccmiXXpF.s 			page 27


 820:uCOS-III\Source/os_tmr.c ****     OS_TMR_SPOKE     *p_spoke;
 821:uCOS-III\Source/os_tmr.c **** 
 822:uCOS-III\Source/os_tmr.c **** 
 823:uCOS-III\Source/os_tmr.c **** 
 824:uCOS-III\Source/os_tmr.c **** #ifdef OS_SAFETY_CRITICAL
 825:uCOS-III\Source/os_tmr.c ****     if (p_err == (OS_ERR *)0) {
 826:uCOS-III\Source/os_tmr.c ****         OS_SAFETY_CRITICAL_EXCEPTION();
 827:uCOS-III\Source/os_tmr.c ****         return;
 828:uCOS-III\Source/os_tmr.c ****     }
 829:uCOS-III\Source/os_tmr.c **** #endif
 830:uCOS-III\Source/os_tmr.c **** 
 831:uCOS-III\Source/os_tmr.c **** #if OS_CFG_DBG_EN > 0u
 832:uCOS-III\Source/os_tmr.c ****     OSTmrDbgListPtr = (OS_TMR *)0;
 599              		.loc 1 832 0
 600 0004 0022     		movs	r2, #0
 601 0006 2C4B     		ldr	r3, .L64
 602 0008 1A60     		str	r2, [r3]
 833:uCOS-III\Source/os_tmr.c **** #endif
 834:uCOS-III\Source/os_tmr.c **** 
 835:uCOS-III\Source/os_tmr.c ****     if (OSCfg_TmrTaskRate_Hz > (OS_RATE_HZ)0) {
 603              		.loc 1 835 0
 604 000a 2C4B     		ldr	r3, .L64+4
 605 000c 1B68     		ldr	r3, [r3]
 606 000e 33B1     		cbz	r3, .L55
 836:uCOS-III\Source/os_tmr.c ****         OSTmrUpdateCnt = OSCfg_TickRate_Hz / OSCfg_TmrTaskRate_Hz;
 607              		.loc 1 836 0
 608 0010 2B4A     		ldr	r2, .L64+8
 609 0012 1268     		ldr	r2, [r2]
 610 0014 B2FBF3F3 		udiv	r3, r2, r3
 611 0018 2A4A     		ldr	r2, .L64+12
 612 001a 1360     		str	r3, [r2]
 613 001c 07E0     		b	.L56
 614              	.L55:
 837:uCOS-III\Source/os_tmr.c ****     } else {
 838:uCOS-III\Source/os_tmr.c ****         OSTmrUpdateCnt = OSCfg_TickRate_Hz / (OS_RATE_HZ)10;
 615              		.loc 1 838 0
 616 001e 284B     		ldr	r3, .L64+8
 617 0020 1B68     		ldr	r3, [r3]
 618 0022 294A     		ldr	r2, .L64+16
 619 0024 A2FB0323 		umull	r2, r3, r2, r3
 620 0028 DB08     		lsrs	r3, r3, #3
 621 002a 264A     		ldr	r2, .L64+12
 622 002c 1360     		str	r3, [r2]
 623              	.L56:
 839:uCOS-III\Source/os_tmr.c ****     }
 840:uCOS-III\Source/os_tmr.c ****     OSTmrUpdateCtr   = OSTmrUpdateCnt;
 624              		.loc 1 840 0
 625 002e 254B     		ldr	r3, .L64+12
 626 0030 1A68     		ldr	r2, [r3]
 627 0032 264B     		ldr	r3, .L64+20
 628 0034 1A60     		str	r2, [r3]
 841:uCOS-III\Source/os_tmr.c **** 
 842:uCOS-III\Source/os_tmr.c ****     OSTmrTickCtr     = (OS_TICK)0;
 629              		.loc 1 842 0
 630 0036 0023     		movs	r3, #0
 631 0038 254A     		ldr	r2, .L64+24
 632 003a 1360     		str	r3, [r2]
ARM GAS  C:\Users\jorti\AppData\Local\Temp\ccmiXXpF.s 			page 28


 843:uCOS-III\Source/os_tmr.c **** 
 844:uCOS-III\Source/os_tmr.c ****     OSTmrTaskTimeMax = (CPU_TS)0;
 633              		.loc 1 844 0
 634 003c 254A     		ldr	r2, .L64+28
 635 003e 1360     		str	r3, [r2]
 636              	.LVL64:
 845:uCOS-III\Source/os_tmr.c **** 
 846:uCOS-III\Source/os_tmr.c ****     for (i = 0u; i < OSCfg_TmrWheelSize; i++) {
 637              		.loc 1 846 0
 638 0040 09E0     		b	.L57
 639              	.LVL65:
 640              	.L58:
 847:uCOS-III\Source/os_tmr.c ****         p_spoke                = &OSCfg_TmrWheel[i];
 848:uCOS-III\Source/os_tmr.c ****         p_spoke->NbrEntries    = (OS_OBJ_QTY)0;
 641              		.loc 1 848 0 discriminator 3
 642 0042 2549     		ldr	r1, .L64+32
 643 0044 01EBC304 		add	r4, r1, r3, lsl #3
 644 0048 0022     		movs	r2, #0
 645 004a A280     		strh	r2, [r4, #4]	@ movhi
 849:uCOS-III\Source/os_tmr.c ****         p_spoke->NbrEntriesMax = (OS_OBJ_QTY)0;
 646              		.loc 1 849 0 discriminator 3
 647 004c E280     		strh	r2, [r4, #6]	@ movhi
 850:uCOS-III\Source/os_tmr.c ****         p_spoke->FirstPtr      = (OS_TMR   *)0;
 648              		.loc 1 850 0 discriminator 3
 649 004e 41F83320 		str	r2, [r1, r3, lsl #3]
 846:uCOS-III\Source/os_tmr.c ****         p_spoke                = &OSCfg_TmrWheel[i];
 650              		.loc 1 846 0 discriminator 3
 651 0052 0133     		adds	r3, r3, #1
 652              	.LVL66:
 653 0054 9BB2     		uxth	r3, r3
 654              	.LVL67:
 655              	.L57:
 846:uCOS-III\Source/os_tmr.c ****         p_spoke                = &OSCfg_TmrWheel[i];
 656              		.loc 1 846 0 is_stmt 0 discriminator 1
 657 0056 214A     		ldr	r2, .L64+36
 658 0058 1288     		ldrh	r2, [r2]
 659 005a 9342     		cmp	r3, r2
 660 005c F1D3     		bcc	.L58
 851:uCOS-III\Source/os_tmr.c ****     }
 852:uCOS-III\Source/os_tmr.c **** 
 853:uCOS-III\Source/os_tmr.c ****                                                             /* ---------------- CREATE THE TIMER TA
 854:uCOS-III\Source/os_tmr.c ****     if (OSCfg_TmrTaskStkBasePtr == (CPU_STK*)0) {
 661              		.loc 1 854 0 is_stmt 1
 662 005e 204B     		ldr	r3, .L64+40
 663              	.LVL68:
 664 0060 1A68     		ldr	r2, [r3]
 665 0062 1AB9     		cbnz	r2, .L59
 855:uCOS-III\Source/os_tmr.c ****        *p_err = OS_ERR_TMR_STK_INVALID;
 666              		.loc 1 855 0
 667 0064 47F24733 		movw	r3, #29511
 668 0068 0380     		strh	r3, [r0]	@ movhi
 856:uCOS-III\Source/os_tmr.c ****         return;
 669              		.loc 1 856 0
 670 006a 23E0     		b	.L54
 671              	.L59:
 857:uCOS-III\Source/os_tmr.c ****     }
 858:uCOS-III\Source/os_tmr.c **** 
ARM GAS  C:\Users\jorti\AppData\Local\Temp\ccmiXXpF.s 			page 29


 859:uCOS-III\Source/os_tmr.c ****     if (OSCfg_TmrTaskStkSize < OSCfg_StkSizeMin) {
 672              		.loc 1 859 0
 673 006c 1D4B     		ldr	r3, .L64+44
 674 006e 1968     		ldr	r1, [r3]
 675 0070 1D4B     		ldr	r3, .L64+48
 676 0072 1B68     		ldr	r3, [r3]
 677 0074 9942     		cmp	r1, r3
 678 0076 03D2     		bcs	.L61
 860:uCOS-III\Source/os_tmr.c ****        *p_err = OS_ERR_TMR_STK_SIZE_INVALID;
 679              		.loc 1 860 0
 680 0078 47F24833 		movw	r3, #29512
 681 007c 0380     		strh	r3, [r0]	@ movhi
 861:uCOS-III\Source/os_tmr.c ****         return;
 682              		.loc 1 861 0
 683 007e 19E0     		b	.L54
 684              	.L61:
 862:uCOS-III\Source/os_tmr.c ****     }
 863:uCOS-III\Source/os_tmr.c **** 
 864:uCOS-III\Source/os_tmr.c ****     if (OSCfg_TmrTaskPrio >= (OS_CFG_PRIO_MAX - 1u)) {
 685              		.loc 1 864 0
 686 0080 1A4B     		ldr	r3, .L64+52
 687 0082 1C78     		ldrb	r4, [r3]	@ zero_extendqisi2
 688 0084 062C     		cmp	r4, #6
 689 0086 03D9     		bls	.L62
 865:uCOS-III\Source/os_tmr.c ****        *p_err = OS_ERR_TMR_PRIO_INVALID;
 690              		.loc 1 865 0
 691 0088 47F24633 		movw	r3, #29510
 692 008c 0380     		strh	r3, [r0]	@ movhi
 866:uCOS-III\Source/os_tmr.c ****         return;
 693              		.loc 1 866 0
 694 008e 11E0     		b	.L54
 695              	.L62:
 867:uCOS-III\Source/os_tmr.c ****     }
 868:uCOS-III\Source/os_tmr.c **** 
 869:uCOS-III\Source/os_tmr.c ****     OSTaskCreate((OS_TCB     *)&OSTmrTaskTCB,
 696              		.loc 1 869 0
 697 0090 0890     		str	r0, [sp, #32]
 698 0092 0B23     		movs	r3, #11
 699 0094 0793     		str	r3, [sp, #28]
 700 0096 0023     		movs	r3, #0
 701 0098 0693     		str	r3, [sp, #24]
 702 009a 0593     		str	r3, [sp, #20]
 703 009c 0493     		str	r3, [sp, #16]
 704 009e 0391     		str	r1, [sp, #12]
 705 00a0 1349     		ldr	r1, .L64+56
 706 00a2 0968     		ldr	r1, [r1]
 707 00a4 0291     		str	r1, [sp, #8]
 708 00a6 0192     		str	r2, [sp, #4]
 709 00a8 0094     		str	r4, [sp]
 710 00aa 124A     		ldr	r2, .L64+60
 711 00ac 1249     		ldr	r1, .L64+64
 712 00ae 1348     		ldr	r0, .L64+68
 713              	.LVL69:
 714 00b0 FFF7FEFF 		bl	OSTaskCreate
 715              	.LVL70:
 716              	.L54:
 870:uCOS-III\Source/os_tmr.c ****                  (CPU_CHAR   *)((void *)"uC/OS-III Timer Task"),
ARM GAS  C:\Users\jorti\AppData\Local\Temp\ccmiXXpF.s 			page 30


 871:uCOS-III\Source/os_tmr.c ****                  (OS_TASK_PTR )OS_TmrTask,
 872:uCOS-III\Source/os_tmr.c ****                  (void       *)0,
 873:uCOS-III\Source/os_tmr.c ****                  (OS_PRIO     )OSCfg_TmrTaskPrio,
 874:uCOS-III\Source/os_tmr.c ****                  (CPU_STK    *)OSCfg_TmrTaskStkBasePtr,
 875:uCOS-III\Source/os_tmr.c ****                  (CPU_STK_SIZE)OSCfg_TmrTaskStkLimit,
 876:uCOS-III\Source/os_tmr.c ****                  (CPU_STK_SIZE)OSCfg_TmrTaskStkSize,
 877:uCOS-III\Source/os_tmr.c ****                  (OS_MSG_QTY  )0,
 878:uCOS-III\Source/os_tmr.c ****                  (OS_TICK     )0,
 879:uCOS-III\Source/os_tmr.c ****                  (void       *)0,
 880:uCOS-III\Source/os_tmr.c ****                  (OS_OPT      )(OS_OPT_TASK_STK_CHK | OS_OPT_TASK_STK_CLR | OS_OPT_TASK_NO_TLS),
 881:uCOS-III\Source/os_tmr.c ****                  (OS_ERR     *)p_err);
 882:uCOS-III\Source/os_tmr.c **** }
 717              		.loc 1 882 0
 718 00b4 0AB0     		add	sp, sp, #40
 719              		.cfi_def_cfa_offset 8
 720              		@ sp needed
 721 00b6 10BD     		pop	{r4, pc}
 722              	.L65:
 723              		.align	2
 724              	.L64:
 725 00b8 00000000 		.word	OSTmrDbgListPtr
 726 00bc 00000000 		.word	OSCfg_TmrTaskRate_Hz
 727 00c0 00000000 		.word	OSCfg_TickRate_Hz
 728 00c4 00000000 		.word	OSTmrUpdateCnt
 729 00c8 CDCCCCCC 		.word	-858993459
 730 00cc 00000000 		.word	OSTmrUpdateCtr
 731 00d0 00000000 		.word	OSTmrTickCtr
 732 00d4 00000000 		.word	OSTmrTaskTimeMax
 733 00d8 00000000 		.word	OSCfg_TmrWheel
 734 00dc 00000000 		.word	OSCfg_TmrWheelSize
 735 00e0 00000000 		.word	OSCfg_TmrTaskStkBasePtr
 736 00e4 00000000 		.word	OSCfg_TmrTaskStkSize
 737 00e8 00000000 		.word	OSCfg_StkSizeMin
 738 00ec 00000000 		.word	OSCfg_TmrTaskPrio
 739 00f0 00000000 		.word	OSCfg_TmrTaskStkLimit
 740 00f4 00000000 		.word	OS_TmrTask
 741 00f8 08000000 		.word	.LC1
 742 00fc 00000000 		.word	OSTmrTaskTCB
 743              		.cfi_endproc
 744              	.LFE10:
 745              		.size	OS_TmrInit, .-OS_TmrInit
 746              		.section	.text.OS_TmrLink,"ax",%progbits
 747              		.align	2
 748              		.global	OS_TmrLink
 749              		.thumb
 750              		.thumb_func
 751              		.type	OS_TmrLink, %function
 752              	OS_TmrLink:
 753              	.LFB11:
 883:uCOS-III\Source/os_tmr.c **** 
 884:uCOS-III\Source/os_tmr.c **** /*$PAGE*/
 885:uCOS-III\Source/os_tmr.c **** /*
 886:uCOS-III\Source/os_tmr.c **** ***************************************************************************************************
 887:uCOS-III\Source/os_tmr.c **** *                                         INSERT A TIMER INTO THE TIMER WHEEL
 888:uCOS-III\Source/os_tmr.c **** *
 889:uCOS-III\Source/os_tmr.c **** * Description: This function is called to insert the timer into the timer wheel.  The timer is alwa
 890:uCOS-III\Source/os_tmr.c **** *              beginning of the list.
ARM GAS  C:\Users\jorti\AppData\Local\Temp\ccmiXXpF.s 			page 31


 891:uCOS-III\Source/os_tmr.c **** *
 892:uCOS-III\Source/os_tmr.c **** * Arguments  : p_tmr          Is a pointer to the timer to insert.
 893:uCOS-III\Source/os_tmr.c **** *              -----
 894:uCOS-III\Source/os_tmr.c **** *
 895:uCOS-III\Source/os_tmr.c **** *              opt            Is either:
 896:uCOS-III\Source/os_tmr.c **** *
 897:uCOS-III\Source/os_tmr.c **** *                               OS_OPT_LINK_PERIODIC    Means to re-insert the timer after a period
 898:uCOS-III\Source/os_tmr.c **** *                               OS_OPT_LINK_DLY         Means to insert    the timer the first time
 899:uCOS-III\Source/os_tmr.c **** *
 900:uCOS-III\Source/os_tmr.c **** * Returns    : none
 901:uCOS-III\Source/os_tmr.c **** *
 902:uCOS-III\Source/os_tmr.c **** * Note(s)    : 1) This function is INTERNAL to uC/OS-III and your application MUST NOT call it.
 903:uCOS-III\Source/os_tmr.c **** ***************************************************************************************************
 904:uCOS-III\Source/os_tmr.c **** */
 905:uCOS-III\Source/os_tmr.c **** 
 906:uCOS-III\Source/os_tmr.c **** void  OS_TmrLink (OS_TMR  *p_tmr,
 907:uCOS-III\Source/os_tmr.c ****                   OS_OPT   opt)
 908:uCOS-III\Source/os_tmr.c **** {
 754              		.loc 1 908 0
 755              		.cfi_startproc
 756              		@ args = 0, pretend = 0, frame = 0
 757              		@ frame_needed = 0, uses_anonymous_args = 0
 758              		@ link register save eliminated.
 759              	.LVL71:
 760 0000 10B4     		push	{r4}
 761              		.cfi_def_cfa_offset 4
 762              		.cfi_offset 4, -4
 909:uCOS-III\Source/os_tmr.c ****     OS_TMR_SPOKE     *p_spoke;
 910:uCOS-III\Source/os_tmr.c ****     OS_TMR           *p_tmr0;
 911:uCOS-III\Source/os_tmr.c ****     OS_TMR           *p_tmr1;
 912:uCOS-III\Source/os_tmr.c ****     OS_TMR_SPOKE_IX   spoke;
 913:uCOS-III\Source/os_tmr.c **** 
 914:uCOS-III\Source/os_tmr.c **** 
 915:uCOS-III\Source/os_tmr.c **** 
 916:uCOS-III\Source/os_tmr.c ****     p_tmr->State = OS_TMR_STATE_RUNNING;
 763              		.loc 1 916 0
 764 0002 0223     		movs	r3, #2
 765 0004 80F82A30 		strb	r3, [r0, #42]
 917:uCOS-III\Source/os_tmr.c ****     if (opt == OS_OPT_LINK_PERIODIC) {                      /* Determine when timer will expire    
 766              		.loc 1 917 0
 767 0008 0129     		cmp	r1, #1
 768 000a 05D1     		bne	.L67
 918:uCOS-III\Source/os_tmr.c ****         p_tmr->Match = p_tmr->Period + OSTmrTickCtr;
 769              		.loc 1 918 0
 770 000c 426A     		ldr	r2, [r0, #36]
 771 000e 334B     		ldr	r3, .L80
 772 0010 1B68     		ldr	r3, [r3]
 773 0012 1344     		add	r3, r3, r2
 774 0014 8361     		str	r3, [r0, #24]
 775 0016 0BE0     		b	.L68
 776              	.L67:
 919:uCOS-III\Source/os_tmr.c ****     } else {
 920:uCOS-III\Source/os_tmr.c ****         if (p_tmr->Dly == (OS_TICK)0) {
 777              		.loc 1 920 0
 778 0018 036A     		ldr	r3, [r0, #32]
 779 001a 2BB9     		cbnz	r3, .L69
 921:uCOS-III\Source/os_tmr.c ****             p_tmr->Match = p_tmr->Period + OSTmrTickCtr;
ARM GAS  C:\Users\jorti\AppData\Local\Temp\ccmiXXpF.s 			page 32


 780              		.loc 1 921 0
 781 001c 426A     		ldr	r2, [r0, #36]
 782 001e 2F4B     		ldr	r3, .L80
 783 0020 1B68     		ldr	r3, [r3]
 784 0022 1344     		add	r3, r3, r2
 785 0024 8361     		str	r3, [r0, #24]
 786 0026 03E0     		b	.L68
 787              	.L69:
 922:uCOS-III\Source/os_tmr.c ****         } else {
 923:uCOS-III\Source/os_tmr.c ****             p_tmr->Match = p_tmr->Dly    + OSTmrTickCtr;
 788              		.loc 1 923 0
 789 0028 2C4A     		ldr	r2, .L80
 790 002a 1268     		ldr	r2, [r2]
 791 002c 1344     		add	r3, r3, r2
 792 002e 8361     		str	r3, [r0, #24]
 793              	.L68:
 924:uCOS-III\Source/os_tmr.c ****         }
 925:uCOS-III\Source/os_tmr.c ****     }
 926:uCOS-III\Source/os_tmr.c ****     spoke  = (OS_TMR_SPOKE_IX)(p_tmr->Match % OSCfg_TmrWheelSize);
 794              		.loc 1 926 0
 795 0030 8369     		ldr	r3, [r0, #24]
 796 0032 2B4A     		ldr	r2, .L80+4
 797 0034 1488     		ldrh	r4, [r2]
 798 0036 B3FBF4F2 		udiv	r2, r3, r4
 799 003a 04FB1234 		mls	r4, r4, r2, r3
 800              	.LVL72:
 927:uCOS-III\Source/os_tmr.c ****     p_spoke = &OSCfg_TmrWheel[spoke];
 801              		.loc 1 927 0
 802 003e A4B2     		uxth	r4, r4
 803              	.LVL73:
 928:uCOS-III\Source/os_tmr.c **** 
 929:uCOS-III\Source/os_tmr.c ****     if (p_spoke->FirstPtr ==  (OS_TMR *)0) {                /* Link into timer wheel               
 804              		.loc 1 929 0
 805 0040 284A     		ldr	r2, .L80+8
 806 0042 52F83420 		ldr	r2, [r2, r4, lsl #3]
 807 0046 52B9     		cbnz	r2, .L70
 930:uCOS-III\Source/os_tmr.c ****         p_tmr->NextPtr      = (OS_TMR *)0;
 808              		.loc 1 930 0
 809 0048 0023     		movs	r3, #0
 810 004a 0361     		str	r3, [r0, #16]
 931:uCOS-III\Source/os_tmr.c ****         p_tmr->PrevPtr      = (OS_TMR *)0;
 811              		.loc 1 931 0
 812 004c 4361     		str	r3, [r0, #20]
 932:uCOS-III\Source/os_tmr.c ****         p_spoke->FirstPtr   = p_tmr;
 813              		.loc 1 932 0
 814 004e 254B     		ldr	r3, .L80+8
 815 0050 43F83400 		str	r0, [r3, r4, lsl #3]
 933:uCOS-III\Source/os_tmr.c ****         p_spoke->NbrEntries = 1u;
 816              		.loc 1 933 0
 817 0054 03EBC403 		add	r3, r3, r4, lsl #3
 818 0058 0122     		movs	r2, #1
 819 005a 9A80     		strh	r2, [r3, #4]	@ movhi
 820 005c 30E0     		b	.L71
 821              	.L70:
 934:uCOS-III\Source/os_tmr.c ****     } else {
 935:uCOS-III\Source/os_tmr.c ****         p_tmr->Remain  = p_tmr->Match                       /* Compute remaining time for timer    
 936:uCOS-III\Source/os_tmr.c ****                        - OSTmrTickCtr;
ARM GAS  C:\Users\jorti\AppData\Local\Temp\ccmiXXpF.s 			page 33


 822              		.loc 1 936 0
 823 005e 1F4A     		ldr	r2, .L80
 824 0060 1268     		ldr	r2, [r2]
 825 0062 9B1A     		subs	r3, r3, r2
 935:uCOS-III\Source/os_tmr.c ****                        - OSTmrTickCtr;
 826              		.loc 1 935 0
 827 0064 C361     		str	r3, [r0, #28]
 937:uCOS-III\Source/os_tmr.c ****         p_tmr1         = p_spoke->FirstPtr;                 /* Point to current first timer in the 
 828              		.loc 1 937 0
 829 0066 1F4B     		ldr	r3, .L80+8
 830 0068 53F83430 		ldr	r3, [r3, r4, lsl #3]
 831              	.LVL74:
 938:uCOS-III\Source/os_tmr.c ****         while (p_tmr1 != (OS_TMR *)0) {
 832              		.loc 1 938 0
 833 006c 20E0     		b	.L72
 834              	.LVL75:
 835              	.L76:
 939:uCOS-III\Source/os_tmr.c ****             p_tmr1->Remain = p_tmr1->Match                  /* Compute time remaining of current ti
 836              		.loc 1 939 0
 837 006e 9A69     		ldr	r2, [r3, #24]
 940:uCOS-III\Source/os_tmr.c ****                            - OSTmrTickCtr;
 838              		.loc 1 940 0
 839 0070 1A49     		ldr	r1, .L80
 840 0072 0968     		ldr	r1, [r1]
 841 0074 521A     		subs	r2, r2, r1
 939:uCOS-III\Source/os_tmr.c ****             p_tmr1->Remain = p_tmr1->Match                  /* Compute time remaining of current ti
 842              		.loc 1 939 0
 843 0076 DA61     		str	r2, [r3, #28]
 941:uCOS-III\Source/os_tmr.c ****             if (p_tmr->Remain > p_tmr1->Remain) {           /* Do we need to insert AFTER current t
 844              		.loc 1 941 0
 845 0078 C169     		ldr	r1, [r0, #28]
 846 007a 8A42     		cmp	r2, r1
 847 007c 07D2     		bcs	.L73
 942:uCOS-III\Source/os_tmr.c ****                 if (p_tmr1->NextPtr  != (OS_TMR *)0) {      /* Yes, are we pointing at the last tim
 848              		.loc 1 942 0
 849 007e 1A69     		ldr	r2, [r3, #16]
 850 0080 AAB9     		cbnz	r2, .L78
 943:uCOS-III\Source/os_tmr.c ****                     p_tmr1            = p_tmr1->NextPtr;    /* No,  Point to next timer in the list
 944:uCOS-III\Source/os_tmr.c ****                 } else {
 945:uCOS-III\Source/os_tmr.c ****                     p_tmr->NextPtr    = (OS_TMR *)0;
 851              		.loc 1 945 0
 852 0082 0021     		movs	r1, #0
 853 0084 0161     		str	r1, [r0, #16]
 946:uCOS-III\Source/os_tmr.c ****                     p_tmr->PrevPtr    =  p_tmr1;
 854              		.loc 1 946 0
 855 0086 4361     		str	r3, [r0, #20]
 947:uCOS-III\Source/os_tmr.c ****                     p_tmr1->NextPtr   =  p_tmr;             /* Yes, timer to insert is now new last
 856              		.loc 1 947 0
 857 0088 1861     		str	r0, [r3, #16]
 858              	.LVL76:
 948:uCOS-III\Source/os_tmr.c ****                     p_tmr1            = (OS_TMR *)0;        /* Break loop                          
 859              		.loc 1 948 0
 860 008a 1346     		mov	r3, r2
 861 008c 10E0     		b	.L72
 862              	.LVL77:
 863              	.L73:
 949:uCOS-III\Source/os_tmr.c ****                 }
ARM GAS  C:\Users\jorti\AppData\Local\Temp\ccmiXXpF.s 			page 34


 950:uCOS-III\Source/os_tmr.c ****             } else {                                        /* Insert before the current timer     
 951:uCOS-III\Source/os_tmr.c ****                 if (p_tmr1->PrevPtr == (OS_TMR *)0) {       /* Are we inserting before the first ti
 864              		.loc 1 951 0
 865 008e 5A69     		ldr	r2, [r3, #20]
 866 0090 3AB9     		cbnz	r2, .L75
 952:uCOS-III\Source/os_tmr.c ****                     p_tmr->PrevPtr    = (OS_TMR *)0;
 867              		.loc 1 952 0
 868 0092 4261     		str	r2, [r0, #20]
 953:uCOS-III\Source/os_tmr.c ****                     p_tmr->NextPtr    = p_tmr1;
 869              		.loc 1 953 0
 870 0094 0361     		str	r3, [r0, #16]
 954:uCOS-III\Source/os_tmr.c ****                     p_tmr1->PrevPtr   = p_tmr;
 871              		.loc 1 954 0
 872 0096 5861     		str	r0, [r3, #20]
 955:uCOS-III\Source/os_tmr.c ****                     p_spoke->FirstPtr = p_tmr;
 873              		.loc 1 955 0
 874 0098 124B     		ldr	r3, .L80+8
 875              	.LVL78:
 876 009a 43F83400 		str	r0, [r3, r4, lsl #3]
 956:uCOS-III\Source/os_tmr.c ****                 } else {                                    /* Insert in between 2 timers already i
 957:uCOS-III\Source/os_tmr.c ****                     p_tmr0            = p_tmr1->PrevPtr;
 958:uCOS-III\Source/os_tmr.c ****                     p_tmr->PrevPtr    = p_tmr0;
 959:uCOS-III\Source/os_tmr.c ****                     p_tmr->NextPtr    = p_tmr1;
 960:uCOS-III\Source/os_tmr.c ****                     p_tmr0->NextPtr   = p_tmr;
 961:uCOS-III\Source/os_tmr.c ****                     p_tmr1->PrevPtr   = p_tmr;
 962:uCOS-III\Source/os_tmr.c ****                 }
 963:uCOS-III\Source/os_tmr.c ****                 p_tmr1 = (OS_TMR *)0;                       /* Break loop                          
 877              		.loc 1 963 0
 878 009e 1346     		mov	r3, r2
 879 00a0 06E0     		b	.L72
 880              	.LVL79:
 881              	.L75:
 958:uCOS-III\Source/os_tmr.c ****                     p_tmr->NextPtr    = p_tmr1;
 882              		.loc 1 958 0
 883 00a2 4261     		str	r2, [r0, #20]
 959:uCOS-III\Source/os_tmr.c ****                     p_tmr0->NextPtr   = p_tmr;
 884              		.loc 1 959 0
 885 00a4 0361     		str	r3, [r0, #16]
 960:uCOS-III\Source/os_tmr.c ****                     p_tmr1->PrevPtr   = p_tmr;
 886              		.loc 1 960 0
 887 00a6 1061     		str	r0, [r2, #16]
 961:uCOS-III\Source/os_tmr.c ****                 }
 888              		.loc 1 961 0
 889 00a8 5861     		str	r0, [r3, #20]
 890              		.loc 1 963 0
 891 00aa 0023     		movs	r3, #0
 892              	.LVL80:
 893 00ac 00E0     		b	.L72
 894              	.LVL81:
 895              	.L78:
 943:uCOS-III\Source/os_tmr.c ****                 } else {
 896              		.loc 1 943 0
 897 00ae 1346     		mov	r3, r2
 898              	.LVL82:
 899              	.L72:
 938:uCOS-III\Source/os_tmr.c ****             p_tmr1->Remain = p_tmr1->Match                  /* Compute time remaining of current ti
 900              		.loc 1 938 0
ARM GAS  C:\Users\jorti\AppData\Local\Temp\ccmiXXpF.s 			page 35


 901 00b0 002B     		cmp	r3, #0
 902 00b2 DCD1     		bne	.L76
 964:uCOS-III\Source/os_tmr.c ****             }
 965:uCOS-III\Source/os_tmr.c ****         }
 966:uCOS-III\Source/os_tmr.c ****         p_spoke->NbrEntries++;
 903              		.loc 1 966 0
 904 00b4 0B4B     		ldr	r3, .L80+8
 905              	.LVL83:
 906 00b6 03EBC403 		add	r3, r3, r4, lsl #3
 907 00ba 9A88     		ldrh	r2, [r3, #4]
 908 00bc 0132     		adds	r2, r2, #1
 909 00be 9A80     		strh	r2, [r3, #4]	@ movhi
 910              	.L71:
 967:uCOS-III\Source/os_tmr.c ****     }
 968:uCOS-III\Source/os_tmr.c ****     if (p_spoke->NbrEntriesMax < p_spoke->NbrEntries) {     /* Keep track of maximum number of entr
 911              		.loc 1 968 0
 912 00c0 084B     		ldr	r3, .L80+8
 913 00c2 03EBC403 		add	r3, r3, r4, lsl #3
 914 00c6 DA88     		ldrh	r2, [r3, #6]
 915 00c8 9B88     		ldrh	r3, [r3, #4]
 916 00ca 9A42     		cmp	r2, r3
 917 00cc 03D2     		bcs	.L66
 969:uCOS-III\Source/os_tmr.c ****         p_spoke->NbrEntriesMax = p_spoke->NbrEntries;
 918              		.loc 1 969 0
 919 00ce 054A     		ldr	r2, .L80+8
 920 00d0 02EBC404 		add	r4, r2, r4, lsl #3
 921              	.LVL84:
 922 00d4 E380     		strh	r3, [r4, #6]	@ movhi
 923              	.L66:
 970:uCOS-III\Source/os_tmr.c ****     }
 971:uCOS-III\Source/os_tmr.c **** }
 924              		.loc 1 971 0
 925 00d6 10BC     		pop	{r4}
 926              		.cfi_restore 4
 927              		.cfi_def_cfa_offset 0
 928 00d8 7047     		bx	lr
 929              	.L81:
 930 00da 00BF     		.align	2
 931              	.L80:
 932 00dc 00000000 		.word	OSTmrTickCtr
 933 00e0 00000000 		.word	OSCfg_TmrWheelSize
 934 00e4 00000000 		.word	OSCfg_TmrWheel
 935              		.cfi_endproc
 936              	.LFE11:
 937              		.size	OS_TmrLink, .-OS_TmrLink
 938              		.section	.text.OS_TmrResetPeak,"ax",%progbits
 939              		.align	2
 940              		.global	OS_TmrResetPeak
 941              		.thumb
 942              		.thumb_func
 943              		.type	OS_TmrResetPeak, %function
 944              	OS_TmrResetPeak:
 945              	.LFB12:
 972:uCOS-III\Source/os_tmr.c **** 
 973:uCOS-III\Source/os_tmr.c **** /*$PAGE*/
 974:uCOS-III\Source/os_tmr.c **** /*
 975:uCOS-III\Source/os_tmr.c **** ***************************************************************************************************
ARM GAS  C:\Users\jorti\AppData\Local\Temp\ccmiXXpF.s 			page 36


 976:uCOS-III\Source/os_tmr.c **** *                                              RESET TIMER LIST PEAK DETECTOR
 977:uCOS-III\Source/os_tmr.c **** *
 978:uCOS-III\Source/os_tmr.c **** * Description: This function is used to reset the peak detector for the number of entries in each s
 979:uCOS-III\Source/os_tmr.c **** *
 980:uCOS-III\Source/os_tmr.c **** * Arguments  : void
 981:uCOS-III\Source/os_tmr.c **** *
 982:uCOS-III\Source/os_tmr.c **** * Returns    : none
 983:uCOS-III\Source/os_tmr.c **** *
 984:uCOS-III\Source/os_tmr.c **** * Note(s)    : This function is INTERNAL to uC/OS-III and your application should not call it.
 985:uCOS-III\Source/os_tmr.c **** ***************************************************************************************************
 986:uCOS-III\Source/os_tmr.c **** */
 987:uCOS-III\Source/os_tmr.c **** 
 988:uCOS-III\Source/os_tmr.c **** void  OS_TmrResetPeak (void)
 989:uCOS-III\Source/os_tmr.c **** {
 946              		.loc 1 989 0
 947              		.cfi_startproc
 948              		@ args = 0, pretend = 0, frame = 0
 949              		@ frame_needed = 0, uses_anonymous_args = 0
 950              		@ link register save eliminated.
 951              	.LVL85:
 990:uCOS-III\Source/os_tmr.c ****     OS_TMR_SPOKE     *p_spoke;
 991:uCOS-III\Source/os_tmr.c ****     OS_TMR_SPOKE_IX   i;
 992:uCOS-III\Source/os_tmr.c **** 
 993:uCOS-III\Source/os_tmr.c **** 
 994:uCOS-III\Source/os_tmr.c **** 
 995:uCOS-III\Source/os_tmr.c ****     for (i = 0u; i < OSCfg_TmrWheelSize; i++) {
 952              		.loc 1 995 0
 953 0000 0023     		movs	r3, #0
 954 0002 06E0     		b	.L83
 955              	.LVL86:
 956              	.L84:
 996:uCOS-III\Source/os_tmr.c ****         p_spoke                = (OS_TMR_SPOKE *)&OSCfg_TmrWheel[i];
 997:uCOS-III\Source/os_tmr.c ****         p_spoke->NbrEntriesMax = (OS_OBJ_QTY    )0u;
 957              		.loc 1 997 0 discriminator 3
 958 0004 054A     		ldr	r2, .L85
 959 0006 02EBC302 		add	r2, r2, r3, lsl #3
 960 000a 0021     		movs	r1, #0
 961 000c D180     		strh	r1, [r2, #6]	@ movhi
 995:uCOS-III\Source/os_tmr.c ****         p_spoke                = (OS_TMR_SPOKE *)&OSCfg_TmrWheel[i];
 962              		.loc 1 995 0 discriminator 3
 963 000e 0133     		adds	r3, r3, #1
 964              	.LVL87:
 965 0010 9BB2     		uxth	r3, r3
 966              	.LVL88:
 967              	.L83:
 995:uCOS-III\Source/os_tmr.c ****         p_spoke                = (OS_TMR_SPOKE *)&OSCfg_TmrWheel[i];
 968              		.loc 1 995 0 is_stmt 0 discriminator 1
 969 0012 034A     		ldr	r2, .L85+4
 970 0014 1288     		ldrh	r2, [r2]
 971 0016 9342     		cmp	r3, r2
 972 0018 F4D3     		bcc	.L84
 998:uCOS-III\Source/os_tmr.c ****     }
 999:uCOS-III\Source/os_tmr.c **** }
 973              		.loc 1 999 0 is_stmt 1
 974 001a 7047     		bx	lr
 975              	.L86:
 976              		.align	2
ARM GAS  C:\Users\jorti\AppData\Local\Temp\ccmiXXpF.s 			page 37


 977              	.L85:
 978 001c 00000000 		.word	OSCfg_TmrWheel
 979 0020 00000000 		.word	OSCfg_TmrWheelSize
 980              		.cfi_endproc
 981              	.LFE12:
 982              		.size	OS_TmrResetPeak, .-OS_TmrResetPeak
 983              		.section	.text.OS_TmrUnlink,"ax",%progbits
 984              		.align	2
 985              		.global	OS_TmrUnlink
 986              		.thumb
 987              		.thumb_func
 988              		.type	OS_TmrUnlink, %function
 989              	OS_TmrUnlink:
 990              	.LFB13:
1000:uCOS-III\Source/os_tmr.c **** 
1001:uCOS-III\Source/os_tmr.c **** /*$PAGE*/
1002:uCOS-III\Source/os_tmr.c **** /*
1003:uCOS-III\Source/os_tmr.c **** ***************************************************************************************************
1004:uCOS-III\Source/os_tmr.c **** *                                         REMOVE A TIMER FROM THE TIMER WHEEL
1005:uCOS-III\Source/os_tmr.c **** *
1006:uCOS-III\Source/os_tmr.c **** * Description: This function is called to remove the timer from the timer wheel.
1007:uCOS-III\Source/os_tmr.c **** *
1008:uCOS-III\Source/os_tmr.c **** * Arguments  : p_tmr          Is a pointer to the timer to remove.
1009:uCOS-III\Source/os_tmr.c **** *              -----
1010:uCOS-III\Source/os_tmr.c **** *
1011:uCOS-III\Source/os_tmr.c **** * Returns    : none
1012:uCOS-III\Source/os_tmr.c **** *
1013:uCOS-III\Source/os_tmr.c **** * Note(s)    : 1) This function is INTERNAL to uC/OS-III and your application MUST NOT call it.
1014:uCOS-III\Source/os_tmr.c **** ***************************************************************************************************
1015:uCOS-III\Source/os_tmr.c **** */
1016:uCOS-III\Source/os_tmr.c **** 
1017:uCOS-III\Source/os_tmr.c **** void  OS_TmrUnlink (OS_TMR  *p_tmr)
1018:uCOS-III\Source/os_tmr.c **** {
 991              		.loc 1 1018 0
 992              		.cfi_startproc
 993              		@ args = 0, pretend = 0, frame = 0
 994              		@ frame_needed = 0, uses_anonymous_args = 0
 995              		@ link register save eliminated.
 996              	.LVL89:
1019:uCOS-III\Source/os_tmr.c ****     OS_TMR_SPOKE    *p_spoke;
1020:uCOS-III\Source/os_tmr.c ****     OS_TMR          *p_tmr1;
1021:uCOS-III\Source/os_tmr.c ****     OS_TMR          *p_tmr2;
1022:uCOS-III\Source/os_tmr.c ****     OS_TMR_SPOKE_IX  spoke;
1023:uCOS-III\Source/os_tmr.c **** 
1024:uCOS-III\Source/os_tmr.c **** 
1025:uCOS-III\Source/os_tmr.c **** 
1026:uCOS-III\Source/os_tmr.c ****     spoke   = (OS_TMR_SPOKE_IX)(p_tmr->Match % OSCfg_TmrWheelSize);
 997              		.loc 1 1026 0
 998 0000 8169     		ldr	r1, [r0, #24]
 999 0002 134B     		ldr	r3, .L90
 1000 0004 1B88     		ldrh	r3, [r3]
 1001 0006 B1FBF3F2 		udiv	r2, r1, r3
 1002 000a 03FB1213 		mls	r3, r3, r2, r1
 1003              	.LVL90:
1027:uCOS-III\Source/os_tmr.c ****     p_spoke = &OSCfg_TmrWheel[spoke];
 1004              		.loc 1 1027 0
 1005 000e 9BB2     		uxth	r3, r3
ARM GAS  C:\Users\jorti\AppData\Local\Temp\ccmiXXpF.s 			page 38


 1006              	.LVL91:
1028:uCOS-III\Source/os_tmr.c **** 
1029:uCOS-III\Source/os_tmr.c ****     if (p_spoke->FirstPtr == p_tmr) {                       /* See if timer to remove is at the beg
 1007              		.loc 1 1029 0
 1008 0010 104A     		ldr	r2, .L90+4
 1009 0012 52F83320 		ldr	r2, [r2, r3, lsl #3]
 1010 0016 9042     		cmp	r0, r2
 1011 0018 07D1     		bne	.L88
1030:uCOS-III\Source/os_tmr.c ****         p_tmr1            = (OS_TMR *)p_tmr->NextPtr;
 1012              		.loc 1 1030 0
 1013 001a 0269     		ldr	r2, [r0, #16]
 1014              	.LVL92:
1031:uCOS-III\Source/os_tmr.c ****         p_spoke->FirstPtr = (OS_TMR *)p_tmr1;
 1015              		.loc 1 1031 0
 1016 001c 0D49     		ldr	r1, .L90+4
 1017 001e 41F83320 		str	r2, [r1, r3, lsl #3]
1032:uCOS-III\Source/os_tmr.c ****         if (p_tmr1 != (OS_TMR *)0) {
 1018              		.loc 1 1032 0
 1019 0022 3AB1     		cbz	r2, .L89
1033:uCOS-III\Source/os_tmr.c ****             p_tmr1->PrevPtr = (OS_TMR *)0;
 1020              		.loc 1 1033 0
 1021 0024 0021     		movs	r1, #0
 1022 0026 5161     		str	r1, [r2, #20]
 1023 0028 04E0     		b	.L89
 1024              	.LVL93:
 1025              	.L88:
1034:uCOS-III\Source/os_tmr.c ****         }
1035:uCOS-III\Source/os_tmr.c ****     } else {
1036:uCOS-III\Source/os_tmr.c ****         p_tmr1          = (OS_TMR *)p_tmr->PrevPtr;         /* Remove timer from somewhere in the l
 1026              		.loc 1 1036 0
 1027 002a 4169     		ldr	r1, [r0, #20]
 1028              	.LVL94:
1037:uCOS-III\Source/os_tmr.c ****         p_tmr2          = (OS_TMR *)p_tmr->NextPtr;
 1029              		.loc 1 1037 0
 1030 002c 0269     		ldr	r2, [r0, #16]
 1031              	.LVL95:
1038:uCOS-III\Source/os_tmr.c ****         p_tmr1->NextPtr = p_tmr2;
 1032              		.loc 1 1038 0
 1033 002e 0A61     		str	r2, [r1, #16]
1039:uCOS-III\Source/os_tmr.c ****         if (p_tmr2 != (OS_TMR *)0) {
 1034              		.loc 1 1039 0
 1035 0030 02B1     		cbz	r2, .L89
1040:uCOS-III\Source/os_tmr.c ****             p_tmr2->PrevPtr = (OS_TMR *)p_tmr1;
 1036              		.loc 1 1040 0
 1037 0032 5161     		str	r1, [r2, #20]
 1038              	.LVL96:
 1039              	.L89:
1041:uCOS-III\Source/os_tmr.c ****         }
1042:uCOS-III\Source/os_tmr.c ****     }
1043:uCOS-III\Source/os_tmr.c ****     p_tmr->State   = OS_TMR_STATE_STOPPED;
 1040              		.loc 1 1043 0
 1041 0034 0122     		movs	r2, #1
 1042 0036 80F82A20 		strb	r2, [r0, #42]
1044:uCOS-III\Source/os_tmr.c ****     p_tmr->NextPtr = (OS_TMR *)0;
 1043              		.loc 1 1044 0
 1044 003a 0022     		movs	r2, #0
 1045 003c 0261     		str	r2, [r0, #16]
ARM GAS  C:\Users\jorti\AppData\Local\Temp\ccmiXXpF.s 			page 39


1045:uCOS-III\Source/os_tmr.c ****     p_tmr->PrevPtr = (OS_TMR *)0;
 1046              		.loc 1 1045 0
 1047 003e 4261     		str	r2, [r0, #20]
1046:uCOS-III\Source/os_tmr.c ****     p_spoke->NbrEntries--;
 1048              		.loc 1 1046 0
 1049 0040 044A     		ldr	r2, .L90+4
 1050 0042 02EBC303 		add	r3, r2, r3, lsl #3
 1051              	.LVL97:
 1052 0046 9A88     		ldrh	r2, [r3, #4]
 1053 0048 013A     		subs	r2, r2, #1
 1054 004a 9A80     		strh	r2, [r3, #4]	@ movhi
 1055 004c 7047     		bx	lr
 1056              	.L91:
 1057 004e 00BF     		.align	2
 1058              	.L90:
 1059 0050 00000000 		.word	OSCfg_TmrWheelSize
 1060 0054 00000000 		.word	OSCfg_TmrWheel
 1061              		.cfi_endproc
 1062              	.LFE13:
 1063              		.size	OS_TmrUnlink, .-OS_TmrUnlink
 1064              		.section	.text.OSTmrDel,"ax",%progbits
 1065              		.align	2
 1066              		.global	OSTmrDel
 1067              		.thumb
 1068              		.thumb_func
 1069              		.type	OSTmrDel, %function
 1070              	OSTmrDel:
 1071              	.LFB2:
 214:uCOS-III\Source/os_tmr.c ****     OS_ERR       err;
 1072              		.loc 1 214 0
 1073              		.cfi_startproc
 1074              		@ args = 0, pretend = 0, frame = 8
 1075              		@ frame_needed = 0, uses_anonymous_args = 0
 1076              	.LVL98:
 1077 0000 F0B5     		push	{r4, r5, r6, r7, lr}
 1078              		.cfi_def_cfa_offset 20
 1079              		.cfi_offset 4, -20
 1080              		.cfi_offset 5, -16
 1081              		.cfi_offset 6, -12
 1082              		.cfi_offset 7, -8
 1083              		.cfi_offset 14, -4
 1084 0002 83B0     		sub	sp, sp, #12
 1085              		.cfi_def_cfa_offset 32
 228:uCOS-III\Source/os_tmr.c ****        *p_err  = OS_ERR_TMR_ISR;
 1086              		.loc 1 228 0
 1087 0004 264B     		ldr	r3, .L102
 1088 0006 1D78     		ldrb	r5, [r3]	@ zero_extendqisi2
 1089 0008 25B1     		cbz	r5, .L93
 229:uCOS-III\Source/os_tmr.c ****         return (DEF_FALSE);
 1090              		.loc 1 229 0
 1091 000a 47F24333 		movw	r3, #29507
 1092 000e 0B80     		strh	r3, [r1]	@ movhi
 230:uCOS-III\Source/os_tmr.c ****     }
 1093              		.loc 1 230 0
 1094 0010 0025     		movs	r5, #0
 1095 0012 42E0     		b	.L94
 1096              	.L93:
ARM GAS  C:\Users\jorti\AppData\Local\Temp\ccmiXXpF.s 			page 40


 235:uCOS-III\Source/os_tmr.c ****        *p_err = OS_ERR_TMR_INVALID;
 1097              		.loc 1 235 0
 1098 0014 18B9     		cbnz	r0, .L95
 236:uCOS-III\Source/os_tmr.c ****         return (DEF_FALSE);
 1099              		.loc 1 236 0
 1100 0016 47F24233 		movw	r3, #29506
 1101 001a 0B80     		strh	r3, [r1]	@ movhi
 237:uCOS-III\Source/os_tmr.c ****     }
 1102              		.loc 1 237 0
 1103 001c 3DE0     		b	.L94
 1104              	.L95:
 1105 001e 0E46     		mov	r6, r1
 1106 0020 0446     		mov	r4, r0
 248:uCOS-III\Source/os_tmr.c **** #if OS_CFG_DBG_EN > 0u
 1107              		.loc 1 248 0
 1108 0022 0DF10600 		add	r0, sp, #6
 1109              	.LVL99:
 1110 0026 FFF7FEFF 		bl	OSSchedLock
 1111              	.LVL100:
 250:uCOS-III\Source/os_tmr.c **** #endif
 1112              		.loc 1 250 0
 1113 002a 2046     		mov	r0, r4
 1114 002c FFF7FEFF 		bl	OS_TmrDbgListRemove
 1115              	.LVL101:
 252:uCOS-III\Source/os_tmr.c **** 
 1116              		.loc 1 252 0
 1117 0030 1C4A     		ldr	r2, .L102+4
 1118 0032 1388     		ldrh	r3, [r2]
 1119 0034 013B     		subs	r3, r3, #1
 1120 0036 1380     		strh	r3, [r2]	@ movhi
 254:uCOS-III\Source/os_tmr.c ****         case OS_TMR_STATE_RUNNING:
 1121              		.loc 1 254 0
 1122 0038 94F82A70 		ldrb	r7, [r4, #42]	@ zero_extendqisi2
 1123 003c 032F     		cmp	r7, #3
 1124 003e 25D8     		bhi	.L96
 1125 0040 DFE807F0 		tbb	[pc, r7]
 1126              	.L98:
 1127 0044 1B       		.byte	(.L97-.L98)/2
 1128 0045 10       		.byte	(.L99-.L98)/2
 1129 0046 02       		.byte	(.L100-.L98)/2
 1130 0047 10       		.byte	(.L99-.L98)/2
 1131              		.p2align 1
 1132              	.L100:
 256:uCOS-III\Source/os_tmr.c ****              OS_TmrClr(p_tmr);
 1133              		.loc 1 256 0
 1134 0048 2046     		mov	r0, r4
 1135 004a FFF7FEFF 		bl	OS_TmrUnlink
 1136              	.LVL102:
 257:uCOS-III\Source/os_tmr.c ****              OSSchedUnlock(&err);
 1137              		.loc 1 257 0
 1138 004e 2046     		mov	r0, r4
 1139 0050 FFF7FEFF 		bl	OS_TmrClr
 1140              	.LVL103:
 258:uCOS-III\Source/os_tmr.c ****             *p_err   = OS_ERR_NONE;
 1141              		.loc 1 258 0
 1142 0054 0DF10600 		add	r0, sp, #6
 1143 0058 FFF7FEFF 		bl	OSSchedUnlock
ARM GAS  C:\Users\jorti\AppData\Local\Temp\ccmiXXpF.s 			page 41


 1144              	.LVL104:
 259:uCOS-III\Source/os_tmr.c ****              success = DEF_TRUE;
 1145              		.loc 1 259 0
 1146 005c 0023     		movs	r3, #0
 1147 005e 3380     		strh	r3, [r6]	@ movhi
 1148              	.LVL105:
 260:uCOS-III\Source/os_tmr.c ****              break;
 1149              		.loc 1 260 0
 1150 0060 0125     		movs	r5, #1
 261:uCOS-III\Source/os_tmr.c **** 
 1151              		.loc 1 261 0
 1152 0062 1AE0     		b	.L94
 1153              	.LVL106:
 1154              	.L99:
 265:uCOS-III\Source/os_tmr.c ****              OSSchedUnlock(&err);
 1155              		.loc 1 265 0
 1156 0064 2046     		mov	r0, r4
 1157 0066 FFF7FEFF 		bl	OS_TmrClr
 1158              	.LVL107:
 266:uCOS-III\Source/os_tmr.c ****             *p_err   = OS_ERR_NONE;
 1159              		.loc 1 266 0
 1160 006a 0DF10600 		add	r0, sp, #6
 1161 006e FFF7FEFF 		bl	OSSchedUnlock
 1162              	.LVL108:
 267:uCOS-III\Source/os_tmr.c ****              success = DEF_TRUE;
 1163              		.loc 1 267 0
 1164 0072 0023     		movs	r3, #0
 1165 0074 3380     		strh	r3, [r6]	@ movhi
 1166              	.LVL109:
 268:uCOS-III\Source/os_tmr.c ****              break;
 1167              		.loc 1 268 0
 1168 0076 0125     		movs	r5, #1
 269:uCOS-III\Source/os_tmr.c ****              
 1169              		.loc 1 269 0
 1170 0078 0FE0     		b	.L94
 1171              	.LVL110:
 1172              	.L97:
 272:uCOS-III\Source/os_tmr.c ****             *p_err   = OS_ERR_TMR_INACTIVE;
 1173              		.loc 1 272 0
 1174 007a 0DF10600 		add	r0, sp, #6
 1175 007e FFF7FEFF 		bl	OSSchedUnlock
 1176              	.LVL111:
 273:uCOS-III\Source/os_tmr.c ****              success = DEF_FALSE;
 1177              		.loc 1 273 0
 1178 0082 47F23D33 		movw	r3, #29501
 1179 0086 3380     		strh	r3, [r6]	@ movhi
 1180              	.LVL112:
 274:uCOS-III\Source/os_tmr.c ****              break;
 1181              		.loc 1 274 0
 1182 0088 3D46     		mov	r5, r7
 275:uCOS-III\Source/os_tmr.c **** 
 1183              		.loc 1 275 0
 1184 008a 06E0     		b	.L94
 1185              	.LVL113:
 1186              	.L96:
 278:uCOS-III\Source/os_tmr.c ****             *p_err   = OS_ERR_TMR_INVALID_STATE;
 1187              		.loc 1 278 0
ARM GAS  C:\Users\jorti\AppData\Local\Temp\ccmiXXpF.s 			page 42


 1188 008c 0DF10600 		add	r0, sp, #6
 1189 0090 FFF7FEFF 		bl	OSSchedUnlock
 1190              	.LVL114:
 279:uCOS-III\Source/os_tmr.c ****              success = DEF_FALSE;
 1191              		.loc 1 279 0
 1192 0094 47F24133 		movw	r3, #29505
 1193 0098 3380     		strh	r3, [r6]	@ movhi
 1194              	.LVL115:
 1195              	.L94:
 284:uCOS-III\Source/os_tmr.c **** #endif
 1196              		.loc 1 284 0
 1197 009a 2846     		mov	r0, r5
 1198 009c 03B0     		add	sp, sp, #12
 1199              		.cfi_def_cfa_offset 20
 1200              		@ sp needed
 1201 009e F0BD     		pop	{r4, r5, r6, r7, pc}
 1202              	.L103:
 1203              		.align	2
 1204              	.L102:
 1205 00a0 00000000 		.word	OSIntNestingCtr
 1206 00a4 00000000 		.word	OSTmrQty
 1207              		.cfi_endproc
 1208              	.LFE2:
 1209              		.size	OSTmrDel, .-OSTmrDel
 1210              		.section	.text.OSTmrStart,"ax",%progbits
 1211              		.align	2
 1212              		.global	OSTmrStart
 1213              		.thumb
 1214              		.thumb_func
 1215              		.type	OSTmrStart, %function
 1216              	OSTmrStart:
 1217              	.LFB4:
 423:uCOS-III\Source/os_tmr.c ****     OS_ERR       err;
 1218              		.loc 1 423 0
 1219              		.cfi_startproc
 1220              		@ args = 0, pretend = 0, frame = 8
 1221              		@ frame_needed = 0, uses_anonymous_args = 0
 1222              	.LVL116:
 1223 0000 F0B5     		push	{r4, r5, r6, r7, lr}
 1224              		.cfi_def_cfa_offset 20
 1225              		.cfi_offset 4, -20
 1226              		.cfi_offset 5, -16
 1227              		.cfi_offset 6, -12
 1228              		.cfi_offset 7, -8
 1229              		.cfi_offset 14, -4
 1230 0002 83B0     		sub	sp, sp, #12
 1231              		.cfi_def_cfa_offset 32
 437:uCOS-III\Source/os_tmr.c ****        *p_err = OS_ERR_TMR_ISR;
 1232              		.loc 1 437 0
 1233 0004 244B     		ldr	r3, .L114
 1234 0006 1C78     		ldrb	r4, [r3]	@ zero_extendqisi2
 1235 0008 24B1     		cbz	r4, .L105
 438:uCOS-III\Source/os_tmr.c ****         return (DEF_FALSE);
 1236              		.loc 1 438 0
 1237 000a 47F24333 		movw	r3, #29507
 1238 000e 0B80     		strh	r3, [r1]	@ movhi
 439:uCOS-III\Source/os_tmr.c ****     }
ARM GAS  C:\Users\jorti\AppData\Local\Temp\ccmiXXpF.s 			page 43


 1239              		.loc 1 439 0
 1240 0010 0024     		movs	r4, #0
 1241 0012 3DE0     		b	.L106
 1242              	.L105:
 444:uCOS-III\Source/os_tmr.c ****        *p_err = OS_ERR_TMR_INVALID;
 1243              		.loc 1 444 0
 1244 0014 18B9     		cbnz	r0, .L107
 445:uCOS-III\Source/os_tmr.c ****         return (DEF_FALSE);
 1245              		.loc 1 445 0
 1246 0016 47F24233 		movw	r3, #29506
 1247 001a 0B80     		strh	r3, [r1]	@ movhi
 446:uCOS-III\Source/os_tmr.c ****     }
 1248              		.loc 1 446 0
 1249 001c 38E0     		b	.L106
 1250              	.L107:
 1251 001e 0E46     		mov	r6, r1
 1252 0020 0546     		mov	r5, r0
 457:uCOS-III\Source/os_tmr.c ****     switch (p_tmr->State) {
 1253              		.loc 1 457 0
 1254 0022 0DF10600 		add	r0, sp, #6
 1255              	.LVL117:
 1256 0026 FFF7FEFF 		bl	OSSchedLock
 1257              	.LVL118:
 458:uCOS-III\Source/os_tmr.c ****         case OS_TMR_STATE_RUNNING:                          /* Restart the timer                   
 1258              		.loc 1 458 0
 1259 002a 95F82A70 		ldrb	r7, [r5, #42]	@ zero_extendqisi2
 1260 002e 032F     		cmp	r7, #3
 1261 0030 27D8     		bhi	.L108
 1262 0032 DFE807F0 		tbb	[pc, r7]
 1263              	.L110:
 1264 0036 1D       		.byte	(.L109-.L110)/2
 1265 0037 11       		.byte	(.L111-.L110)/2
 1266 0038 02       		.byte	(.L112-.L110)/2
 1267 0039 11       		.byte	(.L111-.L110)/2
 1268              		.p2align 1
 1269              	.L112:
 460:uCOS-III\Source/os_tmr.c ****              OS_TmrLink(p_tmr, OS_OPT_LINK_DLY);            /* ... Link timer to timer wheel (see N
 1270              		.loc 1 460 0
 1271 003a 2846     		mov	r0, r5
 1272 003c FFF7FEFF 		bl	OS_TmrUnlink
 1273              	.LVL119:
 461:uCOS-III\Source/os_tmr.c ****              OSSchedUnlock(&err);
 1274              		.loc 1 461 0
 1275 0040 0021     		movs	r1, #0
 1276 0042 2846     		mov	r0, r5
 1277 0044 FFF7FEFF 		bl	OS_TmrLink
 1278              	.LVL120:
 462:uCOS-III\Source/os_tmr.c ****             *p_err   = OS_ERR_NONE;
 1279              		.loc 1 462 0
 1280 0048 0DF10600 		add	r0, sp, #6
 1281 004c FFF7FEFF 		bl	OSSchedUnlock
 1282              	.LVL121:
 463:uCOS-III\Source/os_tmr.c ****              success = DEF_TRUE;
 1283              		.loc 1 463 0
 1284 0050 0023     		movs	r3, #0
 1285 0052 3380     		strh	r3, [r6]	@ movhi
 1286              	.LVL122:
ARM GAS  C:\Users\jorti\AppData\Local\Temp\ccmiXXpF.s 			page 44


 464:uCOS-III\Source/os_tmr.c ****              break;
 1287              		.loc 1 464 0
 1288 0054 0124     		movs	r4, #1
 465:uCOS-III\Source/os_tmr.c **** 
 1289              		.loc 1 465 0
 1290 0056 1BE0     		b	.L106
 1291              	.LVL123:
 1292              	.L111:
 469:uCOS-III\Source/os_tmr.c ****              OSSchedUnlock(&err);
 1293              		.loc 1 469 0
 1294 0058 0021     		movs	r1, #0
 1295 005a 2846     		mov	r0, r5
 1296 005c FFF7FEFF 		bl	OS_TmrLink
 1297              	.LVL124:
 470:uCOS-III\Source/os_tmr.c ****             *p_err   = OS_ERR_NONE;
 1298              		.loc 1 470 0
 1299 0060 0DF10600 		add	r0, sp, #6
 1300 0064 FFF7FEFF 		bl	OSSchedUnlock
 1301              	.LVL125:
 471:uCOS-III\Source/os_tmr.c ****              success = DEF_TRUE;
 1302              		.loc 1 471 0
 1303 0068 0023     		movs	r3, #0
 1304 006a 3380     		strh	r3, [r6]	@ movhi
 1305              	.LVL126:
 472:uCOS-III\Source/os_tmr.c ****              break;
 1306              		.loc 1 472 0
 1307 006c 0124     		movs	r4, #1
 473:uCOS-III\Source/os_tmr.c **** 
 1308              		.loc 1 473 0
 1309 006e 0FE0     		b	.L106
 1310              	.LVL127:
 1311              	.L109:
 476:uCOS-III\Source/os_tmr.c ****             *p_err   = OS_ERR_TMR_INACTIVE;
 1312              		.loc 1 476 0
 1313 0070 0DF10600 		add	r0, sp, #6
 1314 0074 FFF7FEFF 		bl	OSSchedUnlock
 1315              	.LVL128:
 477:uCOS-III\Source/os_tmr.c ****              success = DEF_FALSE;
 1316              		.loc 1 477 0
 1317 0078 47F23D33 		movw	r3, #29501
 1318 007c 3380     		strh	r3, [r6]	@ movhi
 1319              	.LVL129:
 478:uCOS-III\Source/os_tmr.c ****              break;
 1320              		.loc 1 478 0
 1321 007e 3C46     		mov	r4, r7
 479:uCOS-III\Source/os_tmr.c **** 
 1322              		.loc 1 479 0
 1323 0080 06E0     		b	.L106
 1324              	.LVL130:
 1325              	.L108:
 482:uCOS-III\Source/os_tmr.c ****             *p_err = OS_ERR_TMR_INVALID_STATE;
 1326              		.loc 1 482 0
 1327 0082 0DF10600 		add	r0, sp, #6
 1328 0086 FFF7FEFF 		bl	OSSchedUnlock
 1329              	.LVL131:
 483:uCOS-III\Source/os_tmr.c ****              success = DEF_FALSE;
 1330              		.loc 1 483 0
ARM GAS  C:\Users\jorti\AppData\Local\Temp\ccmiXXpF.s 			page 45


 1331 008a 47F24133 		movw	r3, #29505
 1332 008e 3380     		strh	r3, [r6]	@ movhi
 1333              	.LVL132:
 1334              	.L106:
 488:uCOS-III\Source/os_tmr.c **** 
 1335              		.loc 1 488 0
 1336 0090 2046     		mov	r0, r4
 1337 0092 03B0     		add	sp, sp, #12
 1338              		.cfi_def_cfa_offset 20
 1339              		@ sp needed
 1340 0094 F0BD     		pop	{r4, r5, r6, r7, pc}
 1341              	.L115:
 1342 0096 00BF     		.align	2
 1343              	.L114:
 1344 0098 00000000 		.word	OSIntNestingCtr
 1345              		.cfi_endproc
 1346              	.LFE4:
 1347              		.size	OSTmrStart, .-OSTmrStart
 1348              		.section	.text.OSTmrStop,"ax",%progbits
 1349              		.align	2
 1350              		.global	OSTmrStop
 1351              		.thumb
 1352              		.thumb_func
 1353              		.type	OSTmrStop, %function
 1354              	OSTmrStop:
 1355              	.LFB6:
 611:uCOS-III\Source/os_tmr.c ****     OS_TMR_CALLBACK_PTR  p_fnct;
 1356              		.loc 1 611 0
 1357              		.cfi_startproc
 1358              		@ args = 0, pretend = 0, frame = 8
 1359              		@ frame_needed = 0, uses_anonymous_args = 0
 1360              	.LVL133:
 1361 0000 2DE9F043 		push	{r4, r5, r6, r7, r8, r9, lr}
 1362              		.cfi_def_cfa_offset 28
 1363              		.cfi_offset 4, -28
 1364              		.cfi_offset 5, -24
 1365              		.cfi_offset 6, -20
 1366              		.cfi_offset 7, -16
 1367              		.cfi_offset 8, -12
 1368              		.cfi_offset 9, -8
 1369              		.cfi_offset 14, -4
 1370 0004 83B0     		sub	sp, sp, #12
 1371              		.cfi_def_cfa_offset 40
 626:uCOS-III\Source/os_tmr.c ****        *p_err = OS_ERR_TMR_ISR;
 1372              		.loc 1 626 0
 1373 0006 344C     		ldr	r4, .L133
 1374 0008 2478     		ldrb	r4, [r4]	@ zero_extendqisi2
 1375 000a 24B1     		cbz	r4, .L117
 627:uCOS-III\Source/os_tmr.c ****         return (DEF_FALSE);
 1376              		.loc 1 627 0
 1377 000c 47F24332 		movw	r2, #29507
 1378              	.LVL134:
 1379 0010 1A80     		strh	r2, [r3]	@ movhi
 628:uCOS-III\Source/os_tmr.c ****     }
 1380              		.loc 1 628 0
 1381 0012 0024     		movs	r4, #0
 1382 0014 5BE0     		b	.L118
ARM GAS  C:\Users\jorti\AppData\Local\Temp\ccmiXXpF.s 			page 46


 1383              	.LVL135:
 1384              	.L117:
 633:uCOS-III\Source/os_tmr.c ****        *p_err = OS_ERR_TMR_INVALID;
 1385              		.loc 1 633 0
 1386 0016 18B9     		cbnz	r0, .L119
 634:uCOS-III\Source/os_tmr.c ****         return (DEF_FALSE);
 1387              		.loc 1 634 0
 1388 0018 47F24232 		movw	r2, #29506
 1389              	.LVL136:
 1390 001c 1A80     		strh	r2, [r3]	@ movhi
 635:uCOS-III\Source/os_tmr.c ****     }
 1391              		.loc 1 635 0
 1392 001e 56E0     		b	.L118
 1393              	.LVL137:
 1394              	.L119:
 1395 0020 1F46     		mov	r7, r3
 1396 0022 9146     		mov	r9, r2
 1397 0024 0D46     		mov	r5, r1
 1398 0026 0646     		mov	r6, r0
 646:uCOS-III\Source/os_tmr.c ****     switch (p_tmr->State) {
 1399              		.loc 1 646 0
 1400 0028 0DF10600 		add	r0, sp, #6
 1401              	.LVL138:
 1402 002c FFF7FEFF 		bl	OSSchedLock
 1403              	.LVL139:
 647:uCOS-III\Source/os_tmr.c ****         case OS_TMR_STATE_RUNNING:
 1404              		.loc 1 647 0
 1405 0030 96F82A80 		ldrb	r8, [r6, #42]	@ zero_extendqisi2
 1406 0034 B8F1030F 		cmp	r8, #3
 1407 0038 42D8     		bhi	.L120
 1408 003a DFE808F0 		tbb	[pc, r8]
 1409              	.L122:
 1410 003e 38       		.byte	(.L121-.L122)/2
 1411 003f 2F       		.byte	(.L123-.L122)/2
 1412 0040 02       		.byte	(.L124-.L122)/2
 1413 0041 2F       		.byte	(.L123-.L122)/2
 1414              		.p2align 1
 1415              	.L124:
 649:uCOS-III\Source/os_tmr.c ****             *p_err = OS_ERR_NONE;
 1416              		.loc 1 649 0
 1417 0042 3046     		mov	r0, r6
 1418 0044 FFF7FEFF 		bl	OS_TmrUnlink
 1419              	.LVL140:
 650:uCOS-III\Source/os_tmr.c ****              switch (opt) {
 1420              		.loc 1 650 0
 1421 0048 0023     		movs	r3, #0
 1422 004a 3B80     		strh	r3, [r7]	@ movhi
 651:uCOS-III\Source/os_tmr.c ****                  case OS_OPT_TMR_CALLBACK:
 1423              		.loc 1 651 0
 1424 004c 032D     		cmp	r5, #3
 1425 004e 03D0     		beq	.L126
 1426 0050 042D     		cmp	r5, #4
 1427 0052 0BD0     		beq	.L127
 1428 0054 A5B9     		cbnz	r5, .L131
 1429 0056 1BE0     		b	.L128
 1430              	.L126:
 653:uCOS-III\Source/os_tmr.c ****                       if (p_fnct != (OS_TMR_CALLBACK_PTR)0) {              /* ... if available     
ARM GAS  C:\Users\jorti\AppData\Local\Temp\ccmiXXpF.s 			page 47


 1431              		.loc 1 653 0
 1432 0058 B368     		ldr	r3, [r6, #8]
 1433              	.LVL141:
 654:uCOS-III\Source/os_tmr.c ****                         (*p_fnct)((void *)p_tmr, p_tmr->CallbackPtrArg);   /* Use callback arg when
 1434              		.loc 1 654 0
 1435 005a 1BB1     		cbz	r3, .L129
 655:uCOS-III\Source/os_tmr.c ****                       } else {
 1436              		.loc 1 655 0
 1437 005c F168     		ldr	r1, [r6, #12]
 1438 005e 3046     		mov	r0, r6
 1439 0060 9847     		blx	r3
 1440              	.LVL142:
 1441 0062 15E0     		b	.L128
 1442              	.LVL143:
 1443              	.L129:
 657:uCOS-III\Source/os_tmr.c ****                       }
 1444              		.loc 1 657 0
 1445 0064 47F24433 		movw	r3, #29508
 1446              	.LVL144:
 1447 0068 3B80     		strh	r3, [r7]	@ movhi
 1448              	.LVL145:
 1449 006a 11E0     		b	.L128
 1450              	.L127:
 662:uCOS-III\Source/os_tmr.c ****                       if (p_fnct != (OS_TMR_CALLBACK_PTR)0) {
 1451              		.loc 1 662 0
 1452 006c B368     		ldr	r3, [r6, #8]
 1453              	.LVL146:
 663:uCOS-III\Source/os_tmr.c ****                         (*p_fnct)((void *)p_tmr, p_callback_arg);     /* .. using the 'callback_arg
 1454              		.loc 1 663 0
 1455 006e 1BB1     		cbz	r3, .L130
 664:uCOS-III\Source/os_tmr.c ****                       } else {
 1456              		.loc 1 664 0
 1457 0070 4946     		mov	r1, r9
 1458 0072 3046     		mov	r0, r6
 1459 0074 9847     		blx	r3
 1460              	.LVL147:
 1461 0076 0BE0     		b	.L128
 1462              	.LVL148:
 1463              	.L130:
 666:uCOS-III\Source/os_tmr.c ****                       }
 1464              		.loc 1 666 0
 1465 0078 47F24433 		movw	r3, #29508
 1466              	.LVL149:
 1467 007c 3B80     		strh	r3, [r7]	@ movhi
 1468              	.LVL150:
 1469 007e 07E0     		b	.L128
 1470              	.L131:
 674:uCOS-III\Source/os_tmr.c ****                     *p_err = OS_ERR_OPT_INVALID;
 1471              		.loc 1 674 0
 1472 0080 0DF10600 		add	r0, sp, #6
 1473 0084 FFF7FEFF 		bl	OSSchedUnlock
 1474              	.LVL151:
 675:uCOS-III\Source/os_tmr.c ****                      return (DEF_FALSE);
 1475              		.loc 1 675 0
 1476 0088 45F62563 		movw	r3, #24101
 1477 008c 3B80     		strh	r3, [r7]	@ movhi
 676:uCOS-III\Source/os_tmr.c ****              }
ARM GAS  C:\Users\jorti\AppData\Local\Temp\ccmiXXpF.s 			page 48


 1478              		.loc 1 676 0
 1479 008e 1EE0     		b	.L118
 1480              	.L128:
 678:uCOS-III\Source/os_tmr.c ****              success = DEF_TRUE;
 1481              		.loc 1 678 0
 1482 0090 0DF10600 		add	r0, sp, #6
 1483 0094 FFF7FEFF 		bl	OSSchedUnlock
 1484              	.LVL152:
 679:uCOS-III\Source/os_tmr.c ****              break;
 1485              		.loc 1 679 0
 1486 0098 0124     		movs	r4, #1
 680:uCOS-III\Source/os_tmr.c **** 
 1487              		.loc 1 680 0
 1488 009a 18E0     		b	.L118
 1489              	.LVL153:
 1490              	.L123:
 684:uCOS-III\Source/os_tmr.c ****             *p_err   = OS_ERR_TMR_STOPPED;
 1491              		.loc 1 684 0
 1492 009c 0DF10600 		add	r0, sp, #6
 1493 00a0 FFF7FEFF 		bl	OSSchedUnlock
 1494              	.LVL154:
 685:uCOS-III\Source/os_tmr.c ****              success = DEF_TRUE;
 1495              		.loc 1 685 0
 1496 00a4 47F24933 		movw	r3, #29513
 1497 00a8 3B80     		strh	r3, [r7]	@ movhi
 1498              	.LVL155:
 686:uCOS-III\Source/os_tmr.c ****              break;
 1499              		.loc 1 686 0
 1500 00aa 0124     		movs	r4, #1
 687:uCOS-III\Source/os_tmr.c **** 
 1501              		.loc 1 687 0
 1502 00ac 0FE0     		b	.L118
 1503              	.LVL156:
 1504              	.L121:
 690:uCOS-III\Source/os_tmr.c ****             *p_err   = OS_ERR_TMR_INACTIVE;
 1505              		.loc 1 690 0
 1506 00ae 0DF10600 		add	r0, sp, #6
 1507 00b2 FFF7FEFF 		bl	OSSchedUnlock
 1508              	.LVL157:
 691:uCOS-III\Source/os_tmr.c ****              success = DEF_FALSE;
 1509              		.loc 1 691 0
 1510 00b6 47F23D33 		movw	r3, #29501
 1511 00ba 3B80     		strh	r3, [r7]	@ movhi
 1512              	.LVL158:
 692:uCOS-III\Source/os_tmr.c ****              break;
 1513              		.loc 1 692 0
 1514 00bc 4446     		mov	r4, r8
 693:uCOS-III\Source/os_tmr.c **** 
 1515              		.loc 1 693 0
 1516 00be 06E0     		b	.L118
 1517              	.LVL159:
 1518              	.L120:
 696:uCOS-III\Source/os_tmr.c ****             *p_err   = OS_ERR_TMR_INVALID_STATE;
 1519              		.loc 1 696 0
 1520 00c0 0DF10600 		add	r0, sp, #6
 1521 00c4 FFF7FEFF 		bl	OSSchedUnlock
 1522              	.LVL160:
ARM GAS  C:\Users\jorti\AppData\Local\Temp\ccmiXXpF.s 			page 49


 697:uCOS-III\Source/os_tmr.c ****              success = DEF_FALSE;
 1523              		.loc 1 697 0
 1524 00c8 47F24133 		movw	r3, #29505
 1525 00cc 3B80     		strh	r3, [r7]	@ movhi
 1526              	.LVL161:
 1527              	.L118:
 702:uCOS-III\Source/os_tmr.c **** 
 1528              		.loc 1 702 0
 1529 00ce 2046     		mov	r0, r4
 1530 00d0 03B0     		add	sp, sp, #12
 1531              		.cfi_def_cfa_offset 28
 1532              		@ sp needed
 1533 00d2 BDE8F083 		pop	{r4, r5, r6, r7, r8, r9, pc}
 1534              	.L134:
 1535 00d6 00BF     		.align	2
 1536              	.L133:
 1537 00d8 00000000 		.word	OSIntNestingCtr
 1538              		.cfi_endproc
 1539              	.LFE6:
 1540              		.size	OSTmrStop, .-OSTmrStop
 1541              		.section	.text.OS_TmrTask,"ax",%progbits
 1542              		.align	2
 1543              		.global	OS_TmrTask
 1544              		.thumb
 1545              		.thumb_func
 1546              		.type	OS_TmrTask, %function
 1547              	OS_TmrTask:
 1548              	.LFB14:
1047:uCOS-III\Source/os_tmr.c **** }
1048:uCOS-III\Source/os_tmr.c **** 
1049:uCOS-III\Source/os_tmr.c **** /*$PAGE*/
1050:uCOS-III\Source/os_tmr.c **** /*
1051:uCOS-III\Source/os_tmr.c **** ***************************************************************************************************
1052:uCOS-III\Source/os_tmr.c **** *                                                 TIMER MANAGEMENT TASK
1053:uCOS-III\Source/os_tmr.c **** *
1054:uCOS-III\Source/os_tmr.c **** * Description: This task is created by OS_TmrInit().
1055:uCOS-III\Source/os_tmr.c **** *
1056:uCOS-III\Source/os_tmr.c **** * Arguments  : none
1057:uCOS-III\Source/os_tmr.c **** *
1058:uCOS-III\Source/os_tmr.c **** * Returns    : none
1059:uCOS-III\Source/os_tmr.c **** *
1060:uCOS-III\Source/os_tmr.c **** * Note(s)    : 1) This function is INTERNAL to uC/OS-III and your application MUST NOT call it.
1061:uCOS-III\Source/os_tmr.c **** ***************************************************************************************************
1062:uCOS-III\Source/os_tmr.c **** */
1063:uCOS-III\Source/os_tmr.c **** 
1064:uCOS-III\Source/os_tmr.c **** void  OS_TmrTask (void  *p_arg)
1065:uCOS-III\Source/os_tmr.c **** {
 1549              		.loc 1 1065 0
 1550              		.cfi_startproc
 1551              		@ args = 0, pretend = 0, frame = 8
 1552              		@ frame_needed = 0, uses_anonymous_args = 0
 1553              	.LVL162:
 1554 0000 F0B5     		push	{r4, r5, r6, r7, lr}
 1555              		.cfi_def_cfa_offset 20
 1556              		.cfi_offset 4, -20
 1557              		.cfi_offset 5, -16
 1558              		.cfi_offset 6, -12
ARM GAS  C:\Users\jorti\AppData\Local\Temp\ccmiXXpF.s 			page 50


 1559              		.cfi_offset 7, -8
 1560              		.cfi_offset 14, -4
 1561 0002 83B0     		sub	sp, sp, #12
 1562              		.cfi_def_cfa_offset 32
 1563              	.LVL163:
 1564              	.L143:
1066:uCOS-III\Source/os_tmr.c ****     CPU_BOOLEAN          done;
1067:uCOS-III\Source/os_tmr.c ****     OS_ERR               err;
1068:uCOS-III\Source/os_tmr.c ****     OS_TMR_CALLBACK_PTR  p_fnct;
1069:uCOS-III\Source/os_tmr.c ****     OS_TMR_SPOKE        *p_spoke;
1070:uCOS-III\Source/os_tmr.c ****     OS_TMR              *p_tmr;
1071:uCOS-III\Source/os_tmr.c ****     OS_TMR              *p_tmr_next;
1072:uCOS-III\Source/os_tmr.c ****     OS_TMR_SPOKE_IX      spoke;
1073:uCOS-III\Source/os_tmr.c ****     CPU_TS               ts;
1074:uCOS-III\Source/os_tmr.c ****     CPU_TS               ts_start;
1075:uCOS-III\Source/os_tmr.c ****     CPU_TS               ts_end;
1076:uCOS-III\Source/os_tmr.c **** 
1077:uCOS-III\Source/os_tmr.c **** 
1078:uCOS-III\Source/os_tmr.c **** 
1079:uCOS-III\Source/os_tmr.c ****     p_arg = p_arg;                                               /* Not using 'p_arg', prevent comp
1080:uCOS-III\Source/os_tmr.c ****     while (DEF_ON) {
1081:uCOS-III\Source/os_tmr.c ****         (void)OSTaskSemPend((OS_TICK )0,                         /* Wait for signal indicating time
 1565              		.loc 1 1081 0
 1566 0004 0DF10603 		add	r3, sp, #6
 1567 0008 6A46     		mov	r2, sp
 1568 000a 0021     		movs	r1, #0
 1569 000c 0846     		mov	r0, r1
 1570 000e FFF7FEFF 		bl	OSTaskSemPend
 1571              	.LVL164:
1082:uCOS-III\Source/os_tmr.c ****                             (OS_OPT  )OS_OPT_PEND_BLOCKING,
1083:uCOS-III\Source/os_tmr.c ****                             (CPU_TS *)&ts,
1084:uCOS-III\Source/os_tmr.c ****                             (OS_ERR *)&err);
1085:uCOS-III\Source/os_tmr.c **** 
1086:uCOS-III\Source/os_tmr.c ****         OSSchedLock(&err);
 1572              		.loc 1 1086 0
 1573 0012 0DF10600 		add	r0, sp, #6
 1574 0016 FFF7FEFF 		bl	OSSchedLock
 1575              	.LVL165:
1087:uCOS-III\Source/os_tmr.c ****         ts_start = OS_TS_GET();
 1576              		.loc 1 1087 0
 1577 001a FFF7FEFF 		bl	CPU_TS_TmrRd
 1578              	.LVL166:
 1579 001e 0746     		mov	r7, r0
 1580              	.LVL167:
1088:uCOS-III\Source/os_tmr.c ****         OSTmrTickCtr++;                                          /* Increment the current time     
 1581              		.loc 1 1088 0
 1582 0020 1F4A     		ldr	r2, .L147
 1583 0022 1368     		ldr	r3, [r2]
 1584 0024 0133     		adds	r3, r3, #1
 1585 0026 1360     		str	r3, [r2]
1089:uCOS-III\Source/os_tmr.c ****         spoke    = (OS_TMR_SPOKE_IX)(OSTmrTickCtr % OSCfg_TmrWheelSize);
 1586              		.loc 1 1089 0
 1587 0028 1E4A     		ldr	r2, .L147+4
 1588 002a 1188     		ldrh	r1, [r2]
 1589 002c B3FBF1F2 		udiv	r2, r3, r1
 1590 0030 01FB1233 		mls	r3, r1, r2, r3
 1591              	.LVL168:
ARM GAS  C:\Users\jorti\AppData\Local\Temp\ccmiXXpF.s 			page 51


1090:uCOS-III\Source/os_tmr.c ****         p_spoke  = &OSCfg_TmrWheel[spoke];
 1592              		.loc 1 1090 0
 1593 0034 9BB2     		uxth	r3, r3
 1594              	.LVL169:
1091:uCOS-III\Source/os_tmr.c ****         p_tmr    = p_spoke->FirstPtr;
 1595              		.loc 1 1091 0
 1596 0036 1C4A     		ldr	r2, .L147+8
 1597 0038 52F83340 		ldr	r4, [r2, r3, lsl #3]
 1598              	.LVL170:
1092:uCOS-III\Source/os_tmr.c ****         done     = DEF_FALSE;
 1599              		.loc 1 1092 0
 1600 003c 0023     		movs	r3, #0
 1601              	.LVL171:
1093:uCOS-III\Source/os_tmr.c ****         while (done == DEF_FALSE) {
 1602              		.loc 1 1093 0
 1603 003e 1CE0     		b	.L138
 1604              	.LVL172:
 1605              	.L142:
1094:uCOS-III\Source/os_tmr.c ****             if (p_tmr != (OS_TMR *)0) {
 1606              		.loc 1 1094 0
 1607 0040 ECB1     		cbz	r4, .L145
1095:uCOS-III\Source/os_tmr.c ****                 p_tmr_next = (OS_TMR *)p_tmr->NextPtr;           /* Point to next tmr to update bec
 1608              		.loc 1 1095 0
 1609 0042 2669     		ldr	r6, [r4, #16]
 1610              	.LVL173:
1096:uCOS-III\Source/os_tmr.c ****                                                                  /* ... timer could get unlinked fr
1097:uCOS-III\Source/os_tmr.c ****                 if (OSTmrTickCtr == p_tmr->Match) {              /* Process each timer that expires
 1611              		.loc 1 1097 0
 1612 0044 A169     		ldr	r1, [r4, #24]
 1613 0046 164B     		ldr	r3, .L147
 1614 0048 1A68     		ldr	r2, [r3]
1098:uCOS-III\Source/os_tmr.c ****                     OS_TmrUnlink(p_tmr);                         /* Remove from current wheel spoke
1099:uCOS-III\Source/os_tmr.c ****                     if (p_tmr->Opt == OS_OPT_TMR_PERIODIC) {
1100:uCOS-III\Source/os_tmr.c ****                         OS_TmrLink(p_tmr,
1101:uCOS-III\Source/os_tmr.c ****                                    OS_OPT_LINK_PERIODIC);        /* Recalculate new position of tim
1102:uCOS-III\Source/os_tmr.c ****                     } else {
1103:uCOS-III\Source/os_tmr.c ****                         p_tmr->State = OS_TMR_STATE_COMPLETED;   /* Indicate that the timer has com
1104:uCOS-III\Source/os_tmr.c ****                     }
1105:uCOS-III\Source/os_tmr.c ****                     p_fnct = p_tmr->CallbackPtr;                 /* Execute callback function if av
1106:uCOS-III\Source/os_tmr.c ****                     if (p_fnct != (OS_TMR_CALLBACK_PTR)0) {
1107:uCOS-III\Source/os_tmr.c ****                         (*p_fnct)((void *)p_tmr,
1108:uCOS-III\Source/os_tmr.c ****                                   p_tmr->CallbackPtrArg);
1109:uCOS-III\Source/os_tmr.c ****                     }
1110:uCOS-III\Source/os_tmr.c ****                     p_tmr = p_tmr_next;                          /* See if next timer matches      
1111:uCOS-III\Source/os_tmr.c ****                 } else {
1112:uCOS-III\Source/os_tmr.c ****                     done  = DEF_TRUE;
 1615              		.loc 1 1112 0
 1616 004a 0123     		movs	r3, #1
1097:uCOS-III\Source/os_tmr.c ****                     OS_TmrUnlink(p_tmr);                         /* Remove from current wheel spoke
 1617              		.loc 1 1097 0
 1618 004c 9142     		cmp	r1, r2
 1619 004e 14D1     		bne	.L138
1098:uCOS-III\Source/os_tmr.c ****                     OS_TmrUnlink(p_tmr);                         /* Remove from current wheel spoke
 1620              		.loc 1 1098 0
 1621 0050 2046     		mov	r0, r4
 1622 0052 FFF7FEFF 		bl	OS_TmrUnlink
 1623              	.LVL174:
ARM GAS  C:\Users\jorti\AppData\Local\Temp\ccmiXXpF.s 			page 52


1099:uCOS-III\Source/os_tmr.c ****                         OS_TmrLink(p_tmr,
 1624              		.loc 1 1099 0
 1625 0056 238D     		ldrh	r3, [r4, #40]
 1626 0058 022B     		cmp	r3, #2
 1627 005a 04D1     		bne	.L139
1100:uCOS-III\Source/os_tmr.c ****                                    OS_OPT_LINK_PERIODIC);        /* Recalculate new position of tim
 1628              		.loc 1 1100 0
 1629 005c 0121     		movs	r1, #1
 1630 005e 2046     		mov	r0, r4
 1631 0060 FFF7FEFF 		bl	OS_TmrLink
 1632              	.LVL175:
 1633 0064 02E0     		b	.L140
 1634              	.L139:
1103:uCOS-III\Source/os_tmr.c ****                     }
 1635              		.loc 1 1103 0
 1636 0066 0323     		movs	r3, #3
 1637 0068 84F82A30 		strb	r3, [r4, #42]
 1638              	.L140:
1105:uCOS-III\Source/os_tmr.c ****                     if (p_fnct != (OS_TMR_CALLBACK_PTR)0) {
 1639              		.loc 1 1105 0
 1640 006c A368     		ldr	r3, [r4, #8]
 1641              	.LVL176:
1106:uCOS-III\Source/os_tmr.c ****                         (*p_fnct)((void *)p_tmr,
 1642              		.loc 1 1106 0
 1643 006e 13B1     		cbz	r3, .L141
1107:uCOS-III\Source/os_tmr.c ****                                   p_tmr->CallbackPtrArg);
 1644              		.loc 1 1107 0
 1645 0070 E168     		ldr	r1, [r4, #12]
 1646 0072 2046     		mov	r0, r4
 1647 0074 9847     		blx	r3
 1648              	.LVL177:
 1649              	.L141:
1065:uCOS-III\Source/os_tmr.c ****     CPU_BOOLEAN          done;
 1650              		.loc 1 1065 0
 1651 0076 3446     		mov	r4, r6
 1652              	.LVL178:
 1653 0078 2B46     		mov	r3, r5
 1654              	.LVL179:
 1655              	.L138:
1092:uCOS-III\Source/os_tmr.c ****         while (done == DEF_FALSE) {
 1656              		.loc 1 1092 0
 1657 007a 1D46     		mov	r5, r3
 1658 007c 00E0     		b	.L137
 1659              	.LVL180:
 1660              	.L145:
1113:uCOS-III\Source/os_tmr.c ****                 }
1114:uCOS-III\Source/os_tmr.c ****             } else {
1115:uCOS-III\Source/os_tmr.c ****                 done = DEF_TRUE;
 1661              		.loc 1 1115 0
 1662 007e 0125     		movs	r5, #1
 1663              	.LVL181:
 1664              	.L137:
1093:uCOS-III\Source/os_tmr.c ****             if (p_tmr != (OS_TMR *)0) {
 1665              		.loc 1 1093 0
 1666 0080 002D     		cmp	r5, #0
 1667 0082 DDD0     		beq	.L142
1116:uCOS-III\Source/os_tmr.c ****             }
ARM GAS  C:\Users\jorti\AppData\Local\Temp\ccmiXXpF.s 			page 53


1117:uCOS-III\Source/os_tmr.c ****         }
1118:uCOS-III\Source/os_tmr.c ****         ts_end = OS_TS_GET() - ts_start;                         /* Measure execution time of timer
 1668              		.loc 1 1118 0
 1669 0084 FFF7FEFF 		bl	CPU_TS_TmrRd
 1670              	.LVL182:
 1671 0088 C71B     		subs	r7, r0, r7
 1672              	.LVL183:
1119:uCOS-III\Source/os_tmr.c ****         OSSchedUnlock(&err);
 1673              		.loc 1 1119 0
 1674 008a 0DF10600 		add	r0, sp, #6
 1675 008e FFF7FEFF 		bl	OSSchedUnlock
 1676              	.LVL184:
1120:uCOS-III\Source/os_tmr.c ****         if (OSTmrTaskTimeMax < ts_end) {
 1677              		.loc 1 1120 0
 1678 0092 064B     		ldr	r3, .L147+12
 1679 0094 1B68     		ldr	r3, [r3]
 1680 0096 9F42     		cmp	r7, r3
 1681 0098 B4D9     		bls	.L143
1121:uCOS-III\Source/os_tmr.c ****             OSTmrTaskTimeMax = ts_end;
 1682              		.loc 1 1121 0
 1683 009a 044B     		ldr	r3, .L147+12
 1684 009c 1F60     		str	r7, [r3]
 1685 009e B1E7     		b	.L143
 1686              	.L148:
 1687              		.align	2
 1688              	.L147:
 1689 00a0 00000000 		.word	OSTmrTickCtr
 1690 00a4 00000000 		.word	OSCfg_TmrWheelSize
 1691 00a8 00000000 		.word	OSCfg_TmrWheel
 1692 00ac 00000000 		.word	OSTmrTaskTimeMax
 1693              		.cfi_endproc
 1694              	.LFE14:
 1695              		.size	OS_TmrTask, .-OS_TmrTask
 1696              		.section	.rodata.str1.4,"aMS",%progbits,1
 1697              		.align	2
 1698              	.LC0:
 1699 0000 3F544D52 		.ascii	"?TMR\000"
 1699      00
 1700 0005 000000   		.space	3
 1701              	.LC1:
 1702 0008 75432F4F 		.ascii	"uC/OS-III Timer Task\000"
 1702      532D4949 
 1702      49205469 
 1702      6D657220 
 1702      5461736B 
 1703              		.text
 1704              	.Letext0:
 1705              		.file 2 ".\\uC-CPU\\ARM-Cortex-M3\\GNU/cpu.h"
 1706              		.file 3 ".\\uC-CPU/cpu_core.h"
 1707              		.file 4 ".\\uCOS-III\\Source/os_type.h"
 1708              		.file 5 ".\\uCOS-III\\Source/os.h"