ARM GAS  C:\Users\jorti\AppData\Local\Temp\ccYz8BLv.s 			page 1


   1              		.syntax unified
   2              		.cpu cortex-m3
   3              		.fpu softvfp
   4              		.eabi_attribute 20, 1
   5              		.eabi_attribute 21, 1
   6              		.eabi_attribute 23, 3
   7              		.eabi_attribute 24, 1
   8              		.eabi_attribute 25, 1
   9              		.eabi_attribute 26, 1
  10              		.eabi_attribute 30, 1
  11              		.eabi_attribute 34, 1
  12              		.eabi_attribute 18, 4
  13              		.thumb
  14              		.syntax unified
  15              		.file	"os_time.c"
  16              		.text
  17              	.Ltext0:
  18              		.cfi_sections	.debug_frame
  19              		.section	.text.OSTimeDly,"ax",%progbits
  20              		.align	2
  21              		.global	OSTimeDly
  22              		.thumb
  23              		.thumb_func
  24              		.type	OSTimeDly, %function
  25              	OSTimeDly:
  26              	.LFB1:
  27              		.file 1 "uCOS-III\\Source\\os_time.c"
   1:uCOS-III\Source/os_time.c **** /*
   2:uCOS-III\Source/os_time.c **** ***************************************************************************************************
   3:uCOS-III\Source/os_time.c **** *                                                      uC/OS-III
   4:uCOS-III\Source/os_time.c **** *                                                 The Real-Time Kernel
   5:uCOS-III\Source/os_time.c **** *
   6:uCOS-III\Source/os_time.c **** *                                  (c) Copyright 2009-2012; Micrium, Inc.; Weston, FL
   7:uCOS-III\Source/os_time.c **** *                           All rights reserved.  Protected by international copyright laws.
   8:uCOS-III\Source/os_time.c **** *
   9:uCOS-III\Source/os_time.c **** *                                                   TIME MANAGEMENT
  10:uCOS-III\Source/os_time.c **** *
  11:uCOS-III\Source/os_time.c **** * File    : OS_TIME.C
  12:uCOS-III\Source/os_time.c **** * By      : JJL
  13:uCOS-III\Source/os_time.c **** * Version : V3.03.01
  14:uCOS-III\Source/os_time.c **** *
  15:uCOS-III\Source/os_time.c **** * LICENSING TERMS:
  16:uCOS-III\Source/os_time.c **** * ---------------
  17:uCOS-III\Source/os_time.c **** *           uC/OS-III is provided in source form for FREE short-term evaluation, for educational us
  18:uCOS-III\Source/os_time.c **** *           for peaceful research.  If you plan or intend to use uC/OS-III in a commercial applicat
  19:uCOS-III\Source/os_time.c **** *           product then, you need to contact Micrium to properly license uC/OS-III for its use in 
  20:uCOS-III\Source/os_time.c **** *           application/product.   We provide ALL the source code for your convenience and to help 
  21:uCOS-III\Source/os_time.c **** *           experience uC/OS-III.  The fact that the source is provided does NOT mean that you can 
  22:uCOS-III\Source/os_time.c **** *           it commercially without paying a licensing fee.
  23:uCOS-III\Source/os_time.c **** *
  24:uCOS-III\Source/os_time.c **** *           Knowledge of the source code may NOT be used to develop a similar product.
  25:uCOS-III\Source/os_time.c **** *
  26:uCOS-III\Source/os_time.c **** *           Please help us continue to provide the embedded community with the finest software avai
  27:uCOS-III\Source/os_time.c **** *           Your honesty is greatly appreciated.
  28:uCOS-III\Source/os_time.c **** *
  29:uCOS-III\Source/os_time.c **** *           You can contact us at www.micrium.com, or by phone at +1 (954) 217-2036.
  30:uCOS-III\Source/os_time.c **** ***************************************************************************************************
ARM GAS  C:\Users\jorti\AppData\Local\Temp\ccYz8BLv.s 			page 2


  31:uCOS-III\Source/os_time.c **** */
  32:uCOS-III\Source/os_time.c **** 
  33:uCOS-III\Source/os_time.c **** #define  MICRIUM_SOURCE
  34:uCOS-III\Source/os_time.c **** #include <os.h>
  35:uCOS-III\Source/os_time.c **** 
  36:uCOS-III\Source/os_time.c **** #ifdef VSC_INCLUDE_SOURCE_FILE_NAMES
  37:uCOS-III\Source/os_time.c **** const  CPU_CHAR  *os_time__c = "$Id: $";
  38:uCOS-III\Source/os_time.c **** #endif
  39:uCOS-III\Source/os_time.c **** 
  40:uCOS-III\Source/os_time.c **** /*
  41:uCOS-III\Source/os_time.c **** ***************************************************************************************************
  42:uCOS-III\Source/os_time.c **** *                                                  DELAY TASK 'n' TICKS
  43:uCOS-III\Source/os_time.c **** *
  44:uCOS-III\Source/os_time.c **** * Description: This function is called to delay execution of the currently running task until the s
  45:uCOS-III\Source/os_time.c **** *              system ticks expires.  This, of course, directly equates to delaying the current tas
  46:uCOS-III\Source/os_time.c **** *              expire.  No delay will result if the specified delay is 0.  If the specified delay i
  47:uCOS-III\Source/os_time.c **** *              then, a context switch will result.
  48:uCOS-III\Source/os_time.c **** *
  49:uCOS-III\Source/os_time.c **** * Arguments  : dly       is a value in 'clock ticks' that the task will either delay for or, the ta
  50:uCOS-III\Source/os_time.c **** *                        of the tick counter (OSTickCtr).  Note that specifying 0 means the task is
  51:uCOS-III\Source/os_time.c **** *
  52:uCOS-III\Source/os_time.c **** *                        depending on the option argument, the task will wake up when OSTickCtr rea
  53:uCOS-III\Source/os_time.c **** *
  54:uCOS-III\Source/os_time.c **** *                            OS_OPT_TIME_DLY      : OSTickCtr + dly
  55:uCOS-III\Source/os_time.c **** *                            OS_OPT_TIME_TIMEOUT  : OSTickCtr + dly
  56:uCOS-III\Source/os_time.c **** *                            OS_OPT_TIME_MATCH    : dly
  57:uCOS-III\Source/os_time.c **** *                            OS_OPT_TIME_PERIODIC : OSTCBCurPtr->TickCtrPrev + dly
  58:uCOS-III\Source/os_time.c **** *
  59:uCOS-III\Source/os_time.c **** *              opt       specifies whether 'dly' represents absolute or relative time; default opti
  60:uCOS-III\Source/os_time.c **** *
  61:uCOS-III\Source/os_time.c **** *                        *** OS_OPT_TIME_DLY        specifies a relative time from the current valu
  62:uCOS-III\Source/os_time.c **** *                            OS_OPT_TIME_TIMEOUT    same as OS_OPT_TIME_DLY.
  63:uCOS-III\Source/os_time.c **** *                            OS_OPT_TIME_MATCH      indicates that 'dly' specifies the absolute val
  64:uCOS-III\Source/os_time.c **** *                                                   must reach before the task will be resumed.
  65:uCOS-III\Source/os_time.c **** *                            OS_OPT_TIME_PERIODIC   indicates that 'dly' specifies the periodic val
  66:uCOS-III\Source/os_time.c **** *                                                   must reach before the task will be resumed.
  67:uCOS-III\Source/os_time.c **** *
  68:uCOS-III\Source/os_time.c **** *              p_err     is a pointer to a variable that will contain an error code from this call.
  69:uCOS-III\Source/os_time.c **** *
  70:uCOS-III\Source/os_time.c **** *                            OS_ERR_NONE            the call was successful and the delay occurred.
  71:uCOS-III\Source/os_time.c **** *                            OS_ERR_OPT_INVALID     if you specified an invalid option for this fun
  72:uCOS-III\Source/os_time.c **** *                            OS_ERR_SCHED_LOCKED    can't delay when the scheduler is locked.
  73:uCOS-III\Source/os_time.c **** *                            OS_ERR_TIME_DLY_ISR    if you called this function from an ISR.
  74:uCOS-III\Source/os_time.c **** *                            OS_ERR_TIME_ZERO_DLY   if you specified a delay of zero.
  75:uCOS-III\Source/os_time.c **** *
  76:uCOS-III\Source/os_time.c **** * Returns    : none
  77:uCOS-III\Source/os_time.c **** ***************************************************************************************************
  78:uCOS-III\Source/os_time.c **** */
  79:uCOS-III\Source/os_time.c **** 
  80:uCOS-III\Source/os_time.c **** void  OSTimeDly (OS_TICK   dly,
  81:uCOS-III\Source/os_time.c ****                  OS_OPT    opt,
  82:uCOS-III\Source/os_time.c ****                  OS_ERR   *p_err)
  83:uCOS-III\Source/os_time.c **** {
  28              		.loc 1 83 0
  29              		.cfi_startproc
  30              		@ args = 0, pretend = 0, frame = 0
  31              		@ frame_needed = 0, uses_anonymous_args = 0
ARM GAS  C:\Users\jorti\AppData\Local\Temp\ccYz8BLv.s 			page 3


  32              	.LVL0:
  33 0000 F8B5     		push	{r3, r4, r5, r6, r7, lr}
  34              		.cfi_def_cfa_offset 24
  35              		.cfi_offset 3, -24
  36              		.cfi_offset 4, -20
  37              		.cfi_offset 5, -16
  38              		.cfi_offset 6, -12
  39              		.cfi_offset 7, -8
  40              		.cfi_offset 14, -4
  41              	.LVL1:
  84:uCOS-III\Source/os_time.c ****     CPU_SR_ALLOC();
  85:uCOS-III\Source/os_time.c **** 
  86:uCOS-III\Source/os_time.c **** 
  87:uCOS-III\Source/os_time.c **** 
  88:uCOS-III\Source/os_time.c **** #ifdef OS_SAFETY_CRITICAL
  89:uCOS-III\Source/os_time.c ****     if (p_err == (OS_ERR *)0) {
  90:uCOS-III\Source/os_time.c ****         OS_SAFETY_CRITICAL_EXCEPTION();
  91:uCOS-III\Source/os_time.c ****         return;
  92:uCOS-III\Source/os_time.c ****     }
  93:uCOS-III\Source/os_time.c **** #endif
  94:uCOS-III\Source/os_time.c **** 
  95:uCOS-III\Source/os_time.c **** #if OS_CFG_CALLED_FROM_ISR_CHK_EN > 0u
  96:uCOS-III\Source/os_time.c ****     if (OSIntNestingCtr > (OS_NESTING_CTR)0u) {             /* Not allowed to call from an ISR     
  42              		.loc 1 96 0
  43 0002 214C     		ldr	r4, .L11
  44 0004 2478     		ldrb	r4, [r4]	@ zero_extendqisi2
  45 0006 1CB1     		cbz	r4, .L2
  97:uCOS-III\Source/os_time.c ****        *p_err = OS_ERR_TIME_DLY_ISR;
  46              		.loc 1 97 0
  47 0008 47F27523 		movw	r3, #29301
  48 000c 1380     		strh	r3, [r2]	@ movhi
  98:uCOS-III\Source/os_time.c ****         return;
  49              		.loc 1 98 0
  50 000e F8BD     		pop	{r3, r4, r5, r6, r7, pc}
  51              	.L2:
  99:uCOS-III\Source/os_time.c ****     }
 100:uCOS-III\Source/os_time.c **** #endif
 101:uCOS-III\Source/os_time.c **** 
 102:uCOS-III\Source/os_time.c ****     if (OSSchedLockNestingCtr > (OS_NESTING_CTR)0u) {       /* Can't delay when the scheduler is lo
  52              		.loc 1 102 0
  53 0010 1E4B     		ldr	r3, .L11+4
  54 0012 1B78     		ldrb	r3, [r3]	@ zero_extendqisi2
  55 0014 1BB1     		cbz	r3, .L4
 103:uCOS-III\Source/os_time.c ****        *p_err = OS_ERR_SCHED_LOCKED;
  56              		.loc 1 103 0
  57 0016 46F66353 		movw	r3, #28003
  58 001a 1380     		strh	r3, [r2]	@ movhi
 104:uCOS-III\Source/os_time.c ****         return;
  59              		.loc 1 104 0
  60 001c F8BD     		pop	{r3, r4, r5, r6, r7, pc}
  61              	.L4:
 105:uCOS-III\Source/os_time.c ****     }
 106:uCOS-III\Source/os_time.c **** 
 107:uCOS-III\Source/os_time.c ****     switch (opt) {
  62              		.loc 1 107 0
  63 001e 0829     		cmp	r1, #8
  64 0020 0BD8     		bhi	.L5
ARM GAS  C:\Users\jorti\AppData\Local\Temp\ccYz8BLv.s 			page 4


  65 0022 DFE801F0 		tbb	[pc, r1]
  66              	.L7:
  67 0026 05       		.byte	(.L6-.L7)/2
  68 0027 0A       		.byte	(.L5-.L7)/2
  69 0028 05       		.byte	(.L6-.L7)/2
  70 0029 0A       		.byte	(.L5-.L7)/2
  71 002a 0E       		.byte	(.L8-.L7)/2
  72 002b 0A       		.byte	(.L5-.L7)/2
  73 002c 0A       		.byte	(.L5-.L7)/2
  74 002d 0A       		.byte	(.L5-.L7)/2
  75 002e 05       		.byte	(.L6-.L7)/2
  76 002f 00       		.p2align 1
  77              	.L6:
 108:uCOS-III\Source/os_time.c ****         case OS_OPT_TIME_DLY:
 109:uCOS-III\Source/os_time.c ****         case OS_OPT_TIME_TIMEOUT:
 110:uCOS-III\Source/os_time.c ****         case OS_OPT_TIME_PERIODIC:
 111:uCOS-III\Source/os_time.c ****              if (dly == (OS_TICK)0u) {                      /* 0 means no delay!                   
  78              		.loc 1 111 0
  79 0030 38B9     		cbnz	r0, .L8
 112:uCOS-III\Source/os_time.c ****                 *p_err = OS_ERR_TIME_ZERO_DLY;
  80              		.loc 1 112 0
  81 0032 47F27E23 		movw	r3, #29310
  82 0036 1380     		strh	r3, [r2]	@ movhi
 113:uCOS-III\Source/os_time.c ****                  return;
  83              		.loc 1 113 0
  84 0038 F8BD     		pop	{r3, r4, r5, r6, r7, pc}
  85              	.L5:
 114:uCOS-III\Source/os_time.c ****              }
 115:uCOS-III\Source/os_time.c ****              break;
 116:uCOS-III\Source/os_time.c **** 
 117:uCOS-III\Source/os_time.c ****         case OS_OPT_TIME_MATCH:
 118:uCOS-III\Source/os_time.c ****              break;
 119:uCOS-III\Source/os_time.c **** 
 120:uCOS-III\Source/os_time.c ****         default:
 121:uCOS-III\Source/os_time.c ****             *p_err = OS_ERR_OPT_INVALID;
  86              		.loc 1 121 0
  87 003a 45F62563 		movw	r3, #24101
  88 003e 1380     		strh	r3, [r2]	@ movhi
 122:uCOS-III\Source/os_time.c ****              return;
  89              		.loc 1 122 0
  90 0040 F8BD     		pop	{r3, r4, r5, r6, r7, pc}
  91              	.L8:
  92 0042 1546     		mov	r5, r2
  93 0044 0C46     		mov	r4, r1
  94 0046 0646     		mov	r6, r0
 123:uCOS-III\Source/os_time.c ****     }
 124:uCOS-III\Source/os_time.c **** 
 125:uCOS-III\Source/os_time.c ****     OS_CRITICAL_ENTER();
  95              		.loc 1 125 0
  96 0048 FFF7FEFF 		bl	CPU_SR_Save
  97              	.LVL2:
  98 004c 0746     		mov	r7, r0
  99              	.LVL3:
 126:uCOS-III\Source/os_time.c ****     OSTCBCurPtr->TaskState = OS_TASK_STATE_DLY;
 100              		.loc 1 126 0
 101 004e 104B     		ldr	r3, .L11+8
 102 0050 1868     		ldr	r0, [r3]
ARM GAS  C:\Users\jorti\AppData\Local\Temp\ccYz8BLv.s 			page 5


 103              	.LVL4:
 104 0052 0123     		movs	r3, #1
 105 0054 80F83630 		strb	r3, [r0, #54]
 127:uCOS-III\Source/os_time.c ****     OS_TickListInsert(OSTCBCurPtr,
 106              		.loc 1 127 0
 107 0058 2B46     		mov	r3, r5
 108 005a 2246     		mov	r2, r4
 109 005c 3146     		mov	r1, r6
 110 005e FFF7FEFF 		bl	OS_TickListInsert
 111              	.LVL5:
 128:uCOS-III\Source/os_time.c ****                       dly,
 129:uCOS-III\Source/os_time.c ****                       opt,
 130:uCOS-III\Source/os_time.c ****                       p_err);
 131:uCOS-III\Source/os_time.c ****     if (*p_err != OS_ERR_NONE) {
 112              		.loc 1 131 0
 113 0062 2B88     		ldrh	r3, [r5]
 114 0064 1BB1     		cbz	r3, .L9
 132:uCOS-III\Source/os_time.c ****          OS_CRITICAL_EXIT_NO_SCHED();
 115              		.loc 1 132 0
 116 0066 3846     		mov	r0, r7
 117 0068 FFF7FEFF 		bl	CPU_SR_Restore
 118              	.LVL6:
 133:uCOS-III\Source/os_time.c ****          return;
 119              		.loc 1 133 0
 120 006c F8BD     		pop	{r3, r4, r5, r6, r7, pc}
 121              	.LVL7:
 122              	.L9:
 134:uCOS-III\Source/os_time.c ****     }
 135:uCOS-III\Source/os_time.c ****     OS_RdyListRemove(OSTCBCurPtr);                          /* Remove current task from ready list 
 123              		.loc 1 135 0
 124 006e 084B     		ldr	r3, .L11+8
 125 0070 1868     		ldr	r0, [r3]
 126 0072 FFF7FEFF 		bl	OS_RdyListRemove
 127              	.LVL8:
 136:uCOS-III\Source/os_time.c ****     OS_CRITICAL_EXIT_NO_SCHED();
 128              		.loc 1 136 0
 129 0076 3846     		mov	r0, r7
 130 0078 FFF7FEFF 		bl	CPU_SR_Restore
 131              	.LVL9:
 137:uCOS-III\Source/os_time.c ****     OSSched();                                              /* Find next task to run!              
 132              		.loc 1 137 0
 133 007c FFF7FEFF 		bl	OSSched
 134              	.LVL10:
 138:uCOS-III\Source/os_time.c ****    *p_err = OS_ERR_NONE;
 135              		.loc 1 138 0
 136 0080 0023     		movs	r3, #0
 137 0082 2B80     		strh	r3, [r5]	@ movhi
 138 0084 F8BD     		pop	{r3, r4, r5, r6, r7, pc}
 139              	.LVL11:
 140              	.L12:
 141 0086 00BF     		.align	2
 142              	.L11:
 143 0088 00000000 		.word	OSIntNestingCtr
 144 008c 00000000 		.word	OSSchedLockNestingCtr
 145 0090 00000000 		.word	OSTCBCurPtr
 146              		.cfi_endproc
 147              	.LFE1:
ARM GAS  C:\Users\jorti\AppData\Local\Temp\ccYz8BLv.s 			page 6


 148              		.size	OSTimeDly, .-OSTimeDly
 149              		.section	.text.OSTimeDlyHMSM,"ax",%progbits
 150              		.align	2
 151              		.global	OSTimeDlyHMSM
 152              		.thumb
 153              		.thumb_func
 154              		.type	OSTimeDlyHMSM, %function
 155              	OSTimeDlyHMSM:
 156              	.LFB2:
 139:uCOS-III\Source/os_time.c **** }
 140:uCOS-III\Source/os_time.c **** 
 141:uCOS-III\Source/os_time.c **** /*$PAGE*/
 142:uCOS-III\Source/os_time.c **** /*
 143:uCOS-III\Source/os_time.c **** ***************************************************************************************************
 144:uCOS-III\Source/os_time.c **** *                                             DELAY TASK FOR SPECIFIED TIME
 145:uCOS-III\Source/os_time.c **** *
 146:uCOS-III\Source/os_time.c **** * Description: This function is called to delay execution of the currently running task until some 
 147:uCOS-III\Source/os_time.c **** *              call allows you to specify the delay time in HOURS, MINUTES, SECONDS and MILLISECOND
 148:uCOS-III\Source/os_time.c **** *
 149:uCOS-III\Source/os_time.c **** * Arguments  : hours     specifies the number of hours that the task will be delayed (max. is 999 i
 150:uCOS-III\Source/os_time.c **** *                        1000 Hz or less otherwise, a higher value would overflow a 32-bit unsigned
 151:uCOS-III\Source/os_time.c **** *
 152:uCOS-III\Source/os_time.c **** *              minutes   specifies the number of minutes (max. 59 if 'opt' is OS_OPT_TIME_HMSM_STRI
 153:uCOS-III\Source/os_time.c **** *
 154:uCOS-III\Source/os_time.c **** *              seconds   specifies the number of seconds (max. 59 if 'opt' is OS_OPT_TIME_HMSM_STRI
 155:uCOS-III\Source/os_time.c **** *
 156:uCOS-III\Source/os_time.c **** *              milli     specifies the number of milliseconds (max. 999 if 'opt' is OS_OPT_TIME_HMS
 157:uCOS-III\Source/os_time.c **** *
 158:uCOS-III\Source/os_time.c **** *              opt       specifies time delay bit-field options logically OR'd; default options mar
 159:uCOS-III\Source/os_time.c **** *
 160:uCOS-III\Source/os_time.c **** *                        *** OS_OPT_TIME_DLY        specifies a relative time from the current valu
 161:uCOS-III\Source/os_time.c **** *                            OS_OPT_TIME_TIMEOUT    same as OS_OPT_TIME_DLY.
 162:uCOS-III\Source/os_time.c **** *                            OS_OPT_TIME_MATCH      indicates that the delay specifies the absolute
 163:uCOS-III\Source/os_time.c **** *                                                   must reach before the task will be resumed.
 164:uCOS-III\Source/os_time.c **** *                            OS_OPT_TIME_PERIODIC   indicates that the delay specifies the periodic
 165:uCOS-III\Source/os_time.c **** *                                                   must reach before the task will be resumed.
 166:uCOS-III\Source/os_time.c **** *
 167:uCOS-III\Source/os_time.c **** *                        *** OS_OPT_TIME_HMSM_STRICT            strictly allow only hours        (0
 168:uCOS-III\Source/os_time.c **** *                                                                                   minutes      (0
 169:uCOS-III\Source/os_time.c **** *                                                                                   seconds      (0
 170:uCOS-III\Source/os_time.c **** *                                                                                   milliseconds (0
 171:uCOS-III\Source/os_time.c **** *                            OS_OPT_TIME_HMSM_NON_STRICT        allow any value of  hours        (0
 172:uCOS-III\Source/os_time.c **** *                                                                                   minutes      (0
 173:uCOS-III\Source/os_time.c **** *                                                                                   seconds      (0
 174:uCOS-III\Source/os_time.c **** *                                                                                   milliseconds (0
 175:uCOS-III\Source/os_time.c **** *
 176:uCOS-III\Source/os_time.c **** *              p_err     is a pointer to a variable that will receive an error code from this call.
 177:uCOS-III\Source/os_time.c **** *
 178:uCOS-III\Source/os_time.c **** *                            OS_ERR_NONE                        If the function returns from the de
 179:uCOS-III\Source/os_time.c **** *                            OS_ERR_OPT_INVALID                 If you specified an invalid option 
 180:uCOS-III\Source/os_time.c **** *                            OS_ERR_SCHED_LOCKED                Can't delay when the scheduler is l
 181:uCOS-III\Source/os_time.c **** *                            OS_ERR_TIME_DLY_ISR                If called from an ISR
 182:uCOS-III\Source/os_time.c **** *                            OS_ERR_TIME_INVALID_HOURS          If you didn't specify a valid value
 183:uCOS-III\Source/os_time.c **** *                            OS_ERR_TIME_INVALID_MINUTES        If you didn't specify a valid value
 184:uCOS-III\Source/os_time.c **** *                            OS_ERR_TIME_INVALID_SECONDS        If you didn't specify a valid value
 185:uCOS-III\Source/os_time.c **** *                            OS_ERR_TIME_INVALID_MILLISECONDS   If you didn't specify a valid value
 186:uCOS-III\Source/os_time.c **** *                            OS_ERR_TIME_ZERO_DLY               If hours, minutes, seconds and mill
ARM GAS  C:\Users\jorti\AppData\Local\Temp\ccYz8BLv.s 			page 7


 187:uCOS-III\Source/os_time.c **** *
 188:uCOS-III\Source/os_time.c **** * Returns    : none
 189:uCOS-III\Source/os_time.c **** *
 190:uCOS-III\Source/os_time.c **** * Note(s)    : 1) The resolution on the milliseconds depends on the tick rate.  For example, you ca
 191:uCOS-III\Source/os_time.c **** *                 if the ticker interrupts every 100 mS.  In this case, the delay would be set to 0
 192:uCOS-III\Source/os_time.c **** *                 is rounded to the nearest tick.
 193:uCOS-III\Source/os_time.c **** *
 194:uCOS-III\Source/os_time.c **** *              2) Although this function allows you to delay a task for many, many hours, it's not 
 195:uCOS-III\Source/os_time.c **** *                 a task to sleep for that long.
 196:uCOS-III\Source/os_time.c **** ***************************************************************************************************
 197:uCOS-III\Source/os_time.c **** */
 198:uCOS-III\Source/os_time.c **** 
 199:uCOS-III\Source/os_time.c **** #if OS_CFG_TIME_DLY_HMSM_EN > 0u
 200:uCOS-III\Source/os_time.c **** void  OSTimeDlyHMSM (CPU_INT16U   hours,
 201:uCOS-III\Source/os_time.c ****                      CPU_INT16U   minutes,
 202:uCOS-III\Source/os_time.c ****                      CPU_INT16U   seconds,
 203:uCOS-III\Source/os_time.c ****                      CPU_INT32U   milli,
 204:uCOS-III\Source/os_time.c ****                      OS_OPT       opt,
 205:uCOS-III\Source/os_time.c ****                      OS_ERR      *p_err)
 206:uCOS-III\Source/os_time.c **** {
 157              		.loc 1 206 0
 158              		.cfi_startproc
 159              		@ args = 8, pretend = 0, frame = 0
 160              		@ frame_needed = 0, uses_anonymous_args = 0
 161              	.LVL12:
 162 0000 70B5     		push	{r4, r5, r6, lr}
 163              		.cfi_def_cfa_offset 16
 164              		.cfi_offset 4, -16
 165              		.cfi_offset 5, -12
 166              		.cfi_offset 6, -8
 167              		.cfi_offset 14, -4
 168 0002 BDF81040 		ldrh	r4, [sp, #16]
 169              	.LVL13:
 207:uCOS-III\Source/os_time.c **** #if OS_CFG_ARG_CHK_EN > 0u
 208:uCOS-III\Source/os_time.c ****     CPU_BOOLEAN  opt_invalid;
 209:uCOS-III\Source/os_time.c ****     CPU_BOOLEAN  opt_non_strict;
 210:uCOS-III\Source/os_time.c **** #endif
 211:uCOS-III\Source/os_time.c ****     OS_OPT       opt_time;
 212:uCOS-III\Source/os_time.c ****     OS_RATE_HZ   tick_rate;
 213:uCOS-III\Source/os_time.c ****     OS_TICK      ticks;
 214:uCOS-III\Source/os_time.c ****     CPU_SR_ALLOC();
 215:uCOS-III\Source/os_time.c **** 
 216:uCOS-III\Source/os_time.c **** 
 217:uCOS-III\Source/os_time.c **** 
 218:uCOS-III\Source/os_time.c **** #ifdef OS_SAFETY_CRITICAL
 219:uCOS-III\Source/os_time.c ****     if (p_err == (OS_ERR *)0) {
 220:uCOS-III\Source/os_time.c ****         OS_SAFETY_CRITICAL_EXCEPTION();
 221:uCOS-III\Source/os_time.c ****         return;
 222:uCOS-III\Source/os_time.c ****     }
 223:uCOS-III\Source/os_time.c **** #endif
 224:uCOS-III\Source/os_time.c **** 
 225:uCOS-III\Source/os_time.c **** #if OS_CFG_CALLED_FROM_ISR_CHK_EN > 0u
 226:uCOS-III\Source/os_time.c ****     if (OSIntNestingCtr > (OS_NESTING_CTR)0u) {             /* Not allowed to call from an ISR     
 170              		.loc 1 226 0
 171 0006 524D     		ldr	r5, .L33
 172 0008 2D78     		ldrb	r5, [r5]	@ zero_extendqisi2
 173 000a 25B1     		cbz	r5, .L14
ARM GAS  C:\Users\jorti\AppData\Local\Temp\ccYz8BLv.s 			page 8


 227:uCOS-III\Source/os_time.c ****        *p_err = OS_ERR_TIME_DLY_ISR;
 174              		.loc 1 227 0
 175 000c 47F27523 		movw	r3, #29301
 176              	.LVL14:
 177 0010 059A     		ldr	r2, [sp, #20]
 178              	.LVL15:
 179 0012 1380     		strh	r3, [r2]	@ movhi
 228:uCOS-III\Source/os_time.c ****         return;
 180              		.loc 1 228 0
 181 0014 70BD     		pop	{r4, r5, r6, pc}
 182              	.LVL16:
 183              	.L14:
 229:uCOS-III\Source/os_time.c ****     }
 230:uCOS-III\Source/os_time.c **** #endif
 231:uCOS-III\Source/os_time.c **** 
 232:uCOS-III\Source/os_time.c ****     if (OSSchedLockNestingCtr > (OS_NESTING_CTR)0u) {       /* Can't delay when the scheduler is lo
 184              		.loc 1 232 0
 185 0016 4F4D     		ldr	r5, .L33+4
 186 0018 2D78     		ldrb	r5, [r5]	@ zero_extendqisi2
 187 001a 25B1     		cbz	r5, .L16
 233:uCOS-III\Source/os_time.c ****        *p_err = OS_ERR_SCHED_LOCKED;
 188              		.loc 1 233 0
 189 001c 46F66353 		movw	r3, #28003
 190              	.LVL17:
 191 0020 059A     		ldr	r2, [sp, #20]
 192              	.LVL18:
 193 0022 1380     		strh	r3, [r2]	@ movhi
 234:uCOS-III\Source/os_time.c ****         return;
 194              		.loc 1 234 0
 195 0024 70BD     		pop	{r4, r5, r6, pc}
 196              	.LVL19:
 197              	.L16:
 235:uCOS-III\Source/os_time.c ****     }
 236:uCOS-III\Source/os_time.c **** 
 237:uCOS-III\Source/os_time.c ****     opt_time = opt & OS_OPT_TIME_MASK;                      /* Retrieve time options only.         
 198              		.loc 1 237 0
 199 0026 04F00E05 		and	r5, r4, #14
 200              	.LVL20:
 238:uCOS-III\Source/os_time.c ****     switch (opt_time) {
 201              		.loc 1 238 0
 202 002a 082D     		cmp	r5, #8
 203 002c 0FD8     		bhi	.L17
 204 002e DFE805F0 		tbb	[pc, r5]
 205              	.L19:
 206 0032 05       		.byte	(.L18-.L19)/2
 207 0033 0E       		.byte	(.L17-.L19)/2
 208 0034 05       		.byte	(.L18-.L19)/2
 209 0035 0E       		.byte	(.L17-.L19)/2
 210 0036 13       		.byte	(.L20-.L19)/2
 211 0037 0E       		.byte	(.L17-.L19)/2
 212 0038 0E       		.byte	(.L17-.L19)/2
 213 0039 0E       		.byte	(.L17-.L19)/2
 214 003a 05       		.byte	(.L18-.L19)/2
 215 003b 00       		.p2align 1
 216              	.L18:
 239:uCOS-III\Source/os_time.c ****         case OS_OPT_TIME_DLY:
 240:uCOS-III\Source/os_time.c ****         case OS_OPT_TIME_TIMEOUT:
ARM GAS  C:\Users\jorti\AppData\Local\Temp\ccYz8BLv.s 			page 9


 241:uCOS-III\Source/os_time.c ****         case OS_OPT_TIME_PERIODIC:
 242:uCOS-III\Source/os_time.c ****              if (milli == (CPU_INT32U)0u) {                 /* Make sure we didn't specify a 0 dela
 217              		.loc 1 242 0
 218 003c 63B9     		cbnz	r3, .L20
 243:uCOS-III\Source/os_time.c ****                  if (seconds == (CPU_INT16U)0u) {
 219              		.loc 1 243 0
 220 003e 5AB9     		cbnz	r2, .L20
 244:uCOS-III\Source/os_time.c ****                      if (minutes == (CPU_INT16U)0u) {
 221              		.loc 1 244 0
 222 0040 51B9     		cbnz	r1, .L20
 245:uCOS-III\Source/os_time.c ****                          if (hours == (CPU_INT16U)0u) {
 223              		.loc 1 245 0
 224 0042 48B9     		cbnz	r0, .L20
 246:uCOS-III\Source/os_time.c ****                             *p_err = OS_ERR_TIME_ZERO_DLY;
 225              		.loc 1 246 0
 226 0044 47F27E23 		movw	r3, #29310
 227              	.LVL21:
 228 0048 059A     		ldr	r2, [sp, #20]
 229              	.LVL22:
 230 004a 1380     		strh	r3, [r2]	@ movhi
 247:uCOS-III\Source/os_time.c ****                              return;
 231              		.loc 1 247 0
 232 004c 70BD     		pop	{r4, r5, r6, pc}
 233              	.LVL23:
 234              	.L17:
 248:uCOS-III\Source/os_time.c ****                          }
 249:uCOS-III\Source/os_time.c ****                      }
 250:uCOS-III\Source/os_time.c ****                  }
 251:uCOS-III\Source/os_time.c ****              }
 252:uCOS-III\Source/os_time.c ****              break;
 253:uCOS-III\Source/os_time.c **** 
 254:uCOS-III\Source/os_time.c ****         case OS_OPT_TIME_MATCH:
 255:uCOS-III\Source/os_time.c ****              break;
 256:uCOS-III\Source/os_time.c **** 
 257:uCOS-III\Source/os_time.c ****         default:
 258:uCOS-III\Source/os_time.c ****             *p_err = OS_ERR_OPT_INVALID;
 235              		.loc 1 258 0
 236 004e 45F62563 		movw	r3, #24101
 237              	.LVL24:
 238 0052 059A     		ldr	r2, [sp, #20]
 239              	.LVL25:
 240 0054 1380     		strh	r3, [r2]	@ movhi
 259:uCOS-III\Source/os_time.c ****              return;
 241              		.loc 1 259 0
 242 0056 70BD     		pop	{r4, r5, r6, pc}
 243              	.LVL26:
 244              	.L20:
 260:uCOS-III\Source/os_time.c ****     }
 261:uCOS-III\Source/os_time.c **** 
 262:uCOS-III\Source/os_time.c **** #if OS_CFG_ARG_CHK_EN > 0u                                  /* Validate arguments to be within rang
 263:uCOS-III\Source/os_time.c ****     opt_invalid = DEF_BIT_IS_SET_ANY(opt, ~OS_OPT_TIME_OPTS_MASK);
 264:uCOS-III\Source/os_time.c ****     if (opt_invalid == DEF_YES) {
 245              		.loc 1 264 0
 246 0058 34F01E06 		bics	r6, r4, #30
 247 005c 04D0     		beq	.L21
 265:uCOS-III\Source/os_time.c ****        *p_err = OS_ERR_OPT_INVALID;
 248              		.loc 1 265 0
ARM GAS  C:\Users\jorti\AppData\Local\Temp\ccYz8BLv.s 			page 10


 249 005e 45F62563 		movw	r3, #24101
 250              	.LVL27:
 251 0062 059A     		ldr	r2, [sp, #20]
 252              	.LVL28:
 253 0064 1380     		strh	r3, [r2]	@ movhi
 266:uCOS-III\Source/os_time.c ****         return;
 254              		.loc 1 266 0
 255 0066 70BD     		pop	{r4, r5, r6, pc}
 256              	.LVL29:
 257              	.L21:
 267:uCOS-III\Source/os_time.c ****     }
 268:uCOS-III\Source/os_time.c **** 
 269:uCOS-III\Source/os_time.c ****     opt_non_strict = DEF_BIT_IS_SET(opt, OS_OPT_TIME_HMSM_NON_STRICT);
 258              		.loc 1 269 0
 259 0068 04F01004 		and	r4, r4, #16
 260              	.LVL30:
 261 006c A4B2     		uxth	r4, r4
 262 006e 0CB1     		cbz	r4, .L31
 263 0070 0124     		movs	r4, #1
 264 0072 00E0     		b	.L22
 265              	.L31:
 266 0074 0024     		movs	r4, #0
 267              	.L22:
 268              	.LVL31:
 270:uCOS-III\Source/os_time.c ****     if (opt_non_strict != DEF_YES) {
 269              		.loc 1 270 0 discriminator 4
 270 0076 E4B9     		cbnz	r4, .L23
 271:uCOS-III\Source/os_time.c ****          if (milli   > (CPU_INT32U)999u) {
 271              		.loc 1 271 0
 272 0078 B3F57A7F 		cmp	r3, #1000
 273 007c 04D3     		bcc	.L24
 272:uCOS-III\Source/os_time.c ****             *p_err = OS_ERR_TIME_INVALID_MILLISECONDS;
 274              		.loc 1 272 0
 275 007e 47F27B23 		movw	r3, #29307
 276              	.LVL32:
 277 0082 059A     		ldr	r2, [sp, #20]
 278              	.LVL33:
 279 0084 1380     		strh	r3, [r2]	@ movhi
 273:uCOS-III\Source/os_time.c ****              return;
 280              		.loc 1 273 0
 281 0086 70BD     		pop	{r4, r5, r6, pc}
 282              	.LVL34:
 283              	.L24:
 274:uCOS-III\Source/os_time.c ****          }
 275:uCOS-III\Source/os_time.c ****          if (seconds > (CPU_INT16U)59u) {
 284              		.loc 1 275 0
 285 0088 3B2A     		cmp	r2, #59
 286 008a 04D9     		bls	.L25
 276:uCOS-III\Source/os_time.c ****             *p_err = OS_ERR_TIME_INVALID_SECONDS;
 287              		.loc 1 276 0
 288 008c 47F27A23 		movw	r3, #29306
 289              	.LVL35:
 290 0090 059A     		ldr	r2, [sp, #20]
 291              	.LVL36:
 292 0092 1380     		strh	r3, [r2]	@ movhi
 277:uCOS-III\Source/os_time.c ****              return;
 293              		.loc 1 277 0
ARM GAS  C:\Users\jorti\AppData\Local\Temp\ccYz8BLv.s 			page 11


 294 0094 70BD     		pop	{r4, r5, r6, pc}
 295              	.LVL37:
 296              	.L25:
 278:uCOS-III\Source/os_time.c ****          }
 279:uCOS-III\Source/os_time.c ****          if (minutes > (CPU_INT16U)59u) {
 297              		.loc 1 279 0
 298 0096 3B29     		cmp	r1, #59
 299 0098 04D9     		bls	.L26
 280:uCOS-III\Source/os_time.c ****             *p_err = OS_ERR_TIME_INVALID_MINUTES;
 300              		.loc 1 280 0
 301 009a 47F27923 		movw	r3, #29305
 302              	.LVL38:
 303 009e 059A     		ldr	r2, [sp, #20]
 304              	.LVL39:
 305 00a0 1380     		strh	r3, [r2]	@ movhi
 281:uCOS-III\Source/os_time.c ****              return;
 306              		.loc 1 281 0
 307 00a2 70BD     		pop	{r4, r5, r6, pc}
 308              	.LVL40:
 309              	.L26:
 282:uCOS-III\Source/os_time.c ****          }
 283:uCOS-III\Source/os_time.c ****          if (hours   > (CPU_INT16U)99u) {
 310              		.loc 1 283 0
 311 00a4 6328     		cmp	r0, #99
 312 00a6 15D9     		bls	.L27
 284:uCOS-III\Source/os_time.c ****             *p_err = OS_ERR_TIME_INVALID_HOURS;
 313              		.loc 1 284 0
 314 00a8 47F27823 		movw	r3, #29304
 315              	.LVL41:
 316 00ac 059A     		ldr	r2, [sp, #20]
 317              	.LVL42:
 318 00ae 1380     		strh	r3, [r2]	@ movhi
 285:uCOS-III\Source/os_time.c ****              return;
 319              		.loc 1 285 0
 320 00b0 70BD     		pop	{r4, r5, r6, pc}
 321              	.LVL43:
 322              	.L23:
 286:uCOS-III\Source/os_time.c ****          }
 287:uCOS-III\Source/os_time.c ****     } else {
 288:uCOS-III\Source/os_time.c ****          if (minutes > (CPU_INT16U)9999u) {
 323              		.loc 1 288 0
 324 00b2 42F20F74 		movw	r4, #9999
 325              	.LVL44:
 326 00b6 A142     		cmp	r1, r4
 327 00b8 04D9     		bls	.L28
 289:uCOS-III\Source/os_time.c ****             *p_err = OS_ERR_TIME_INVALID_MINUTES;
 328              		.loc 1 289 0
 329 00ba 47F27923 		movw	r3, #29305
 330              	.LVL45:
 331 00be 059A     		ldr	r2, [sp, #20]
 332              	.LVL46:
 333 00c0 1380     		strh	r3, [r2]	@ movhi
 290:uCOS-III\Source/os_time.c ****              return;
 334              		.loc 1 290 0
 335 00c2 70BD     		pop	{r4, r5, r6, pc}
 336              	.LVL47:
 337              	.L28:
ARM GAS  C:\Users\jorti\AppData\Local\Temp\ccYz8BLv.s 			page 12


 291:uCOS-III\Source/os_time.c ****          }
 292:uCOS-III\Source/os_time.c ****          if (hours   > (CPU_INT16U)999u) {
 338              		.loc 1 292 0
 339 00c4 B0F57A7F 		cmp	r0, #1000
 340 00c8 04D3     		bcc	.L27
 293:uCOS-III\Source/os_time.c ****             *p_err = OS_ERR_TIME_INVALID_HOURS;
 341              		.loc 1 293 0
 342 00ca 47F27823 		movw	r3, #29304
 343              	.LVL48:
 344 00ce 059A     		ldr	r2, [sp, #20]
 345              	.LVL49:
 346 00d0 1380     		strh	r3, [r2]	@ movhi
 294:uCOS-III\Source/os_time.c ****              return;
 347              		.loc 1 294 0
 348 00d2 70BD     		pop	{r4, r5, r6, pc}
 349              	.LVL50:
 350              	.L27:
 295:uCOS-III\Source/os_time.c ****          }
 296:uCOS-III\Source/os_time.c ****     }
 297:uCOS-III\Source/os_time.c **** #endif
 298:uCOS-III\Source/os_time.c **** 
 299:uCOS-III\Source/os_time.c ****                                                             /* Compute the total number of clock ti
 300:uCOS-III\Source/os_time.c ****                                                             /* .. (rounded to the nearest tick)    
 301:uCOS-III\Source/os_time.c ****     tick_rate = OSCfg_TickRate_Hz;
 351              		.loc 1 301 0
 352 00d4 204C     		ldr	r4, .L33+8
 353 00d6 2468     		ldr	r4, [r4]
 354              	.LVL51:
 302:uCOS-III\Source/os_time.c ****     ticks     = ((OS_TICK)hours * (OS_TICK)3600u + (OS_TICK)minutes * (OS_TICK)60u + (OS_TICK)secon
 355              		.loc 1 302 0
 356 00d8 C1EB0111 		rsb	r1, r1, r1, lsl #4
 357              	.LVL52:
 358 00dc 8E00     		lsls	r6, r1, #2
 359 00de 4FF46161 		mov	r1, #3600
 360 00e2 01FB0060 		mla	r0, r1, r0, r6
 361              	.LVL53:
 362 00e6 0244     		add	r2, r2, r0
 363              	.LVL54:
 303:uCOS-III\Source/os_time.c ****               + (tick_rate * ((OS_TICK)milli + (OS_TICK)500u / tick_rate)) / (OS_TICK)1000u;
 364              		.loc 1 303 0
 365 00e8 4FF4FA71 		mov	r1, #500
 366 00ec B1FBF4F1 		udiv	r1, r1, r4
 367 00f0 0B44     		add	r3, r3, r1
 368              	.LVL55:
 369 00f2 03FB04F3 		mul	r3, r3, r4
 370 00f6 1949     		ldr	r1, .L33+12
 371 00f8 A1FB0313 		umull	r1, r3, r1, r3
 372 00fc 9B09     		lsrs	r3, r3, #6
 302:uCOS-III\Source/os_time.c ****     ticks     = ((OS_TICK)hours * (OS_TICK)3600u + (OS_TICK)minutes * (OS_TICK)60u + (OS_TICK)secon
 373              		.loc 1 302 0
 374 00fe 02FB0434 		mla	r4, r2, r4, r3
 375              	.LVL56:
 304:uCOS-III\Source/os_time.c **** 
 305:uCOS-III\Source/os_time.c ****     if (ticks > (OS_TICK)0u) {
 376              		.loc 1 305 0
 377 0102 04B3     		cbz	r4, .L29
 306:uCOS-III\Source/os_time.c ****         OS_CRITICAL_ENTER();
ARM GAS  C:\Users\jorti\AppData\Local\Temp\ccYz8BLv.s 			page 13


 378              		.loc 1 306 0
 379 0104 FFF7FEFF 		bl	CPU_SR_Save
 380              	.LVL57:
 381 0108 0646     		mov	r6, r0
 382              	.LVL58:
 307:uCOS-III\Source/os_time.c ****         OSTCBCurPtr->TaskState = OS_TASK_STATE_DLY;
 383              		.loc 1 307 0
 384 010a 154B     		ldr	r3, .L33+16
 385 010c 1868     		ldr	r0, [r3]
 386              	.LVL59:
 387 010e 0123     		movs	r3, #1
 388 0110 80F83630 		strb	r3, [r0, #54]
 308:uCOS-III\Source/os_time.c ****         OS_TickListInsert(OSTCBCurPtr,
 389              		.loc 1 308 0
 390 0114 059B     		ldr	r3, [sp, #20]
 391 0116 2A46     		mov	r2, r5
 392 0118 2146     		mov	r1, r4
 393 011a FFF7FEFF 		bl	OS_TickListInsert
 394              	.LVL60:
 309:uCOS-III\Source/os_time.c ****                           ticks,
 310:uCOS-III\Source/os_time.c ****                           opt_time,
 311:uCOS-III\Source/os_time.c ****                           p_err);
 312:uCOS-III\Source/os_time.c ****         if (*p_err != OS_ERR_NONE) {
 395              		.loc 1 312 0
 396 011e 059B     		ldr	r3, [sp, #20]
 397 0120 1B88     		ldrh	r3, [r3]
 398 0122 1BB1     		cbz	r3, .L30
 313:uCOS-III\Source/os_time.c ****              OS_CRITICAL_EXIT_NO_SCHED();
 399              		.loc 1 313 0
 400 0124 3046     		mov	r0, r6
 401 0126 FFF7FEFF 		bl	CPU_SR_Restore
 402              	.LVL61:
 314:uCOS-III\Source/os_time.c ****              return;
 403              		.loc 1 314 0
 404 012a 70BD     		pop	{r4, r5, r6, pc}
 405              	.LVL62:
 406              	.L30:
 315:uCOS-III\Source/os_time.c ****         }
 316:uCOS-III\Source/os_time.c ****         OS_RdyListRemove(OSTCBCurPtr);                      /* Remove current task from ready list 
 407              		.loc 1 316 0
 408 012c 0C4B     		ldr	r3, .L33+16
 409 012e 1868     		ldr	r0, [r3]
 410 0130 FFF7FEFF 		bl	OS_RdyListRemove
 411              	.LVL63:
 317:uCOS-III\Source/os_time.c ****         OS_CRITICAL_EXIT_NO_SCHED();
 412              		.loc 1 317 0
 413 0134 3046     		mov	r0, r6
 414 0136 FFF7FEFF 		bl	CPU_SR_Restore
 415              	.LVL64:
 318:uCOS-III\Source/os_time.c ****         OSSched();                                          /* Find next task to run!              
 416              		.loc 1 318 0
 417 013a FFF7FEFF 		bl	OSSched
 418              	.LVL65:
 319:uCOS-III\Source/os_time.c ****        *p_err = OS_ERR_NONE;
 419              		.loc 1 319 0
 420 013e 0023     		movs	r3, #0
 421 0140 059A     		ldr	r2, [sp, #20]
ARM GAS  C:\Users\jorti\AppData\Local\Temp\ccYz8BLv.s 			page 14


 422 0142 1380     		strh	r3, [r2]	@ movhi
 423 0144 70BD     		pop	{r4, r5, r6, pc}
 424              	.LVL66:
 425              	.L29:
 320:uCOS-III\Source/os_time.c ****     } else {
 321:uCOS-III\Source/os_time.c ****        *p_err = OS_ERR_TIME_ZERO_DLY;
 426              		.loc 1 321 0
 427 0146 47F27E23 		movw	r3, #29310
 428 014a 059A     		ldr	r2, [sp, #20]
 429 014c 1380     		strh	r3, [r2]	@ movhi
 430 014e 70BD     		pop	{r4, r5, r6, pc}
 431              	.LVL67:
 432              	.L34:
 433              		.align	2
 434              	.L33:
 435 0150 00000000 		.word	OSIntNestingCtr
 436 0154 00000000 		.word	OSSchedLockNestingCtr
 437 0158 00000000 		.word	OSCfg_TickRate_Hz
 438 015c D34D6210 		.word	274877907
 439 0160 00000000 		.word	OSTCBCurPtr
 440              		.cfi_endproc
 441              	.LFE2:
 442              		.size	OSTimeDlyHMSM, .-OSTimeDlyHMSM
 443              		.section	.text.OSTimeDlyResume,"ax",%progbits
 444              		.align	2
 445              		.global	OSTimeDlyResume
 446              		.thumb
 447              		.thumb_func
 448              		.type	OSTimeDlyResume, %function
 449              	OSTimeDlyResume:
 450              	.LFB3:
 322:uCOS-III\Source/os_time.c ****     }
 323:uCOS-III\Source/os_time.c **** }
 324:uCOS-III\Source/os_time.c **** #endif
 325:uCOS-III\Source/os_time.c **** /*$PAGE*/
 326:uCOS-III\Source/os_time.c **** /*
 327:uCOS-III\Source/os_time.c **** ***************************************************************************************************
 328:uCOS-III\Source/os_time.c **** *                                                RESUME A DELAYED TASK
 329:uCOS-III\Source/os_time.c **** *
 330:uCOS-III\Source/os_time.c **** * Description: This function is used resume a task that has been delayed through a call to either O
 331:uCOS-III\Source/os_time.c **** *              OSTimeDlyHMSM().  Note that cannot call this function to resume a task that is waiti
 332:uCOS-III\Source/os_time.c **** *              with timeout.
 333:uCOS-III\Source/os_time.c **** *
 334:uCOS-III\Source/os_time.c **** * Arguments  : p_tcb    is a pointer to the TCB of the task to resume.
 335:uCOS-III\Source/os_time.c **** *
 336:uCOS-III\Source/os_time.c **** *              p_err    is a pointer to a variable that will receive an error code
 337:uCOS-III\Source/os_time.c **** *
 338:uCOS-III\Source/os_time.c **** *                           OS_ERR_NONE                  Task has been resumed
 339:uCOS-III\Source/os_time.c **** *                           OS_ERR_STATE_INVALID         Task is in an invalid state
 340:uCOS-III\Source/os_time.c **** *                           OS_ERR_TIME_DLY_RESUME_ISR   If called from an ISR
 341:uCOS-III\Source/os_time.c **** *                           OS_ERR_TIME_NOT_DLY          Task is not waiting for time to expire
 342:uCOS-III\Source/os_time.c **** *                           OS_ERR_TASK_SUSPENDED        Task cannot be resumed, it was suspended b
 343:uCOS-III\Source/os_time.c **** *
 344:uCOS-III\Source/os_time.c **** * Note(s)    : none
 345:uCOS-III\Source/os_time.c **** ***************************************************************************************************
 346:uCOS-III\Source/os_time.c **** */
 347:uCOS-III\Source/os_time.c **** 
ARM GAS  C:\Users\jorti\AppData\Local\Temp\ccYz8BLv.s 			page 15


 348:uCOS-III\Source/os_time.c **** #if OS_CFG_TIME_DLY_RESUME_EN > 0u
 349:uCOS-III\Source/os_time.c **** void  OSTimeDlyResume (OS_TCB  *p_tcb,
 350:uCOS-III\Source/os_time.c ****                        OS_ERR  *p_err)
 351:uCOS-III\Source/os_time.c **** {
 451              		.loc 1 351 0
 452              		.cfi_startproc
 453              		@ args = 0, pretend = 0, frame = 0
 454              		@ frame_needed = 0, uses_anonymous_args = 0
 455              	.LVL68:
 456 0000 F8B5     		push	{r3, r4, r5, r6, r7, lr}
 457              		.cfi_def_cfa_offset 24
 458              		.cfi_offset 3, -24
 459              		.cfi_offset 4, -20
 460              		.cfi_offset 5, -16
 461              		.cfi_offset 6, -12
 462              		.cfi_offset 7, -8
 463              		.cfi_offset 14, -4
 464              	.LVL69:
 352:uCOS-III\Source/os_time.c ****     CPU_SR_ALLOC();
 353:uCOS-III\Source/os_time.c **** 
 354:uCOS-III\Source/os_time.c **** 
 355:uCOS-III\Source/os_time.c **** 
 356:uCOS-III\Source/os_time.c **** #ifdef OS_SAFETY_CRITICAL
 357:uCOS-III\Source/os_time.c ****     if (p_err == (OS_ERR *)0) {
 358:uCOS-III\Source/os_time.c ****         OS_SAFETY_CRITICAL_EXCEPTION();
 359:uCOS-III\Source/os_time.c ****         return;
 360:uCOS-III\Source/os_time.c ****     }
 361:uCOS-III\Source/os_time.c **** #endif
 362:uCOS-III\Source/os_time.c **** 
 363:uCOS-III\Source/os_time.c **** #if OS_CFG_CALLED_FROM_ISR_CHK_EN > 0u
 364:uCOS-III\Source/os_time.c ****     if (OSIntNestingCtr > (OS_NESTING_CTR)0u) {             /* Not allowed to call from an ISR     
 465              		.loc 1 364 0
 466 0002 364B     		ldr	r3, .L52
 467 0004 1B78     		ldrb	r3, [r3]	@ zero_extendqisi2
 468 0006 1BB1     		cbz	r3, .L36
 365:uCOS-III\Source/os_time.c ****        *p_err = OS_ERR_TIME_DLY_RESUME_ISR;
 469              		.loc 1 365 0
 470 0008 47F27623 		movw	r3, #29302
 471 000c 0B80     		strh	r3, [r1]	@ movhi
 366:uCOS-III\Source/os_time.c ****         return;
 472              		.loc 1 366 0
 473 000e F8BD     		pop	{r3, r4, r5, r6, r7, pc}
 474              	.L36:
 367:uCOS-III\Source/os_time.c ****     }
 368:uCOS-III\Source/os_time.c **** #endif
 369:uCOS-III\Source/os_time.c **** 
 370:uCOS-III\Source/os_time.c **** #if OS_CFG_ARG_CHK_EN > 0u
 371:uCOS-III\Source/os_time.c ****     if (p_tcb == (OS_TCB *)0) {                             /* Not possible for the running task to
 475              		.loc 1 371 0
 476 0010 18B9     		cbnz	r0, .L38
 372:uCOS-III\Source/os_time.c ****        *p_err = OS_ERR_TASK_NOT_DLY;
 477              		.loc 1 372 0
 478 0012 47F25113 		movw	r3, #29009
 479 0016 0B80     		strh	r3, [r1]	@ movhi
 373:uCOS-III\Source/os_time.c ****         return;
 480              		.loc 1 373 0
 481 0018 F8BD     		pop	{r3, r4, r5, r6, r7, pc}
ARM GAS  C:\Users\jorti\AppData\Local\Temp\ccYz8BLv.s 			page 16


 482              	.L38:
 483 001a 0D46     		mov	r5, r1
 484 001c 0446     		mov	r4, r0
 374:uCOS-III\Source/os_time.c ****     }
 375:uCOS-III\Source/os_time.c **** #endif
 376:uCOS-III\Source/os_time.c **** 
 377:uCOS-III\Source/os_time.c ****     CPU_CRITICAL_ENTER();
 485              		.loc 1 377 0
 486 001e FFF7FEFF 		bl	CPU_SR_Save
 487              	.LVL70:
 488 0022 0646     		mov	r6, r0
 489              	.LVL71:
 378:uCOS-III\Source/os_time.c ****     if (p_tcb == OSTCBCurPtr) {                             /* Not possible for the running task to
 490              		.loc 1 378 0
 491 0024 2E4B     		ldr	r3, .L52+4
 492 0026 1B68     		ldr	r3, [r3]
 493 0028 9C42     		cmp	r4, r3
 494 002a 05D1     		bne	.L39
 379:uCOS-III\Source/os_time.c ****        *p_err = OS_ERR_TASK_NOT_DLY;
 495              		.loc 1 379 0
 496 002c 47F25113 		movw	r3, #29009
 497 0030 2B80     		strh	r3, [r5]	@ movhi
 380:uCOS-III\Source/os_time.c ****         CPU_CRITICAL_EXIT();
 498              		.loc 1 380 0
 499 0032 FFF7FEFF 		bl	CPU_SR_Restore
 500              	.LVL72:
 381:uCOS-III\Source/os_time.c ****         return;
 501              		.loc 1 381 0
 502 0036 F8BD     		pop	{r3, r4, r5, r6, r7, pc}
 503              	.LVL73:
 504              	.L39:
 382:uCOS-III\Source/os_time.c ****     }
 383:uCOS-III\Source/os_time.c **** 
 384:uCOS-III\Source/os_time.c ****     switch (p_tcb->TaskState) {
 505              		.loc 1 384 0
 506 0038 94F83630 		ldrb	r3, [r4, #54]	@ zero_extendqisi2
 507 003c 072B     		cmp	r3, #7
 508 003e 44D8     		bhi	.L40
 509 0040 DFE803F0 		tbb	[pc, r3]
 510              	.L42:
 511 0044 04       		.byte	(.L41-.L42)/2
 512 0045 0A       		.byte	(.L43-.L42)/2
 513 0046 18       		.byte	(.L44-.L42)/2
 514 0047 1E       		.byte	(.L45-.L42)/2
 515 0048 24       		.byte	(.L46-.L42)/2
 516 0049 2A       		.byte	(.L47-.L42)/2
 517 004a 37       		.byte	(.L48-.L42)/2
 518 004b 3D       		.byte	(.L49-.L42)/2
 519              		.p2align 1
 520              	.L41:
 385:uCOS-III\Source/os_time.c ****         case OS_TASK_STATE_RDY:                             /* Cannot Abort delay if task is ready 
 386:uCOS-III\Source/os_time.c ****              CPU_CRITICAL_EXIT();
 521              		.loc 1 386 0
 522 004c FFF7FEFF 		bl	CPU_SR_Restore
 523              	.LVL74:
 387:uCOS-III\Source/os_time.c ****             *p_err = OS_ERR_TASK_NOT_DLY;
 524              		.loc 1 387 0
ARM GAS  C:\Users\jorti\AppData\Local\Temp\ccYz8BLv.s 			page 17


 525 0050 47F25113 		movw	r3, #29009
 526 0054 2B80     		strh	r3, [r5]	@ movhi
 388:uCOS-III\Source/os_time.c ****              break;
 527              		.loc 1 388 0
 528 0056 3DE0     		b	.L50
 529              	.LVL75:
 530              	.L43:
 389:uCOS-III\Source/os_time.c **** 
 390:uCOS-III\Source/os_time.c ****         case OS_TASK_STATE_DLY:
 391:uCOS-III\Source/os_time.c ****              OS_CRITICAL_ENTER_CPU_EXIT();
 392:uCOS-III\Source/os_time.c ****              p_tcb->TaskState = OS_TASK_STATE_RDY;
 531              		.loc 1 392 0
 532 0058 0027     		movs	r7, #0
 533 005a 84F83670 		strb	r7, [r4, #54]
 393:uCOS-III\Source/os_time.c ****              OS_TickListRemove(p_tcb);                      /* Remove task from tick list          
 534              		.loc 1 393 0
 535 005e 2046     		mov	r0, r4
 536              	.LVL76:
 537 0060 FFF7FEFF 		bl	OS_TickListRemove
 538              	.LVL77:
 394:uCOS-III\Source/os_time.c ****              OS_RdyListInsert(p_tcb);                       /* Add to ready list                   
 539              		.loc 1 394 0
 540 0064 2046     		mov	r0, r4
 541 0066 FFF7FEFF 		bl	OS_RdyListInsert
 542              	.LVL78:
 395:uCOS-III\Source/os_time.c ****              OS_CRITICAL_EXIT_NO_SCHED();
 543              		.loc 1 395 0
 544 006a 3046     		mov	r0, r6
 545 006c FFF7FEFF 		bl	CPU_SR_Restore
 546              	.LVL79:
 396:uCOS-III\Source/os_time.c ****             *p_err = OS_ERR_NONE;
 547              		.loc 1 396 0
 548 0070 2F80     		strh	r7, [r5]	@ movhi
 397:uCOS-III\Source/os_time.c ****              break;
 549              		.loc 1 397 0
 550 0072 2FE0     		b	.L50
 551              	.LVL80:
 552              	.L44:
 398:uCOS-III\Source/os_time.c **** 
 399:uCOS-III\Source/os_time.c ****         case OS_TASK_STATE_PEND:
 400:uCOS-III\Source/os_time.c ****              CPU_CRITICAL_EXIT();
 553              		.loc 1 400 0
 554 0074 FFF7FEFF 		bl	CPU_SR_Restore
 555              	.LVL81:
 401:uCOS-III\Source/os_time.c ****             *p_err = OS_ERR_TASK_NOT_DLY;
 556              		.loc 1 401 0
 557 0078 47F25113 		movw	r3, #29009
 558 007c 2B80     		strh	r3, [r5]	@ movhi
 402:uCOS-III\Source/os_time.c ****              break;
 559              		.loc 1 402 0
 560 007e 29E0     		b	.L50
 561              	.LVL82:
 562              	.L45:
 403:uCOS-III\Source/os_time.c **** 
 404:uCOS-III\Source/os_time.c ****         case OS_TASK_STATE_PEND_TIMEOUT:
 405:uCOS-III\Source/os_time.c ****              CPU_CRITICAL_EXIT();
 563              		.loc 1 405 0
ARM GAS  C:\Users\jorti\AppData\Local\Temp\ccYz8BLv.s 			page 18


 564 0080 FFF7FEFF 		bl	CPU_SR_Restore
 565              	.LVL83:
 406:uCOS-III\Source/os_time.c ****             *p_err = OS_ERR_TASK_NOT_DLY;
 566              		.loc 1 406 0
 567 0084 47F25113 		movw	r3, #29009
 568 0088 2B80     		strh	r3, [r5]	@ movhi
 407:uCOS-III\Source/os_time.c ****              break;
 569              		.loc 1 407 0
 570 008a 23E0     		b	.L50
 571              	.LVL84:
 572              	.L46:
 408:uCOS-III\Source/os_time.c **** 
 409:uCOS-III\Source/os_time.c ****         case OS_TASK_STATE_SUSPENDED:
 410:uCOS-III\Source/os_time.c ****              CPU_CRITICAL_EXIT();
 573              		.loc 1 410 0
 574 008c FFF7FEFF 		bl	CPU_SR_Restore
 575              	.LVL85:
 411:uCOS-III\Source/os_time.c ****             *p_err = OS_ERR_TASK_NOT_DLY;
 576              		.loc 1 411 0
 577 0090 47F25113 		movw	r3, #29009
 578 0094 2B80     		strh	r3, [r5]	@ movhi
 412:uCOS-III\Source/os_time.c ****              break;
 579              		.loc 1 412 0
 580 0096 1DE0     		b	.L50
 581              	.LVL86:
 582              	.L47:
 413:uCOS-III\Source/os_time.c **** 
 414:uCOS-III\Source/os_time.c ****         case OS_TASK_STATE_DLY_SUSPENDED:
 415:uCOS-III\Source/os_time.c ****              OS_CRITICAL_ENTER_CPU_EXIT();
 416:uCOS-III\Source/os_time.c ****              p_tcb->TaskState = OS_TASK_STATE_SUSPENDED;
 583              		.loc 1 416 0
 584 0098 0423     		movs	r3, #4
 585 009a 84F83630 		strb	r3, [r4, #54]
 417:uCOS-III\Source/os_time.c ****              OS_TickListRemove(p_tcb);                      /* Remove task from tick list          
 586              		.loc 1 417 0
 587 009e 2046     		mov	r0, r4
 588              	.LVL87:
 589 00a0 FFF7FEFF 		bl	OS_TickListRemove
 590              	.LVL88:
 418:uCOS-III\Source/os_time.c ****              OS_CRITICAL_EXIT_NO_SCHED();
 591              		.loc 1 418 0
 592 00a4 3046     		mov	r0, r6
 593 00a6 FFF7FEFF 		bl	CPU_SR_Restore
 594              	.LVL89:
 419:uCOS-III\Source/os_time.c ****             *p_err            = OS_ERR_TASK_SUSPENDED;
 595              		.loc 1 419 0
 596 00aa 47F25A13 		movw	r3, #29018
 597 00ae 2B80     		strh	r3, [r5]	@ movhi
 420:uCOS-III\Source/os_time.c ****              break;
 598              		.loc 1 420 0
 599 00b0 10E0     		b	.L50
 600              	.LVL90:
 601              	.L48:
 421:uCOS-III\Source/os_time.c **** 
 422:uCOS-III\Source/os_time.c ****         case OS_TASK_STATE_PEND_SUSPENDED:
 423:uCOS-III\Source/os_time.c ****              CPU_CRITICAL_EXIT();
 602              		.loc 1 423 0
ARM GAS  C:\Users\jorti\AppData\Local\Temp\ccYz8BLv.s 			page 19


 603 00b2 FFF7FEFF 		bl	CPU_SR_Restore
 604              	.LVL91:
 424:uCOS-III\Source/os_time.c ****             *p_err = OS_ERR_TASK_NOT_DLY;
 605              		.loc 1 424 0
 606 00b6 47F25113 		movw	r3, #29009
 607 00ba 2B80     		strh	r3, [r5]	@ movhi
 425:uCOS-III\Source/os_time.c ****              break;
 608              		.loc 1 425 0
 609 00bc 0AE0     		b	.L50
 610              	.LVL92:
 611              	.L49:
 426:uCOS-III\Source/os_time.c **** 
 427:uCOS-III\Source/os_time.c ****         case OS_TASK_STATE_PEND_TIMEOUT_SUSPENDED:
 428:uCOS-III\Source/os_time.c ****              CPU_CRITICAL_EXIT();
 612              		.loc 1 428 0
 613 00be FFF7FEFF 		bl	CPU_SR_Restore
 614              	.LVL93:
 429:uCOS-III\Source/os_time.c ****             *p_err = OS_ERR_TASK_NOT_DLY;
 615              		.loc 1 429 0
 616 00c2 47F25113 		movw	r3, #29009
 617 00c6 2B80     		strh	r3, [r5]	@ movhi
 430:uCOS-III\Source/os_time.c ****              break;
 618              		.loc 1 430 0
 619 00c8 04E0     		b	.L50
 620              	.LVL94:
 621              	.L40:
 431:uCOS-III\Source/os_time.c **** 
 432:uCOS-III\Source/os_time.c ****         default:
 433:uCOS-III\Source/os_time.c ****              CPU_CRITICAL_EXIT();
 622              		.loc 1 433 0
 623 00ca FFF7FEFF 		bl	CPU_SR_Restore
 624              	.LVL95:
 434:uCOS-III\Source/os_time.c ****             *p_err = OS_ERR_STATE_INVALID;
 625              		.loc 1 434 0
 626 00ce 46F62D63 		movw	r3, #28205
 627 00d2 2B80     		strh	r3, [r5]	@ movhi
 628              	.L50:
 435:uCOS-III\Source/os_time.c ****              break;
 436:uCOS-III\Source/os_time.c ****     }
 437:uCOS-III\Source/os_time.c **** 
 438:uCOS-III\Source/os_time.c ****     OSSched();
 629              		.loc 1 438 0
 630 00d4 FFF7FEFF 		bl	OSSched
 631              	.LVL96:
 632 00d8 F8BD     		pop	{r3, r4, r5, r6, r7, pc}
 633              	.LVL97:
 634              	.L53:
 635 00da 00BF     		.align	2
 636              	.L52:
 637 00dc 00000000 		.word	OSIntNestingCtr
 638 00e0 00000000 		.word	OSTCBCurPtr
 639              		.cfi_endproc
 640              	.LFE3:
 641              		.size	OSTimeDlyResume, .-OSTimeDlyResume
 642              		.section	.text.OSTimeGet,"ax",%progbits
 643              		.align	2
 644              		.global	OSTimeGet
ARM GAS  C:\Users\jorti\AppData\Local\Temp\ccYz8BLv.s 			page 20


 645              		.thumb
 646              		.thumb_func
 647              		.type	OSTimeGet, %function
 648              	OSTimeGet:
 649              	.LFB4:
 439:uCOS-III\Source/os_time.c **** }
 440:uCOS-III\Source/os_time.c **** #endif
 441:uCOS-III\Source/os_time.c **** /*$PAGE*/
 442:uCOS-III\Source/os_time.c **** /*
 443:uCOS-III\Source/os_time.c **** ***************************************************************************************************
 444:uCOS-III\Source/os_time.c **** *                                               GET CURRENT SYSTEM TIME
 445:uCOS-III\Source/os_time.c **** *
 446:uCOS-III\Source/os_time.c **** * Description: This function is used by your application to obtain the current value of the counter
 447:uCOS-III\Source/os_time.c **** *              the number of clock ticks.
 448:uCOS-III\Source/os_time.c **** *
 449:uCOS-III\Source/os_time.c **** * Arguments  : p_err    is a pointer to a variable that will receive an error code
 450:uCOS-III\Source/os_time.c **** *
 451:uCOS-III\Source/os_time.c **** *                           OS_ERR_NONE           If the call was successful
 452:uCOS-III\Source/os_time.c **** *
 453:uCOS-III\Source/os_time.c **** * Returns    : The current value of OSTickCtr
 454:uCOS-III\Source/os_time.c **** ***************************************************************************************************
 455:uCOS-III\Source/os_time.c **** */
 456:uCOS-III\Source/os_time.c **** 
 457:uCOS-III\Source/os_time.c **** OS_TICK  OSTimeGet (OS_ERR  *p_err)
 458:uCOS-III\Source/os_time.c **** {
 650              		.loc 1 458 0
 651              		.cfi_startproc
 652              		@ args = 0, pretend = 0, frame = 0
 653              		@ frame_needed = 0, uses_anonymous_args = 0
 654              	.LVL98:
 655 0000 38B5     		push	{r3, r4, r5, lr}
 656              		.cfi_def_cfa_offset 16
 657              		.cfi_offset 3, -16
 658              		.cfi_offset 4, -12
 659              		.cfi_offset 5, -8
 660              		.cfi_offset 14, -4
 661 0002 0546     		mov	r5, r0
 662              	.LVL99:
 459:uCOS-III\Source/os_time.c ****     OS_TICK  ticks;
 460:uCOS-III\Source/os_time.c ****     CPU_SR_ALLOC();
 461:uCOS-III\Source/os_time.c **** 
 462:uCOS-III\Source/os_time.c **** 
 463:uCOS-III\Source/os_time.c **** 
 464:uCOS-III\Source/os_time.c **** #ifdef OS_SAFETY_CRITICAL
 465:uCOS-III\Source/os_time.c ****     if (p_err == (OS_ERR *)0) {
 466:uCOS-III\Source/os_time.c ****         OS_SAFETY_CRITICAL_EXCEPTION();
 467:uCOS-III\Source/os_time.c ****         return ((OS_TICK)0);
 468:uCOS-III\Source/os_time.c ****     }
 469:uCOS-III\Source/os_time.c **** #endif
 470:uCOS-III\Source/os_time.c **** 
 471:uCOS-III\Source/os_time.c ****     CPU_CRITICAL_ENTER();
 663              		.loc 1 471 0
 664 0004 FFF7FEFF 		bl	CPU_SR_Save
 665              	.LVL100:
 472:uCOS-III\Source/os_time.c ****     ticks = OSTickCtr;
 666              		.loc 1 472 0
 667 0008 034B     		ldr	r3, .L56
ARM GAS  C:\Users\jorti\AppData\Local\Temp\ccYz8BLv.s 			page 21


 668 000a 1C68     		ldr	r4, [r3]
 669              	.LVL101:
 473:uCOS-III\Source/os_time.c ****     CPU_CRITICAL_EXIT();
 670              		.loc 1 473 0
 671 000c FFF7FEFF 		bl	CPU_SR_Restore
 672              	.LVL102:
 474:uCOS-III\Source/os_time.c ****    *p_err = OS_ERR_NONE;
 673              		.loc 1 474 0
 674 0010 0023     		movs	r3, #0
 675 0012 2B80     		strh	r3, [r5]	@ movhi
 475:uCOS-III\Source/os_time.c ****     return (ticks);
 476:uCOS-III\Source/os_time.c **** }
 676              		.loc 1 476 0
 677 0014 2046     		mov	r0, r4
 678 0016 38BD     		pop	{r3, r4, r5, pc}
 679              	.LVL103:
 680              	.L57:
 681              		.align	2
 682              	.L56:
 683 0018 00000000 		.word	OSTickCtr
 684              		.cfi_endproc
 685              	.LFE4:
 686              		.size	OSTimeGet, .-OSTimeGet
 687              		.section	.text.OSTimeSet,"ax",%progbits
 688              		.align	2
 689              		.global	OSTimeSet
 690              		.thumb
 691              		.thumb_func
 692              		.type	OSTimeSet, %function
 693              	OSTimeSet:
 694              	.LFB5:
 477:uCOS-III\Source/os_time.c **** 
 478:uCOS-III\Source/os_time.c **** /*
 479:uCOS-III\Source/os_time.c **** ***************************************************************************************************
 480:uCOS-III\Source/os_time.c **** *                                                   SET SYSTEM CLOCK
 481:uCOS-III\Source/os_time.c **** *
 482:uCOS-III\Source/os_time.c **** * Description: This function sets the counter which keeps track of the number of clock ticks.
 483:uCOS-III\Source/os_time.c **** *
 484:uCOS-III\Source/os_time.c **** * Arguments  : ticks    is the desired tick value
 485:uCOS-III\Source/os_time.c **** *
 486:uCOS-III\Source/os_time.c **** *              p_err    is a pointer to a variable that will receive an error code
 487:uCOS-III\Source/os_time.c **** *
 488:uCOS-III\Source/os_time.c **** *                           OS_ERR_NONE           If the call was successful
 489:uCOS-III\Source/os_time.c **** *
 490:uCOS-III\Source/os_time.c **** * Returns    : none
 491:uCOS-III\Source/os_time.c **** ***************************************************************************************************
 492:uCOS-III\Source/os_time.c **** */
 493:uCOS-III\Source/os_time.c **** 
 494:uCOS-III\Source/os_time.c **** void  OSTimeSet (OS_TICK   ticks,
 495:uCOS-III\Source/os_time.c ****                  OS_ERR   *p_err)
 496:uCOS-III\Source/os_time.c **** {
 695              		.loc 1 496 0
 696              		.cfi_startproc
 697              		@ args = 0, pretend = 0, frame = 0
 698              		@ frame_needed = 0, uses_anonymous_args = 0
 699              	.LVL104:
 700 0000 38B5     		push	{r3, r4, r5, lr}
ARM GAS  C:\Users\jorti\AppData\Local\Temp\ccYz8BLv.s 			page 22


 701              		.cfi_def_cfa_offset 16
 702              		.cfi_offset 3, -16
 703              		.cfi_offset 4, -12
 704              		.cfi_offset 5, -8
 705              		.cfi_offset 14, -4
 706 0002 0546     		mov	r5, r0
 707 0004 0C46     		mov	r4, r1
 708              	.LVL105:
 497:uCOS-III\Source/os_time.c ****     CPU_SR_ALLOC();
 498:uCOS-III\Source/os_time.c **** 
 499:uCOS-III\Source/os_time.c **** 
 500:uCOS-III\Source/os_time.c **** 
 501:uCOS-III\Source/os_time.c **** #ifdef OS_SAFETY_CRITICAL
 502:uCOS-III\Source/os_time.c ****     if (p_err == (OS_ERR *)0) {
 503:uCOS-III\Source/os_time.c ****         OS_SAFETY_CRITICAL_EXCEPTION();
 504:uCOS-III\Source/os_time.c ****         return;
 505:uCOS-III\Source/os_time.c ****     }
 506:uCOS-III\Source/os_time.c **** #endif
 507:uCOS-III\Source/os_time.c **** 
 508:uCOS-III\Source/os_time.c ****     CPU_CRITICAL_ENTER();
 709              		.loc 1 508 0
 710 0006 FFF7FEFF 		bl	CPU_SR_Save
 711              	.LVL106:
 509:uCOS-III\Source/os_time.c ****     OSTickCtr = ticks;
 712              		.loc 1 509 0
 713 000a 034B     		ldr	r3, .L60
 714 000c 1D60     		str	r5, [r3]
 510:uCOS-III\Source/os_time.c ****     CPU_CRITICAL_EXIT();
 715              		.loc 1 510 0
 716 000e FFF7FEFF 		bl	CPU_SR_Restore
 717              	.LVL107:
 511:uCOS-III\Source/os_time.c ****    *p_err     = OS_ERR_NONE;
 718              		.loc 1 511 0
 719 0012 0023     		movs	r3, #0
 720 0014 2380     		strh	r3, [r4]	@ movhi
 721 0016 38BD     		pop	{r3, r4, r5, pc}
 722              	.LVL108:
 723              	.L61:
 724              		.align	2
 725              	.L60:
 726 0018 00000000 		.word	OSTickCtr
 727              		.cfi_endproc
 728              	.LFE5:
 729              		.size	OSTimeSet, .-OSTimeSet
 730              		.section	.text.OSTimeTick,"ax",%progbits
 731              		.align	2
 732              		.global	OSTimeTick
 733              		.thumb
 734              		.thumb_func
 735              		.type	OSTimeTick, %function
 736              	OSTimeTick:
 737              	.LFB6:
 512:uCOS-III\Source/os_time.c **** }
 513:uCOS-III\Source/os_time.c **** 
 514:uCOS-III\Source/os_time.c **** /*$PAGE*/
 515:uCOS-III\Source/os_time.c **** /*
 516:uCOS-III\Source/os_time.c **** ***************************************************************************************************
ARM GAS  C:\Users\jorti\AppData\Local\Temp\ccYz8BLv.s 			page 23


 517:uCOS-III\Source/os_time.c **** *                                                 PROCESS SYSTEM TICK
 518:uCOS-III\Source/os_time.c **** *
 519:uCOS-III\Source/os_time.c **** * Description: This function is used to signal to uC/OS-III the occurrence of a 'system tick' (also
 520:uCOS-III\Source/os_time.c **** *              'clock tick').  This function should be called by the tick ISR.
 521:uCOS-III\Source/os_time.c **** *
 522:uCOS-III\Source/os_time.c **** * Arguments  : none
 523:uCOS-III\Source/os_time.c **** *
 524:uCOS-III\Source/os_time.c **** * Returns    : none
 525:uCOS-III\Source/os_time.c **** ***************************************************************************************************
 526:uCOS-III\Source/os_time.c **** */
 527:uCOS-III\Source/os_time.c **** 
 528:uCOS-III\Source/os_time.c **** void  OSTimeTick (void)
 529:uCOS-III\Source/os_time.c **** {
 738              		.loc 1 529 0
 739              		.cfi_startproc
 740              		@ args = 0, pretend = 0, frame = 8
 741              		@ frame_needed = 0, uses_anonymous_args = 0
 742 0000 00B5     		push	{lr}
 743              		.cfi_def_cfa_offset 4
 744              		.cfi_offset 14, -4
 745 0002 83B0     		sub	sp, sp, #12
 746              		.cfi_def_cfa_offset 16
 530:uCOS-III\Source/os_time.c ****     OS_ERR  err;
 531:uCOS-III\Source/os_time.c **** #if OS_CFG_ISR_POST_DEFERRED_EN > 0u
 532:uCOS-III\Source/os_time.c ****     CPU_TS  ts;
 533:uCOS-III\Source/os_time.c **** #endif
 534:uCOS-III\Source/os_time.c **** 
 535:uCOS-III\Source/os_time.c **** 
 536:uCOS-III\Source/os_time.c ****     OSTimeTickHook();                                       /* Call user definable hook            
 747              		.loc 1 536 0
 748 0004 FFF7FEFF 		bl	OSTimeTickHook
 749              	.LVL109:
 537:uCOS-III\Source/os_time.c **** 
 538:uCOS-III\Source/os_time.c **** #if OS_CFG_ISR_POST_DEFERRED_EN > 0u
 539:uCOS-III\Source/os_time.c **** 
 540:uCOS-III\Source/os_time.c ****     ts = OS_TS_GET();                                       /* Get timestamp                       
 541:uCOS-III\Source/os_time.c ****     OS_IntQPost((OS_OBJ_TYPE) OS_OBJ_TYPE_TICK,             /* Post to ISR queue                   
 542:uCOS-III\Source/os_time.c ****                 (void      *)&OSRdyList[OSPrioCur],
 543:uCOS-III\Source/os_time.c ****                 (void      *) 0,
 544:uCOS-III\Source/os_time.c ****                 (OS_MSG_SIZE) 0u,
 545:uCOS-III\Source/os_time.c ****                 (OS_FLAGS   ) 0u,
 546:uCOS-III\Source/os_time.c ****                 (OS_OPT     ) 0u,
 547:uCOS-III\Source/os_time.c ****                 (CPU_TS     ) ts,
 548:uCOS-III\Source/os_time.c ****                 (OS_ERR    *)&err);
 549:uCOS-III\Source/os_time.c **** 
 550:uCOS-III\Source/os_time.c **** #else
 551:uCOS-III\Source/os_time.c **** 
 552:uCOS-III\Source/os_time.c ****    (void)OSTaskSemPost((OS_TCB *)&OSTickTaskTCB,            /* Signal tick task                    
 750              		.loc 1 552 0
 751 0008 0DF10602 		add	r2, sp, #6
 752 000c 0021     		movs	r1, #0
 753 000e 0F48     		ldr	r0, .L65
 754 0010 FFF7FEFF 		bl	OSTaskSemPost
 755              	.LVL110:
 553:uCOS-III\Source/os_time.c ****                        (OS_OPT  ) OS_OPT_POST_NONE,
 554:uCOS-III\Source/os_time.c ****                        (OS_ERR *)&err);
 555:uCOS-III\Source/os_time.c **** 
ARM GAS  C:\Users\jorti\AppData\Local\Temp\ccYz8BLv.s 			page 24


 556:uCOS-III\Source/os_time.c **** 
 557:uCOS-III\Source/os_time.c **** #if OS_CFG_SCHED_ROUND_ROBIN_EN > 0u
 558:uCOS-III\Source/os_time.c ****     OS_SchedRoundRobin(&OSRdyList[OSPrioCur]);
 756              		.loc 1 558 0
 757 0014 0E4B     		ldr	r3, .L65+4
 758 0016 1B78     		ldrb	r3, [r3]	@ zero_extendqisi2
 759 0018 03EB4303 		add	r3, r3, r3, lsl #1
 760 001c 9A00     		lsls	r2, r3, #2
 761 001e 0D48     		ldr	r0, .L65+8
 762 0020 1044     		add	r0, r0, r2
 763 0022 FFF7FEFF 		bl	OS_SchedRoundRobin
 764              	.LVL111:
 559:uCOS-III\Source/os_time.c **** #endif
 560:uCOS-III\Source/os_time.c **** 
 561:uCOS-III\Source/os_time.c **** #if OS_CFG_TMR_EN > 0u
 562:uCOS-III\Source/os_time.c ****     OSTmrUpdateCtr--;
 765              		.loc 1 562 0
 766 0026 0C4A     		ldr	r2, .L65+12
 767 0028 1368     		ldr	r3, [r2]
 768 002a 013B     		subs	r3, r3, #1
 769 002c 1360     		str	r3, [r2]
 563:uCOS-III\Source/os_time.c ****     if (OSTmrUpdateCtr == (OS_CTR)0u) {
 770              		.loc 1 563 0
 771 002e 4BB9     		cbnz	r3, .L62
 564:uCOS-III\Source/os_time.c ****         OSTmrUpdateCtr = OSTmrUpdateCnt;
 772              		.loc 1 564 0
 773 0030 0A4B     		ldr	r3, .L65+16
 774 0032 1A68     		ldr	r2, [r3]
 775 0034 084B     		ldr	r3, .L65+12
 776 0036 1A60     		str	r2, [r3]
 565:uCOS-III\Source/os_time.c ****         OSTaskSemPost((OS_TCB *)&OSTmrTaskTCB,              /* Signal timer task                   
 777              		.loc 1 565 0
 778 0038 0DF10602 		add	r2, sp, #6
 779 003c 0021     		movs	r1, #0
 780 003e 0848     		ldr	r0, .L65+20
 781 0040 FFF7FEFF 		bl	OSTaskSemPost
 782              	.LVL112:
 783              	.L62:
 566:uCOS-III\Source/os_time.c ****                       (OS_OPT  ) OS_OPT_POST_NONE,
 567:uCOS-III\Source/os_time.c ****                       (OS_ERR *)&err);
 568:uCOS-III\Source/os_time.c ****     }
 569:uCOS-III\Source/os_time.c **** #endif
 570:uCOS-III\Source/os_time.c **** 
 571:uCOS-III\Source/os_time.c **** #endif
 572:uCOS-III\Source/os_time.c **** }
 784              		.loc 1 572 0
 785 0044 03B0     		add	sp, sp, #12
 786              		.cfi_def_cfa_offset 4
 787              		@ sp needed
 788 0046 5DF804FB 		ldr	pc, [sp], #4
 789              	.L66:
 790 004a 00BF     		.align	2
 791              	.L65:
 792 004c 00000000 		.word	OSTickTaskTCB
 793 0050 00000000 		.word	OSPrioCur
 794 0054 00000000 		.word	OSRdyList
 795 0058 00000000 		.word	OSTmrUpdateCtr
ARM GAS  C:\Users\jorti\AppData\Local\Temp\ccYz8BLv.s 			page 25


 796 005c 00000000 		.word	OSTmrUpdateCnt
 797 0060 00000000 		.word	OSTmrTaskTCB
 798              		.cfi_endproc
 799              	.LFE6:
 800              		.size	OSTimeTick, .-OSTimeTick
 801              		.text
 802              	.Letext0:
 803              		.file 2 ".\\uC-CPU\\ARM-Cortex-M3\\GNU/cpu.h"
 804              		.file 3 ".\\uC-CPU/cpu_core.h"
 805              		.file 4 ".\\uCOS-III\\Source/os_type.h"
 806              		.file 5 ".\\uCOS-III\\Source/os.h"