ARM GAS  C:\Users\jorti\AppData\Local\Temp\ccDtGf1z.s 			page 1


   1              		.syntax unified
   2              		.cpu cortex-m3
   3              		.fpu softvfp
   4              		.eabi_attribute 20, 1
   5              		.eabi_attribute 21, 1
   6              		.eabi_attribute 23, 3
   7              		.eabi_attribute 24, 1
   8              		.eabi_attribute 25, 1
   9              		.eabi_attribute 26, 1
  10              		.eabi_attribute 30, 1
  11              		.eabi_attribute 34, 1
  12              		.eabi_attribute 18, 4
  13              		.thumb
  14              		.syntax unified
  15              		.file	"os_task.c"
  16              		.text
  17              	.Ltext0:
  18              		.cfi_sections	.debug_frame
  19              		.section	.text.OSTaskChangePrio,"ax",%progbits
  20              		.align	2
  21              		.global	OSTaskChangePrio
  22              		.thumb
  23              		.thumb_func
  24              		.type	OSTaskChangePrio, %function
  25              	OSTaskChangePrio:
  26              	.LFB1:
  27              		.file 1 "uCOS-III\\Source\\os_task.c"
   1:uCOS-III\Source/os_task.c **** /*
   2:uCOS-III\Source/os_task.c **** ***************************************************************************************************
   3:uCOS-III\Source/os_task.c **** *                                                      uC/OS-III
   4:uCOS-III\Source/os_task.c **** *                                                 The Real-Time Kernel
   5:uCOS-III\Source/os_task.c **** *
   6:uCOS-III\Source/os_task.c **** *                                  (c) Copyright 2009-2012; Micrium, Inc.; Weston, FL
   7:uCOS-III\Source/os_task.c **** *                           All rights reserved.  Protected by international copyright laws.
   8:uCOS-III\Source/os_task.c **** *
   9:uCOS-III\Source/os_task.c **** *                                                   TASK MANAGEMENT
  10:uCOS-III\Source/os_task.c **** *
  11:uCOS-III\Source/os_task.c **** * File    : OS_TASK.C
  12:uCOS-III\Source/os_task.c **** * By      : JJL
  13:uCOS-III\Source/os_task.c **** * Version : V3.03.01
  14:uCOS-III\Source/os_task.c **** *
  15:uCOS-III\Source/os_task.c **** * LICENSING TERMS:
  16:uCOS-III\Source/os_task.c **** * ---------------
  17:uCOS-III\Source/os_task.c **** *           uC/OS-III is provided in source form for FREE short-term evaluation, for educational us
  18:uCOS-III\Source/os_task.c **** *           for peaceful research.  If you plan or intend to use uC/OS-III in a commercial applicat
  19:uCOS-III\Source/os_task.c **** *           product then, you need to contact Micrium to properly license uC/OS-III for its use in 
  20:uCOS-III\Source/os_task.c **** *           application/product.   We provide ALL the source code for your convenience and to help 
  21:uCOS-III\Source/os_task.c **** *           experience uC/OS-III.  The fact that the source is provided does NOT mean that you can 
  22:uCOS-III\Source/os_task.c **** *           it commercially without paying a licensing fee.
  23:uCOS-III\Source/os_task.c **** *
  24:uCOS-III\Source/os_task.c **** *           Knowledge of the source code may NOT be used to develop a similar product.
  25:uCOS-III\Source/os_task.c **** *
  26:uCOS-III\Source/os_task.c **** *           Please help us continue to provide the embedded community with the finest software avai
  27:uCOS-III\Source/os_task.c **** *           Your honesty is greatly appreciated.
  28:uCOS-III\Source/os_task.c **** *
  29:uCOS-III\Source/os_task.c **** *           You can contact us at www.micrium.com, or by phone at +1 (954) 217-2036.
  30:uCOS-III\Source/os_task.c **** ***************************************************************************************************
ARM GAS  C:\Users\jorti\AppData\Local\Temp\ccDtGf1z.s 			page 2


  31:uCOS-III\Source/os_task.c **** */
  32:uCOS-III\Source/os_task.c **** 
  33:uCOS-III\Source/os_task.c **** #define  MICRIUM_SOURCE
  34:uCOS-III\Source/os_task.c **** #include <os.h>
  35:uCOS-III\Source/os_task.c **** 
  36:uCOS-III\Source/os_task.c **** #ifdef VSC_INCLUDE_SOURCE_FILE_NAMES
  37:uCOS-III\Source/os_task.c **** const  CPU_CHAR  *os_task__c = "$Id: $";
  38:uCOS-III\Source/os_task.c **** #endif
  39:uCOS-III\Source/os_task.c **** 
  40:uCOS-III\Source/os_task.c **** /*
  41:uCOS-III\Source/os_task.c **** ***************************************************************************************************
  42:uCOS-III\Source/os_task.c **** *                                                CHANGE PRIORITY OF A TASK
  43:uCOS-III\Source/os_task.c **** *
  44:uCOS-III\Source/os_task.c **** * Description: This function allows you to change the priority of a task dynamically.  Note that th
  45:uCOS-III\Source/os_task.c **** *              priority MUST be available.
  46:uCOS-III\Source/os_task.c **** *
  47:uCOS-III\Source/os_task.c **** * Arguments  : p_tcb      is the TCB of the tack to change the priority for
  48:uCOS-III\Source/os_task.c **** *
  49:uCOS-III\Source/os_task.c **** *              prio_new   is the new priority
  50:uCOS-III\Source/os_task.c **** *
  51:uCOS-III\Source/os_task.c **** *              p_err      is a pointer to an error code returned by this function:
  52:uCOS-III\Source/os_task.c **** *
  53:uCOS-III\Source/os_task.c **** *                             OS_ERR_NONE                 is the call was successful
  54:uCOS-III\Source/os_task.c **** *                             OS_ERR_PRIO_INVALID         if the priority you specify is higher tha
  55:uCOS-III\Source/os_task.c **** *                                                         (i.e. >= (OS_CFG_PRIO_MAX-1))
  56:uCOS-III\Source/os_task.c **** *                             OS_ERR_STATE_INVALID        if the task is in an invalid state
  57:uCOS-III\Source/os_task.c **** *                             OS_ERR_TASK_CHANGE_PRIO_ISR if you tried to change the task's priorit
  58:uCOS-III\Source/os_task.c **** ***************************************************************************************************
  59:uCOS-III\Source/os_task.c **** */
  60:uCOS-III\Source/os_task.c **** 
  61:uCOS-III\Source/os_task.c **** #if OS_CFG_TASK_CHANGE_PRIO_EN > 0u
  62:uCOS-III\Source/os_task.c **** void  OSTaskChangePrio (OS_TCB   *p_tcb,
  63:uCOS-III\Source/os_task.c ****                         OS_PRIO   prio_new,
  64:uCOS-III\Source/os_task.c ****                         OS_ERR   *p_err)
  65:uCOS-III\Source/os_task.c **** {
  28              		.loc 1 65 0
  29              		.cfi_startproc
  30              		@ args = 0, pretend = 0, frame = 0
  31              		@ frame_needed = 0, uses_anonymous_args = 0
  32              	.LVL0:
  33 0000 2DE9F041 		push	{r4, r5, r6, r7, r8, lr}
  34              		.cfi_def_cfa_offset 24
  35              		.cfi_offset 4, -24
  36              		.cfi_offset 5, -20
  37              		.cfi_offset 6, -16
  38              		.cfi_offset 7, -12
  39              		.cfi_offset 8, -8
  40              		.cfi_offset 14, -4
  41 0004 1546     		mov	r5, r2
  42              	.LVL1:
  66:uCOS-III\Source/os_task.c ****     CPU_BOOLEAN   self;
  67:uCOS-III\Source/os_task.c ****     CPU_SR_ALLOC();
  68:uCOS-III\Source/os_task.c **** 
  69:uCOS-III\Source/os_task.c **** 
  70:uCOS-III\Source/os_task.c **** 
  71:uCOS-III\Source/os_task.c **** #ifdef OS_SAFETY_CRITICAL
  72:uCOS-III\Source/os_task.c ****     if (p_err == (OS_ERR *)0) {
ARM GAS  C:\Users\jorti\AppData\Local\Temp\ccDtGf1z.s 			page 3


  73:uCOS-III\Source/os_task.c ****         OS_SAFETY_CRITICAL_EXCEPTION();
  74:uCOS-III\Source/os_task.c ****         return;
  75:uCOS-III\Source/os_task.c ****     }
  76:uCOS-III\Source/os_task.c **** #endif
  77:uCOS-III\Source/os_task.c **** 
  78:uCOS-III\Source/os_task.c **** #if OS_CFG_CALLED_FROM_ISR_CHK_EN > 0u
  79:uCOS-III\Source/os_task.c ****     if (OSIntNestingCtr > (OS_NESTING_CTR)0) {              /* ---------- CANNOT CREATE A TASK FROM
  43              		.loc 1 79 0
  44 0006 314B     		ldr	r3, .L18
  45 0008 1B78     		ldrb	r3, [r3]	@ zero_extendqisi2
  46 000a 23B1     		cbz	r3, .L2
  80:uCOS-III\Source/os_task.c ****        *p_err = OS_ERR_TASK_CHANGE_PRIO_ISR;
  47              		.loc 1 80 0
  48 000c 47F24913 		movw	r3, #29001
  49 0010 1380     		strh	r3, [r2]	@ movhi
  81:uCOS-III\Source/os_task.c ****         return;
  50              		.loc 1 81 0
  51 0012 BDE8F081 		pop	{r4, r5, r6, r7, r8, pc}
  52              	.L2:
  53 0016 0446     		mov	r4, r0
  54 0018 0E46     		mov	r6, r1
  82:uCOS-III\Source/os_task.c ****     }
  83:uCOS-III\Source/os_task.c **** #endif
  84:uCOS-III\Source/os_task.c **** 
  85:uCOS-III\Source/os_task.c **** #if OS_CFG_ISR_POST_DEFERRED_EN > 0u
  86:uCOS-III\Source/os_task.c ****     if (prio_new == 0) {                                    /* Cannot set to IntQueue Task priority
  87:uCOS-III\Source/os_task.c ****        *p_err = OS_ERR_PRIO_INVALID;
  88:uCOS-III\Source/os_task.c ****         return;
  89:uCOS-III\Source/os_task.c ****     }
  90:uCOS-III\Source/os_task.c **** #endif
  91:uCOS-III\Source/os_task.c **** 
  92:uCOS-III\Source/os_task.c ****     if (prio_new >= (OS_CFG_PRIO_MAX - 1u)) {               /* Cannot set to Idle Task priority    
  55              		.loc 1 92 0
  56 001a 0629     		cmp	r1, #6
  57 001c 04D9     		bls	.L4
  93:uCOS-III\Source/os_task.c ****        *p_err = OS_ERR_PRIO_INVALID;
  58              		.loc 1 93 0
  59 001e 46F27323 		movw	r3, #25203
  60 0022 1380     		strh	r3, [r2]	@ movhi
  94:uCOS-III\Source/os_task.c ****         return;
  61              		.loc 1 94 0
  62 0024 BDE8F081 		pop	{r4, r5, r6, r7, r8, pc}
  63              	.L4:
  95:uCOS-III\Source/os_task.c ****     }
  96:uCOS-III\Source/os_task.c **** 
  97:uCOS-III\Source/os_task.c ****     if (p_tcb == (OS_TCB *)0) {                             /* See if want to change priority of 's
  64              		.loc 1 97 0
  65 0028 40B9     		cbnz	r0, .L16
  98:uCOS-III\Source/os_task.c ****         CPU_CRITICAL_ENTER();
  66              		.loc 1 98 0
  67 002a FFF7FEFF 		bl	CPU_SR_Save
  68              	.LVL2:
  99:uCOS-III\Source/os_task.c ****         p_tcb = OSTCBCurPtr;
  69              		.loc 1 99 0
  70 002e 284B     		ldr	r3, .L18+4
  71 0030 1C68     		ldr	r4, [r3]
  72              	.LVL3:
ARM GAS  C:\Users\jorti\AppData\Local\Temp\ccDtGf1z.s 			page 4


 100:uCOS-III\Source/os_task.c ****         CPU_CRITICAL_EXIT();
  73              		.loc 1 100 0
  74 0032 FFF7FEFF 		bl	CPU_SR_Restore
  75              	.LVL4:
 101:uCOS-III\Source/os_task.c ****         self  = DEF_TRUE;
  76              		.loc 1 101 0
  77 0036 4FF00108 		mov	r8, #1
  78 003a 01E0     		b	.L5
  79              	.LVL5:
  80              	.L16:
 102:uCOS-III\Source/os_task.c ****     } else {
 103:uCOS-III\Source/os_task.c ****         self  = DEF_FALSE;
  81              		.loc 1 103 0
  82 003c 4FF00008 		mov	r8, #0
  83              	.LVL6:
  84              	.L5:
 104:uCOS-III\Source/os_task.c ****     }
 105:uCOS-III\Source/os_task.c **** 
 106:uCOS-III\Source/os_task.c ****     OS_CRITICAL_ENTER();
  85              		.loc 1 106 0
  86 0040 FFF7FEFF 		bl	CPU_SR_Save
  87              	.LVL7:
  88 0044 0746     		mov	r7, r0
  89              	.LVL8:
 107:uCOS-III\Source/os_task.c ****     switch (p_tcb->TaskState) {
  90              		.loc 1 107 0
  91 0046 94F83630 		ldrb	r3, [r4, #54]	@ zero_extendqisi2
  92 004a 072B     		cmp	r3, #7
  93 004c 2ED8     		bhi	.L6
  94 004e DFE803F0 		tbb	[pc, r3]
  95              	.L8:
  96 0052 04       		.byte	(.L7-.L8)/2
  97 0053 17       		.byte	(.L9-.L8)/2
  98 0054 1A       		.byte	(.L10-.L8)/2
  99 0055 1A       		.byte	(.L10-.L8)/2
 100 0056 17       		.byte	(.L9-.L8)/2
 101 0057 17       		.byte	(.L9-.L8)/2
 102 0058 1A       		.byte	(.L10-.L8)/2
 103 0059 1A       		.byte	(.L10-.L8)/2
 104              		.p2align 1
 105              	.L7:
 108:uCOS-III\Source/os_task.c ****         case OS_TASK_STATE_RDY:
 109:uCOS-III\Source/os_task.c ****              OS_RdyListRemove(p_tcb);                       /* Remove from current priority        
 106              		.loc 1 109 0
 107 005a 2046     		mov	r0, r4
 108              	.LVL9:
 109 005c FFF7FEFF 		bl	OS_RdyListRemove
 110              	.LVL10:
 110:uCOS-III\Source/os_task.c ****              p_tcb->Prio = prio_new;                        /* Set new task priority               
 111              		.loc 1 110 0
 112 0060 84F83760 		strb	r6, [r4, #55]
 111:uCOS-III\Source/os_task.c ****              OS_PrioInsert(p_tcb->Prio);
 113              		.loc 1 111 0
 114 0064 3046     		mov	r0, r6
 115 0066 FFF7FEFF 		bl	OS_PrioInsert
 116              	.LVL11:
 112:uCOS-III\Source/os_task.c ****              if (self == DEF_TRUE) {
ARM GAS  C:\Users\jorti\AppData\Local\Temp\ccDtGf1z.s 			page 5


 117              		.loc 1 112 0
 118 006a B8F1000F 		cmp	r8, #0
 119 006e 03D0     		beq	.L11
 113:uCOS-III\Source/os_task.c ****                  OS_RdyListInsertHead(p_tcb);
 120              		.loc 1 113 0
 121 0070 2046     		mov	r0, r4
 122 0072 FFF7FEFF 		bl	OS_RdyListInsertHead
 123              	.LVL12:
 124 0076 20E0     		b	.L12
 125              	.L11:
 114:uCOS-III\Source/os_task.c ****              } else {
 115:uCOS-III\Source/os_task.c ****                  OS_RdyListInsertTail(p_tcb);
 126              		.loc 1 115 0
 127 0078 2046     		mov	r0, r4
 128 007a FFF7FEFF 		bl	OS_RdyListInsertTail
 129              	.LVL13:
 130 007e 1CE0     		b	.L12
 131              	.LVL14:
 132              	.L9:
 116:uCOS-III\Source/os_task.c ****              }
 117:uCOS-III\Source/os_task.c ****              break;
 118:uCOS-III\Source/os_task.c **** 
 119:uCOS-III\Source/os_task.c ****         case OS_TASK_STATE_DLY:                             /* Nothing to do except change the prio
 120:uCOS-III\Source/os_task.c ****         case OS_TASK_STATE_SUSPENDED:
 121:uCOS-III\Source/os_task.c ****         case OS_TASK_STATE_DLY_SUSPENDED:
 122:uCOS-III\Source/os_task.c ****              p_tcb->Prio = prio_new;                        /* Set new task priority               
 133              		.loc 1 122 0
 134 0080 84F83760 		strb	r6, [r4, #55]
 123:uCOS-III\Source/os_task.c ****              break;
 135              		.loc 1 123 0
 136 0084 19E0     		b	.L12
 137              	.L10:
 124:uCOS-III\Source/os_task.c **** 
 125:uCOS-III\Source/os_task.c ****         case OS_TASK_STATE_PEND:
 126:uCOS-III\Source/os_task.c ****         case OS_TASK_STATE_PEND_TIMEOUT:
 127:uCOS-III\Source/os_task.c ****         case OS_TASK_STATE_PEND_SUSPENDED:
 128:uCOS-III\Source/os_task.c ****         case OS_TASK_STATE_PEND_TIMEOUT_SUSPENDED:
 129:uCOS-III\Source/os_task.c ****              switch (p_tcb->PendOn) {                       /* What to do depends on what we are pe
 138              		.loc 1 129 0
 139 0086 94F83430 		ldrb	r3, [r4, #52]	@ zero_extendqisi2
 140 008a 013B     		subs	r3, r3, #1
 141 008c 062B     		cmp	r3, #6
 142 008e 14D8     		bhi	.L12
 143 0090 DFE803F0 		tbb	[pc, r3]
 144              	.L14:
 145 0094 04       		.byte	(.L13-.L14)/2
 146 0095 04       		.byte	(.L13-.L14)/2
 147 0096 07       		.byte	(.L15-.L14)/2
 148 0097 07       		.byte	(.L15-.L14)/2
 149 0098 07       		.byte	(.L15-.L14)/2
 150 0099 07       		.byte	(.L15-.L14)/2
 151 009a 04       		.byte	(.L13-.L14)/2
 152 009b 00       		.p2align 1
 153              	.L13:
 130:uCOS-III\Source/os_task.c ****                  case OS_TASK_PEND_ON_TASK_Q:               /* Nothing to do except change the prio
 131:uCOS-III\Source/os_task.c ****                  case OS_TASK_PEND_ON_TASK_SEM:
 132:uCOS-III\Source/os_task.c ****                  case OS_TASK_PEND_ON_FLAG:
ARM GAS  C:\Users\jorti\AppData\Local\Temp\ccDtGf1z.s 			page 6


 133:uCOS-III\Source/os_task.c ****                       p_tcb->Prio = prio_new;               /* Set new task priority               
 154              		.loc 1 133 0
 155 009c 84F83760 		strb	r6, [r4, #55]
 134:uCOS-III\Source/os_task.c ****                       break;
 156              		.loc 1 134 0
 157 00a0 0BE0     		b	.L12
 158              	.L15:
 135:uCOS-III\Source/os_task.c **** 
 136:uCOS-III\Source/os_task.c ****                  case OS_TASK_PEND_ON_MUTEX:
 137:uCOS-III\Source/os_task.c ****                  case OS_TASK_PEND_ON_MULTI:
 138:uCOS-III\Source/os_task.c ****                  case OS_TASK_PEND_ON_Q:
 139:uCOS-III\Source/os_task.c ****                  case OS_TASK_PEND_ON_SEM:
 140:uCOS-III\Source/os_task.c ****                       OS_PendListChangePrio(p_tcb,
 159              		.loc 1 140 0
 160 00a2 3146     		mov	r1, r6
 161 00a4 2046     		mov	r0, r4
 162              	.LVL15:
 163 00a6 FFF7FEFF 		bl	OS_PendListChangePrio
 164              	.LVL16:
 141:uCOS-III\Source/os_task.c ****                                             prio_new);
 142:uCOS-III\Source/os_task.c ****                       break;
 165              		.loc 1 142 0
 166 00aa 06E0     		b	.L12
 167              	.LVL17:
 168              	.L6:
 143:uCOS-III\Source/os_task.c **** 
 144:uCOS-III\Source/os_task.c ****                  default:
 145:uCOS-III\Source/os_task.c ****                       break;
 146:uCOS-III\Source/os_task.c ****             }
 147:uCOS-III\Source/os_task.c ****              break;
 148:uCOS-III\Source/os_task.c **** 
 149:uCOS-III\Source/os_task.c ****         default:
 150:uCOS-III\Source/os_task.c ****              OS_CRITICAL_EXIT();
 169              		.loc 1 150 0
 170 00ac FFF7FEFF 		bl	CPU_SR_Restore
 171              	.LVL18:
 151:uCOS-III\Source/os_task.c ****             *p_err = OS_ERR_STATE_INVALID;
 172              		.loc 1 151 0
 173 00b0 46F62D63 		movw	r3, #28205
 174 00b4 2B80     		strh	r3, [r5]	@ movhi
 152:uCOS-III\Source/os_task.c ****              return;
 175              		.loc 1 152 0
 176 00b6 BDE8F081 		pop	{r4, r5, r6, r7, r8, pc}
 177              	.LVL19:
 178              	.L12:
 153:uCOS-III\Source/os_task.c ****     }
 154:uCOS-III\Source/os_task.c **** 
 155:uCOS-III\Source/os_task.c ****     OS_CRITICAL_EXIT_NO_SCHED();
 179              		.loc 1 155 0
 180 00ba 3846     		mov	r0, r7
 181 00bc FFF7FEFF 		bl	CPU_SR_Restore
 182              	.LVL20:
 156:uCOS-III\Source/os_task.c **** 
 157:uCOS-III\Source/os_task.c ****     OSSched();                                              /* Run highest priority task ready     
 183              		.loc 1 157 0
 184 00c0 FFF7FEFF 		bl	OSSched
 185              	.LVL21:
ARM GAS  C:\Users\jorti\AppData\Local\Temp\ccDtGf1z.s 			page 7


 158:uCOS-III\Source/os_task.c **** 
 159:uCOS-III\Source/os_task.c ****    *p_err = OS_ERR_NONE;
 186              		.loc 1 159 0
 187 00c4 0023     		movs	r3, #0
 188 00c6 2B80     		strh	r3, [r5]	@ movhi
 189 00c8 BDE8F081 		pop	{r4, r5, r6, r7, r8, pc}
 190              	.LVL22:
 191              	.L19:
 192              		.align	2
 193              	.L18:
 194 00cc 00000000 		.word	OSIntNestingCtr
 195 00d0 00000000 		.word	OSTCBCurPtr
 196              		.cfi_endproc
 197              	.LFE1:
 198              		.size	OSTaskChangePrio, .-OSTaskChangePrio
 199              		.section	.text.OSTaskQFlush,"ax",%progbits
 200              		.align	2
 201              		.global	OSTaskQFlush
 202              		.thumb
 203              		.thumb_func
 204              		.type	OSTaskQFlush, %function
 205              	OSTaskQFlush:
 206              	.LFB4:
 160:uCOS-III\Source/os_task.c **** }
 161:uCOS-III\Source/os_task.c **** #endif
 162:uCOS-III\Source/os_task.c **** 
 163:uCOS-III\Source/os_task.c **** /*$PAGE*/
 164:uCOS-III\Source/os_task.c **** /*
 165:uCOS-III\Source/os_task.c **** ***************************************************************************************************
 166:uCOS-III\Source/os_task.c **** *                                                    CREATE A TASK
 167:uCOS-III\Source/os_task.c **** *
 168:uCOS-III\Source/os_task.c **** * Description: This function is used to have uC/OS-III manage the execution of a task.  Tasks can e
 169:uCOS-III\Source/os_task.c **** *              prior to the start of multitasking or by a running task.  A task cannot be created b
 170:uCOS-III\Source/os_task.c **** *
 171:uCOS-III\Source/os_task.c **** * Arguments  : p_tcb          is a pointer to the task's TCB
 172:uCOS-III\Source/os_task.c **** *
 173:uCOS-III\Source/os_task.c **** *              p_name         is a pointer to an ASCII string to provide a name to the task.
 174:uCOS-III\Source/os_task.c **** *
 175:uCOS-III\Source/os_task.c **** *              p_task         is a pointer to the task's code
 176:uCOS-III\Source/os_task.c **** *
 177:uCOS-III\Source/os_task.c **** *              p_arg          is a pointer to an optional data area which can be used to pass param
 178:uCOS-III\Source/os_task.c **** *                             the task when the task first executes.  Where the task is concerned i
 179:uCOS-III\Source/os_task.c **** *                             it was invoked and passed the argument 'p_arg' as follows:
 180:uCOS-III\Source/os_task.c **** *
 181:uCOS-III\Source/os_task.c **** *                                 void Task (void *p_arg)
 182:uCOS-III\Source/os_task.c **** *                                 {
 183:uCOS-III\Source/os_task.c **** *                                     for (;;) {
 184:uCOS-III\Source/os_task.c **** *                                         Task code;
 185:uCOS-III\Source/os_task.c **** *                                     }
 186:uCOS-III\Source/os_task.c **** *                                 }
 187:uCOS-III\Source/os_task.c **** *
 188:uCOS-III\Source/os_task.c **** *              prio           is the task's priority.  A unique priority MUST be assigned to each t
 189:uCOS-III\Source/os_task.c **** *                             lower the number, the higher the priority.
 190:uCOS-III\Source/os_task.c **** *
 191:uCOS-III\Source/os_task.c **** *              p_stk_base     is a pointer to the base address of the stack (i.e. low address).
 192:uCOS-III\Source/os_task.c **** *
 193:uCOS-III\Source/os_task.c **** *              stk_limit      is the number of stack elements to set as 'watermark' limit for the s
ARM GAS  C:\Users\jorti\AppData\Local\Temp\ccDtGf1z.s 			page 8


 194:uCOS-III\Source/os_task.c **** *                             represents the number of CPU_STK entries left before the stack is ful
 195:uCOS-III\Source/os_task.c **** *                             specifying 10% of the 'stk_size' value indicates that the stack limit
 196:uCOS-III\Source/os_task.c **** *                             when the stack reaches 90% full.
 197:uCOS-III\Source/os_task.c **** *
 198:uCOS-III\Source/os_task.c **** *              stk_size       is the size of the stack in number of elements.  If CPU_STK is set to
 199:uCOS-III\Source/os_task.c **** *                             'stk_size' corresponds to the number of bytes available.  If CPU_STK 
 200:uCOS-III\Source/os_task.c **** *                             CPU_INT16U, 'stk_size' contains the number of 16-bit entries availabl
 201:uCOS-III\Source/os_task.c **** *                             CPU_STK is set to CPU_INT32U, 'stk_size' contains the number of 32-bi
 202:uCOS-III\Source/os_task.c **** *                             available on the stack.
 203:uCOS-III\Source/os_task.c **** *
 204:uCOS-III\Source/os_task.c **** *              q_size         is the maximum number of messages that can be sent to the task
 205:uCOS-III\Source/os_task.c **** *
 206:uCOS-III\Source/os_task.c **** *              time_quanta    amount of time (in ticks) for time slice when round-robin between tas
 207:uCOS-III\Source/os_task.c **** *                             the default.
 208:uCOS-III\Source/os_task.c **** *
 209:uCOS-III\Source/os_task.c **** *              p_ext          is a pointer to a user supplied memory location which is used as a TC
 210:uCOS-III\Source/os_task.c **** *                             For example, this user memory can hold the contents of floating-point
 211:uCOS-III\Source/os_task.c **** *                             during a context switch, the time each task takes to execute, the num
 212:uCOS-III\Source/os_task.c **** *                             the task has been switched-in, etc.
 213:uCOS-III\Source/os_task.c **** *
 214:uCOS-III\Source/os_task.c **** *              opt            contains additional information (or options) about the behavior of th
 215:uCOS-III\Source/os_task.c **** *                             See OS_OPT_TASK_xxx in OS.H.  Current choices are:
 216:uCOS-III\Source/os_task.c **** *
 217:uCOS-III\Source/os_task.c **** *                                 OS_OPT_TASK_NONE            No option selected
 218:uCOS-III\Source/os_task.c **** *                                 OS_OPT_TASK_STK_CHK         Stack checking to be allowed for the 
 219:uCOS-III\Source/os_task.c **** *                                 OS_OPT_TASK_STK_CLR         Clear the stack when the task is crea
 220:uCOS-III\Source/os_task.c **** *                                 OS_OPT_TASK_SAVE_FP         If the CPU has floating-point registe
 221:uCOS-III\Source/os_task.c **** *                                                             during a context switch.
 222:uCOS-III\Source/os_task.c **** *                                 OS_OPT_TASK_NO_TLS          If the caller doesn't want or need TL
 223:uCOS-III\Source/os_task.c **** *                                                             Storage) support for the task.  If yo
 224:uCOS-III\Source/os_task.c **** *                                                             option, TLS will be supported by defa
 225:uCOS-III\Source/os_task.c **** *
 226:uCOS-III\Source/os_task.c **** *              p_err          is a pointer to an error code that will be set during this call.  The
 227:uCOS-III\Source/os_task.c **** *                             to by 'p_err' can be:
 228:uCOS-III\Source/os_task.c **** *
 229:uCOS-III\Source/os_task.c **** *                                 OS_ERR_NONE                    if the function was successful.
 230:uCOS-III\Source/os_task.c **** *                                 OS_ERR_ILLEGAL_CREATE_RUN_TIME if you are trying to create the ta
 231:uCOS-III\Source/os_task.c **** *                                                                   OSSafetyCriticalStart().
 232:uCOS-III\Source/os_task.c **** *                                 OS_ERR_NAME                    if 'p_name' is a NULL pointer
 233:uCOS-III\Source/os_task.c **** *                                 OS_ERR_PRIO_INVALID            if the priority you specify is hig
 234:uCOS-III\Source/os_task.c **** *                                                                   allowed (i.e. >= OS_CFG_PRIO_MA
 235:uCOS-III\Source/os_task.c **** *                                                                if OS_CFG_ISR_POST_DEFERRED_EN is 
 236:uCOS-III\Source/os_task.c **** *                                                                   to use priority 0 which is rese
 237:uCOS-III\Source/os_task.c **** *                                 OS_ERR_STK_INVALID             if you specified a NULL pointer fo
 238:uCOS-III\Source/os_task.c **** *                                 OS_ERR_STK_SIZE_INVALID        if you specified zero for the 'stk
 239:uCOS-III\Source/os_task.c **** *                                 OS_ERR_STK_LIMIT_INVALID       if you specified a 'stk_limit' gre
 240:uCOS-III\Source/os_task.c **** *                                                                   to 'stk_size'
 241:uCOS-III\Source/os_task.c **** *                                 OS_ERR_TASK_CREATE_ISR         if you tried to create a task from
 242:uCOS-III\Source/os_task.c **** *                                 OS_ERR_TASK_INVALID            if you specified a NULL pointer fo
 243:uCOS-III\Source/os_task.c **** *                                 OS_ERR_TCB_INVALID             if you specified a NULL pointer fo
 244:uCOS-III\Source/os_task.c **** *
 245:uCOS-III\Source/os_task.c **** * Returns    : A pointer to the TCB of the task created.  This pointer must be used as an ID (i.e h
 246:uCOS-III\Source/os_task.c **** ***************************************************************************************************
 247:uCOS-III\Source/os_task.c **** */
 248:uCOS-III\Source/os_task.c **** /*$PAGE*/
 249:uCOS-III\Source/os_task.c **** void  OSTaskCreate (OS_TCB        *p_tcb,
 250:uCOS-III\Source/os_task.c ****                     CPU_CHAR      *p_name,
ARM GAS  C:\Users\jorti\AppData\Local\Temp\ccDtGf1z.s 			page 9


 251:uCOS-III\Source/os_task.c ****                     OS_TASK_PTR    p_task,
 252:uCOS-III\Source/os_task.c ****                     void          *p_arg,
 253:uCOS-III\Source/os_task.c ****                     OS_PRIO        prio,
 254:uCOS-III\Source/os_task.c ****                     CPU_STK       *p_stk_base,
 255:uCOS-III\Source/os_task.c ****                     CPU_STK_SIZE   stk_limit,
 256:uCOS-III\Source/os_task.c ****                     CPU_STK_SIZE   stk_size,
 257:uCOS-III\Source/os_task.c ****                     OS_MSG_QTY     q_size,
 258:uCOS-III\Source/os_task.c ****                     OS_TICK        time_quanta,
 259:uCOS-III\Source/os_task.c ****                     void          *p_ext,
 260:uCOS-III\Source/os_task.c ****                     OS_OPT         opt,
 261:uCOS-III\Source/os_task.c ****                     OS_ERR        *p_err)
 262:uCOS-III\Source/os_task.c **** {
 263:uCOS-III\Source/os_task.c ****     CPU_STK_SIZE   i;
 264:uCOS-III\Source/os_task.c **** #if OS_CFG_TASK_REG_TBL_SIZE > 0u
 265:uCOS-III\Source/os_task.c ****     OS_REG_ID      reg_nbr;
 266:uCOS-III\Source/os_task.c **** #endif
 267:uCOS-III\Source/os_task.c **** #if defined(OS_CFG_TLS_TBL_SIZE) && (OS_CFG_TLS_TBL_SIZE > 0u)
 268:uCOS-III\Source/os_task.c ****     OS_TLS_ID      id;
 269:uCOS-III\Source/os_task.c **** #endif
 270:uCOS-III\Source/os_task.c **** 
 271:uCOS-III\Source/os_task.c ****     CPU_STK       *p_sp;
 272:uCOS-III\Source/os_task.c ****     CPU_STK       *p_stk_limit;
 273:uCOS-III\Source/os_task.c ****     CPU_SR_ALLOC();
 274:uCOS-III\Source/os_task.c **** 
 275:uCOS-III\Source/os_task.c **** 
 276:uCOS-III\Source/os_task.c **** 
 277:uCOS-III\Source/os_task.c **** #ifdef OS_SAFETY_CRITICAL
 278:uCOS-III\Source/os_task.c ****     if (p_err == (OS_ERR *)0) {
 279:uCOS-III\Source/os_task.c ****         OS_SAFETY_CRITICAL_EXCEPTION();
 280:uCOS-III\Source/os_task.c ****         return;
 281:uCOS-III\Source/os_task.c ****     }
 282:uCOS-III\Source/os_task.c **** #endif
 283:uCOS-III\Source/os_task.c **** 
 284:uCOS-III\Source/os_task.c **** #ifdef OS_SAFETY_CRITICAL_IEC61508
 285:uCOS-III\Source/os_task.c ****     if (OSSafetyCriticalStartFlag == DEF_TRUE) {
 286:uCOS-III\Source/os_task.c ****        *p_err = OS_ERR_ILLEGAL_CREATE_RUN_TIME;
 287:uCOS-III\Source/os_task.c ****         return;
 288:uCOS-III\Source/os_task.c ****     }
 289:uCOS-III\Source/os_task.c **** #endif
 290:uCOS-III\Source/os_task.c **** 
 291:uCOS-III\Source/os_task.c **** #if OS_CFG_CALLED_FROM_ISR_CHK_EN > 0u
 292:uCOS-III\Source/os_task.c ****     if (OSIntNestingCtr > (OS_NESTING_CTR)0) {              /* ---------- CANNOT CREATE A TASK FROM
 293:uCOS-III\Source/os_task.c ****        *p_err = OS_ERR_TASK_CREATE_ISR;
 294:uCOS-III\Source/os_task.c ****         return;
 295:uCOS-III\Source/os_task.c ****     }
 296:uCOS-III\Source/os_task.c **** #endif
 297:uCOS-III\Source/os_task.c **** 
 298:uCOS-III\Source/os_task.c **** #if OS_CFG_ARG_CHK_EN > 0u                                  /* ---------------- VALIDATE ARGUMENTS 
 299:uCOS-III\Source/os_task.c ****     if (p_tcb == (OS_TCB *)0) {                             /* User must supply a valid OS_TCB     
 300:uCOS-III\Source/os_task.c ****        *p_err = OS_ERR_TCB_INVALID;
 301:uCOS-III\Source/os_task.c ****         return;
 302:uCOS-III\Source/os_task.c ****     }
 303:uCOS-III\Source/os_task.c ****     if (p_task == (OS_TASK_PTR)0) {                         /* User must supply a valid task       
 304:uCOS-III\Source/os_task.c ****        *p_err = OS_ERR_TASK_INVALID;
 305:uCOS-III\Source/os_task.c ****         return;
 306:uCOS-III\Source/os_task.c ****     }
 307:uCOS-III\Source/os_task.c ****     if (p_stk_base == (CPU_STK *)0) {                       /* User must supply a valid stack base 
ARM GAS  C:\Users\jorti\AppData\Local\Temp\ccDtGf1z.s 			page 10


 308:uCOS-III\Source/os_task.c ****        *p_err = OS_ERR_STK_INVALID;
 309:uCOS-III\Source/os_task.c ****         return;
 310:uCOS-III\Source/os_task.c ****     }
 311:uCOS-III\Source/os_task.c ****     if (stk_size < OSCfg_StkSizeMin) {                      /* User must supply a valid minimum sta
 312:uCOS-III\Source/os_task.c ****        *p_err = OS_ERR_STK_SIZE_INVALID;
 313:uCOS-III\Source/os_task.c ****         return;
 314:uCOS-III\Source/os_task.c ****     }
 315:uCOS-III\Source/os_task.c ****     if (stk_limit >= stk_size) {                            /* User must supply a valid stack limit
 316:uCOS-III\Source/os_task.c ****        *p_err = OS_ERR_STK_LIMIT_INVALID;
 317:uCOS-III\Source/os_task.c ****         return;
 318:uCOS-III\Source/os_task.c ****     }
 319:uCOS-III\Source/os_task.c ****     if (prio >= OS_CFG_PRIO_MAX) {                          /* Priority must be within 0 and OS_CFG
 320:uCOS-III\Source/os_task.c ****        *p_err = OS_ERR_PRIO_INVALID;
 321:uCOS-III\Source/os_task.c ****         return;
 322:uCOS-III\Source/os_task.c ****     }
 323:uCOS-III\Source/os_task.c **** #endif
 324:uCOS-III\Source/os_task.c **** 
 325:uCOS-III\Source/os_task.c **** #if OS_CFG_ISR_POST_DEFERRED_EN > 0u
 326:uCOS-III\Source/os_task.c ****     if (prio == (OS_PRIO)0) {
 327:uCOS-III\Source/os_task.c ****         if (p_tcb != &OSIntQTaskTCB) {
 328:uCOS-III\Source/os_task.c ****            *p_err = OS_ERR_PRIO_INVALID;                    /* Not allowed to use priority 0       
 329:uCOS-III\Source/os_task.c ****             return;
 330:uCOS-III\Source/os_task.c ****         }
 331:uCOS-III\Source/os_task.c ****     }
 332:uCOS-III\Source/os_task.c **** #endif
 333:uCOS-III\Source/os_task.c **** 
 334:uCOS-III\Source/os_task.c ****     if (prio == (OS_CFG_PRIO_MAX - 1u)) {
 335:uCOS-III\Source/os_task.c ****         if (p_tcb != &OSIdleTaskTCB) {
 336:uCOS-III\Source/os_task.c ****            *p_err = OS_ERR_PRIO_INVALID;                    /* Not allowed to use same priority as 
 337:uCOS-III\Source/os_task.c ****             return;
 338:uCOS-III\Source/os_task.c ****         }
 339:uCOS-III\Source/os_task.c ****     }
 340:uCOS-III\Source/os_task.c **** 
 341:uCOS-III\Source/os_task.c ****     OS_TaskInitTCB(p_tcb);                                  /* Initialize the TCB to default values
 342:uCOS-III\Source/os_task.c **** 
 343:uCOS-III\Source/os_task.c ****    *p_err = OS_ERR_NONE;
 344:uCOS-III\Source/os_task.c ****                                                             /* --------------- CLEAR THE TASK'S STA
 345:uCOS-III\Source/os_task.c ****     if ((opt & OS_OPT_TASK_STK_CHK) != (OS_OPT)0) {         /* See if stack checking has been enabl
 346:uCOS-III\Source/os_task.c ****         if ((opt & OS_OPT_TASK_STK_CLR) != (OS_OPT)0) {     /* See if stack needs to be cleared    
 347:uCOS-III\Source/os_task.c ****             p_sp = p_stk_base;
 348:uCOS-III\Source/os_task.c ****             for (i = 0u; i < stk_size; i++) {               /* Stack grows from HIGH to LOW memory 
 349:uCOS-III\Source/os_task.c ****                *p_sp = (CPU_STK)0;                          /* Clear from bottom of stack and up!  
 350:uCOS-III\Source/os_task.c ****                 p_sp++;
 351:uCOS-III\Source/os_task.c ****             }
 352:uCOS-III\Source/os_task.c ****         }
 353:uCOS-III\Source/os_task.c ****     }
 354:uCOS-III\Source/os_task.c ****                                                             /* ------- INITIALIZE THE STACK FRAME O
 355:uCOS-III\Source/os_task.c **** #if (CPU_CFG_STK_GROWTH == CPU_STK_GROWTH_HI_TO_LO)
 356:uCOS-III\Source/os_task.c ****     p_stk_limit = p_stk_base + stk_limit;
 357:uCOS-III\Source/os_task.c **** #else
 358:uCOS-III\Source/os_task.c ****     p_stk_limit = p_stk_base + (stk_size - 1u) - stk_limit;
 359:uCOS-III\Source/os_task.c **** #endif
 360:uCOS-III\Source/os_task.c **** 
 361:uCOS-III\Source/os_task.c ****     p_sp = OSTaskStkInit(p_task,
 362:uCOS-III\Source/os_task.c ****                          p_arg,
 363:uCOS-III\Source/os_task.c ****                          p_stk_base,
 364:uCOS-III\Source/os_task.c ****                          p_stk_limit,
ARM GAS  C:\Users\jorti\AppData\Local\Temp\ccDtGf1z.s 			page 11


 365:uCOS-III\Source/os_task.c ****                          stk_size,
 366:uCOS-III\Source/os_task.c ****                          opt);
 367:uCOS-III\Source/os_task.c **** 
 368:uCOS-III\Source/os_task.c ****                                                             /* -------------- INITIALIZE THE TCB FI
 369:uCOS-III\Source/os_task.c ****     p_tcb->TaskEntryAddr = p_task;                          /* Save task entry point address       
 370:uCOS-III\Source/os_task.c ****     p_tcb->TaskEntryArg  = p_arg;                           /* Save task entry argument            
 371:uCOS-III\Source/os_task.c **** 
 372:uCOS-III\Source/os_task.c ****     p_tcb->NamePtr       = p_name;                          /* Save task name                      
 373:uCOS-III\Source/os_task.c **** 
 374:uCOS-III\Source/os_task.c ****     p_tcb->Prio          = prio;                            /* Save the task's priority            
 375:uCOS-III\Source/os_task.c **** 
 376:uCOS-III\Source/os_task.c ****     p_tcb->StkPtr        = p_sp;                            /* Save the new top-of-stack pointer   
 377:uCOS-III\Source/os_task.c ****     p_tcb->StkLimitPtr   = p_stk_limit;                     /* Save the stack limit pointer        
 378:uCOS-III\Source/os_task.c **** 
 379:uCOS-III\Source/os_task.c ****     p_tcb->TimeQuanta    = time_quanta;                     /* Save the #ticks for time slice (0 me
 380:uCOS-III\Source/os_task.c **** #if OS_CFG_SCHED_ROUND_ROBIN_EN > 0u
 381:uCOS-III\Source/os_task.c ****     if (time_quanta == (OS_TICK)0) {
 382:uCOS-III\Source/os_task.c ****         p_tcb->TimeQuantaCtr = OSSchedRoundRobinDfltTimeQuanta;
 383:uCOS-III\Source/os_task.c ****     } else {
 384:uCOS-III\Source/os_task.c ****         p_tcb->TimeQuantaCtr = time_quanta;
 385:uCOS-III\Source/os_task.c ****     }
 386:uCOS-III\Source/os_task.c **** #endif
 387:uCOS-III\Source/os_task.c ****     p_tcb->ExtPtr        = p_ext;                           /* Save pointer to TCB extension       
 388:uCOS-III\Source/os_task.c ****     p_tcb->StkBasePtr    = p_stk_base;                      /* Save pointer to the base address of 
 389:uCOS-III\Source/os_task.c ****     p_tcb->StkSize       = stk_size;                        /* Save the stack size (in number of CP
 390:uCOS-III\Source/os_task.c ****     p_tcb->Opt           = opt;                             /* Save task options                   
 391:uCOS-III\Source/os_task.c **** 
 392:uCOS-III\Source/os_task.c **** #if OS_CFG_TASK_REG_TBL_SIZE > 0u
 393:uCOS-III\Source/os_task.c ****     for (reg_nbr = 0u; reg_nbr < OS_CFG_TASK_REG_TBL_SIZE; reg_nbr++) {
 394:uCOS-III\Source/os_task.c ****         p_tcb->RegTbl[reg_nbr] = (OS_REG)0;
 395:uCOS-III\Source/os_task.c ****     }
 396:uCOS-III\Source/os_task.c **** #endif
 397:uCOS-III\Source/os_task.c **** 
 398:uCOS-III\Source/os_task.c **** #if OS_CFG_TASK_Q_EN > 0u
 399:uCOS-III\Source/os_task.c ****     OS_MsgQInit(&p_tcb->MsgQ,                               /* Initialize the task's message queue 
 400:uCOS-III\Source/os_task.c ****                 q_size);
 401:uCOS-III\Source/os_task.c **** #else
 402:uCOS-III\Source/os_task.c ****     (void)&q_size;
 403:uCOS-III\Source/os_task.c **** #endif
 404:uCOS-III\Source/os_task.c **** 
 405:uCOS-III\Source/os_task.c ****     OSTaskCreateHook(p_tcb);                                /* Call user defined hook              
 406:uCOS-III\Source/os_task.c **** 
 407:uCOS-III\Source/os_task.c **** #if defined(OS_CFG_TLS_TBL_SIZE) && (OS_CFG_TLS_TBL_SIZE > 0u)
 408:uCOS-III\Source/os_task.c ****     for (id = 0u; id < OS_CFG_TLS_TBL_SIZE; id++) {
 409:uCOS-III\Source/os_task.c ****         p_tcb->TLS_Tbl[id] = (OS_TLS)0;
 410:uCOS-III\Source/os_task.c ****     }
 411:uCOS-III\Source/os_task.c ****     OS_TLS_TaskCreate(p_tcb);                               /* Call TLS hook                       
 412:uCOS-III\Source/os_task.c **** #endif
 413:uCOS-III\Source/os_task.c ****                                                             /* --------------- ADD TASK TO READY LI
 414:uCOS-III\Source/os_task.c ****     OS_CRITICAL_ENTER();
 415:uCOS-III\Source/os_task.c ****     OS_PrioInsert(p_tcb->Prio);
 416:uCOS-III\Source/os_task.c ****     OS_RdyListInsertTail(p_tcb);
 417:uCOS-III\Source/os_task.c **** 
 418:uCOS-III\Source/os_task.c **** #if OS_CFG_DBG_EN > 0u
 419:uCOS-III\Source/os_task.c ****     OS_TaskDbgListAdd(p_tcb);
 420:uCOS-III\Source/os_task.c **** #endif
 421:uCOS-III\Source/os_task.c **** 
ARM GAS  C:\Users\jorti\AppData\Local\Temp\ccDtGf1z.s 			page 12


 422:uCOS-III\Source/os_task.c ****     OSTaskQty++;                                            /* Increment the #tasks counter        
 423:uCOS-III\Source/os_task.c **** 
 424:uCOS-III\Source/os_task.c ****     if (OSRunning != OS_STATE_OS_RUNNING) {                 /* Return if multitasking has not start
 425:uCOS-III\Source/os_task.c ****         OS_CRITICAL_EXIT();
 426:uCOS-III\Source/os_task.c ****         return;
 427:uCOS-III\Source/os_task.c ****     }
 428:uCOS-III\Source/os_task.c **** 
 429:uCOS-III\Source/os_task.c ****     OS_CRITICAL_EXIT_NO_SCHED();
 430:uCOS-III\Source/os_task.c **** 
 431:uCOS-III\Source/os_task.c ****     OSSched();
 432:uCOS-III\Source/os_task.c **** }
 433:uCOS-III\Source/os_task.c **** 
 434:uCOS-III\Source/os_task.c **** /*$PAGE*/
 435:uCOS-III\Source/os_task.c **** /*
 436:uCOS-III\Source/os_task.c **** ***************************************************************************************************
 437:uCOS-III\Source/os_task.c **** *                                                     DELETE A TASK
 438:uCOS-III\Source/os_task.c **** *
 439:uCOS-III\Source/os_task.c **** * Description: This function allows you to delete a task.  The calling task can delete itself by sp
 440:uCOS-III\Source/os_task.c **** *              pointer for 'p_tcb'.  The deleted task is returned to the dormant state and can be r
 441:uCOS-III\Source/os_task.c **** *              creating the deleted task again.
 442:uCOS-III\Source/os_task.c **** *
 443:uCOS-III\Source/os_task.c **** * Arguments  : p_tcb      is the TCB of the tack to delete
 444:uCOS-III\Source/os_task.c **** *
 445:uCOS-III\Source/os_task.c **** *              p_err      is a pointer to an error code returned by this function:
 446:uCOS-III\Source/os_task.c **** *
 447:uCOS-III\Source/os_task.c **** *                             OS_ERR_NONE                  if the call is successful
 448:uCOS-III\Source/os_task.c **** *                             OS_ERR_STATE_INVALID         if the state of the task is invalid
 449:uCOS-III\Source/os_task.c **** *                             OS_ERR_TASK_DEL_IDLE         if you attempted to delete uC/OS-III's i
 450:uCOS-III\Source/os_task.c **** *                             OS_ERR_TASK_DEL_INVALID      if you attempted to delete uC/OS-III's I
 451:uCOS-III\Source/os_task.c **** *                             OS_ERR_TASK_DEL_ISR          if you tried to delete a task from an IS
 452:uCOS-III\Source/os_task.c **** *
 453:uCOS-III\Source/os_task.c **** * Note(s)    : 1) 'p_err' gets set to OS_ERR_NONE before OSSched() to allow the returned error code
 454:uCOS-III\Source/os_task.c **** *                 for a task that is deleting itself. In this case, 'p_err' MUST point to a global 
 455:uCOS-III\Source/os_task.c **** *                 accessed by another task.
 456:uCOS-III\Source/os_task.c **** ***************************************************************************************************
 457:uCOS-III\Source/os_task.c **** */
 458:uCOS-III\Source/os_task.c **** 
 459:uCOS-III\Source/os_task.c **** #if OS_CFG_TASK_DEL_EN > 0u
 460:uCOS-III\Source/os_task.c **** void  OSTaskDel (OS_TCB  *p_tcb,
 461:uCOS-III\Source/os_task.c ****                  OS_ERR  *p_err)
 462:uCOS-III\Source/os_task.c **** {
 463:uCOS-III\Source/os_task.c ****     CPU_SR_ALLOC();
 464:uCOS-III\Source/os_task.c **** 
 465:uCOS-III\Source/os_task.c **** 
 466:uCOS-III\Source/os_task.c **** 
 467:uCOS-III\Source/os_task.c **** #ifdef OS_SAFETY_CRITICAL
 468:uCOS-III\Source/os_task.c ****     if (p_err == (OS_ERR *)0) {
 469:uCOS-III\Source/os_task.c ****         OS_SAFETY_CRITICAL_EXCEPTION();
 470:uCOS-III\Source/os_task.c ****         return;
 471:uCOS-III\Source/os_task.c ****     }
 472:uCOS-III\Source/os_task.c **** #endif
 473:uCOS-III\Source/os_task.c **** 
 474:uCOS-III\Source/os_task.c **** #if OS_CFG_CALLED_FROM_ISR_CHK_EN > 0u
 475:uCOS-III\Source/os_task.c ****     if (OSIntNestingCtr > (OS_NESTING_CTR)0) {              /* See if trying to delete from ISR    
 476:uCOS-III\Source/os_task.c ****        *p_err = OS_ERR_TASK_DEL_ISR;
 477:uCOS-III\Source/os_task.c ****         return;
 478:uCOS-III\Source/os_task.c ****     }
ARM GAS  C:\Users\jorti\AppData\Local\Temp\ccDtGf1z.s 			page 13


 479:uCOS-III\Source/os_task.c **** #endif
 480:uCOS-III\Source/os_task.c **** 
 481:uCOS-III\Source/os_task.c ****     if (p_tcb == &OSIdleTaskTCB) {                          /* Not allowed to delete the idle task 
 482:uCOS-III\Source/os_task.c ****        *p_err = OS_ERR_TASK_DEL_IDLE;
 483:uCOS-III\Source/os_task.c ****         return;
 484:uCOS-III\Source/os_task.c ****     }
 485:uCOS-III\Source/os_task.c **** 
 486:uCOS-III\Source/os_task.c **** #if OS_CFG_ISR_POST_DEFERRED_EN > 0u
 487:uCOS-III\Source/os_task.c ****     if (p_tcb == &OSIntQTaskTCB) {                          /* Cannot delete the ISR handler task  
 488:uCOS-III\Source/os_task.c ****        *p_err = OS_ERR_TASK_DEL_INVALID;
 489:uCOS-III\Source/os_task.c ****         return;
 490:uCOS-III\Source/os_task.c ****     }
 491:uCOS-III\Source/os_task.c **** #endif
 492:uCOS-III\Source/os_task.c **** 
 493:uCOS-III\Source/os_task.c ****     if (p_tcb == (OS_TCB *)0) {                             /* Delete 'Self'?                      
 494:uCOS-III\Source/os_task.c ****         CPU_CRITICAL_ENTER();
 495:uCOS-III\Source/os_task.c ****         p_tcb  = OSTCBCurPtr;                               /* Yes.                                
 496:uCOS-III\Source/os_task.c ****         CPU_CRITICAL_EXIT();
 497:uCOS-III\Source/os_task.c ****     }
 498:uCOS-III\Source/os_task.c **** 
 499:uCOS-III\Source/os_task.c ****     OS_CRITICAL_ENTER();
 500:uCOS-III\Source/os_task.c ****     switch (p_tcb->TaskState) {
 501:uCOS-III\Source/os_task.c ****         case OS_TASK_STATE_RDY:
 502:uCOS-III\Source/os_task.c ****              OS_RdyListRemove(p_tcb);
 503:uCOS-III\Source/os_task.c ****              break;
 504:uCOS-III\Source/os_task.c **** 
 505:uCOS-III\Source/os_task.c ****         case OS_TASK_STATE_SUSPENDED:
 506:uCOS-III\Source/os_task.c ****              break;
 507:uCOS-III\Source/os_task.c **** 
 508:uCOS-III\Source/os_task.c ****         case OS_TASK_STATE_DLY:                             /* Task is only delayed, not on any wai
 509:uCOS-III\Source/os_task.c ****         case OS_TASK_STATE_DLY_SUSPENDED:
 510:uCOS-III\Source/os_task.c ****              OS_TickListRemove(p_tcb);
 511:uCOS-III\Source/os_task.c ****              break;
 512:uCOS-III\Source/os_task.c **** 
 513:uCOS-III\Source/os_task.c ****         case OS_TASK_STATE_PEND:
 514:uCOS-III\Source/os_task.c ****         case OS_TASK_STATE_PEND_SUSPENDED:
 515:uCOS-III\Source/os_task.c ****         case OS_TASK_STATE_PEND_TIMEOUT:
 516:uCOS-III\Source/os_task.c ****         case OS_TASK_STATE_PEND_TIMEOUT_SUSPENDED:
 517:uCOS-III\Source/os_task.c ****              OS_TickListRemove(p_tcb);
 518:uCOS-III\Source/os_task.c ****              switch (p_tcb->PendOn) {                       /* See what we are pending on          
 519:uCOS-III\Source/os_task.c ****                  case OS_TASK_PEND_ON_NOTHING:
 520:uCOS-III\Source/os_task.c ****                  case OS_TASK_PEND_ON_TASK_Q:               /* There is no wait list for these two 
 521:uCOS-III\Source/os_task.c ****                  case OS_TASK_PEND_ON_TASK_SEM:
 522:uCOS-III\Source/os_task.c ****                       break;
 523:uCOS-III\Source/os_task.c **** 
 524:uCOS-III\Source/os_task.c ****                  case OS_TASK_PEND_ON_FLAG:                 /* Remove from wait list               
 525:uCOS-III\Source/os_task.c ****                  case OS_TASK_PEND_ON_MULTI:
 526:uCOS-III\Source/os_task.c ****                  case OS_TASK_PEND_ON_MUTEX:
 527:uCOS-III\Source/os_task.c ****                  case OS_TASK_PEND_ON_Q:
 528:uCOS-III\Source/os_task.c ****                  case OS_TASK_PEND_ON_SEM:
 529:uCOS-III\Source/os_task.c ****                       OS_PendListRemove(p_tcb);
 530:uCOS-III\Source/os_task.c ****                       break;
 531:uCOS-III\Source/os_task.c **** 
 532:uCOS-III\Source/os_task.c ****                  default:
 533:uCOS-III\Source/os_task.c ****                       break;
 534:uCOS-III\Source/os_task.c ****              }
 535:uCOS-III\Source/os_task.c ****              break;
ARM GAS  C:\Users\jorti\AppData\Local\Temp\ccDtGf1z.s 			page 14


 536:uCOS-III\Source/os_task.c **** 
 537:uCOS-III\Source/os_task.c ****         default:
 538:uCOS-III\Source/os_task.c ****             OS_CRITICAL_EXIT();
 539:uCOS-III\Source/os_task.c ****            *p_err = OS_ERR_STATE_INVALID;
 540:uCOS-III\Source/os_task.c ****             return;
 541:uCOS-III\Source/os_task.c ****     }
 542:uCOS-III\Source/os_task.c **** 
 543:uCOS-III\Source/os_task.c **** #if OS_CFG_TASK_Q_EN > 0u
 544:uCOS-III\Source/os_task.c ****     (void)OS_MsgQFreeAll(&p_tcb->MsgQ);                     /* Free task's message queue messages  
 545:uCOS-III\Source/os_task.c **** #endif
 546:uCOS-III\Source/os_task.c **** 
 547:uCOS-III\Source/os_task.c ****     OSTaskDelHook(p_tcb);                                   /* Call user defined hook              
 548:uCOS-III\Source/os_task.c **** 
 549:uCOS-III\Source/os_task.c **** #if defined(OS_CFG_TLS_TBL_SIZE) && (OS_CFG_TLS_TBL_SIZE > 0u)
 550:uCOS-III\Source/os_task.c ****     OS_TLS_TaskDel(p_tcb);                                  /* Call TLS hook                       
 551:uCOS-III\Source/os_task.c **** #endif
 552:uCOS-III\Source/os_task.c **** 
 553:uCOS-III\Source/os_task.c **** #if OS_CFG_DBG_EN > 0u
 554:uCOS-III\Source/os_task.c ****     OS_TaskDbgListRemove(p_tcb);
 555:uCOS-III\Source/os_task.c **** #endif
 556:uCOS-III\Source/os_task.c ****     OSTaskQty--;                                            /* One less task being managed         
 557:uCOS-III\Source/os_task.c **** 
 558:uCOS-III\Source/os_task.c ****     OS_TaskInitTCB(p_tcb);                                  /* Initialize the TCB to default values
 559:uCOS-III\Source/os_task.c ****     p_tcb->TaskState = (OS_STATE)OS_TASK_STATE_DEL;         /* Indicate that the task was deleted  
 560:uCOS-III\Source/os_task.c **** 
 561:uCOS-III\Source/os_task.c ****     OS_CRITICAL_EXIT_NO_SCHED();
 562:uCOS-III\Source/os_task.c **** 
 563:uCOS-III\Source/os_task.c ****    *p_err = OS_ERR_NONE;                                    /* See Note #1.                        
 564:uCOS-III\Source/os_task.c **** 
 565:uCOS-III\Source/os_task.c ****     OSSched();                                              /* Find new highest priority task      
 566:uCOS-III\Source/os_task.c **** }
 567:uCOS-III\Source/os_task.c **** #endif
 568:uCOS-III\Source/os_task.c **** 
 569:uCOS-III\Source/os_task.c **** /*$PAGE*/
 570:uCOS-III\Source/os_task.c **** /*
 571:uCOS-III\Source/os_task.c **** ***************************************************************************************************
 572:uCOS-III\Source/os_task.c **** *                                                    FLUSH TASK's QUEUE
 573:uCOS-III\Source/os_task.c **** *
 574:uCOS-III\Source/os_task.c **** * Description: This function is used to flush the task's internal message queue.
 575:uCOS-III\Source/os_task.c **** *
 576:uCOS-III\Source/os_task.c **** * Arguments  : p_tcb       is a pointer to the task's OS_TCB.  Specifying a NULL pointer indicates 
 577:uCOS-III\Source/os_task.c **** *                          flush the message queue of the calling task.
 578:uCOS-III\Source/os_task.c **** *
 579:uCOS-III\Source/os_task.c **** *              p_err       is a pointer to a variable that will contain an error code returned by t
 580:uCOS-III\Source/os_task.c **** *
 581:uCOS-III\Source/os_task.c **** *                              OS_ERR_NONE           upon success
 582:uCOS-III\Source/os_task.c **** *                              OS_ERR_FLUSH_ISR      if you called this function from an ISR
 583:uCOS-III\Source/os_task.c **** *
 584:uCOS-III\Source/os_task.c **** * Returns     : The number of entries freed from the queue
 585:uCOS-III\Source/os_task.c **** *
 586:uCOS-III\Source/os_task.c **** * Note(s)     : 1) You should use this function with great care because, when to flush the queue, y
 587:uCOS-III\Source/os_task.c **** *                  references to what the queue entries are pointing to and thus, you could cause '
 588:uCOS-III\Source/os_task.c **** *                  other words, the data you are pointing to that's being referenced by the queue e
 589:uCOS-III\Source/os_task.c **** *                  likely, need to be de-allocated (i.e. freed).
 590:uCOS-III\Source/os_task.c **** ***************************************************************************************************
 591:uCOS-III\Source/os_task.c **** */
 592:uCOS-III\Source/os_task.c **** 
ARM GAS  C:\Users\jorti\AppData\Local\Temp\ccDtGf1z.s 			page 15


 593:uCOS-III\Source/os_task.c **** #if OS_CFG_TASK_Q_EN > 0u
 594:uCOS-III\Source/os_task.c **** OS_MSG_QTY  OSTaskQFlush (OS_TCB  *p_tcb,
 595:uCOS-III\Source/os_task.c ****                           OS_ERR  *p_err)
 596:uCOS-III\Source/os_task.c **** {
 207              		.loc 1 596 0
 208              		.cfi_startproc
 209              		@ args = 0, pretend = 0, frame = 0
 210              		@ frame_needed = 0, uses_anonymous_args = 0
 211              	.LVL23:
 212 0000 70B5     		push	{r4, r5, r6, lr}
 213              		.cfi_def_cfa_offset 16
 214              		.cfi_offset 4, -16
 215              		.cfi_offset 5, -12
 216              		.cfi_offset 6, -8
 217              		.cfi_offset 14, -4
 218 0002 0D46     		mov	r5, r1
 219              	.LVL24:
 597:uCOS-III\Source/os_task.c ****     OS_MSG_QTY  entries;
 598:uCOS-III\Source/os_task.c ****     CPU_SR_ALLOC();
 599:uCOS-III\Source/os_task.c **** 
 600:uCOS-III\Source/os_task.c **** 
 601:uCOS-III\Source/os_task.c **** 
 602:uCOS-III\Source/os_task.c **** #ifdef OS_SAFETY_CRITICAL
 603:uCOS-III\Source/os_task.c ****     if (p_err == (OS_ERR *)0) {
 604:uCOS-III\Source/os_task.c ****         OS_SAFETY_CRITICAL_EXCEPTION();
 605:uCOS-III\Source/os_task.c ****         return ((OS_MSG_QTY)0);
 606:uCOS-III\Source/os_task.c ****     }
 607:uCOS-III\Source/os_task.c **** #endif
 608:uCOS-III\Source/os_task.c **** 
 609:uCOS-III\Source/os_task.c **** #if OS_CFG_CALLED_FROM_ISR_CHK_EN > 0u
 610:uCOS-III\Source/os_task.c ****     if (OSIntNestingCtr > (OS_NESTING_CTR)0) {              /* Can't flush a message queue from an 
 220              		.loc 1 610 0
 221 0004 0F4B     		ldr	r3, .L25
 222 0006 1B78     		ldrb	r3, [r3]	@ zero_extendqisi2
 223 0008 23B1     		cbz	r3, .L21
 611:uCOS-III\Source/os_task.c ****        *p_err = OS_ERR_FLUSH_ISR;
 224              		.loc 1 611 0
 225 000a 4FF46C53 		mov	r3, #15104
 226 000e 0B80     		strh	r3, [r1]	@ movhi
 612:uCOS-III\Source/os_task.c ****         return ((OS_MSG_QTY)0);
 227              		.loc 1 612 0
 228 0010 0020     		movs	r0, #0
 229              	.LVL25:
 230 0012 70BD     		pop	{r4, r5, r6, pc}
 231              	.LVL26:
 232              	.L21:
 233 0014 0446     		mov	r4, r0
 613:uCOS-III\Source/os_task.c ****     }
 614:uCOS-III\Source/os_task.c **** #endif
 615:uCOS-III\Source/os_task.c **** 
 616:uCOS-III\Source/os_task.c ****     if (p_tcb == (OS_TCB *)0) {                             /* Flush message queue of calling task?
 234              		.loc 1 616 0
 235 0016 28B9     		cbnz	r0, .L23
 617:uCOS-III\Source/os_task.c ****         CPU_CRITICAL_ENTER();
 236              		.loc 1 617 0
 237 0018 FFF7FEFF 		bl	CPU_SR_Save
 238              	.LVL27:
ARM GAS  C:\Users\jorti\AppData\Local\Temp\ccDtGf1z.s 			page 16


 618:uCOS-III\Source/os_task.c ****         p_tcb = OSTCBCurPtr;
 239              		.loc 1 618 0
 240 001c 0A4B     		ldr	r3, .L25+4
 241 001e 1C68     		ldr	r4, [r3]
 242              	.LVL28:
 619:uCOS-III\Source/os_task.c ****         CPU_CRITICAL_EXIT();
 243              		.loc 1 619 0
 244 0020 FFF7FEFF 		bl	CPU_SR_Restore
 245              	.LVL29:
 246              	.L23:
 620:uCOS-III\Source/os_task.c ****     }
 621:uCOS-III\Source/os_task.c **** 
 622:uCOS-III\Source/os_task.c ****     OS_CRITICAL_ENTER();
 247              		.loc 1 622 0
 248 0024 FFF7FEFF 		bl	CPU_SR_Save
 249              	.LVL30:
 250 0028 0646     		mov	r6, r0
 251              	.LVL31:
 623:uCOS-III\Source/os_task.c ****     entries = OS_MsgQFreeAll(&p_tcb->MsgQ);                 /* Return all OS_MSGs to the OS_MSG poo
 252              		.loc 1 623 0
 253 002a 04F16400 		add	r0, r4, #100
 254              	.LVL32:
 255 002e FFF7FEFF 		bl	OS_MsgQFreeAll
 256              	.LVL33:
 257 0032 0446     		mov	r4, r0
 258              	.LVL34:
 624:uCOS-III\Source/os_task.c ****     OS_CRITICAL_EXIT();
 259              		.loc 1 624 0
 260 0034 3046     		mov	r0, r6
 261 0036 FFF7FEFF 		bl	CPU_SR_Restore
 262              	.LVL35:
 625:uCOS-III\Source/os_task.c ****    *p_err   = OS_ERR_NONE;
 263              		.loc 1 625 0
 264 003a 0023     		movs	r3, #0
 265 003c 2B80     		strh	r3, [r5]	@ movhi
 626:uCOS-III\Source/os_task.c ****     return (entries);
 266              		.loc 1 626 0
 267 003e 2046     		mov	r0, r4
 627:uCOS-III\Source/os_task.c **** }
 268              		.loc 1 627 0
 269 0040 70BD     		pop	{r4, r5, r6, pc}
 270              	.LVL36:
 271              	.L26:
 272 0042 00BF     		.align	2
 273              	.L25:
 274 0044 00000000 		.word	OSIntNestingCtr
 275 0048 00000000 		.word	OSTCBCurPtr
 276              		.cfi_endproc
 277              	.LFE4:
 278              		.size	OSTaskQFlush, .-OSTaskQFlush
 279              		.section	.text.OSTaskQPend,"ax",%progbits
 280              		.align	2
 281              		.global	OSTaskQPend
 282              		.thumb
 283              		.thumb_func
 284              		.type	OSTaskQPend, %function
 285              	OSTaskQPend:
ARM GAS  C:\Users\jorti\AppData\Local\Temp\ccDtGf1z.s 			page 17


 286              	.LFB5:
 628:uCOS-III\Source/os_task.c **** #endif
 629:uCOS-III\Source/os_task.c **** 
 630:uCOS-III\Source/os_task.c **** /*$PAGE*/
 631:uCOS-III\Source/os_task.c **** /*
 632:uCOS-III\Source/os_task.c **** ***************************************************************************************************
 633:uCOS-III\Source/os_task.c **** *                                                  WAIT FOR A MESSAGE
 634:uCOS-III\Source/os_task.c **** *
 635:uCOS-III\Source/os_task.c **** * Description: This function causes the current task to wait for a message to be posted to it.
 636:uCOS-III\Source/os_task.c **** *
 637:uCOS-III\Source/os_task.c **** * Arguments  : timeout       is an optional timeout period (in clock ticks).  If non-zero, your tas
 638:uCOS-III\Source/os_task.c **** *                            message to arrive up to the amount of time specified by this argument.
 639:uCOS-III\Source/os_task.c **** *                            If you specify 0, however, your task will wait forever or, until a mes
 640:uCOS-III\Source/os_task.c **** *
 641:uCOS-III\Source/os_task.c **** *              opt           determines whether the user wants to block if the task's queue is empt
 642:uCOS-III\Source/os_task.c **** *
 643:uCOS-III\Source/os_task.c **** *                                OS_OPT_PEND_BLOCKING
 644:uCOS-III\Source/os_task.c **** *                                OS_OPT_PEND_NON_BLOCKING
 645:uCOS-III\Source/os_task.c **** *
 646:uCOS-III\Source/os_task.c **** *              p_msg_size    is a pointer to a variable that will receive the size of the message
 647:uCOS-III\Source/os_task.c **** *
 648:uCOS-III\Source/os_task.c **** *              p_ts          is a pointer to a variable that will receive the timestamp of when the
 649:uCOS-III\Source/os_task.c **** *                            received.  If you pass a NULL pointer (i.e. (CPU_TS *)0) then you will
 650:uCOS-III\Source/os_task.c **** *                            timestamp.  In other words, passing a NULL pointer is valid and indica
 651:uCOS-III\Source/os_task.c **** *                            need the timestamp.
 652:uCOS-III\Source/os_task.c **** *
 653:uCOS-III\Source/os_task.c **** *              p_err         is a pointer to where an error message will be deposited.  Possible er
 654:uCOS-III\Source/os_task.c **** *                            messages are:
 655:uCOS-III\Source/os_task.c **** *
 656:uCOS-III\Source/os_task.c **** *                                OS_ERR_NONE               The call was successful and your task re
 657:uCOS-III\Source/os_task.c **** *                                OS_ERR_PEND_ABORT
 658:uCOS-III\Source/os_task.c **** *                                OS_ERR_PEND_ISR           If you called this function from an ISR 
 659:uCOS-III\Source/os_task.c **** *                                OS_ERR_PEND_WOULD_BLOCK   If you specified non-blocking but the qu
 660:uCOS-III\Source/os_task.c **** *                                OS_ERR_Q_EMPTY
 661:uCOS-III\Source/os_task.c **** *                                OS_ERR_SCHED_LOCKED       If the scheduler is locked
 662:uCOS-III\Source/os_task.c **** *                                OS_ERR_TIMEOUT            A message was not received within the sp
 663:uCOS-III\Source/os_task.c **** *                                                          would lead to a suspension.
 664:uCOS-III\Source/os_task.c **** *
 665:uCOS-III\Source/os_task.c **** * Returns    : A pointer to the message received or a NULL pointer upon error.
 666:uCOS-III\Source/os_task.c **** *
 667:uCOS-III\Source/os_task.c **** * Note(s)    : 1) It is possible to receive NULL pointers when there are no errors.
 668:uCOS-III\Source/os_task.c **** ***************************************************************************************************
 669:uCOS-III\Source/os_task.c **** */
 670:uCOS-III\Source/os_task.c **** 
 671:uCOS-III\Source/os_task.c **** #if OS_CFG_TASK_Q_EN > 0u
 672:uCOS-III\Source/os_task.c **** void  *OSTaskQPend (OS_TICK       timeout,
 673:uCOS-III\Source/os_task.c ****                     OS_OPT        opt,
 674:uCOS-III\Source/os_task.c ****                     OS_MSG_SIZE  *p_msg_size,
 675:uCOS-III\Source/os_task.c ****                     CPU_TS       *p_ts,
 676:uCOS-III\Source/os_task.c ****                     OS_ERR       *p_err)
 677:uCOS-III\Source/os_task.c **** {
 287              		.loc 1 677 0
 288              		.cfi_startproc
 289              		@ args = 4, pretend = 0, frame = 0
 290              		@ frame_needed = 0, uses_anonymous_args = 0
 291              	.LVL37:
 292 0000 2DE9F047 		push	{r4, r5, r6, r7, r8, r9, r10, lr}
ARM GAS  C:\Users\jorti\AppData\Local\Temp\ccDtGf1z.s 			page 18


 293              		.cfi_def_cfa_offset 32
 294              		.cfi_offset 4, -32
 295              		.cfi_offset 5, -28
 296              		.cfi_offset 6, -24
 297              		.cfi_offset 7, -20
 298              		.cfi_offset 8, -16
 299              		.cfi_offset 9, -12
 300              		.cfi_offset 10, -8
 301              		.cfi_offset 14, -4
 302 0004 089F     		ldr	r7, [sp, #32]
 303              	.LVL38:
 678:uCOS-III\Source/os_task.c ****     OS_MSG_Q     *p_msg_q;
 679:uCOS-III\Source/os_task.c ****     void         *p_void;
 680:uCOS-III\Source/os_task.c ****     CPU_SR_ALLOC();
 681:uCOS-III\Source/os_task.c **** 
 682:uCOS-III\Source/os_task.c **** 
 683:uCOS-III\Source/os_task.c **** 
 684:uCOS-III\Source/os_task.c **** #ifdef OS_SAFETY_CRITICAL
 685:uCOS-III\Source/os_task.c ****     if (p_err == (OS_ERR *)0) {
 686:uCOS-III\Source/os_task.c ****         OS_SAFETY_CRITICAL_EXCEPTION();
 687:uCOS-III\Source/os_task.c ****         return ((void *)0);
 688:uCOS-III\Source/os_task.c ****     }
 689:uCOS-III\Source/os_task.c **** #endif
 690:uCOS-III\Source/os_task.c **** 
 691:uCOS-III\Source/os_task.c **** #if OS_CFG_CALLED_FROM_ISR_CHK_EN > 0u
 692:uCOS-III\Source/os_task.c ****     if (OSIntNestingCtr > (OS_NESTING_CTR)0) {              /* Can't Pend from an ISR              
 304              		.loc 1 692 0
 305 0006 534C     		ldr	r4, .L47
 306 0008 2478     		ldrb	r4, [r4]	@ zero_extendqisi2
 307 000a 2CB1     		cbz	r4, .L28
 693:uCOS-III\Source/os_task.c ****        *p_err = OS_ERR_PEND_ISR;
 308              		.loc 1 693 0
 309 000c 46F2AE13 		movw	r3, #25006
 310              	.LVL39:
 311 0010 3B80     		strh	r3, [r7]	@ movhi
 694:uCOS-III\Source/os_task.c ****         return ((void *)0);
 312              		.loc 1 694 0
 313 0012 0020     		movs	r0, #0
 314              	.LVL40:
 315 0014 BDE8F087 		pop	{r4, r5, r6, r7, r8, r9, r10, pc}
 316              	.LVL41:
 317              	.L28:
 695:uCOS-III\Source/os_task.c ****     }
 696:uCOS-III\Source/os_task.c **** #endif
 697:uCOS-III\Source/os_task.c **** 
 698:uCOS-III\Source/os_task.c **** #if OS_CFG_ARG_CHK_EN > 0u                                  /* ---------------- VALIDATE ARGUMENTS 
 699:uCOS-III\Source/os_task.c ****     if (p_msg_size == (OS_MSG_SIZE *)0) {                   /* User must supply a valid destination
 318              		.loc 1 699 0
 319 0018 2AB9     		cbnz	r2, .L30
 700:uCOS-III\Source/os_task.c ****        *p_err = OS_ERR_PTR_INVALID;
 320              		.loc 1 700 0
 321 001a 46F2D523 		movw	r3, #25301
 322              	.LVL42:
 323 001e 3B80     		strh	r3, [r7]	@ movhi
 701:uCOS-III\Source/os_task.c ****         return ((void *)0);
 324              		.loc 1 701 0
 325 0020 0020     		movs	r0, #0
ARM GAS  C:\Users\jorti\AppData\Local\Temp\ccDtGf1z.s 			page 19


 326              	.LVL43:
 327 0022 BDE8F087 		pop	{r4, r5, r6, r7, r8, r9, r10, pc}
 328              	.LVL44:
 329              	.L30:
 702:uCOS-III\Source/os_task.c ****     }
 703:uCOS-III\Source/os_task.c ****     switch (opt) {                                          /* User must supply a valid option     
 330              		.loc 1 703 0
 331 0026 41B1     		cbz	r1, .L32
 332 0028 B1F5004F 		cmp	r1, #32768
 333 002c 05D0     		beq	.L32
 704:uCOS-III\Source/os_task.c ****         case OS_OPT_PEND_BLOCKING:
 705:uCOS-III\Source/os_task.c ****         case OS_OPT_PEND_NON_BLOCKING:
 706:uCOS-III\Source/os_task.c ****              break;
 707:uCOS-III\Source/os_task.c **** 
 708:uCOS-III\Source/os_task.c ****         default:
 709:uCOS-III\Source/os_task.c ****             *p_err = OS_ERR_OPT_INVALID;
 334              		.loc 1 709 0
 335 002e 45F62563 		movw	r3, #24101
 336              	.LVL45:
 337 0032 3B80     		strh	r3, [r7]	@ movhi
 710:uCOS-III\Source/os_task.c ****              return ((void *)0);
 338              		.loc 1 710 0
 339 0034 0020     		movs	r0, #0
 340              	.LVL46:
 341 0036 BDE8F087 		pop	{r4, r5, r6, r7, r8, r9, r10, pc}
 342              	.LVL47:
 343              	.L32:
 711:uCOS-III\Source/os_task.c ****     }
 712:uCOS-III\Source/os_task.c **** #endif
 713:uCOS-III\Source/os_task.c **** 
 714:uCOS-III\Source/os_task.c ****     if (p_ts != (CPU_TS *)0) {
 344              		.loc 1 714 0
 345 003a 0BB1     		cbz	r3, .L33
 715:uCOS-III\Source/os_task.c ****        *p_ts  = (CPU_TS  )0;                                /* Initialize the returned timestamp   
 346              		.loc 1 715 0
 347 003c 0024     		movs	r4, #0
 348 003e 1C60     		str	r4, [r3]
 349              	.L33:
 350 0040 1D46     		mov	r5, r3
 351 0042 9046     		mov	r8, r2
 352 0044 0E46     		mov	r6, r1
 353 0046 8146     		mov	r9, r0
 716:uCOS-III\Source/os_task.c ****     }
 717:uCOS-III\Source/os_task.c **** 
 718:uCOS-III\Source/os_task.c ****     CPU_CRITICAL_ENTER();
 354              		.loc 1 718 0
 355 0048 FFF7FEFF 		bl	CPU_SR_Save
 356              	.LVL48:
 357 004c 8246     		mov	r10, r0
 358              	.LVL49:
 719:uCOS-III\Source/os_task.c ****     p_msg_q = &OSTCBCurPtr->MsgQ;                           /* Any message waiting in the message q
 359              		.loc 1 719 0
 360 004e 424B     		ldr	r3, .L47+4
 361 0050 1868     		ldr	r0, [r3]
 362              	.LVL50:
 720:uCOS-III\Source/os_task.c ****     p_void  = OS_MsgQGet(p_msg_q,
 363              		.loc 1 720 0
ARM GAS  C:\Users\jorti\AppData\Local\Temp\ccDtGf1z.s 			page 20


 364 0052 3B46     		mov	r3, r7
 365 0054 2A46     		mov	r2, r5
 366 0056 4146     		mov	r1, r8
 367 0058 6430     		adds	r0, r0, #100
 368              	.LVL51:
 369 005a FFF7FEFF 		bl	OS_MsgQGet
 370              	.LVL52:
 371 005e 0446     		mov	r4, r0
 372              	.LVL53:
 721:uCOS-III\Source/os_task.c ****                          p_msg_size,
 722:uCOS-III\Source/os_task.c ****                          p_ts,
 723:uCOS-III\Source/os_task.c ****                          p_err);
 724:uCOS-III\Source/os_task.c ****     if (*p_err == OS_ERR_NONE) {
 373              		.loc 1 724 0
 374 0060 3B88     		ldrh	r3, [r7]
 375 0062 9BB9     		cbnz	r3, .L34
 725:uCOS-III\Source/os_task.c **** #if OS_CFG_TASK_PROFILE_EN > 0u
 726:uCOS-III\Source/os_task.c ****         if (p_ts != (CPU_TS *)0) {
 376              		.loc 1 726 0
 377 0064 65B1     		cbz	r5, .L35
 727:uCOS-III\Source/os_task.c ****             OSTCBCurPtr->MsgQPendTime = OS_TS_GET() - *p_ts;
 378              		.loc 1 727 0
 379 0066 3C4E     		ldr	r6, .L47+4
 380 0068 3768     		ldr	r7, [r6]
 381 006a FFF7FEFF 		bl	CPU_TS_TmrRd
 382              	.LVL54:
 383 006e 2B68     		ldr	r3, [r5]
 384 0070 C01A     		subs	r0, r0, r3
 385 0072 7867     		str	r0, [r7, #116]
 728:uCOS-III\Source/os_task.c ****             if (OSTCBCurPtr->MsgQPendTimeMax < OSTCBCurPtr->MsgQPendTime) {
 386              		.loc 1 728 0
 387 0074 3368     		ldr	r3, [r6]
 388 0076 996F     		ldr	r1, [r3, #120]
 389 0078 5A6F     		ldr	r2, [r3, #116]
 390 007a 9142     		cmp	r1, r2
 391 007c 00D2     		bcs	.L35
 729:uCOS-III\Source/os_task.c ****                 OSTCBCurPtr->MsgQPendTimeMax = OSTCBCurPtr->MsgQPendTime;
 392              		.loc 1 729 0
 393 007e 9A67     		str	r2, [r3, #120]
 394              	.L35:
 730:uCOS-III\Source/os_task.c ****             }
 731:uCOS-III\Source/os_task.c ****         }
 732:uCOS-III\Source/os_task.c **** #endif
 733:uCOS-III\Source/os_task.c ****         CPU_CRITICAL_EXIT();
 395              		.loc 1 733 0
 396 0080 5046     		mov	r0, r10
 397 0082 FFF7FEFF 		bl	CPU_SR_Restore
 398              	.LVL55:
 734:uCOS-III\Source/os_task.c ****         return (p_void);                                    /* Yes, Return oldest message received 
 399              		.loc 1 734 0
 400 0086 2046     		mov	r0, r4
 401 0088 BDE8F087 		pop	{r4, r5, r6, r7, r8, r9, r10, pc}
 402              	.LVL56:
 403              	.L34:
 735:uCOS-III\Source/os_task.c ****     }
 736:uCOS-III\Source/os_task.c **** 
 737:uCOS-III\Source/os_task.c ****     if ((opt & OS_OPT_PEND_NON_BLOCKING) != (OS_OPT)0) {    /* Caller wants to block if not availab
ARM GAS  C:\Users\jorti\AppData\Local\Temp\ccDtGf1z.s 			page 21


 404              		.loc 1 737 0
 405 008c 16F4004F 		tst	r6, #32768
 406 0090 08D0     		beq	.L36
 738:uCOS-III\Source/os_task.c ****        *p_err = OS_ERR_PEND_WOULD_BLOCK;                    /* No                                  
 407              		.loc 1 738 0
 408 0092 46F2B013 		movw	r3, #25008
 409 0096 3B80     		strh	r3, [r7]	@ movhi
 739:uCOS-III\Source/os_task.c ****         CPU_CRITICAL_EXIT();
 410              		.loc 1 739 0
 411 0098 5046     		mov	r0, r10
 412              	.LVL57:
 413 009a FFF7FEFF 		bl	CPU_SR_Restore
 414              	.LVL58:
 740:uCOS-III\Source/os_task.c ****         return ((void *)0);
 415              		.loc 1 740 0
 416 009e 0020     		movs	r0, #0
 417 00a0 BDE8F087 		pop	{r4, r5, r6, r7, r8, r9, r10, pc}
 418              	.LVL59:
 419              	.L36:
 741:uCOS-III\Source/os_task.c ****     } else {                                                /* Yes                                 
 742:uCOS-III\Source/os_task.c ****         if (OSSchedLockNestingCtr > (OS_NESTING_CTR)0) {    /*     Can't block when the scheduler i
 420              		.loc 1 742 0
 421 00a4 2D4B     		ldr	r3, .L47+8
 422 00a6 1B78     		ldrb	r3, [r3]	@ zero_extendqisi2
 423 00a8 43B1     		cbz	r3, .L37
 743:uCOS-III\Source/os_task.c ****             CPU_CRITICAL_EXIT();
 424              		.loc 1 743 0
 425 00aa 5046     		mov	r0, r10
 426              	.LVL60:
 427 00ac FFF7FEFF 		bl	CPU_SR_Restore
 428              	.LVL61:
 744:uCOS-III\Source/os_task.c ****            *p_err = OS_ERR_SCHED_LOCKED;
 429              		.loc 1 744 0
 430 00b0 46F66353 		movw	r3, #28003
 431 00b4 3B80     		strh	r3, [r7]	@ movhi
 745:uCOS-III\Source/os_task.c ****             return ((void *)0);
 432              		.loc 1 745 0
 433 00b6 0020     		movs	r0, #0
 434 00b8 BDE8F087 		pop	{r4, r5, r6, r7, r8, r9, r10, pc}
 435              	.LVL62:
 436              	.L37:
 746:uCOS-III\Source/os_task.c ****         }
 747:uCOS-III\Source/os_task.c ****     }
 748:uCOS-III\Source/os_task.c ****                                                             /* Lock the scheduler/re-enable interru
 749:uCOS-III\Source/os_task.c ****     OS_CRITICAL_ENTER_CPU_EXIT();
 750:uCOS-III\Source/os_task.c ****     OS_Pend((OS_PEND_DATA *)0,                              /* Block task pending on Message       
 437              		.loc 1 750 0
 438 00bc 4B46     		mov	r3, r9
 439 00be 0222     		movs	r2, #2
 440 00c0 0021     		movs	r1, #0
 441 00c2 0846     		mov	r0, r1
 442              	.LVL63:
 443 00c4 FFF7FEFF 		bl	OS_Pend
 444              	.LVL64:
 751:uCOS-III\Source/os_task.c ****             (OS_PEND_OBJ  *)0,
 752:uCOS-III\Source/os_task.c ****             (OS_STATE      )OS_TASK_PEND_ON_TASK_Q,
 753:uCOS-III\Source/os_task.c ****             (OS_TICK       )timeout);
ARM GAS  C:\Users\jorti\AppData\Local\Temp\ccDtGf1z.s 			page 22


 754:uCOS-III\Source/os_task.c ****     OS_CRITICAL_EXIT_NO_SCHED();
 445              		.loc 1 754 0
 446 00c8 5046     		mov	r0, r10
 447 00ca FFF7FEFF 		bl	CPU_SR_Restore
 448              	.LVL65:
 755:uCOS-III\Source/os_task.c **** 
 756:uCOS-III\Source/os_task.c ****     OSSched();                                              /* Find the next highest priority task 
 449              		.loc 1 756 0
 450 00ce FFF7FEFF 		bl	OSSched
 451              	.LVL66:
 757:uCOS-III\Source/os_task.c **** 
 758:uCOS-III\Source/os_task.c ****     CPU_CRITICAL_ENTER();
 452              		.loc 1 758 0
 453 00d2 FFF7FEFF 		bl	CPU_SR_Save
 454              	.LVL67:
 455 00d6 0646     		mov	r6, r0
 456              	.LVL68:
 759:uCOS-III\Source/os_task.c ****     switch (OSTCBCurPtr->PendStatus) {
 457              		.loc 1 759 0
 458 00d8 1F4B     		ldr	r3, .L47+4
 459 00da 1B68     		ldr	r3, [r3]
 460 00dc 93F83520 		ldrb	r2, [r3, #53]	@ zero_extendqisi2
 461 00e0 12B1     		cbz	r2, .L39
 462 00e2 012A     		cmp	r2, #1
 463 00e4 1AD0     		beq	.L40
 464 00e6 23E0     		b	.L45
 465              	.L39:
 760:uCOS-III\Source/os_task.c ****         case OS_STATUS_PEND_OK:                             /* Extract message from TCB (Put there 
 761:uCOS-III\Source/os_task.c ****              p_void      = OSTCBCurPtr->MsgPtr;
 466              		.loc 1 761 0
 467 00e8 DC6D     		ldr	r4, [r3, #92]
 468              	.LVL69:
 762:uCOS-III\Source/os_task.c ****             *p_msg_size  = OSTCBCurPtr->MsgSize;
 469              		.loc 1 762 0
 470 00ea B3F86030 		ldrh	r3, [r3, #96]
 471 00ee A8F80030 		strh	r3, [r8]	@ movhi
 763:uCOS-III\Source/os_task.c ****              if (p_ts != (CPU_TS *)0) {
 472              		.loc 1 763 0
 473 00f2 85B1     		cbz	r5, .L41
 764:uCOS-III\Source/os_task.c ****                 *p_ts  = OSTCBCurPtr->TS;
 474              		.loc 1 764 0
 475 00f4 DFF86080 		ldr	r8, .L47+4
 476              	.LVL70:
 477 00f8 D8F80030 		ldr	r3, [r8]
 478 00fc 1B6C     		ldr	r3, [r3, #64]
 479 00fe 2B60     		str	r3, [r5]
 765:uCOS-III\Source/os_task.c **** #if OS_CFG_TASK_PROFILE_EN > 0u
 766:uCOS-III\Source/os_task.c ****                 OSTCBCurPtr->MsgQPendTime = OS_TS_GET() - OSTCBCurPtr->TS;
 480              		.loc 1 766 0
 481 0100 FFF7FEFF 		bl	CPU_TS_TmrRd
 482              	.LVL71:
 483 0104 D8F80020 		ldr	r2, [r8]
 484 0108 136C     		ldr	r3, [r2, #64]
 485 010a C01A     		subs	r0, r0, r3
 486 010c 5067     		str	r0, [r2, #116]
 767:uCOS-III\Source/os_task.c ****                 if (OSTCBCurPtr->MsgQPendTimeMax < OSTCBCurPtr->MsgQPendTime) {
 487              		.loc 1 767 0
ARM GAS  C:\Users\jorti\AppData\Local\Temp\ccDtGf1z.s 			page 23


 488 010e 936F     		ldr	r3, [r2, #120]
 489 0110 9842     		cmp	r0, r3
 490 0112 00D9     		bls	.L41
 768:uCOS-III\Source/os_task.c ****                     OSTCBCurPtr->MsgQPendTimeMax = OSTCBCurPtr->MsgQPendTime;
 491              		.loc 1 768 0
 492 0114 9067     		str	r0, [r2, #120]
 493              	.L41:
 769:uCOS-III\Source/os_task.c ****                 }
 770:uCOS-III\Source/os_task.c **** #endif
 771:uCOS-III\Source/os_task.c ****              }
 772:uCOS-III\Source/os_task.c ****             *p_err = OS_ERR_NONE;
 494              		.loc 1 772 0
 495 0116 0023     		movs	r3, #0
 496 0118 3B80     		strh	r3, [r7]	@ movhi
 773:uCOS-III\Source/os_task.c ****              break;
 497              		.loc 1 773 0
 498 011a 15E0     		b	.L42
 499              	.LVL72:
 500              	.L40:
 774:uCOS-III\Source/os_task.c **** 
 775:uCOS-III\Source/os_task.c ****         case OS_STATUS_PEND_ABORT:                          /* Indicate that we aborted            
 776:uCOS-III\Source/os_task.c ****              p_void     = (void      *)0;
 777:uCOS-III\Source/os_task.c ****             *p_msg_size = (OS_MSG_SIZE)0;
 501              		.loc 1 777 0
 502 011c 0023     		movs	r3, #0
 503 011e A8F80030 		strh	r3, [r8]	@ movhi
 778:uCOS-III\Source/os_task.c ****              if (p_ts  != (CPU_TS *)0) {
 504              		.loc 1 778 0
 505 0122 05B1     		cbz	r5, .L43
 779:uCOS-III\Source/os_task.c ****                 *p_ts   = (CPU_TS  )0;
 506              		.loc 1 779 0
 507 0124 2B60     		str	r3, [r5]
 508              	.L43:
 780:uCOS-III\Source/os_task.c ****              }
 781:uCOS-III\Source/os_task.c ****             *p_err      =  OS_ERR_PEND_ABORT;
 509              		.loc 1 781 0
 510 0126 46F2A913 		movw	r3, #25001
 511 012a 3B80     		strh	r3, [r7]	@ movhi
 776:uCOS-III\Source/os_task.c ****             *p_msg_size = (OS_MSG_SIZE)0;
 512              		.loc 1 776 0
 513 012c 0024     		movs	r4, #0
 782:uCOS-III\Source/os_task.c ****              break;
 514              		.loc 1 782 0
 515 012e 0BE0     		b	.L42
 516              	.LVL73:
 517              	.L45:
 783:uCOS-III\Source/os_task.c **** 
 784:uCOS-III\Source/os_task.c ****         case OS_STATUS_PEND_TIMEOUT:                        /* Indicate that we didn't get event wi
 785:uCOS-III\Source/os_task.c ****         default:
 786:uCOS-III\Source/os_task.c ****              p_void     = (void      *)0;
 787:uCOS-III\Source/os_task.c ****             *p_msg_size = (OS_MSG_SIZE)0;
 518              		.loc 1 787 0
 519 0130 0023     		movs	r3, #0
 520 0132 A8F80030 		strh	r3, [r8]	@ movhi
 788:uCOS-III\Source/os_task.c ****              if (p_ts  != (CPU_TS *)0) {
 521              		.loc 1 788 0
 522 0136 1DB1     		cbz	r5, .L44
ARM GAS  C:\Users\jorti\AppData\Local\Temp\ccDtGf1z.s 			page 24


 789:uCOS-III\Source/os_task.c ****                 *p_ts   =  OSTCBCurPtr->TS;
 523              		.loc 1 789 0
 524 0138 074B     		ldr	r3, .L47+4
 525 013a 1B68     		ldr	r3, [r3]
 526 013c 1B6C     		ldr	r3, [r3, #64]
 527 013e 2B60     		str	r3, [r5]
 528              	.L44:
 790:uCOS-III\Source/os_task.c ****              }
 791:uCOS-III\Source/os_task.c ****             *p_err      =  OS_ERR_TIMEOUT;
 529              		.loc 1 791 0
 530 0140 47F2D923 		movw	r3, #29401
 531 0144 3B80     		strh	r3, [r7]	@ movhi
 786:uCOS-III\Source/os_task.c ****             *p_msg_size = (OS_MSG_SIZE)0;
 532              		.loc 1 786 0
 533 0146 0024     		movs	r4, #0
 534              	.LVL74:
 535              	.L42:
 792:uCOS-III\Source/os_task.c ****              break;
 793:uCOS-III\Source/os_task.c ****     }
 794:uCOS-III\Source/os_task.c ****     CPU_CRITICAL_EXIT();
 536              		.loc 1 794 0
 537 0148 3046     		mov	r0, r6
 538 014a FFF7FEFF 		bl	CPU_SR_Restore
 539              	.LVL75:
 795:uCOS-III\Source/os_task.c ****     return (p_void);                                        /* Return received message             
 540              		.loc 1 795 0
 541 014e 2046     		mov	r0, r4
 796:uCOS-III\Source/os_task.c **** }
 542              		.loc 1 796 0
 543 0150 BDE8F087 		pop	{r4, r5, r6, r7, r8, r9, r10, pc}
 544              	.LVL76:
 545              	.L48:
 546              		.align	2
 547              	.L47:
 548 0154 00000000 		.word	OSIntNestingCtr
 549 0158 00000000 		.word	OSTCBCurPtr
 550 015c 00000000 		.word	OSSchedLockNestingCtr
 551              		.cfi_endproc
 552              	.LFE5:
 553              		.size	OSTaskQPend, .-OSTaskQPend
 554              		.section	.text.OSTaskQPendAbort,"ax",%progbits
 555              		.align	2
 556              		.global	OSTaskQPendAbort
 557              		.thumb
 558              		.thumb_func
 559              		.type	OSTaskQPendAbort, %function
 560              	OSTaskQPendAbort:
 561              	.LFB6:
 797:uCOS-III\Source/os_task.c **** #endif
 798:uCOS-III\Source/os_task.c **** 
 799:uCOS-III\Source/os_task.c **** /*$PAGE*/
 800:uCOS-III\Source/os_task.c **** /*
 801:uCOS-III\Source/os_task.c **** ***************************************************************************************************
 802:uCOS-III\Source/os_task.c **** *                                              ABORT WAITING FOR A MESSAGE
 803:uCOS-III\Source/os_task.c **** *
 804:uCOS-III\Source/os_task.c **** * Description: This function aborts & readies the task specified.  This function should be used to 
 805:uCOS-III\Source/os_task.c **** *              for a message, rather than to normally post the message to the task via OSTaskQPost(
ARM GAS  C:\Users\jorti\AppData\Local\Temp\ccDtGf1z.s 			page 25


 806:uCOS-III\Source/os_task.c **** *
 807:uCOS-III\Source/os_task.c **** * Arguments  : p_tcb     is a pointer to the task to pend abort
 808:uCOS-III\Source/os_task.c **** *
 809:uCOS-III\Source/os_task.c **** *              opt       provides options for this function:
 810:uCOS-III\Source/os_task.c **** *
 811:uCOS-III\Source/os_task.c **** *                            OS_OPT_POST_NONE         No option specified
 812:uCOS-III\Source/os_task.c **** *                            OS_OPT_POST_NO_SCHED     Indicates that the scheduler will not be call
 813:uCOS-III\Source/os_task.c **** *
 814:uCOS-III\Source/os_task.c **** *              p_err     is a pointer to a variable that will contain an error code returned by thi
 815:uCOS-III\Source/os_task.c **** *
 816:uCOS-III\Source/os_task.c **** *                            OS_ERR_NONE              If the task was readied and informed of the a
 817:uCOS-III\Source/os_task.c **** *                            OS_ERR_PEND_ABORT_ISR    If you called this function from an ISR
 818:uCOS-III\Source/os_task.c **** *                            OS_ERR_PEND_ABORT_NONE   If task was not pending on a message and thus
 819:uCOS-III\Source/os_task.c **** *                                                     abort.
 820:uCOS-III\Source/os_task.c **** *                            OS_ERR_PEND_ABORT_SELF   If you passed a NULL pointer for 'p_tcb'
 821:uCOS-III\Source/os_task.c **** *
 822:uCOS-III\Source/os_task.c **** * Returns    : == DEF_FALSE   if task was not waiting for a message, or upon error.
 823:uCOS-III\Source/os_task.c **** *              == DEF_TRUE    if task was waiting for a message and was readied and informed.
 824:uCOS-III\Source/os_task.c **** ***************************************************************************************************
 825:uCOS-III\Source/os_task.c **** */
 826:uCOS-III\Source/os_task.c **** 
 827:uCOS-III\Source/os_task.c **** #if (OS_CFG_TASK_Q_EN > 0u) && (OS_CFG_TASK_Q_PEND_ABORT_EN > 0u)
 828:uCOS-III\Source/os_task.c **** CPU_BOOLEAN  OSTaskQPendAbort (OS_TCB  *p_tcb,
 829:uCOS-III\Source/os_task.c ****                                OS_OPT   opt,
 830:uCOS-III\Source/os_task.c ****                                OS_ERR  *p_err)
 831:uCOS-III\Source/os_task.c **** {
 562              		.loc 1 831 0
 563              		.cfi_startproc
 564              		@ args = 0, pretend = 0, frame = 0
 565              		@ frame_needed = 0, uses_anonymous_args = 0
 566              	.LVL77:
 567 0000 2DE9F041 		push	{r4, r5, r6, r7, r8, lr}
 568              		.cfi_def_cfa_offset 24
 569              		.cfi_offset 4, -24
 570              		.cfi_offset 5, -20
 571              		.cfi_offset 6, -16
 572              		.cfi_offset 7, -12
 573              		.cfi_offset 8, -8
 574              		.cfi_offset 14, -4
 575              	.LVL78:
 832:uCOS-III\Source/os_task.c ****     CPU_TS         ts;
 833:uCOS-III\Source/os_task.c ****     CPU_SR_ALLOC();
 834:uCOS-III\Source/os_task.c **** 
 835:uCOS-III\Source/os_task.c **** 
 836:uCOS-III\Source/os_task.c **** 
 837:uCOS-III\Source/os_task.c **** #ifdef OS_SAFETY_CRITICAL
 838:uCOS-III\Source/os_task.c ****     if (p_err == (OS_ERR *)0) {
 839:uCOS-III\Source/os_task.c ****         OS_SAFETY_CRITICAL_EXCEPTION();
 840:uCOS-III\Source/os_task.c ****         return (DEF_FALSE);
 841:uCOS-III\Source/os_task.c ****     }
 842:uCOS-III\Source/os_task.c **** #endif
 843:uCOS-III\Source/os_task.c **** 
 844:uCOS-III\Source/os_task.c **** #if OS_CFG_CALLED_FROM_ISR_CHK_EN > 0u
 845:uCOS-III\Source/os_task.c ****     if (OSIntNestingCtr > (OS_NESTING_CTR)0) {              /* See if called from ISR ...          
 576              		.loc 1 845 0
 577 0004 204B     		ldr	r3, .L59
 578 0006 1C78     		ldrb	r4, [r3]	@ zero_extendqisi2
ARM GAS  C:\Users\jorti\AppData\Local\Temp\ccDtGf1z.s 			page 26


 579 0008 24B1     		cbz	r4, .L50
 846:uCOS-III\Source/os_task.c ****        *p_err = OS_ERR_PEND_ABORT_ISR;                      /* ... can't Pend Abort from an ISR    
 580              		.loc 1 846 0
 581 000a 46F2AA13 		movw	r3, #25002
 582 000e 1380     		strh	r3, [r2]	@ movhi
 847:uCOS-III\Source/os_task.c ****         return (DEF_FALSE);
 583              		.loc 1 847 0
 584 0010 0024     		movs	r4, #0
 585 0012 35E0     		b	.L51
 586              	.L50:
 848:uCOS-III\Source/os_task.c ****     }
 849:uCOS-III\Source/os_task.c **** #endif
 850:uCOS-III\Source/os_task.c **** 
 851:uCOS-III\Source/os_task.c **** #if OS_CFG_ARG_CHK_EN > 0u                                  /* ---------------- VALIDATE ARGUMENTS 
 852:uCOS-III\Source/os_task.c ****     switch (opt) {                                          /* User must supply a valid option     
 587              		.loc 1 852 0
 588 0014 31B1     		cbz	r1, .L53
 589 0016 B1F5004F 		cmp	r1, #32768
 590 001a 03D0     		beq	.L53
 853:uCOS-III\Source/os_task.c ****         case OS_OPT_POST_NONE:
 854:uCOS-III\Source/os_task.c ****         case OS_OPT_POST_NO_SCHED:
 855:uCOS-III\Source/os_task.c ****              break;
 856:uCOS-III\Source/os_task.c **** 
 857:uCOS-III\Source/os_task.c ****         default:
 858:uCOS-III\Source/os_task.c ****             *p_err = OS_ERR_OPT_INVALID;
 591              		.loc 1 858 0
 592 001c 45F62563 		movw	r3, #24101
 593 0020 1380     		strh	r3, [r2]	@ movhi
 859:uCOS-III\Source/os_task.c ****              return (DEF_FALSE);
 594              		.loc 1 859 0
 595 0022 2DE0     		b	.L51
 596              	.L53:
 597 0024 1746     		mov	r7, r2
 598 0026 0D46     		mov	r5, r1
 599 0028 0646     		mov	r6, r0
 860:uCOS-III\Source/os_task.c ****     }
 861:uCOS-III\Source/os_task.c **** #endif
 862:uCOS-III\Source/os_task.c **** 
 863:uCOS-III\Source/os_task.c ****     CPU_CRITICAL_ENTER();
 600              		.loc 1 863 0
 601 002a FFF7FEFF 		bl	CPU_SR_Save
 602              	.LVL79:
 603 002e 8046     		mov	r8, r0
 604              	.LVL80:
 864:uCOS-III\Source/os_task.c **** #if OS_CFG_ARG_CHK_EN > 0u
 865:uCOS-III\Source/os_task.c ****     if ((p_tcb == (OS_TCB *)0) ||                           /* Pend abort self?                    
 605              		.loc 1 865 0
 606 0030 1EB1     		cbz	r6, .L54
 866:uCOS-III\Source/os_task.c ****         (p_tcb == OSTCBCurPtr)) {
 607              		.loc 1 866 0 discriminator 1
 608 0032 164B     		ldr	r3, .L59+4
 609 0034 1B68     		ldr	r3, [r3]
 865:uCOS-III\Source/os_task.c ****         (p_tcb == OSTCBCurPtr)) {
 610              		.loc 1 865 0 discriminator 1
 611 0036 9E42     		cmp	r6, r3
 612 0038 06D1     		bne	.L55
 613              	.L54:
ARM GAS  C:\Users\jorti\AppData\Local\Temp\ccDtGf1z.s 			page 27


 867:uCOS-III\Source/os_task.c ****         CPU_CRITICAL_EXIT();
 614              		.loc 1 867 0
 615 003a 4046     		mov	r0, r8
 616              	.LVL81:
 617 003c FFF7FEFF 		bl	CPU_SR_Restore
 618              	.LVL82:
 868:uCOS-III\Source/os_task.c ****        *p_err = OS_ERR_PEND_ABORT_SELF;                     /* ... doesn't make sense              
 619              		.loc 1 868 0
 620 0040 46F2AC13 		movw	r3, #25004
 621 0044 3B80     		strh	r3, [r7]	@ movhi
 869:uCOS-III\Source/os_task.c ****         return (DEF_FALSE);
 622              		.loc 1 869 0
 623 0046 1BE0     		b	.L51
 624              	.LVL83:
 625              	.L55:
 870:uCOS-III\Source/os_task.c ****     }
 871:uCOS-III\Source/os_task.c **** #endif
 872:uCOS-III\Source/os_task.c **** 
 873:uCOS-III\Source/os_task.c ****     if (p_tcb->PendOn != OS_TASK_PEND_ON_TASK_Q) {          /* Is task waiting for a message?      
 626              		.loc 1 873 0
 627 0048 96F83430 		ldrb	r3, [r6, #52]	@ zero_extendqisi2
 628 004c 022B     		cmp	r3, #2
 629 004e 05D0     		beq	.L56
 874:uCOS-III\Source/os_task.c ****         CPU_CRITICAL_EXIT();                                /* No                                  
 630              		.loc 1 874 0
 631 0050 FFF7FEFF 		bl	CPU_SR_Restore
 632              	.LVL84:
 875:uCOS-III\Source/os_task.c ****        *p_err = OS_ERR_PEND_ABORT_NONE;
 633              		.loc 1 875 0
 634 0054 46F2AB13 		movw	r3, #25003
 635 0058 3B80     		strh	r3, [r7]	@ movhi
 876:uCOS-III\Source/os_task.c ****         return (DEF_FALSE);
 636              		.loc 1 876 0
 637 005a 11E0     		b	.L51
 638              	.LVL85:
 639              	.L56:
 877:uCOS-III\Source/os_task.c ****     }
 878:uCOS-III\Source/os_task.c **** 
 879:uCOS-III\Source/os_task.c ****     OS_CRITICAL_ENTER_CPU_EXIT();
 880:uCOS-III\Source/os_task.c ****     ts = OS_TS_GET();                                       /* Get timestamp of when the abort occu
 640              		.loc 1 880 0
 641 005c FFF7FEFF 		bl	CPU_TS_TmrRd
 642              	.LVL86:
 881:uCOS-III\Source/os_task.c ****     OS_PendAbort((OS_PEND_OBJ *)0,                          /* Abort the pend                      
 643              		.loc 1 881 0
 644 0060 0246     		mov	r2, r0
 645 0062 3146     		mov	r1, r6
 646 0064 0020     		movs	r0, #0
 647              	.LVL87:
 648 0066 FFF7FEFF 		bl	OS_PendAbort
 649              	.LVL88:
 882:uCOS-III\Source/os_task.c ****                  p_tcb,
 883:uCOS-III\Source/os_task.c ****                  ts);
 884:uCOS-III\Source/os_task.c ****     OS_CRITICAL_EXIT_NO_SCHED();
 650              		.loc 1 884 0
 651 006a 4046     		mov	r0, r8
 652 006c FFF7FEFF 		bl	CPU_SR_Restore
ARM GAS  C:\Users\jorti\AppData\Local\Temp\ccDtGf1z.s 			page 28


 653              	.LVL89:
 885:uCOS-III\Source/os_task.c ****     if ((opt & OS_OPT_POST_NO_SCHED) == (OS_OPT)0) {
 654              		.loc 1 885 0
 655 0070 15F4004F 		tst	r5, #32768
 656 0074 01D1     		bne	.L57
 886:uCOS-III\Source/os_task.c ****         OSSched();                                          /* Run the scheduler                   
 657              		.loc 1 886 0
 658 0076 FFF7FEFF 		bl	OSSched
 659              	.LVL90:
 660              	.L57:
 887:uCOS-III\Source/os_task.c ****     }
 888:uCOS-III\Source/os_task.c ****    *p_err = OS_ERR_NONE;
 661              		.loc 1 888 0
 662 007a 0023     		movs	r3, #0
 663 007c 3B80     		strh	r3, [r7]	@ movhi
 889:uCOS-III\Source/os_task.c ****     return (DEF_TRUE);
 664              		.loc 1 889 0
 665 007e 0124     		movs	r4, #1
 666              	.LVL91:
 667              	.L51:
 890:uCOS-III\Source/os_task.c **** }
 668              		.loc 1 890 0
 669 0080 2046     		mov	r0, r4
 670 0082 BDE8F081 		pop	{r4, r5, r6, r7, r8, pc}
 671              	.L60:
 672 0086 00BF     		.align	2
 673              	.L59:
 674 0088 00000000 		.word	OSIntNestingCtr
 675 008c 00000000 		.word	OSTCBCurPtr
 676              		.cfi_endproc
 677              	.LFE6:
 678              		.size	OSTaskQPendAbort, .-OSTaskQPendAbort
 679              		.section	.text.OSTaskRegGet,"ax",%progbits
 680              		.align	2
 681              		.global	OSTaskRegGet
 682              		.thumb
 683              		.thumb_func
 684              		.type	OSTaskRegGet, %function
 685              	OSTaskRegGet:
 686              	.LFB8:
 891:uCOS-III\Source/os_task.c **** #endif
 892:uCOS-III\Source/os_task.c **** 
 893:uCOS-III\Source/os_task.c **** /*$PAGE*/
 894:uCOS-III\Source/os_task.c **** /*
 895:uCOS-III\Source/os_task.c **** ***************************************************************************************************
 896:uCOS-III\Source/os_task.c **** *                                               POST MESSAGE TO A TASK
 897:uCOS-III\Source/os_task.c **** *
 898:uCOS-III\Source/os_task.c **** * Description: This function sends a message to a task
 899:uCOS-III\Source/os_task.c **** *
 900:uCOS-III\Source/os_task.c **** * Arguments  : p_tcb      is a pointer to the TCB of the task receiving a message.  If you specify 
 901:uCOS-III\Source/os_task.c **** *                         the message will be posted to the task's queue of the calling task.  In o
 902:uCOS-III\Source/os_task.c **** *                         posting a message to yourself.
 903:uCOS-III\Source/os_task.c **** *
 904:uCOS-III\Source/os_task.c **** *              p_void     is a pointer to the message to send.
 905:uCOS-III\Source/os_task.c **** *
 906:uCOS-III\Source/os_task.c **** *              msg_size   is the size of the message sent (in #bytes)
 907:uCOS-III\Source/os_task.c **** *
ARM GAS  C:\Users\jorti\AppData\Local\Temp\ccDtGf1z.s 			page 29


 908:uCOS-III\Source/os_task.c **** *              opt        specifies whether the post will be FIFO or LIFO:
 909:uCOS-III\Source/os_task.c **** *
 910:uCOS-III\Source/os_task.c **** *                             OS_OPT_POST_FIFO       Post at the end   of the queue
 911:uCOS-III\Source/os_task.c **** *                             OS_OPT_POST_LIFO       Post at the front of the queue
 912:uCOS-III\Source/os_task.c **** *
 913:uCOS-III\Source/os_task.c **** *                             OS_OPT_POST_NO_SCHED   Do not run the scheduler after the post
 914:uCOS-III\Source/os_task.c **** *
 915:uCOS-III\Source/os_task.c **** *                          Note(s): 1) OS_OPT_POST_NO_SCHED can be added with one of the other opti
 916:uCOS-III\Source/os_task.c **** *
 917:uCOS-III\Source/os_task.c **** *
 918:uCOS-III\Source/os_task.c **** *              p_err      is a pointer to a variable that will hold the error code associated
 919:uCOS-III\Source/os_task.c **** *                         with the outcome of this call.  Errors can be:
 920:uCOS-III\Source/os_task.c **** *
 921:uCOS-III\Source/os_task.c **** *                             OS_ERR_NONE            The call was successful and the message was se
 922:uCOS-III\Source/os_task.c **** *                             OS_ERR_Q_MAX           If the queue is full
 923:uCOS-III\Source/os_task.c **** *                             OS_ERR_MSG_POOL_EMPTY  If there are no more OS_MSGs available from th
 924:uCOS-III\Source/os_task.c **** *
 925:uCOS-III\Source/os_task.c **** * Returns    : none
 926:uCOS-III\Source/os_task.c **** ***************************************************************************************************
 927:uCOS-III\Source/os_task.c **** */
 928:uCOS-III\Source/os_task.c **** 
 929:uCOS-III\Source/os_task.c **** #if OS_CFG_TASK_Q_EN > 0u
 930:uCOS-III\Source/os_task.c **** void  OSTaskQPost (OS_TCB       *p_tcb,
 931:uCOS-III\Source/os_task.c ****                    void         *p_void,
 932:uCOS-III\Source/os_task.c ****                    OS_MSG_SIZE   msg_size,
 933:uCOS-III\Source/os_task.c ****                    OS_OPT        opt,
 934:uCOS-III\Source/os_task.c ****                    OS_ERR       *p_err)
 935:uCOS-III\Source/os_task.c **** {
 936:uCOS-III\Source/os_task.c ****     CPU_TS   ts;
 937:uCOS-III\Source/os_task.c **** 
 938:uCOS-III\Source/os_task.c **** 
 939:uCOS-III\Source/os_task.c **** 
 940:uCOS-III\Source/os_task.c **** #ifdef OS_SAFETY_CRITICAL
 941:uCOS-III\Source/os_task.c ****     if (p_err == (OS_ERR *)0) {
 942:uCOS-III\Source/os_task.c ****         OS_SAFETY_CRITICAL_EXCEPTION();
 943:uCOS-III\Source/os_task.c ****         return;
 944:uCOS-III\Source/os_task.c ****     }
 945:uCOS-III\Source/os_task.c **** #endif
 946:uCOS-III\Source/os_task.c **** 
 947:uCOS-III\Source/os_task.c **** #if OS_CFG_ARG_CHK_EN > 0u                                  /* ---------------- VALIDATE ARGUMENTS 
 948:uCOS-III\Source/os_task.c ****     switch (opt) {                                          /* User must supply a valid option     
 949:uCOS-III\Source/os_task.c ****         case OS_OPT_POST_FIFO:
 950:uCOS-III\Source/os_task.c ****         case OS_OPT_POST_LIFO:
 951:uCOS-III\Source/os_task.c ****         case OS_OPT_POST_FIFO | OS_OPT_POST_NO_SCHED:
 952:uCOS-III\Source/os_task.c ****         case OS_OPT_POST_LIFO | OS_OPT_POST_NO_SCHED:
 953:uCOS-III\Source/os_task.c ****              break;
 954:uCOS-III\Source/os_task.c **** 
 955:uCOS-III\Source/os_task.c ****         default:
 956:uCOS-III\Source/os_task.c ****             *p_err = OS_ERR_OPT_INVALID;
 957:uCOS-III\Source/os_task.c ****              return;
 958:uCOS-III\Source/os_task.c ****     }
 959:uCOS-III\Source/os_task.c **** #endif
 960:uCOS-III\Source/os_task.c **** 
 961:uCOS-III\Source/os_task.c ****     ts = OS_TS_GET();                                       /* Get timestamp                       
 962:uCOS-III\Source/os_task.c **** 
 963:uCOS-III\Source/os_task.c **** #if OS_CFG_ISR_POST_DEFERRED_EN > 0u
 964:uCOS-III\Source/os_task.c ****     if (OSIntNestingCtr > (OS_NESTING_CTR)0) {
ARM GAS  C:\Users\jorti\AppData\Local\Temp\ccDtGf1z.s 			page 30


 965:uCOS-III\Source/os_task.c ****         OS_IntQPost((OS_OBJ_TYPE)OS_OBJ_TYPE_TASK_MSG,      /* Post to ISR queue                   
 966:uCOS-III\Source/os_task.c ****                     (void      *)p_tcb,
 967:uCOS-III\Source/os_task.c ****                     (void      *)p_void,
 968:uCOS-III\Source/os_task.c ****                     (OS_MSG_SIZE)msg_size,
 969:uCOS-III\Source/os_task.c ****                     (OS_FLAGS   )0,
 970:uCOS-III\Source/os_task.c ****                     (OS_OPT     )opt,
 971:uCOS-III\Source/os_task.c ****                     (CPU_TS     )ts,
 972:uCOS-III\Source/os_task.c ****                     (OS_ERR    *)p_err);
 973:uCOS-III\Source/os_task.c ****         return;
 974:uCOS-III\Source/os_task.c ****     }
 975:uCOS-III\Source/os_task.c **** #endif
 976:uCOS-III\Source/os_task.c **** 
 977:uCOS-III\Source/os_task.c ****     OS_TaskQPost(p_tcb,
 978:uCOS-III\Source/os_task.c ****                  p_void,
 979:uCOS-III\Source/os_task.c ****                  msg_size,
 980:uCOS-III\Source/os_task.c ****                  opt,
 981:uCOS-III\Source/os_task.c ****                  ts,
 982:uCOS-III\Source/os_task.c ****                  p_err);
 983:uCOS-III\Source/os_task.c **** }
 984:uCOS-III\Source/os_task.c **** #endif
 985:uCOS-III\Source/os_task.c **** 
 986:uCOS-III\Source/os_task.c **** /*$PAGE*/
 987:uCOS-III\Source/os_task.c **** /*
 988:uCOS-III\Source/os_task.c **** ***************************************************************************************************
 989:uCOS-III\Source/os_task.c **** *                                       GET THE CURRENT VALUE OF A TASK REGISTER
 990:uCOS-III\Source/os_task.c **** *
 991:uCOS-III\Source/os_task.c **** * Description: This function is called to obtain the current value of a task register.  Task regist
 992:uCOS-III\Source/os_task.c **** *              specific and can be used to store task specific values such as 'error numbers' (i.e.
 993:uCOS-III\Source/os_task.c **** *              etc.
 994:uCOS-III\Source/os_task.c **** *
 995:uCOS-III\Source/os_task.c **** * Arguments  : p_tcb     is a pointer to the OS_TCB of the task you want to read the register from.
 996:uCOS-III\Source/os_task.c **** *                        NULL pointer then you will get the register of the current task.
 997:uCOS-III\Source/os_task.c **** *
 998:uCOS-III\Source/os_task.c **** *              id        is the 'id' of the desired task variable.  Note that the 'id' must be less
 999:uCOS-III\Source/os_task.c **** *                        OS_CFG_TASK_REG_TBL_SIZE
1000:uCOS-III\Source/os_task.c **** *
1001:uCOS-III\Source/os_task.c **** *              p_err     is a pointer to a variable that will hold an error code related to this ca
1002:uCOS-III\Source/os_task.c **** *
1003:uCOS-III\Source/os_task.c **** *                            OS_ERR_NONE            if the call was successful
1004:uCOS-III\Source/os_task.c **** *                            OS_ERR_REG_ID_INVALID  if the 'id' is not between 0 and OS_CFG_TASK_RE
1005:uCOS-III\Source/os_task.c **** *
1006:uCOS-III\Source/os_task.c **** * Returns    : The current value of the task's register or 0 if an error is detected.
1007:uCOS-III\Source/os_task.c **** ***************************************************************************************************
1008:uCOS-III\Source/os_task.c **** */
1009:uCOS-III\Source/os_task.c **** 
1010:uCOS-III\Source/os_task.c **** #if OS_CFG_TASK_REG_TBL_SIZE > 0u
1011:uCOS-III\Source/os_task.c **** OS_REG  OSTaskRegGet (OS_TCB     *p_tcb,
1012:uCOS-III\Source/os_task.c ****                       OS_REG_ID   id,
1013:uCOS-III\Source/os_task.c ****                       OS_ERR     *p_err)
1014:uCOS-III\Source/os_task.c **** {
 687              		.loc 1 1014 0
 688              		.cfi_startproc
 689              		@ args = 0, pretend = 0, frame = 0
 690              		@ frame_needed = 0, uses_anonymous_args = 0
 691              	.LVL92:
 692 0000 70B5     		push	{r4, r5, r6, lr}
 693              		.cfi_def_cfa_offset 16
ARM GAS  C:\Users\jorti\AppData\Local\Temp\ccDtGf1z.s 			page 31


 694              		.cfi_offset 4, -16
 695              		.cfi_offset 5, -12
 696              		.cfi_offset 6, -8
 697              		.cfi_offset 14, -4
 698 0002 1646     		mov	r6, r2
 699              	.LVL93:
1015:uCOS-III\Source/os_task.c ****     OS_REG     value;
1016:uCOS-III\Source/os_task.c ****     CPU_SR_ALLOC();
1017:uCOS-III\Source/os_task.c **** 
1018:uCOS-III\Source/os_task.c **** 
1019:uCOS-III\Source/os_task.c **** 
1020:uCOS-III\Source/os_task.c **** #ifdef OS_SAFETY_CRITICAL
1021:uCOS-III\Source/os_task.c ****     if (p_err == (OS_ERR *)0) {
1022:uCOS-III\Source/os_task.c ****         OS_SAFETY_CRITICAL_EXCEPTION();
1023:uCOS-III\Source/os_task.c ****         return ((OS_REG)0);
1024:uCOS-III\Source/os_task.c ****     }
1025:uCOS-III\Source/os_task.c **** #endif
1026:uCOS-III\Source/os_task.c **** 
1027:uCOS-III\Source/os_task.c **** #if OS_CFG_ARG_CHK_EN > 0u
1028:uCOS-III\Source/os_task.c ****     if (id >= OS_CFG_TASK_REG_TBL_SIZE) {
 700              		.loc 1 1028 0
 701 0004 21B1     		cbz	r1, .L62
1029:uCOS-III\Source/os_task.c ****        *p_err = OS_ERR_REG_ID_INVALID;
 702              		.loc 1 1029 0
 703 0006 46F67913 		movw	r3, #27001
 704 000a 1380     		strh	r3, [r2]	@ movhi
1030:uCOS-III\Source/os_task.c ****         return ((OS_REG)0);
 705              		.loc 1 1030 0
 706 000c 0020     		movs	r0, #0
 707              	.LVL94:
 708 000e 70BD     		pop	{r4, r5, r6, pc}
 709              	.LVL95:
 710              	.L62:
 711 0010 0446     		mov	r4, r0
 712 0012 0D46     		mov	r5, r1
1031:uCOS-III\Source/os_task.c ****     }
1032:uCOS-III\Source/os_task.c **** #endif
1033:uCOS-III\Source/os_task.c **** 
1034:uCOS-III\Source/os_task.c ****     CPU_CRITICAL_ENTER();
 713              		.loc 1 1034 0
 714 0014 FFF7FEFF 		bl	CPU_SR_Save
 715              	.LVL96:
1035:uCOS-III\Source/os_task.c ****     if (p_tcb == (OS_TCB *)0) {
 716              		.loc 1 1035 0
 717 0018 0CB9     		cbnz	r4, .L64
1036:uCOS-III\Source/os_task.c ****         p_tcb = OSTCBCurPtr;
 718              		.loc 1 1036 0
 719 001a 064B     		ldr	r3, .L66
 720 001c 1C68     		ldr	r4, [r3]
 721              	.LVL97:
 722              	.L64:
1037:uCOS-III\Source/os_task.c ****     }
1038:uCOS-III\Source/os_task.c ****     value = p_tcb->RegTbl[id];
 723              		.loc 1 1038 0
 724 001e 1E35     		adds	r5, r5, #30
 725 0020 04EB8504 		add	r4, r4, r5, lsl #2
 726              	.LVL98:
ARM GAS  C:\Users\jorti\AppData\Local\Temp\ccDtGf1z.s 			page 32


 727 0024 6468     		ldr	r4, [r4, #4]
 728              	.LVL99:
1039:uCOS-III\Source/os_task.c ****     CPU_CRITICAL_EXIT();
 729              		.loc 1 1039 0
 730 0026 FFF7FEFF 		bl	CPU_SR_Restore
 731              	.LVL100:
1040:uCOS-III\Source/os_task.c ****    *p_err = OS_ERR_NONE;
 732              		.loc 1 1040 0
 733 002a 0023     		movs	r3, #0
 734 002c 3380     		strh	r3, [r6]	@ movhi
1041:uCOS-III\Source/os_task.c ****     return ((OS_REG)value);
 735              		.loc 1 1041 0
 736 002e 2046     		mov	r0, r4
1042:uCOS-III\Source/os_task.c **** }
 737              		.loc 1 1042 0
 738 0030 70BD     		pop	{r4, r5, r6, pc}
 739              	.LVL101:
 740              	.L67:
 741 0032 00BF     		.align	2
 742              	.L66:
 743 0034 00000000 		.word	OSTCBCurPtr
 744              		.cfi_endproc
 745              	.LFE8:
 746              		.size	OSTaskRegGet, .-OSTaskRegGet
 747              		.section	.text.OSTaskRegGetID,"ax",%progbits
 748              		.align	2
 749              		.global	OSTaskRegGetID
 750              		.thumb
 751              		.thumb_func
 752              		.type	OSTaskRegGetID, %function
 753              	OSTaskRegGetID:
 754              	.LFB9:
1043:uCOS-III\Source/os_task.c **** #endif
1044:uCOS-III\Source/os_task.c **** 
1045:uCOS-III\Source/os_task.c **** /*$PAGE*/
1046:uCOS-III\Source/os_task.c **** /*
1047:uCOS-III\Source/os_task.c **** ***************************************************************************************************
1048:uCOS-III\Source/os_task.c **** *                                    ALLOCATE THE NEXT AVAILABLE TASK REGISTER ID
1049:uCOS-III\Source/os_task.c **** *
1050:uCOS-III\Source/os_task.c **** * Description: This function is called to obtain a task register ID.  This function thus allows tas
1051:uCOS-III\Source/os_task.c **** *              allocated dynamically instead of statically.
1052:uCOS-III\Source/os_task.c **** *
1053:uCOS-III\Source/os_task.c **** * Arguments  : p_err       is a pointer to a variable that will hold an error code related to this 
1054:uCOS-III\Source/os_task.c **** *
1055:uCOS-III\Source/os_task.c **** *                            OS_ERR_NONE               if the call was successful
1056:uCOS-III\Source/os_task.c **** *                            OS_ERR_NO_MORE_ID_AVAIL   if you are attempting to assign more task re
1057:uCOS-III\Source/os_task.c **** *                                                           have available through OS_CFG_TASK_REG_
1058:uCOS-III\Source/os_task.c **** *
1059:uCOS-III\Source/os_task.c **** * Returns    : The next available task register 'id' or OS_CFG_TASK_REG_TBL_SIZE if an error is det
1060:uCOS-III\Source/os_task.c **** ***************************************************************************************************
1061:uCOS-III\Source/os_task.c **** */
1062:uCOS-III\Source/os_task.c **** 
1063:uCOS-III\Source/os_task.c **** #if OS_CFG_TASK_REG_TBL_SIZE > 0u
1064:uCOS-III\Source/os_task.c **** OS_REG_ID  OSTaskRegGetID (OS_ERR  *p_err)
1065:uCOS-III\Source/os_task.c **** {
 755              		.loc 1 1065 0
 756              		.cfi_startproc
ARM GAS  C:\Users\jorti\AppData\Local\Temp\ccDtGf1z.s 			page 33


 757              		@ args = 0, pretend = 0, frame = 0
 758              		@ frame_needed = 0, uses_anonymous_args = 0
 759              	.LVL102:
 760 0000 38B5     		push	{r3, r4, r5, lr}
 761              		.cfi_def_cfa_offset 16
 762              		.cfi_offset 3, -16
 763              		.cfi_offset 4, -12
 764              		.cfi_offset 5, -8
 765              		.cfi_offset 14, -4
 766 0002 0546     		mov	r5, r0
 767              	.LVL103:
1066:uCOS-III\Source/os_task.c ****     OS_REG_ID  id;
1067:uCOS-III\Source/os_task.c ****     CPU_SR_ALLOC();
1068:uCOS-III\Source/os_task.c **** 
1069:uCOS-III\Source/os_task.c **** 
1070:uCOS-III\Source/os_task.c **** 
1071:uCOS-III\Source/os_task.c **** #ifdef OS_SAFETY_CRITICAL
1072:uCOS-III\Source/os_task.c ****     if (p_err == (OS_ERR *)0) {
1073:uCOS-III\Source/os_task.c ****         OS_SAFETY_CRITICAL_EXCEPTION();
1074:uCOS-III\Source/os_task.c ****         return ((OS_REG_ID)OS_CFG_TASK_REG_TBL_SIZE);
1075:uCOS-III\Source/os_task.c ****     }
1076:uCOS-III\Source/os_task.c **** #endif
1077:uCOS-III\Source/os_task.c **** 
1078:uCOS-III\Source/os_task.c ****     CPU_CRITICAL_ENTER();
 768              		.loc 1 1078 0
 769 0004 FFF7FEFF 		bl	CPU_SR_Save
 770              	.LVL104:
1079:uCOS-III\Source/os_task.c ****     if (OSTaskRegNextAvailID >= OS_CFG_TASK_REG_TBL_SIZE) {       /* See if we exceeded the number 
 771              		.loc 1 1079 0
 772 0008 094B     		ldr	r3, .L72
 773 000a 1C78     		ldrb	r4, [r3]	@ zero_extendqisi2
 774 000c 34B1     		cbz	r4, .L69
1080:uCOS-III\Source/os_task.c ****        *p_err = OS_ERR_NO_MORE_ID_AVAIL;                          /* Yes, cannot allocate more task
 775              		.loc 1 1080 0
 776 000e 45F6DA13 		movw	r3, #23002
 777 0012 2B80     		strh	r3, [r5]	@ movhi
1081:uCOS-III\Source/os_task.c ****         CPU_CRITICAL_EXIT();
 778              		.loc 1 1081 0
 779 0014 FFF7FEFF 		bl	CPU_SR_Restore
 780              	.LVL105:
1082:uCOS-III\Source/os_task.c ****         return ((OS_REG_ID)OS_CFG_TASK_REG_TBL_SIZE);
 781              		.loc 1 1082 0
 782 0018 0124     		movs	r4, #1
 783 001a 06E0     		b	.L70
 784              	.LVL106:
 785              	.L69:
1083:uCOS-III\Source/os_task.c ****     }
1084:uCOS-III\Source/os_task.c ****      
1085:uCOS-III\Source/os_task.c ****     id    = OSTaskRegNextAvailID;								  /* Assign the next available ID                     */
1086:uCOS-III\Source/os_task.c ****     OSTaskRegNextAvailID++;										  /* Increment available ID for next request          */
 786              		.loc 1 1086 0
 787 001c 631C     		adds	r3, r4, #1
 788 001e 044A     		ldr	r2, .L72
 789 0020 1370     		strb	r3, [r2]
1087:uCOS-III\Source/os_task.c ****     CPU_CRITICAL_EXIT();
 790              		.loc 1 1087 0
 791 0022 FFF7FEFF 		bl	CPU_SR_Restore
ARM GAS  C:\Users\jorti\AppData\Local\Temp\ccDtGf1z.s 			page 34


 792              	.LVL107:
1088:uCOS-III\Source/os_task.c ****    *p_err = OS_ERR_NONE;
 793              		.loc 1 1088 0
 794 0026 0023     		movs	r3, #0
 795 0028 2B80     		strh	r3, [r5]	@ movhi
 796              	.LVL108:
 797              	.L70:
1089:uCOS-III\Source/os_task.c ****     return (id);
1090:uCOS-III\Source/os_task.c **** }
 798              		.loc 1 1090 0
 799 002a 2046     		mov	r0, r4
 800 002c 38BD     		pop	{r3, r4, r5, pc}
 801              	.LVL109:
 802              	.L73:
 803 002e 00BF     		.align	2
 804              	.L72:
 805 0030 00000000 		.word	OSTaskRegNextAvailID
 806              		.cfi_endproc
 807              	.LFE9:
 808              		.size	OSTaskRegGetID, .-OSTaskRegGetID
 809              		.section	.text.OSTaskRegSet,"ax",%progbits
 810              		.align	2
 811              		.global	OSTaskRegSet
 812              		.thumb
 813              		.thumb_func
 814              		.type	OSTaskRegSet, %function
 815              	OSTaskRegSet:
 816              	.LFB10:
1091:uCOS-III\Source/os_task.c **** #endif
1092:uCOS-III\Source/os_task.c **** 
1093:uCOS-III\Source/os_task.c **** /*$PAGE*/
1094:uCOS-III\Source/os_task.c **** /*
1095:uCOS-III\Source/os_task.c **** ***************************************************************************************************
1096:uCOS-III\Source/os_task.c **** *                                       SET THE CURRENT VALUE OF A TASK REGISTER
1097:uCOS-III\Source/os_task.c **** *
1098:uCOS-III\Source/os_task.c **** * Description: This function is called to change the current value of a task register.  Task regist
1099:uCOS-III\Source/os_task.c **** *              specific and can be used to store task specific values such as 'error numbers' (i.e.
1100:uCOS-III\Source/os_task.c **** *              etc.
1101:uCOS-III\Source/os_task.c **** *
1102:uCOS-III\Source/os_task.c **** * Arguments  : p_tcb     is a pointer to the OS_TCB of the task you want to set the register for.  
1103:uCOS-III\Source/os_task.c **** *                        pointer then you will change the register of the current task.
1104:uCOS-III\Source/os_task.c **** *
1105:uCOS-III\Source/os_task.c **** *              id        is the 'id' of the desired task register.  Note that the 'id' must be less
1106:uCOS-III\Source/os_task.c **** *                        OS_CFG_TASK_REG_TBL_SIZE
1107:uCOS-III\Source/os_task.c **** *
1108:uCOS-III\Source/os_task.c **** *              value     is the desired value for the task register.
1109:uCOS-III\Source/os_task.c **** *
1110:uCOS-III\Source/os_task.c **** *              p_err     is a pointer to a variable that will hold an error code related to this ca
1111:uCOS-III\Source/os_task.c **** *
1112:uCOS-III\Source/os_task.c **** *                            OS_ERR_NONE            if the call was successful
1113:uCOS-III\Source/os_task.c **** *                            OS_ERR_REG_ID_INVALID  if the 'id' is not between 0 and OS_CFG_TASK_RE
1114:uCOS-III\Source/os_task.c **** *
1115:uCOS-III\Source/os_task.c **** * Returns    : none
1116:uCOS-III\Source/os_task.c **** ***************************************************************************************************
1117:uCOS-III\Source/os_task.c **** */
1118:uCOS-III\Source/os_task.c **** 
1119:uCOS-III\Source/os_task.c **** #if OS_CFG_TASK_REG_TBL_SIZE > 0u
ARM GAS  C:\Users\jorti\AppData\Local\Temp\ccDtGf1z.s 			page 35


1120:uCOS-III\Source/os_task.c **** void  OSTaskRegSet (OS_TCB     *p_tcb,
1121:uCOS-III\Source/os_task.c ****                     OS_REG_ID   id,
1122:uCOS-III\Source/os_task.c ****                     OS_REG      value,
1123:uCOS-III\Source/os_task.c ****                     OS_ERR     *p_err)
1124:uCOS-III\Source/os_task.c **** {
 817              		.loc 1 1124 0
 818              		.cfi_startproc
 819              		@ args = 0, pretend = 0, frame = 0
 820              		@ frame_needed = 0, uses_anonymous_args = 0
 821              	.LVL110:
 822 0000 F8B5     		push	{r3, r4, r5, r6, r7, lr}
 823              		.cfi_def_cfa_offset 24
 824              		.cfi_offset 3, -24
 825              		.cfi_offset 4, -20
 826              		.cfi_offset 5, -16
 827              		.cfi_offset 6, -12
 828              		.cfi_offset 7, -8
 829              		.cfi_offset 14, -4
 830 0002 1E46     		mov	r6, r3
 831              	.LVL111:
1125:uCOS-III\Source/os_task.c ****     CPU_SR_ALLOC();
1126:uCOS-III\Source/os_task.c **** 
1127:uCOS-III\Source/os_task.c **** 
1128:uCOS-III\Source/os_task.c **** 
1129:uCOS-III\Source/os_task.c **** #ifdef OS_SAFETY_CRITICAL
1130:uCOS-III\Source/os_task.c ****     if (p_err == (OS_ERR *)0) {
1131:uCOS-III\Source/os_task.c ****         OS_SAFETY_CRITICAL_EXCEPTION();
1132:uCOS-III\Source/os_task.c ****         return;
1133:uCOS-III\Source/os_task.c ****     }
1134:uCOS-III\Source/os_task.c **** #endif
1135:uCOS-III\Source/os_task.c **** 
1136:uCOS-III\Source/os_task.c **** #if OS_CFG_ARG_CHK_EN > 0u
1137:uCOS-III\Source/os_task.c ****     if (id >= OS_CFG_TASK_REG_TBL_SIZE) {
 832              		.loc 1 1137 0
 833 0004 19B1     		cbz	r1, .L75
1138:uCOS-III\Source/os_task.c ****        *p_err = OS_ERR_REG_ID_INVALID;
 834              		.loc 1 1138 0
 835 0006 46F67913 		movw	r3, #27001
 836              	.LVL112:
 837 000a 3380     		strh	r3, [r6]	@ movhi
1139:uCOS-III\Source/os_task.c ****         return;
 838              		.loc 1 1139 0
 839 000c F8BD     		pop	{r3, r4, r5, r6, r7, pc}
 840              	.LVL113:
 841              	.L75:
 842 000e 0446     		mov	r4, r0
 843 0010 1746     		mov	r7, r2
 844 0012 0D46     		mov	r5, r1
1140:uCOS-III\Source/os_task.c ****     }
1141:uCOS-III\Source/os_task.c **** #endif
1142:uCOS-III\Source/os_task.c **** 
1143:uCOS-III\Source/os_task.c ****     CPU_CRITICAL_ENTER();
 845              		.loc 1 1143 0
 846 0014 FFF7FEFF 		bl	CPU_SR_Save
 847              	.LVL114:
1144:uCOS-III\Source/os_task.c ****     if (p_tcb == (OS_TCB *)0) {
 848              		.loc 1 1144 0
ARM GAS  C:\Users\jorti\AppData\Local\Temp\ccDtGf1z.s 			page 36


 849 0018 0CB9     		cbnz	r4, .L77
1145:uCOS-III\Source/os_task.c ****         p_tcb = OSTCBCurPtr;
 850              		.loc 1 1145 0
 851 001a 054B     		ldr	r3, .L79
 852 001c 1C68     		ldr	r4, [r3]
 853              	.LVL115:
 854              	.L77:
1146:uCOS-III\Source/os_task.c ****     }
1147:uCOS-III\Source/os_task.c ****     p_tcb->RegTbl[id] = value;
 855              		.loc 1 1147 0
 856 001e 1E35     		adds	r5, r5, #30
 857 0020 04EB8504 		add	r4, r4, r5, lsl #2
 858              	.LVL116:
 859 0024 6760     		str	r7, [r4, #4]
1148:uCOS-III\Source/os_task.c ****     CPU_CRITICAL_EXIT();
 860              		.loc 1 1148 0
 861 0026 FFF7FEFF 		bl	CPU_SR_Restore
 862              	.LVL117:
1149:uCOS-III\Source/os_task.c ****    *p_err             = OS_ERR_NONE;
 863              		.loc 1 1149 0
 864 002a 0023     		movs	r3, #0
 865 002c 3380     		strh	r3, [r6]	@ movhi
 866 002e F8BD     		pop	{r3, r4, r5, r6, r7, pc}
 867              	.LVL118:
 868              	.L80:
 869              		.align	2
 870              	.L79:
 871 0030 00000000 		.word	OSTCBCurPtr
 872              		.cfi_endproc
 873              	.LFE10:
 874              		.size	OSTaskRegSet, .-OSTaskRegSet
 875              		.section	.text.OSTaskSemPend,"ax",%progbits
 876              		.align	2
 877              		.global	OSTaskSemPend
 878              		.thumb
 879              		.thumb_func
 880              		.type	OSTaskSemPend, %function
 881              	OSTaskSemPend:
 882              	.LFB12:
1150:uCOS-III\Source/os_task.c **** }
1151:uCOS-III\Source/os_task.c **** #endif
1152:uCOS-III\Source/os_task.c **** 
1153:uCOS-III\Source/os_task.c **** /*$PAGE*/
1154:uCOS-III\Source/os_task.c **** /*
1155:uCOS-III\Source/os_task.c **** ***************************************************************************************************
1156:uCOS-III\Source/os_task.c **** *                                               RESUME A SUSPENDED TASK
1157:uCOS-III\Source/os_task.c **** *
1158:uCOS-III\Source/os_task.c **** * Description: This function is called to resume a previously suspended task.  This is the only cal
1159:uCOS-III\Source/os_task.c **** *              explicit task suspension.
1160:uCOS-III\Source/os_task.c **** *
1161:uCOS-III\Source/os_task.c **** * Arguments  : p_tcb      Is a pointer to the task's OS_TCB to resume
1162:uCOS-III\Source/os_task.c **** *
1163:uCOS-III\Source/os_task.c **** *              p_err      Is a pointer to a variable that will contain an error code returned by th
1164:uCOS-III\Source/os_task.c **** *
1165:uCOS-III\Source/os_task.c **** *                             OS_ERR_NONE                  if the requested task is resumed
1166:uCOS-III\Source/os_task.c **** *                             OS_ERR_STATE_INVALID         if the task is in an invalid state
1167:uCOS-III\Source/os_task.c **** *                             OS_ERR_TASK_RESUME_ISR       if you called this function from an ISR
ARM GAS  C:\Users\jorti\AppData\Local\Temp\ccDtGf1z.s 			page 37


1168:uCOS-III\Source/os_task.c **** *                             OS_ERR_TASK_RESUME_SELF      You cannot resume 'self'
1169:uCOS-III\Source/os_task.c **** *                             OS_ERR_TASK_NOT_SUSPENDED    if the task to resume has not been suspe
1170:uCOS-III\Source/os_task.c **** *
1171:uCOS-III\Source/os_task.c **** * Returns    : none
1172:uCOS-III\Source/os_task.c **** ***************************************************************************************************
1173:uCOS-III\Source/os_task.c **** */
1174:uCOS-III\Source/os_task.c **** 
1175:uCOS-III\Source/os_task.c **** #if OS_CFG_TASK_SUSPEND_EN > 0u
1176:uCOS-III\Source/os_task.c **** void  OSTaskResume (OS_TCB  *p_tcb,
1177:uCOS-III\Source/os_task.c ****                     OS_ERR  *p_err)
1178:uCOS-III\Source/os_task.c **** {
1179:uCOS-III\Source/os_task.c ****     CPU_SR_ALLOC();
1180:uCOS-III\Source/os_task.c **** 
1181:uCOS-III\Source/os_task.c **** 
1182:uCOS-III\Source/os_task.c **** 
1183:uCOS-III\Source/os_task.c **** #ifdef OS_SAFETY_CRITICAL
1184:uCOS-III\Source/os_task.c ****     if (p_err == (OS_ERR *)0) {
1185:uCOS-III\Source/os_task.c ****         OS_SAFETY_CRITICAL_EXCEPTION();
1186:uCOS-III\Source/os_task.c ****         return;
1187:uCOS-III\Source/os_task.c ****     }
1188:uCOS-III\Source/os_task.c **** #endif
1189:uCOS-III\Source/os_task.c **** 
1190:uCOS-III\Source/os_task.c **** #if (OS_CFG_ISR_POST_DEFERRED_EN   == 0u) && \
1191:uCOS-III\Source/os_task.c ****     (OS_CFG_CALLED_FROM_ISR_CHK_EN >  0u)
1192:uCOS-III\Source/os_task.c ****     if (OSIntNestingCtr > (OS_NESTING_CTR)0) {              /* Not allowed to call from an ISR     
1193:uCOS-III\Source/os_task.c ****        *p_err = OS_ERR_TASK_RESUME_ISR;
1194:uCOS-III\Source/os_task.c ****         return;
1195:uCOS-III\Source/os_task.c ****     }
1196:uCOS-III\Source/os_task.c **** #endif
1197:uCOS-III\Source/os_task.c **** 
1198:uCOS-III\Source/os_task.c **** 
1199:uCOS-III\Source/os_task.c ****     CPU_CRITICAL_ENTER();
1200:uCOS-III\Source/os_task.c **** #if OS_CFG_ARG_CHK_EN > 0u
1201:uCOS-III\Source/os_task.c ****     if ((p_tcb == (OS_TCB *)0) ||                           /* We cannot resume 'self'             
1202:uCOS-III\Source/os_task.c ****         (p_tcb == OSTCBCurPtr)) {
1203:uCOS-III\Source/os_task.c ****         CPU_CRITICAL_EXIT();
1204:uCOS-III\Source/os_task.c ****        *p_err  = OS_ERR_TASK_RESUME_SELF;
1205:uCOS-III\Source/os_task.c ****         return;
1206:uCOS-III\Source/os_task.c ****     }
1207:uCOS-III\Source/os_task.c **** #endif
1208:uCOS-III\Source/os_task.c ****     CPU_CRITICAL_EXIT();
1209:uCOS-III\Source/os_task.c **** 
1210:uCOS-III\Source/os_task.c **** #if OS_CFG_ISR_POST_DEFERRED_EN > 0u
1211:uCOS-III\Source/os_task.c ****     if (OSIntNestingCtr > (OS_NESTING_CTR)0) {              /* See if called from an ISR           
1212:uCOS-III\Source/os_task.c ****         OS_IntQPost((OS_OBJ_TYPE)OS_OBJ_TYPE_TASK_RESUME,   /* Post to ISR queue                   
1213:uCOS-III\Source/os_task.c ****                     (void      *)p_tcb,
1214:uCOS-III\Source/os_task.c ****                     (void      *)0,
1215:uCOS-III\Source/os_task.c ****                     (OS_MSG_SIZE)0,
1216:uCOS-III\Source/os_task.c ****                     (OS_FLAGS   )0,
1217:uCOS-III\Source/os_task.c ****                     (OS_OPT     )0,
1218:uCOS-III\Source/os_task.c ****                     (CPU_TS     )0,
1219:uCOS-III\Source/os_task.c ****                     (OS_ERR    *)p_err);
1220:uCOS-III\Source/os_task.c ****         return;
1221:uCOS-III\Source/os_task.c ****     }
1222:uCOS-III\Source/os_task.c **** #endif
1223:uCOS-III\Source/os_task.c **** 
1224:uCOS-III\Source/os_task.c ****     OS_TaskResume(p_tcb, p_err);
ARM GAS  C:\Users\jorti\AppData\Local\Temp\ccDtGf1z.s 			page 38


1225:uCOS-III\Source/os_task.c **** }
1226:uCOS-III\Source/os_task.c **** #endif
1227:uCOS-III\Source/os_task.c **** 
1228:uCOS-III\Source/os_task.c **** /*$PAGE*/
1229:uCOS-III\Source/os_task.c **** /*
1230:uCOS-III\Source/os_task.c **** ***************************************************************************************************
1231:uCOS-III\Source/os_task.c **** *                                              WAIT FOR A TASK SEMAPHORE
1232:uCOS-III\Source/os_task.c **** *
1233:uCOS-III\Source/os_task.c **** * Description: This function is called to block the current task until a signal is sent by another 
1234:uCOS-III\Source/os_task.c **** *
1235:uCOS-III\Source/os_task.c **** * Arguments  : timeout       is the amount of time you are will to wait for the signal
1236:uCOS-III\Source/os_task.c **** *
1237:uCOS-III\Source/os_task.c **** *              opt           determines whether the user wants to block if a semaphore post was not
1238:uCOS-III\Source/os_task.c **** *
1239:uCOS-III\Source/os_task.c **** *                                OS_OPT_PEND_BLOCKING
1240:uCOS-III\Source/os_task.c **** *                                OS_OPT_PEND_NON_BLOCKING
1241:uCOS-III\Source/os_task.c **** *
1242:uCOS-III\Source/os_task.c **** *              p_ts          is a pointer to a variable that will receive the timestamp of when the
1243:uCOS-III\Source/os_task.c **** *                            or pend aborted.  If you pass a NULL pointer (i.e. (CPU_TS *)0) then y
1244:uCOS-III\Source/os_task.c **** *                            timestamp.  In other words, passing a NULL pointer is valid and indica
1245:uCOS-III\Source/os_task.c **** *                            need the timestamp.
1246:uCOS-III\Source/os_task.c **** *
1247:uCOS-III\Source/os_task.c **** *              p_err         is a pointer to an error code that will be set by this function
1248:uCOS-III\Source/os_task.c **** *
1249:uCOS-III\Source/os_task.c **** *                                OS_ERR_NONE               The call was successful and your task re
1250:uCOS-III\Source/os_task.c **** *                                OS_ERR_PEND_ABORT
1251:uCOS-III\Source/os_task.c **** *                                OS_ERR_PEND_ISR           If you called this function from an ISR 
1252:uCOS-III\Source/os_task.c **** *                                OS_ERR_PEND_WOULD_BLOCK   If you specified non-blocking but no sig
1253:uCOS-III\Source/os_task.c **** *                                OS_ERR_SCHED_LOCKED       If the scheduler is locked
1254:uCOS-III\Source/os_task.c **** *                                OS_ERR_STATUS_INVALID     If the pend status is invalid
1255:uCOS-III\Source/os_task.c **** *                                OS_ERR_TIMEOUT            A message was not received within the sp
1256:uCOS-III\Source/os_task.c **** *                                                          would lead to a suspension.
1257:uCOS-III\Source/os_task.c **** *
1258:uCOS-III\Source/os_task.c **** * Returns    : The current count of signals the task received, 0 if none.
1259:uCOS-III\Source/os_task.c **** ***************************************************************************************************
1260:uCOS-III\Source/os_task.c **** */
1261:uCOS-III\Source/os_task.c **** 
1262:uCOS-III\Source/os_task.c **** OS_SEM_CTR  OSTaskSemPend (OS_TICK   timeout,
1263:uCOS-III\Source/os_task.c ****                            OS_OPT    opt,
1264:uCOS-III\Source/os_task.c ****                            CPU_TS   *p_ts,
1265:uCOS-III\Source/os_task.c ****                            OS_ERR   *p_err)
1266:uCOS-III\Source/os_task.c **** {
 883              		.loc 1 1266 0
 884              		.cfi_startproc
 885              		@ args = 0, pretend = 0, frame = 0
 886              		@ frame_needed = 0, uses_anonymous_args = 0
 887              	.LVL119:
 888 0000 2DE9F843 		push	{r3, r4, r5, r6, r7, r8, r9, lr}
 889              		.cfi_def_cfa_offset 32
 890              		.cfi_offset 3, -32
 891              		.cfi_offset 4, -28
 892              		.cfi_offset 5, -24
 893              		.cfi_offset 6, -20
 894              		.cfi_offset 7, -16
 895              		.cfi_offset 8, -12
 896              		.cfi_offset 9, -8
 897              		.cfi_offset 14, -4
ARM GAS  C:\Users\jorti\AppData\Local\Temp\ccDtGf1z.s 			page 39


 898              	.LVL120:
1267:uCOS-III\Source/os_task.c ****     OS_SEM_CTR    ctr;
1268:uCOS-III\Source/os_task.c ****     CPU_SR_ALLOC();
1269:uCOS-III\Source/os_task.c **** 
1270:uCOS-III\Source/os_task.c **** 
1271:uCOS-III\Source/os_task.c **** 
1272:uCOS-III\Source/os_task.c **** #ifdef OS_SAFETY_CRITICAL
1273:uCOS-III\Source/os_task.c ****     if (p_err == (OS_ERR *)0) {
1274:uCOS-III\Source/os_task.c ****         OS_SAFETY_CRITICAL_EXCEPTION();
1275:uCOS-III\Source/os_task.c ****         return ((OS_SEM_CTR)0);
1276:uCOS-III\Source/os_task.c ****     }
1277:uCOS-III\Source/os_task.c **** #endif
1278:uCOS-III\Source/os_task.c **** 
1279:uCOS-III\Source/os_task.c **** #if OS_CFG_CALLED_FROM_ISR_CHK_EN > 0u
1280:uCOS-III\Source/os_task.c ****     if (OSIntNestingCtr > (OS_NESTING_CTR)0) {              /* Not allowed to call from an ISR     
 899              		.loc 1 1280 0
 900 0004 474C     		ldr	r4, .L102
 901 0006 2478     		ldrb	r4, [r4]	@ zero_extendqisi2
 902 0008 24B1     		cbz	r4, .L82
1281:uCOS-III\Source/os_task.c ****        *p_err = OS_ERR_PEND_ISR;
 903              		.loc 1 1281 0
 904 000a 46F2AE12 		movw	r2, #25006
 905              	.LVL121:
 906 000e 1A80     		strh	r2, [r3]	@ movhi
1282:uCOS-III\Source/os_task.c ****         return ((OS_SEM_CTR)0);
 907              		.loc 1 1282 0
 908 0010 0024     		movs	r4, #0
 909 0012 84E0     		b	.L83
 910              	.LVL122:
 911              	.L82:
1283:uCOS-III\Source/os_task.c ****     }
1284:uCOS-III\Source/os_task.c **** #endif
1285:uCOS-III\Source/os_task.c **** 
1286:uCOS-III\Source/os_task.c **** #if OS_CFG_ARG_CHK_EN > 0u
1287:uCOS-III\Source/os_task.c ****     switch (opt) {                                          /* Validate 'opt'                      
 912              		.loc 1 1287 0
 913 0014 39B1     		cbz	r1, .L85
 914 0016 B1F5004F 		cmp	r1, #32768
 915 001a 04D0     		beq	.L85
1288:uCOS-III\Source/os_task.c ****         case OS_OPT_PEND_BLOCKING:
1289:uCOS-III\Source/os_task.c ****         case OS_OPT_PEND_NON_BLOCKING:
1290:uCOS-III\Source/os_task.c ****              break;
1291:uCOS-III\Source/os_task.c **** 
1292:uCOS-III\Source/os_task.c ****         default:
1293:uCOS-III\Source/os_task.c ****             *p_err = OS_ERR_OPT_INVALID;
 916              		.loc 1 1293 0
 917 001c 45F62562 		movw	r2, #24101
 918              	.LVL123:
 919 0020 1A80     		strh	r2, [r3]	@ movhi
1294:uCOS-III\Source/os_task.c ****              return ((OS_SEM_CTR)0);
 920              		.loc 1 1294 0
 921 0022 0024     		movs	r4, #0
 922 0024 7BE0     		b	.L83
 923              	.LVL124:
 924              	.L85:
1295:uCOS-III\Source/os_task.c ****     }
1296:uCOS-III\Source/os_task.c **** #endif
ARM GAS  C:\Users\jorti\AppData\Local\Temp\ccDtGf1z.s 			page 40


1297:uCOS-III\Source/os_task.c **** 
1298:uCOS-III\Source/os_task.c ****     if (p_ts != (CPU_TS *)0) {
 925              		.loc 1 1298 0
 926 0026 0AB1     		cbz	r2, .L86
1299:uCOS-III\Source/os_task.c ****        *p_ts  = (CPU_TS  )0;                                /* Initialize the returned timestamp   
 927              		.loc 1 1299 0
 928 0028 0024     		movs	r4, #0
 929 002a 1460     		str	r4, [r2]
 930              	.L86:
 931 002c 1F46     		mov	r7, r3
 932 002e 1646     		mov	r6, r2
 933 0030 0D46     		mov	r5, r1
 934 0032 8046     		mov	r8, r0
1300:uCOS-III\Source/os_task.c ****     }
1301:uCOS-III\Source/os_task.c **** 
1302:uCOS-III\Source/os_task.c ****     CPU_CRITICAL_ENTER();
 935              		.loc 1 1302 0
 936 0034 FFF7FEFF 		bl	CPU_SR_Save
 937              	.LVL125:
 938 0038 8146     		mov	r9, r0
 939              	.LVL126:
1303:uCOS-III\Source/os_task.c ****     if (OSTCBCurPtr->SemCtr > (OS_SEM_CTR)0) {              /* See if task already been signaled   
 940              		.loc 1 1303 0
 941 003a 3B4B     		ldr	r3, .L102+4
 942 003c 1B68     		ldr	r3, [r3]
 943 003e 5C6C     		ldr	r4, [r3, #68]
 944 0040 C4B1     		cbz	r4, .L87
1304:uCOS-III\Source/os_task.c ****         OSTCBCurPtr->SemCtr--;
 945              		.loc 1 1304 0
 946 0042 013C     		subs	r4, r4, #1
 947 0044 5C64     		str	r4, [r3, #68]
 948              	.LVL127:
1305:uCOS-III\Source/os_task.c ****         ctr    = OSTCBCurPtr->SemCtr;
1306:uCOS-III\Source/os_task.c ****         if (p_ts != (CPU_TS *)0) {
 949              		.loc 1 1306 0
 950 0046 0EB1     		cbz	r6, .L88
1307:uCOS-III\Source/os_task.c ****            *p_ts  = OSTCBCurPtr->TS;
 951              		.loc 1 1307 0
 952 0048 1B6C     		ldr	r3, [r3, #64]
 953 004a 3360     		str	r3, [r6]
 954              	.L88:
1308:uCOS-III\Source/os_task.c ****         }
1309:uCOS-III\Source/os_task.c **** #if OS_CFG_TASK_PROFILE_EN > 0u
1310:uCOS-III\Source/os_task.c ****         OSTCBCurPtr->SemPendTime = OS_TS_GET() - OSTCBCurPtr->TS;
 955              		.loc 1 1310 0
 956 004c FFF7FEFF 		bl	CPU_TS_TmrRd
 957              	.LVL128:
 958 0050 354B     		ldr	r3, .L102+4
 959 0052 1A68     		ldr	r2, [r3]
 960 0054 136C     		ldr	r3, [r2, #64]
 961 0056 C01A     		subs	r0, r0, r3
 962 0058 C2F8A400 		str	r0, [r2, #164]
1311:uCOS-III\Source/os_task.c ****         if (OSTCBCurPtr->SemPendTimeMax < OSTCBCurPtr->SemPendTime) {
 963              		.loc 1 1311 0
 964 005c D2F8A830 		ldr	r3, [r2, #168]
 965 0060 9842     		cmp	r0, r3
 966 0062 01D9     		bls	.L89
ARM GAS  C:\Users\jorti\AppData\Local\Temp\ccDtGf1z.s 			page 41


1312:uCOS-III\Source/os_task.c ****             OSTCBCurPtr->SemPendTimeMax = OSTCBCurPtr->SemPendTime;
 967              		.loc 1 1312 0
 968 0064 C2F8A800 		str	r0, [r2, #168]
 969              	.L89:
1313:uCOS-III\Source/os_task.c ****         }
1314:uCOS-III\Source/os_task.c **** #endif
1315:uCOS-III\Source/os_task.c ****         CPU_CRITICAL_EXIT();
 970              		.loc 1 1315 0
 971 0068 4846     		mov	r0, r9
 972 006a FFF7FEFF 		bl	CPU_SR_Restore
 973              	.LVL129:
1316:uCOS-III\Source/os_task.c ****        *p_err = OS_ERR_NONE;
 974              		.loc 1 1316 0
 975 006e 0023     		movs	r3, #0
 976 0070 3B80     		strh	r3, [r7]	@ movhi
1317:uCOS-III\Source/os_task.c ****         return (ctr);
 977              		.loc 1 1317 0
 978 0072 54E0     		b	.L83
 979              	.LVL130:
 980              	.L87:
1318:uCOS-III\Source/os_task.c ****     }
1319:uCOS-III\Source/os_task.c **** 
1320:uCOS-III\Source/os_task.c ****     if ((opt & OS_OPT_PEND_NON_BLOCKING) != (OS_OPT)0) {    /* Caller wants to block if not availab
 981              		.loc 1 1320 0
 982 0074 15F4004F 		tst	r5, #32768
 983 0078 05D0     		beq	.L90
1321:uCOS-III\Source/os_task.c ****         CPU_CRITICAL_EXIT();
 984              		.loc 1 1321 0
 985 007a FFF7FEFF 		bl	CPU_SR_Restore
 986              	.LVL131:
1322:uCOS-III\Source/os_task.c ****        *p_err = OS_ERR_PEND_WOULD_BLOCK;                    /* No                                  
 987              		.loc 1 1322 0
 988 007e 46F2B013 		movw	r3, #25008
 989 0082 3B80     		strh	r3, [r7]	@ movhi
1323:uCOS-III\Source/os_task.c ****         return ((OS_SEM_CTR)0);
 990              		.loc 1 1323 0
 991 0084 4BE0     		b	.L83
 992              	.LVL132:
 993              	.L90:
1324:uCOS-III\Source/os_task.c ****     } else {                                                /* Yes                                 
1325:uCOS-III\Source/os_task.c ****         if (OSSchedLockNestingCtr > (OS_NESTING_CTR)0) {    /* Can't pend when the scheduler is loc
 994              		.loc 1 1325 0
 995 0086 294B     		ldr	r3, .L102+8
 996 0088 1B78     		ldrb	r3, [r3]	@ zero_extendqisi2
 997 008a 2BB1     		cbz	r3, .L91
1326:uCOS-III\Source/os_task.c ****             CPU_CRITICAL_EXIT();
 998              		.loc 1 1326 0
 999 008c FFF7FEFF 		bl	CPU_SR_Restore
 1000              	.LVL133:
1327:uCOS-III\Source/os_task.c ****            *p_err = OS_ERR_SCHED_LOCKED;
 1001              		.loc 1 1327 0
 1002 0090 46F66353 		movw	r3, #28003
 1003 0094 3B80     		strh	r3, [r7]	@ movhi
1328:uCOS-III\Source/os_task.c ****             return ((OS_SEM_CTR)0);
 1004              		.loc 1 1328 0
 1005 0096 42E0     		b	.L83
 1006              	.LVL134:
ARM GAS  C:\Users\jorti\AppData\Local\Temp\ccDtGf1z.s 			page 42


 1007              	.L91:
1329:uCOS-III\Source/os_task.c ****         }
1330:uCOS-III\Source/os_task.c ****     }
1331:uCOS-III\Source/os_task.c ****                                                             /* Lock the scheduler/re-enable interru
1332:uCOS-III\Source/os_task.c ****     OS_CRITICAL_ENTER_CPU_EXIT();                           
1333:uCOS-III\Source/os_task.c ****     OS_Pend((OS_PEND_DATA *)0,                              /* Block task pending on Signal        
 1008              		.loc 1 1333 0
 1009 0098 4346     		mov	r3, r8
 1010 009a 0722     		movs	r2, #7
 1011 009c 0021     		movs	r1, #0
 1012 009e 0846     		mov	r0, r1
 1013              	.LVL135:
 1014 00a0 FFF7FEFF 		bl	OS_Pend
 1015              	.LVL136:
1334:uCOS-III\Source/os_task.c ****             (OS_PEND_OBJ  *)0,
1335:uCOS-III\Source/os_task.c ****             (OS_STATE      )OS_TASK_PEND_ON_TASK_SEM,
1336:uCOS-III\Source/os_task.c ****             (OS_TICK       )timeout);
1337:uCOS-III\Source/os_task.c ****     OS_CRITICAL_EXIT_NO_SCHED();
 1016              		.loc 1 1337 0
 1017 00a4 4846     		mov	r0, r9
 1018 00a6 FFF7FEFF 		bl	CPU_SR_Restore
 1019              	.LVL137:
1338:uCOS-III\Source/os_task.c **** 
1339:uCOS-III\Source/os_task.c ****     OSSched();                                              /* Find next highest priority task read
 1020              		.loc 1 1339 0
 1021 00aa FFF7FEFF 		bl	OSSched
 1022              	.LVL138:
1340:uCOS-III\Source/os_task.c **** 
1341:uCOS-III\Source/os_task.c ****     CPU_CRITICAL_ENTER();
 1023              		.loc 1 1341 0
 1024 00ae FFF7FEFF 		bl	CPU_SR_Save
 1025              	.LVL139:
 1026 00b2 0546     		mov	r5, r0
 1027              	.LVL140:
1342:uCOS-III\Source/os_task.c ****     switch (OSTCBCurPtr->PendStatus) {                      /* See if we timed-out or aborted      
 1028              		.loc 1 1342 0
 1029 00b4 1C4B     		ldr	r3, .L102+4
 1030 00b6 1A68     		ldr	r2, [r3]
 1031 00b8 92F83530 		ldrb	r3, [r2, #53]	@ zero_extendqisi2
 1032 00bc 012B     		cmp	r3, #1
 1033 00be 17D0     		beq	.L93
 1034 00c0 13B1     		cbz	r3, .L94
 1035 00c2 032B     		cmp	r3, #3
 1036 00c4 1BD0     		beq	.L95
 1037 00c6 21E0     		b	.L100
 1038              	.L94:
1343:uCOS-III\Source/os_task.c ****         case OS_STATUS_PEND_OK:
1344:uCOS-III\Source/os_task.c ****              if (p_ts != (CPU_TS *)0) {
 1039              		.loc 1 1344 0
 1040 00c8 7EB1     		cbz	r6, .L96
1345:uCOS-III\Source/os_task.c ****                 *p_ts                    =  OSTCBCurPtr->TS;
 1041              		.loc 1 1345 0
 1042 00ca 136C     		ldr	r3, [r2, #64]
 1043 00cc 3360     		str	r3, [r6]
1346:uCOS-III\Source/os_task.c **** #if OS_CFG_TASK_PROFILE_EN > 0u
1347:uCOS-III\Source/os_task.c ****                 OSTCBCurPtr->SemPendTime = OS_TS_GET() - OSTCBCurPtr->TS;
 1044              		.loc 1 1347 0
ARM GAS  C:\Users\jorti\AppData\Local\Temp\ccDtGf1z.s 			page 43


 1045 00ce FFF7FEFF 		bl	CPU_TS_TmrRd
 1046              	.LVL141:
 1047 00d2 154B     		ldr	r3, .L102+4
 1048 00d4 1A68     		ldr	r2, [r3]
 1049 00d6 136C     		ldr	r3, [r2, #64]
 1050 00d8 C01A     		subs	r0, r0, r3
 1051 00da C2F8A400 		str	r0, [r2, #164]
1348:uCOS-III\Source/os_task.c ****                 if (OSTCBCurPtr->SemPendTimeMax < OSTCBCurPtr->SemPendTime) {
 1052              		.loc 1 1348 0
 1053 00de D2F8A830 		ldr	r3, [r2, #168]
 1054 00e2 9842     		cmp	r0, r3
 1055 00e4 01D9     		bls	.L96
1349:uCOS-III\Source/os_task.c ****                     OSTCBCurPtr->SemPendTimeMax = OSTCBCurPtr->SemPendTime;
 1056              		.loc 1 1349 0
 1057 00e6 C2F8A800 		str	r0, [r2, #168]
 1058              	.L96:
1350:uCOS-III\Source/os_task.c ****                 }
1351:uCOS-III\Source/os_task.c **** #endif
1352:uCOS-III\Source/os_task.c ****              }
1353:uCOS-III\Source/os_task.c ****             *p_err = OS_ERR_NONE;
 1059              		.loc 1 1353 0
 1060 00ea 0023     		movs	r3, #0
 1061 00ec 3B80     		strh	r3, [r7]	@ movhi
1354:uCOS-III\Source/os_task.c ****              break;
 1062              		.loc 1 1354 0
 1063 00ee 10E0     		b	.L97
 1064              	.LVL142:
 1065              	.L93:
1355:uCOS-III\Source/os_task.c **** 
1356:uCOS-III\Source/os_task.c ****         case OS_STATUS_PEND_ABORT:
1357:uCOS-III\Source/os_task.c ****              if (p_ts != (CPU_TS *)0) {
 1066              		.loc 1 1357 0
 1067 00f0 0EB1     		cbz	r6, .L98
1358:uCOS-III\Source/os_task.c ****                 *p_ts  =  OSTCBCurPtr->TS;
 1068              		.loc 1 1358 0
 1069 00f2 136C     		ldr	r3, [r2, #64]
 1070 00f4 3360     		str	r3, [r6]
 1071              	.L98:
1359:uCOS-III\Source/os_task.c ****              }
1360:uCOS-III\Source/os_task.c ****             *p_err = OS_ERR_PEND_ABORT;                     /* Indicate that we aborted            
 1072              		.loc 1 1360 0
 1073 00f6 46F2A913 		movw	r3, #25001
 1074 00fa 3B80     		strh	r3, [r7]	@ movhi
1361:uCOS-III\Source/os_task.c ****              break;
 1075              		.loc 1 1361 0
 1076 00fc 09E0     		b	.L97
 1077              	.L95:
1362:uCOS-III\Source/os_task.c **** 
1363:uCOS-III\Source/os_task.c ****         case OS_STATUS_PEND_TIMEOUT:
1364:uCOS-III\Source/os_task.c ****              if (p_ts != (CPU_TS *)0) {
 1078              		.loc 1 1364 0
 1079 00fe 0EB1     		cbz	r6, .L99
1365:uCOS-III\Source/os_task.c ****                 *p_ts  = (CPU_TS  )0;
 1080              		.loc 1 1365 0
 1081 0100 0023     		movs	r3, #0
 1082 0102 3360     		str	r3, [r6]
 1083              	.L99:
ARM GAS  C:\Users\jorti\AppData\Local\Temp\ccDtGf1z.s 			page 44


1366:uCOS-III\Source/os_task.c ****              }
1367:uCOS-III\Source/os_task.c ****             *p_err = OS_ERR_TIMEOUT;                        /* Indicate that we didn't get event wi
 1084              		.loc 1 1367 0
 1085 0104 47F2D923 		movw	r3, #29401
 1086 0108 3B80     		strh	r3, [r7]	@ movhi
1368:uCOS-III\Source/os_task.c ****              break;
 1087              		.loc 1 1368 0
 1088 010a 02E0     		b	.L97
 1089              	.L100:
1369:uCOS-III\Source/os_task.c **** 
1370:uCOS-III\Source/os_task.c ****         default:
1371:uCOS-III\Source/os_task.c ****             *p_err = OS_ERR_STATUS_INVALID;
 1090              		.loc 1 1371 0
 1091 010c 46F62E63 		movw	r3, #28206
 1092 0110 3B80     		strh	r3, [r7]	@ movhi
 1093              	.LVL143:
 1094              	.L97:
1372:uCOS-III\Source/os_task.c ****              break;
1373:uCOS-III\Source/os_task.c ****     }
1374:uCOS-III\Source/os_task.c ****     ctr = OSTCBCurPtr->SemCtr;
 1095              		.loc 1 1374 0
 1096 0112 054B     		ldr	r3, .L102+4
 1097 0114 1B68     		ldr	r3, [r3]
 1098 0116 5C6C     		ldr	r4, [r3, #68]
 1099              	.LVL144:
1375:uCOS-III\Source/os_task.c ****     CPU_CRITICAL_EXIT();
 1100              		.loc 1 1375 0
 1101 0118 2846     		mov	r0, r5
 1102 011a FFF7FEFF 		bl	CPU_SR_Restore
 1103              	.LVL145:
 1104              	.L83:
1376:uCOS-III\Source/os_task.c ****     return (ctr);
1377:uCOS-III\Source/os_task.c **** }
 1105              		.loc 1 1377 0
 1106 011e 2046     		mov	r0, r4
 1107 0120 BDE8F883 		pop	{r3, r4, r5, r6, r7, r8, r9, pc}
 1108              	.L103:
 1109              		.align	2
 1110              	.L102:
 1111 0124 00000000 		.word	OSIntNestingCtr
 1112 0128 00000000 		.word	OSTCBCurPtr
 1113 012c 00000000 		.word	OSSchedLockNestingCtr
 1114              		.cfi_endproc
 1115              	.LFE12:
 1116              		.size	OSTaskSemPend, .-OSTaskSemPend
 1117              		.section	.text.OSTaskSemPendAbort,"ax",%progbits
 1118              		.align	2
 1119              		.global	OSTaskSemPendAbort
 1120              		.thumb
 1121              		.thumb_func
 1122              		.type	OSTaskSemPendAbort, %function
 1123              	OSTaskSemPendAbort:
 1124              	.LFB13:
1378:uCOS-III\Source/os_task.c **** 
1379:uCOS-III\Source/os_task.c **** /*$PAGE*/
1380:uCOS-III\Source/os_task.c **** /*
1381:uCOS-III\Source/os_task.c **** ***************************************************************************************************
ARM GAS  C:\Users\jorti\AppData\Local\Temp\ccDtGf1z.s 			page 45


1382:uCOS-III\Source/os_task.c **** *                                               ABORT WAITING FOR A SIGNAL
1383:uCOS-III\Source/os_task.c **** *
1384:uCOS-III\Source/os_task.c **** * Description: This function aborts & readies the task specified.  This function should be used to 
1385:uCOS-III\Source/os_task.c **** *              for a signal, rather than to normally post the signal to the task via OSTaskSemPost(
1386:uCOS-III\Source/os_task.c **** *
1387:uCOS-III\Source/os_task.c **** * Arguments  : p_tcb     is a pointer to the task to pend abort
1388:uCOS-III\Source/os_task.c **** *
1389:uCOS-III\Source/os_task.c **** *              opt       provides options for this function:
1390:uCOS-III\Source/os_task.c **** *
1391:uCOS-III\Source/os_task.c **** *                            OS_OPT_POST_NONE         No option selected
1392:uCOS-III\Source/os_task.c **** *                            OS_OPT_POST_NO_SCHED     Indicates that the scheduler will not be call
1393:uCOS-III\Source/os_task.c **** *
1394:uCOS-III\Source/os_task.c **** *              p_err     is a pointer to a variable that will contain an error code returned by thi
1395:uCOS-III\Source/os_task.c **** *
1396:uCOS-III\Source/os_task.c **** *                            OS_ERR_NONE              If the task was readied and informed of the a
1397:uCOS-III\Source/os_task.c **** *                            OS_ERR_PEND_ABORT_ISR    If you tried calling this function from an IS
1398:uCOS-III\Source/os_task.c **** *                            OS_ERR_PEND_ABORT_NONE   If the task was not waiting for a signal
1399:uCOS-III\Source/os_task.c **** *                            OS_ERR_PEND_ABORT_SELF   If you attempted to pend abort the calling ta
1400:uCOS-III\Source/os_task.c **** *                                                     possible since the calling task cannot be pen
1401:uCOS-III\Source/os_task.c **** *                                                     running.
1402:uCOS-III\Source/os_task.c **** *
1403:uCOS-III\Source/os_task.c **** * Returns    : == DEF_FALSE   if task was not waiting for a message, or upon error.
1404:uCOS-III\Source/os_task.c **** *              == DEF_TRUE    if task was waiting for a message and was readied and informed.
1405:uCOS-III\Source/os_task.c **** ***************************************************************************************************
1406:uCOS-III\Source/os_task.c **** */
1407:uCOS-III\Source/os_task.c **** 
1408:uCOS-III\Source/os_task.c **** #if OS_CFG_TASK_SEM_PEND_ABORT_EN > 0u
1409:uCOS-III\Source/os_task.c **** CPU_BOOLEAN  OSTaskSemPendAbort (OS_TCB  *p_tcb,
1410:uCOS-III\Source/os_task.c ****                                  OS_OPT   opt,
1411:uCOS-III\Source/os_task.c ****                                  OS_ERR  *p_err)
1412:uCOS-III\Source/os_task.c **** {
 1125              		.loc 1 1412 0
 1126              		.cfi_startproc
 1127              		@ args = 0, pretend = 0, frame = 0
 1128              		@ frame_needed = 0, uses_anonymous_args = 0
 1129              	.LVL146:
 1130 0000 F8B5     		push	{r3, r4, r5, r6, r7, lr}
 1131              		.cfi_def_cfa_offset 24
 1132              		.cfi_offset 3, -24
 1133              		.cfi_offset 4, -20
 1134              		.cfi_offset 5, -16
 1135              		.cfi_offset 6, -12
 1136              		.cfi_offset 7, -8
 1137              		.cfi_offset 14, -4
 1138              	.LVL147:
1413:uCOS-III\Source/os_task.c ****     CPU_TS         ts;
1414:uCOS-III\Source/os_task.c ****     CPU_SR_ALLOC();
1415:uCOS-III\Source/os_task.c **** 
1416:uCOS-III\Source/os_task.c **** 
1417:uCOS-III\Source/os_task.c **** 
1418:uCOS-III\Source/os_task.c **** #ifdef OS_SAFETY_CRITICAL
1419:uCOS-III\Source/os_task.c ****     if (p_err == (OS_ERR *)0) {
1420:uCOS-III\Source/os_task.c ****         OS_SAFETY_CRITICAL_EXCEPTION();
1421:uCOS-III\Source/os_task.c ****         return (DEF_FALSE);
1422:uCOS-III\Source/os_task.c ****     }
1423:uCOS-III\Source/os_task.c **** #endif
1424:uCOS-III\Source/os_task.c **** 
ARM GAS  C:\Users\jorti\AppData\Local\Temp\ccDtGf1z.s 			page 46


1425:uCOS-III\Source/os_task.c **** #if OS_CFG_CALLED_FROM_ISR_CHK_EN > 0u
1426:uCOS-III\Source/os_task.c ****     if (OSIntNestingCtr > (OS_NESTING_CTR)0) {              /* See if called from ISR ...          
 1139              		.loc 1 1426 0
 1140 0002 214B     		ldr	r3, .L114
 1141 0004 1C78     		ldrb	r4, [r3]	@ zero_extendqisi2
 1142 0006 24B1     		cbz	r4, .L105
1427:uCOS-III\Source/os_task.c ****        *p_err = OS_ERR_PEND_ABORT_ISR;                      /* ... can't Pend Abort from an ISR    
 1143              		.loc 1 1427 0
 1144 0008 46F2AA13 		movw	r3, #25002
 1145 000c 1380     		strh	r3, [r2]	@ movhi
1428:uCOS-III\Source/os_task.c ****         return (DEF_FALSE);
 1146              		.loc 1 1428 0
 1147 000e 0024     		movs	r4, #0
 1148 0010 38E0     		b	.L106
 1149              	.L105:
1429:uCOS-III\Source/os_task.c ****     }
1430:uCOS-III\Source/os_task.c **** #endif
1431:uCOS-III\Source/os_task.c **** 
1432:uCOS-III\Source/os_task.c **** #if OS_CFG_ARG_CHK_EN > 0u
1433:uCOS-III\Source/os_task.c ****     switch (opt) {                                          /* Validate 'opt'                      
 1150              		.loc 1 1433 0
 1151 0012 31B1     		cbz	r1, .L108
 1152 0014 B1F5004F 		cmp	r1, #32768
 1153 0018 03D0     		beq	.L108
1434:uCOS-III\Source/os_task.c ****         case OS_OPT_POST_NONE:
1435:uCOS-III\Source/os_task.c ****         case OS_OPT_POST_NO_SCHED:
1436:uCOS-III\Source/os_task.c ****              break;
1437:uCOS-III\Source/os_task.c **** 
1438:uCOS-III\Source/os_task.c ****         default:
1439:uCOS-III\Source/os_task.c ****             *p_err =  OS_ERR_OPT_INVALID;
 1154              		.loc 1 1439 0
 1155 001a 45F62563 		movw	r3, #24101
 1156 001e 1380     		strh	r3, [r2]	@ movhi
1440:uCOS-III\Source/os_task.c ****              return (DEF_FALSE);
 1157              		.loc 1 1440 0
 1158 0020 30E0     		b	.L106
 1159              	.L108:
 1160 0022 1646     		mov	r6, r2
 1161 0024 0D46     		mov	r5, r1
 1162 0026 0746     		mov	r7, r0
1441:uCOS-III\Source/os_task.c ****     }
1442:uCOS-III\Source/os_task.c **** #endif
1443:uCOS-III\Source/os_task.c **** 
1444:uCOS-III\Source/os_task.c ****     CPU_CRITICAL_ENTER();
 1163              		.loc 1 1444 0
 1164 0028 FFF7FEFF 		bl	CPU_SR_Save
 1165              	.LVL148:
1445:uCOS-III\Source/os_task.c ****     if ((p_tcb == (OS_TCB *)0) ||                           /* Pend abort self?                    
 1166              		.loc 1 1445 0
 1167 002c 1FB1     		cbz	r7, .L109
1446:uCOS-III\Source/os_task.c ****         (p_tcb == OSTCBCurPtr)) {
 1168              		.loc 1 1446 0 discriminator 1
 1169 002e 174B     		ldr	r3, .L114+4
 1170 0030 1B68     		ldr	r3, [r3]
1445:uCOS-III\Source/os_task.c ****     if ((p_tcb == (OS_TCB *)0) ||                           /* Pend abort self?                    
 1171              		.loc 1 1445 0 discriminator 1
 1172 0032 9F42     		cmp	r7, r3
ARM GAS  C:\Users\jorti\AppData\Local\Temp\ccDtGf1z.s 			page 47


 1173 0034 05D1     		bne	.L110
 1174              	.L109:
1447:uCOS-III\Source/os_task.c ****         CPU_CRITICAL_EXIT();                                /* ... doesn't make sense!             
 1175              		.loc 1 1447 0
 1176 0036 FFF7FEFF 		bl	CPU_SR_Restore
 1177              	.LVL149:
1448:uCOS-III\Source/os_task.c ****        *p_err = OS_ERR_PEND_ABORT_SELF;
 1178              		.loc 1 1448 0
 1179 003a 46F2AC13 		movw	r3, #25004
 1180 003e 3380     		strh	r3, [r6]	@ movhi
1449:uCOS-III\Source/os_task.c ****         return (DEF_FALSE);
 1181              		.loc 1 1449 0
 1182 0040 20E0     		b	.L106
 1183              	.LVL150:
 1184              	.L110:
1450:uCOS-III\Source/os_task.c ****     }
1451:uCOS-III\Source/os_task.c **** 
1452:uCOS-III\Source/os_task.c ****     if (p_tcb->PendOn != OS_TASK_PEND_ON_TASK_SEM) {        /* Is task waiting for a signal?       
 1185              		.loc 1 1452 0
 1186 0042 97F83430 		ldrb	r3, [r7, #52]	@ zero_extendqisi2
 1187 0046 072B     		cmp	r3, #7
 1188 0048 05D0     		beq	.L111
1453:uCOS-III\Source/os_task.c ****         CPU_CRITICAL_EXIT();
 1189              		.loc 1 1453 0
 1190 004a FFF7FEFF 		bl	CPU_SR_Restore
 1191              	.LVL151:
1454:uCOS-III\Source/os_task.c ****        *p_err = OS_ERR_PEND_ABORT_NONE;
 1192              		.loc 1 1454 0
 1193 004e 46F2AB13 		movw	r3, #25003
 1194 0052 3380     		strh	r3, [r6]	@ movhi
1455:uCOS-III\Source/os_task.c ****         return (DEF_FALSE);
 1195              		.loc 1 1455 0
 1196 0054 16E0     		b	.L106
 1197              	.LVL152:
 1198              	.L111:
1456:uCOS-III\Source/os_task.c ****     }
1457:uCOS-III\Source/os_task.c ****     CPU_CRITICAL_EXIT();
 1199              		.loc 1 1457 0
 1200 0056 FFF7FEFF 		bl	CPU_SR_Restore
 1201              	.LVL153:
1458:uCOS-III\Source/os_task.c **** 
1459:uCOS-III\Source/os_task.c ****     OS_CRITICAL_ENTER();
 1202              		.loc 1 1459 0
 1203 005a FFF7FEFF 		bl	CPU_SR_Save
 1204              	.LVL154:
 1205 005e 0446     		mov	r4, r0
 1206              	.LVL155:
1460:uCOS-III\Source/os_task.c ****     ts = OS_TS_GET();
 1207              		.loc 1 1460 0
 1208 0060 FFF7FEFF 		bl	CPU_TS_TmrRd
 1209              	.LVL156:
1461:uCOS-III\Source/os_task.c ****     OS_PendAbort((OS_PEND_OBJ *)0,
 1210              		.loc 1 1461 0
 1211 0064 0246     		mov	r2, r0
 1212 0066 3946     		mov	r1, r7
 1213 0068 0020     		movs	r0, #0
 1214              	.LVL157:
ARM GAS  C:\Users\jorti\AppData\Local\Temp\ccDtGf1z.s 			page 48


 1215 006a FFF7FEFF 		bl	OS_PendAbort
 1216              	.LVL158:
1462:uCOS-III\Source/os_task.c ****                  p_tcb,
1463:uCOS-III\Source/os_task.c ****                  ts);
1464:uCOS-III\Source/os_task.c ****     OS_CRITICAL_EXIT_NO_SCHED();
 1217              		.loc 1 1464 0
 1218 006e 2046     		mov	r0, r4
 1219 0070 FFF7FEFF 		bl	CPU_SR_Restore
 1220              	.LVL159:
1465:uCOS-III\Source/os_task.c ****     if ((opt & OS_OPT_POST_NO_SCHED) == (OS_OPT)0) {
 1221              		.loc 1 1465 0
 1222 0074 15F4004F 		tst	r5, #32768
 1223 0078 01D1     		bne	.L112
1466:uCOS-III\Source/os_task.c ****         OSSched();                                          /* Run the scheduler                   
 1224              		.loc 1 1466 0
 1225 007a FFF7FEFF 		bl	OSSched
 1226              	.LVL160:
 1227              	.L112:
1467:uCOS-III\Source/os_task.c ****     }
1468:uCOS-III\Source/os_task.c ****    *p_err = OS_ERR_NONE;
 1228              		.loc 1 1468 0
 1229 007e 0023     		movs	r3, #0
 1230 0080 3380     		strh	r3, [r6]	@ movhi
1469:uCOS-III\Source/os_task.c ****     return (DEF_TRUE);
 1231              		.loc 1 1469 0
 1232 0082 0124     		movs	r4, #1
 1233              	.LVL161:
 1234              	.L106:
1470:uCOS-III\Source/os_task.c **** }
 1235              		.loc 1 1470 0
 1236 0084 2046     		mov	r0, r4
 1237 0086 F8BD     		pop	{r3, r4, r5, r6, r7, pc}
 1238              	.L115:
 1239              		.align	2
 1240              	.L114:
 1241 0088 00000000 		.word	OSIntNestingCtr
 1242 008c 00000000 		.word	OSTCBCurPtr
 1243              		.cfi_endproc
 1244              	.LFE13:
 1245              		.size	OSTaskSemPendAbort, .-OSTaskSemPendAbort
 1246              		.section	.text.OSTaskSemSet,"ax",%progbits
 1247              		.align	2
 1248              		.global	OSTaskSemSet
 1249              		.thumb
 1250              		.thumb_func
 1251              		.type	OSTaskSemSet, %function
 1252              	OSTaskSemSet:
 1253              	.LFB15:
1471:uCOS-III\Source/os_task.c **** #endif
1472:uCOS-III\Source/os_task.c **** 
1473:uCOS-III\Source/os_task.c **** /*$PAGE*/
1474:uCOS-III\Source/os_task.c **** /*
1475:uCOS-III\Source/os_task.c **** ***************************************************************************************************
1476:uCOS-III\Source/os_task.c **** *                                                    SIGNAL A TASK
1477:uCOS-III\Source/os_task.c **** *
1478:uCOS-III\Source/os_task.c **** * Description: This function is called to signal a task waiting for a signal.
1479:uCOS-III\Source/os_task.c **** *
ARM GAS  C:\Users\jorti\AppData\Local\Temp\ccDtGf1z.s 			page 49


1480:uCOS-III\Source/os_task.c **** * Arguments  : p_tcb     is the pointer to the TCB of the task to signal.  A NULL pointer indicates
1481:uCOS-III\Source/os_task.c **** *                        a signal to yourself.
1482:uCOS-III\Source/os_task.c **** *
1483:uCOS-III\Source/os_task.c **** *              opt       determines the type of POST performed:
1484:uCOS-III\Source/os_task.c **** *
1485:uCOS-III\Source/os_task.c **** *                             OS_OPT_POST_NONE         No option
1486:uCOS-III\Source/os_task.c **** *                             OS_OPT_POST_NO_SCHED     Do not call the scheduler
1487:uCOS-III\Source/os_task.c **** *
1488:uCOS-III\Source/os_task.c **** *              p_err     is a pointer to an error code returned by this function:
1489:uCOS-III\Source/os_task.c **** *
1490:uCOS-III\Source/os_task.c **** *                            OS_ERR_NONE              If the requested task is signaled
1491:uCOS-III\Source/os_task.c **** *                            OS_ERR_SEM_OVF           If the post would cause the semaphore count t
1492:uCOS-III\Source/os_task.c **** *
1493:uCOS-III\Source/os_task.c **** * Returns    : The current value of the task's signal counter or 0 if called from an ISR
1494:uCOS-III\Source/os_task.c **** ***************************************************************************************************
1495:uCOS-III\Source/os_task.c **** */
1496:uCOS-III\Source/os_task.c **** 
1497:uCOS-III\Source/os_task.c **** OS_SEM_CTR  OSTaskSemPost (OS_TCB  *p_tcb,
1498:uCOS-III\Source/os_task.c ****                            OS_OPT   opt,
1499:uCOS-III\Source/os_task.c ****                            OS_ERR  *p_err)
1500:uCOS-III\Source/os_task.c **** {
1501:uCOS-III\Source/os_task.c ****     OS_SEM_CTR  ctr;
1502:uCOS-III\Source/os_task.c ****     CPU_TS      ts;
1503:uCOS-III\Source/os_task.c **** 
1504:uCOS-III\Source/os_task.c **** 
1505:uCOS-III\Source/os_task.c **** 
1506:uCOS-III\Source/os_task.c **** #ifdef OS_SAFETY_CRITICAL
1507:uCOS-III\Source/os_task.c ****     if (p_err == (OS_ERR *)0) {
1508:uCOS-III\Source/os_task.c ****         OS_SAFETY_CRITICAL_EXCEPTION();
1509:uCOS-III\Source/os_task.c ****         return ((OS_SEM_CTR)0);
1510:uCOS-III\Source/os_task.c ****     }
1511:uCOS-III\Source/os_task.c **** #endif
1512:uCOS-III\Source/os_task.c **** 
1513:uCOS-III\Source/os_task.c **** #if OS_CFG_ARG_CHK_EN > 0u
1514:uCOS-III\Source/os_task.c ****     switch (opt) {                                          /* Validate 'opt'                      
1515:uCOS-III\Source/os_task.c ****         case OS_OPT_POST_NONE:
1516:uCOS-III\Source/os_task.c ****         case OS_OPT_POST_NO_SCHED:
1517:uCOS-III\Source/os_task.c ****              break;
1518:uCOS-III\Source/os_task.c **** 
1519:uCOS-III\Source/os_task.c ****         default:
1520:uCOS-III\Source/os_task.c ****             *p_err =  OS_ERR_OPT_INVALID;
1521:uCOS-III\Source/os_task.c ****              return ((OS_SEM_CTR)0u);
1522:uCOS-III\Source/os_task.c ****     }
1523:uCOS-III\Source/os_task.c **** #endif
1524:uCOS-III\Source/os_task.c **** 
1525:uCOS-III\Source/os_task.c ****     ts = OS_TS_GET();                                       /* Get timestamp                       
1526:uCOS-III\Source/os_task.c **** 
1527:uCOS-III\Source/os_task.c **** #if OS_CFG_ISR_POST_DEFERRED_EN > 0u
1528:uCOS-III\Source/os_task.c ****     if (OSIntNestingCtr > (OS_NESTING_CTR)0) {              /* See if called from an ISR           
1529:uCOS-III\Source/os_task.c ****         OS_IntQPost((OS_OBJ_TYPE)OS_OBJ_TYPE_TASK_SIGNAL,   /* Post to ISR queue                   
1530:uCOS-III\Source/os_task.c ****                     (void      *)p_tcb,
1531:uCOS-III\Source/os_task.c ****                     (void      *)0,
1532:uCOS-III\Source/os_task.c ****                     (OS_MSG_SIZE)0,
1533:uCOS-III\Source/os_task.c ****                     (OS_FLAGS   )0,
1534:uCOS-III\Source/os_task.c ****                     (OS_OPT     )0,
1535:uCOS-III\Source/os_task.c ****                     (CPU_TS     )ts,
1536:uCOS-III\Source/os_task.c ****                     (OS_ERR    *)p_err);
ARM GAS  C:\Users\jorti\AppData\Local\Temp\ccDtGf1z.s 			page 50


1537:uCOS-III\Source/os_task.c ****         return ((OS_SEM_CTR)0);
1538:uCOS-III\Source/os_task.c ****     }
1539:uCOS-III\Source/os_task.c **** #endif
1540:uCOS-III\Source/os_task.c **** 
1541:uCOS-III\Source/os_task.c ****     ctr = OS_TaskSemPost(p_tcb,
1542:uCOS-III\Source/os_task.c ****                          opt,
1543:uCOS-III\Source/os_task.c ****                          ts,
1544:uCOS-III\Source/os_task.c ****                          p_err);
1545:uCOS-III\Source/os_task.c **** 
1546:uCOS-III\Source/os_task.c ****     return (ctr);
1547:uCOS-III\Source/os_task.c **** }
1548:uCOS-III\Source/os_task.c **** 
1549:uCOS-III\Source/os_task.c **** /*$PAGE*/
1550:uCOS-III\Source/os_task.c **** /*
1551:uCOS-III\Source/os_task.c **** ***************************************************************************************************
1552:uCOS-III\Source/os_task.c **** *                                            SET THE SIGNAL COUNTER OF A TASK
1553:uCOS-III\Source/os_task.c **** *
1554:uCOS-III\Source/os_task.c **** * Description: This function is called to clear the signal counter
1555:uCOS-III\Source/os_task.c **** *
1556:uCOS-III\Source/os_task.c **** * Arguments  : p_tcb      is the pointer to the TCB of the task to clear the counter.  If you speci
1557:uCOS-III\Source/os_task.c **** *                         then the signal counter of the current task will be cleared.
1558:uCOS-III\Source/os_task.c **** *
1559:uCOS-III\Source/os_task.c **** *              cnt        is the desired value of the semaphore counter
1560:uCOS-III\Source/os_task.c **** *
1561:uCOS-III\Source/os_task.c **** *              p_err      is a pointer to an error code returned by this function
1562:uCOS-III\Source/os_task.c **** *
1563:uCOS-III\Source/os_task.c **** *                             OS_ERR_NONE        if the signal counter of the requested task is cle
1564:uCOS-III\Source/os_task.c **** *                             OS_ERR_SET_ISR     if the function was called from an ISR
1565:uCOS-III\Source/os_task.c **** *
1566:uCOS-III\Source/os_task.c **** * Returns    : none
1567:uCOS-III\Source/os_task.c **** ***************************************************************************************************
1568:uCOS-III\Source/os_task.c **** */
1569:uCOS-III\Source/os_task.c **** 
1570:uCOS-III\Source/os_task.c **** OS_SEM_CTR  OSTaskSemSet (OS_TCB      *p_tcb,
1571:uCOS-III\Source/os_task.c ****                           OS_SEM_CTR   cnt,
1572:uCOS-III\Source/os_task.c ****                           OS_ERR      *p_err)
1573:uCOS-III\Source/os_task.c **** {
 1254              		.loc 1 1573 0
 1255              		.cfi_startproc
 1256              		@ args = 0, pretend = 0, frame = 0
 1257              		@ frame_needed = 0, uses_anonymous_args = 0
 1258              	.LVL162:
 1259 0000 F8B5     		push	{r3, r4, r5, r6, r7, lr}
 1260              		.cfi_def_cfa_offset 24
 1261              		.cfi_offset 3, -24
 1262              		.cfi_offset 4, -20
 1263              		.cfi_offset 5, -16
 1264              		.cfi_offset 6, -12
 1265              		.cfi_offset 7, -8
 1266              		.cfi_offset 14, -4
 1267 0002 1646     		mov	r6, r2
 1268              	.LVL163:
1574:uCOS-III\Source/os_task.c ****     OS_SEM_CTR  ctr;
1575:uCOS-III\Source/os_task.c ****     CPU_SR_ALLOC();
1576:uCOS-III\Source/os_task.c **** 
1577:uCOS-III\Source/os_task.c **** 
1578:uCOS-III\Source/os_task.c **** 
ARM GAS  C:\Users\jorti\AppData\Local\Temp\ccDtGf1z.s 			page 51


1579:uCOS-III\Source/os_task.c **** #ifdef OS_SAFETY_CRITICAL
1580:uCOS-III\Source/os_task.c ****     if (p_err == (OS_ERR *)0) {
1581:uCOS-III\Source/os_task.c ****         OS_SAFETY_CRITICAL_EXCEPTION();
1582:uCOS-III\Source/os_task.c ****         return ((OS_SEM_CTR)0);
1583:uCOS-III\Source/os_task.c ****     }
1584:uCOS-III\Source/os_task.c **** #endif
1585:uCOS-III\Source/os_task.c **** 
1586:uCOS-III\Source/os_task.c **** #if OS_CFG_CALLED_FROM_ISR_CHK_EN > 0u
1587:uCOS-III\Source/os_task.c ****     if (OSIntNestingCtr > (OS_NESTING_CTR)0) {              /* Not allowed to call from an ISR     
 1269              		.loc 1 1587 0
 1270 0004 0B4B     		ldr	r3, .L121
 1271 0006 1B78     		ldrb	r3, [r3]	@ zero_extendqisi2
 1272 0008 23B1     		cbz	r3, .L117
1588:uCOS-III\Source/os_task.c ****        *p_err = OS_ERR_SET_ISR;
 1273              		.loc 1 1588 0
 1274 000a 46F6C653 		movw	r3, #28102
 1275 000e 1380     		strh	r3, [r2]	@ movhi
1589:uCOS-III\Source/os_task.c ****         return ((OS_SEM_CTR)0);
 1276              		.loc 1 1589 0
 1277 0010 0020     		movs	r0, #0
 1278              	.LVL164:
 1279 0012 F8BD     		pop	{r3, r4, r5, r6, r7, pc}
 1280              	.LVL165:
 1281              	.L117:
 1282 0014 0546     		mov	r5, r0
 1283 0016 0F46     		mov	r7, r1
1590:uCOS-III\Source/os_task.c ****     }
1591:uCOS-III\Source/os_task.c **** #endif
1592:uCOS-III\Source/os_task.c **** 
1593:uCOS-III\Source/os_task.c ****     CPU_CRITICAL_ENTER();
 1284              		.loc 1 1593 0
 1285 0018 FFF7FEFF 		bl	CPU_SR_Save
 1286              	.LVL166:
1594:uCOS-III\Source/os_task.c ****     if (p_tcb == (OS_TCB *)0) {
 1287              		.loc 1 1594 0
 1288 001c 0DB9     		cbnz	r5, .L119
1595:uCOS-III\Source/os_task.c ****         p_tcb = OSTCBCurPtr;
 1289              		.loc 1 1595 0
 1290 001e 064B     		ldr	r3, .L121+4
 1291 0020 1D68     		ldr	r5, [r3]
 1292              	.LVL167:
 1293              	.L119:
1596:uCOS-III\Source/os_task.c ****     }
1597:uCOS-III\Source/os_task.c ****     ctr           = p_tcb->SemCtr;
 1294              		.loc 1 1597 0
 1295 0022 6C6C     		ldr	r4, [r5, #68]
 1296              	.LVL168:
1598:uCOS-III\Source/os_task.c ****     p_tcb->SemCtr = (OS_SEM_CTR)cnt;
 1297              		.loc 1 1598 0
 1298 0024 6F64     		str	r7, [r5, #68]
1599:uCOS-III\Source/os_task.c ****     CPU_CRITICAL_EXIT();
 1299              		.loc 1 1599 0
 1300 0026 FFF7FEFF 		bl	CPU_SR_Restore
 1301              	.LVL169:
1600:uCOS-III\Source/os_task.c ****    *p_err         =  OS_ERR_NONE;
 1302              		.loc 1 1600 0
 1303 002a 0023     		movs	r3, #0
ARM GAS  C:\Users\jorti\AppData\Local\Temp\ccDtGf1z.s 			page 52


 1304 002c 3380     		strh	r3, [r6]	@ movhi
1601:uCOS-III\Source/os_task.c ****     return (ctr);
 1305              		.loc 1 1601 0
 1306 002e 2046     		mov	r0, r4
1602:uCOS-III\Source/os_task.c **** }
 1307              		.loc 1 1602 0
 1308 0030 F8BD     		pop	{r3, r4, r5, r6, r7, pc}
 1309              	.LVL170:
 1310              	.L122:
 1311 0032 00BF     		.align	2
 1312              	.L121:
 1313 0034 00000000 		.word	OSIntNestingCtr
 1314 0038 00000000 		.word	OSTCBCurPtr
 1315              		.cfi_endproc
 1316              	.LFE15:
 1317              		.size	OSTaskSemSet, .-OSTaskSemSet
 1318              		.section	.text.OSTaskStkChk,"ax",%progbits
 1319              		.align	2
 1320              		.global	OSTaskStkChk
 1321              		.thumb
 1322              		.thumb_func
 1323              		.type	OSTaskStkChk, %function
 1324              	OSTaskStkChk:
 1325              	.LFB16:
1603:uCOS-III\Source/os_task.c **** 
1604:uCOS-III\Source/os_task.c **** /*$PAGE*/
1605:uCOS-III\Source/os_task.c **** /*
1606:uCOS-III\Source/os_task.c **** ***************************************************************************************************
1607:uCOS-III\Source/os_task.c **** *                                                    STACK CHECKING
1608:uCOS-III\Source/os_task.c **** *
1609:uCOS-III\Source/os_task.c **** * Description: This function is called to calculate the amount of free memory left on the specified
1610:uCOS-III\Source/os_task.c **** *
1611:uCOS-III\Source/os_task.c **** * Arguments  : p_tcb       is a pointer to the TCB of the task to check.  If you specify a NULL poi
1612:uCOS-III\Source/os_task.c **** *                          you are specifying that you want to check the stack of the current task.
1613:uCOS-III\Source/os_task.c **** *
1614:uCOS-III\Source/os_task.c **** *              p_free      is a pointer to a variable that will receive the number of free 'entries
1615:uCOS-III\Source/os_task.c **** *
1616:uCOS-III\Source/os_task.c **** *              p_used      is a pointer to a variable that will receive the number of used 'entries
1617:uCOS-III\Source/os_task.c **** *
1618:uCOS-III\Source/os_task.c **** *              p_err       is a pointer to a variable that will contain an error code.
1619:uCOS-III\Source/os_task.c **** *
1620:uCOS-III\Source/os_task.c **** *                              OS_ERR_NONE               upon success
1621:uCOS-III\Source/os_task.c **** *                              OS_ERR_PTR_INVALID        if either 'p_free' or 'p_used' are NULL po
1622:uCOS-III\Source/os_task.c **** *                              OS_ERR_TASK_NOT_EXIST     if the stack pointer of the task is a NULL
1623:uCOS-III\Source/os_task.c **** *                              OS_ERR_TASK_OPT           if you did NOT specified OS_OPT_TASK_STK_C
1624:uCOS-III\Source/os_task.c **** *                                                        was created
1625:uCOS-III\Source/os_task.c **** *                              OS_ERR_TASK_STK_CHK_ISR   you called this function from an ISR
1626:uCOS-III\Source/os_task.c **** ***************************************************************************************************
1627:uCOS-III\Source/os_task.c **** */
1628:uCOS-III\Source/os_task.c **** 
1629:uCOS-III\Source/os_task.c **** #if OS_CFG_STAT_TASK_STK_CHK_EN > 0u
1630:uCOS-III\Source/os_task.c **** void  OSTaskStkChk (OS_TCB        *p_tcb,
1631:uCOS-III\Source/os_task.c ****                     CPU_STK_SIZE  *p_free,
1632:uCOS-III\Source/os_task.c ****                     CPU_STK_SIZE  *p_used,
1633:uCOS-III\Source/os_task.c ****                     OS_ERR        *p_err)
1634:uCOS-III\Source/os_task.c **** {
 1326              		.loc 1 1634 0
ARM GAS  C:\Users\jorti\AppData\Local\Temp\ccDtGf1z.s 			page 53


 1327              		.cfi_startproc
 1328              		@ args = 0, pretend = 0, frame = 0
 1329              		@ frame_needed = 0, uses_anonymous_args = 0
 1330              	.LVL171:
 1331 0000 F8B5     		push	{r3, r4, r5, r6, r7, lr}
 1332              		.cfi_def_cfa_offset 24
 1333              		.cfi_offset 3, -24
 1334              		.cfi_offset 4, -20
 1335              		.cfi_offset 5, -16
 1336              		.cfi_offset 6, -12
 1337              		.cfi_offset 7, -8
 1338              		.cfi_offset 14, -4
 1339 0002 1E46     		mov	r6, r3
 1340              	.LVL172:
1635:uCOS-III\Source/os_task.c ****     CPU_STK_SIZE  free_stk;
1636:uCOS-III\Source/os_task.c ****     CPU_STK      *p_stk;
1637:uCOS-III\Source/os_task.c ****     CPU_SR_ALLOC();
1638:uCOS-III\Source/os_task.c **** 
1639:uCOS-III\Source/os_task.c **** 
1640:uCOS-III\Source/os_task.c **** 
1641:uCOS-III\Source/os_task.c **** #ifdef OS_SAFETY_CRITICAL
1642:uCOS-III\Source/os_task.c ****     if (p_err == (OS_ERR *)0) {
1643:uCOS-III\Source/os_task.c ****         OS_SAFETY_CRITICAL_EXCEPTION();
1644:uCOS-III\Source/os_task.c ****         return;
1645:uCOS-III\Source/os_task.c ****     }
1646:uCOS-III\Source/os_task.c **** #endif
1647:uCOS-III\Source/os_task.c **** 
1648:uCOS-III\Source/os_task.c **** #if OS_CFG_CALLED_FROM_ISR_CHK_EN > 0u
1649:uCOS-III\Source/os_task.c ****     if (OSIntNestingCtr > (OS_NESTING_CTR)0) {              /* See if trying to check stack from IS
 1341              		.loc 1 1649 0
 1342 0004 204B     		ldr	r3, .L134
 1343              	.LVL173:
 1344 0006 1B78     		ldrb	r3, [r3]	@ zero_extendqisi2
 1345 0008 1BB1     		cbz	r3, .L124
1650:uCOS-III\Source/os_task.c ****        *p_err = OS_ERR_TASK_STK_CHK_ISR;
 1346              		.loc 1 1650 0
 1347 000a 47F25913 		movw	r3, #29017
 1348 000e 3380     		strh	r3, [r6]	@ movhi
1651:uCOS-III\Source/os_task.c ****         return;
 1349              		.loc 1 1651 0
 1350 0010 F8BD     		pop	{r3, r4, r5, r6, r7, pc}
 1351              	.LVL174:
 1352              	.L124:
 1353 0012 0446     		mov	r4, r0
 1354 0014 0D46     		mov	r5, r1
 1355 0016 1746     		mov	r7, r2
1652:uCOS-III\Source/os_task.c ****     }
1653:uCOS-III\Source/os_task.c **** #endif
1654:uCOS-III\Source/os_task.c **** 
1655:uCOS-III\Source/os_task.c **** #if OS_CFG_ARG_CHK_EN > 0u
1656:uCOS-III\Source/os_task.c ****     if (p_free == (CPU_STK_SIZE*)0) {                       /* User must specify valid destinations
 1356              		.loc 1 1656 0
 1357 0018 19B9     		cbnz	r1, .L126
1657:uCOS-III\Source/os_task.c ****        *p_err  = OS_ERR_PTR_INVALID;
 1358              		.loc 1 1657 0
 1359 001a 46F2D523 		movw	r3, #25301
 1360 001e 3380     		strh	r3, [r6]	@ movhi
ARM GAS  C:\Users\jorti\AppData\Local\Temp\ccDtGf1z.s 			page 54


1658:uCOS-III\Source/os_task.c ****         return;
 1361              		.loc 1 1658 0
 1362 0020 F8BD     		pop	{r3, r4, r5, r6, r7, pc}
 1363              	.LVL175:
 1364              	.L126:
1659:uCOS-III\Source/os_task.c ****     }
1660:uCOS-III\Source/os_task.c **** 
1661:uCOS-III\Source/os_task.c ****     if (p_used == (CPU_STK_SIZE*)0) {
 1365              		.loc 1 1661 0
 1366 0022 1AB9     		cbnz	r2, .L127
1662:uCOS-III\Source/os_task.c ****        *p_err  = OS_ERR_PTR_INVALID;
 1367              		.loc 1 1662 0
 1368 0024 46F2D523 		movw	r3, #25301
 1369 0028 3380     		strh	r3, [r6]	@ movhi
1663:uCOS-III\Source/os_task.c ****         return;
 1370              		.loc 1 1663 0
 1371 002a F8BD     		pop	{r3, r4, r5, r6, r7, pc}
 1372              	.LVL176:
 1373              	.L127:
1664:uCOS-III\Source/os_task.c ****     }
1665:uCOS-III\Source/os_task.c **** #endif
1666:uCOS-III\Source/os_task.c **** 
1667:uCOS-III\Source/os_task.c ****     CPU_CRITICAL_ENTER();
 1374              		.loc 1 1667 0
 1375 002c FFF7FEFF 		bl	CPU_SR_Save
 1376              	.LVL177:
1668:uCOS-III\Source/os_task.c ****     if (p_tcb == (OS_TCB *)0) {                             /* Check the stack of the current task?
 1377              		.loc 1 1668 0
 1378 0030 0CB9     		cbnz	r4, .L128
1669:uCOS-III\Source/os_task.c ****         p_tcb = OSTCBCurPtr;                                /* Yes                                 
 1379              		.loc 1 1669 0
 1380 0032 164B     		ldr	r3, .L134+4
 1381 0034 1C68     		ldr	r4, [r3]
 1382              	.LVL178:
 1383              	.L128:
1670:uCOS-III\Source/os_task.c ****     }
1671:uCOS-III\Source/os_task.c **** 
1672:uCOS-III\Source/os_task.c ****     if (p_tcb->StkPtr == (CPU_STK*)0) {                     /* Make sure task exist                
 1384              		.loc 1 1672 0
 1385 0036 2368     		ldr	r3, [r4]
 1386 0038 43B9     		cbnz	r3, .L129
1673:uCOS-III\Source/os_task.c ****         CPU_CRITICAL_EXIT();
 1387              		.loc 1 1673 0
 1388 003a FFF7FEFF 		bl	CPU_SR_Restore
 1389              	.LVL179:
1674:uCOS-III\Source/os_task.c ****        *p_free = (CPU_STK_SIZE)0;
 1390              		.loc 1 1674 0
 1391 003e 0023     		movs	r3, #0
 1392 0040 2B60     		str	r3, [r5]
1675:uCOS-III\Source/os_task.c ****        *p_used = (CPU_STK_SIZE)0;
 1393              		.loc 1 1675 0
 1394 0042 3B60     		str	r3, [r7]
1676:uCOS-III\Source/os_task.c ****        *p_err  =  OS_ERR_TASK_NOT_EXIST;
 1395              		.loc 1 1676 0
 1396 0044 47F25213 		movw	r3, #29010
 1397 0048 3380     		strh	r3, [r6]	@ movhi
1677:uCOS-III\Source/os_task.c ****         return;
ARM GAS  C:\Users\jorti\AppData\Local\Temp\ccDtGf1z.s 			page 55


 1398              		.loc 1 1677 0
 1399 004a F8BD     		pop	{r3, r4, r5, r6, r7, pc}
 1400              	.LVL180:
 1401              	.L129:
1678:uCOS-III\Source/os_task.c ****     }
1679:uCOS-III\Source/os_task.c **** 
1680:uCOS-III\Source/os_task.c ****     if ((p_tcb->Opt & OS_OPT_TASK_STK_CHK) == (OS_OPT)0) {  /* Make sure stack checking option is s
 1402              		.loc 1 1680 0
 1403 004c A38F     		ldrh	r3, [r4, #60]
 1404 004e 13F0010F 		tst	r3, #1
 1405 0052 08D1     		bne	.L130
1681:uCOS-III\Source/os_task.c ****         CPU_CRITICAL_EXIT();
 1406              		.loc 1 1681 0
 1407 0054 FFF7FEFF 		bl	CPU_SR_Restore
 1408              	.LVL181:
1682:uCOS-III\Source/os_task.c ****        *p_free = (CPU_STK_SIZE)0;
 1409              		.loc 1 1682 0
 1410 0058 0023     		movs	r3, #0
 1411 005a 2B60     		str	r3, [r5]
1683:uCOS-III\Source/os_task.c ****        *p_used = (CPU_STK_SIZE)0;
 1412              		.loc 1 1683 0
 1413 005c 3B60     		str	r3, [r7]
1684:uCOS-III\Source/os_task.c ****        *p_err  =  OS_ERR_TASK_OPT;
 1414              		.loc 1 1684 0
 1415 005e 47F25413 		movw	r3, #29012
 1416 0062 3380     		strh	r3, [r6]	@ movhi
1685:uCOS-III\Source/os_task.c ****         return;
 1417              		.loc 1 1685 0
 1418 0064 F8BD     		pop	{r3, r4, r5, r6, r7, pc}
 1419              	.LVL182:
 1420              	.L130:
1686:uCOS-III\Source/os_task.c ****     }
1687:uCOS-III\Source/os_task.c ****     CPU_CRITICAL_EXIT();
 1421              		.loc 1 1687 0
 1422 0066 FFF7FEFF 		bl	CPU_SR_Restore
 1423              	.LVL183:
1688:uCOS-III\Source/os_task.c **** 
1689:uCOS-III\Source/os_task.c ****     free_stk  = 0u;
1690:uCOS-III\Source/os_task.c **** #if CPU_CFG_STK_GROWTH == CPU_STK_GROWTH_HI_TO_LO
1691:uCOS-III\Source/os_task.c ****     p_stk = p_tcb->StkBasePtr;                              /* Start at the lowest memory and go up
 1424              		.loc 1 1691 0
 1425 006a 636A     		ldr	r3, [r4, #36]
 1426              	.LVL184:
1689:uCOS-III\Source/os_task.c **** #if CPU_CFG_STK_GROWTH == CPU_STK_GROWTH_HI_TO_LO
 1427              		.loc 1 1689 0
 1428 006c 0022     		movs	r2, #0
1692:uCOS-III\Source/os_task.c ****     while (*p_stk == (CPU_STK)0) {                          /* Compute the number of zero entries o
 1429              		.loc 1 1692 0
 1430 006e 01E0     		b	.L131
 1431              	.LVL185:
 1432              	.L132:
1693:uCOS-III\Source/os_task.c ****         p_stk++;
 1433              		.loc 1 1693 0
 1434 0070 0433     		adds	r3, r3, #4
 1435              	.LVL186:
1694:uCOS-III\Source/os_task.c ****         free_stk++;
 1436              		.loc 1 1694 0
ARM GAS  C:\Users\jorti\AppData\Local\Temp\ccDtGf1z.s 			page 56


 1437 0072 0132     		adds	r2, r2, #1
 1438              	.LVL187:
 1439              	.L131:
1692:uCOS-III\Source/os_task.c ****     while (*p_stk == (CPU_STK)0) {                          /* Compute the number of zero entries o
 1440              		.loc 1 1692 0
 1441 0074 1968     		ldr	r1, [r3]
 1442 0076 0029     		cmp	r1, #0
 1443 0078 FAD0     		beq	.L132
1695:uCOS-III\Source/os_task.c ****     }
1696:uCOS-III\Source/os_task.c **** #else
1697:uCOS-III\Source/os_task.c ****     p_stk = p_tcb->StkBasePtr + p_tcb->StkSize - 1u;        /* Start at the highest memory and go d
1698:uCOS-III\Source/os_task.c ****     while (*p_stk == (CPU_STK)0) {
1699:uCOS-III\Source/os_task.c ****         free_stk++;
1700:uCOS-III\Source/os_task.c ****         p_stk--;
1701:uCOS-III\Source/os_task.c ****     }
1702:uCOS-III\Source/os_task.c **** #endif
1703:uCOS-III\Source/os_task.c ****    *p_free = free_stk;
 1444              		.loc 1 1703 0
 1445 007a 2A60     		str	r2, [r5]
1704:uCOS-III\Source/os_task.c ****    *p_used = (p_tcb->StkSize - free_stk);                   /* Compute number of entries used on th
 1446              		.loc 1 1704 0
 1447 007c A36B     		ldr	r3, [r4, #56]
 1448              	.LVL188:
 1449 007e 9A1A     		subs	r2, r3, r2
 1450              	.LVL189:
 1451 0080 3A60     		str	r2, [r7]
 1452              	.LVL190:
1705:uCOS-III\Source/os_task.c ****    *p_err  = OS_ERR_NONE;
 1453              		.loc 1 1705 0
 1454 0082 0023     		movs	r3, #0
 1455 0084 3380     		strh	r3, [r6]	@ movhi
 1456 0086 F8BD     		pop	{r3, r4, r5, r6, r7, pc}
 1457              	.LVL191:
 1458              	.L135:
 1459              		.align	2
 1460              	.L134:
 1461 0088 00000000 		.word	OSIntNestingCtr
 1462 008c 00000000 		.word	OSTCBCurPtr
 1463              		.cfi_endproc
 1464              	.LFE16:
 1465              		.size	OSTaskStkChk, .-OSTaskStkChk
 1466              		.section	.text.OSTaskTimeQuantaSet,"ax",%progbits
 1467              		.align	2
 1468              		.global	OSTaskTimeQuantaSet
 1469              		.thumb
 1470              		.thumb_func
 1471              		.type	OSTaskTimeQuantaSet, %function
 1472              	OSTaskTimeQuantaSet:
 1473              	.LFB18:
1706:uCOS-III\Source/os_task.c **** }
1707:uCOS-III\Source/os_task.c **** #endif
1708:uCOS-III\Source/os_task.c **** 
1709:uCOS-III\Source/os_task.c **** /*$PAGE*/
1710:uCOS-III\Source/os_task.c **** /*
1711:uCOS-III\Source/os_task.c **** ***************************************************************************************************
1712:uCOS-III\Source/os_task.c **** *                                                   SUSPEND A TASK
1713:uCOS-III\Source/os_task.c **** *
ARM GAS  C:\Users\jorti\AppData\Local\Temp\ccDtGf1z.s 			page 57


1714:uCOS-III\Source/os_task.c **** * Description: This function is called to suspend a task.  The task can be the calling task if 'p_t
1715:uCOS-III\Source/os_task.c **** *              or the pointer to the TCB of the calling task.
1716:uCOS-III\Source/os_task.c **** *
1717:uCOS-III\Source/os_task.c **** * Arguments  : p_tcb    is a pointer to the TCB to suspend.
1718:uCOS-III\Source/os_task.c **** *                       If p_tcb is a NULL pointer then, suspend the current task.
1719:uCOS-III\Source/os_task.c **** *
1720:uCOS-III\Source/os_task.c **** *              p_err    is a pointer to a variable that will receive an error code from this functi
1721:uCOS-III\Source/os_task.c **** *
1722:uCOS-III\Source/os_task.c **** *                           OS_ERR_NONE                      if the requested task is suspended
1723:uCOS-III\Source/os_task.c **** *                           OS_ERR_SCHED_LOCKED              you can't suspend the current task is 
1724:uCOS-III\Source/os_task.c **** *                                                            locked
1725:uCOS-III\Source/os_task.c **** *                           OS_ERR_TASK_SUSPEND_ISR          if you called this function from an IS
1726:uCOS-III\Source/os_task.c **** *                           OS_ERR_TASK_SUSPEND_IDLE         if you attempted to suspend the idle t
1727:uCOS-III\Source/os_task.c **** *                                                            allowed.
1728:uCOS-III\Source/os_task.c **** *                           OS_ERR_TASK_SUSPEND_INT_HANDLER  if you attempted to suspend the idle t
1729:uCOS-III\Source/os_task.c **** *                                                            allowed.
1730:uCOS-III\Source/os_task.c **** *
1731:uCOS-III\Source/os_task.c **** * Note(s)    : 1) You should use this function with great care.  If you suspend a task that is wait
1732:uCOS-III\Source/os_task.c **** *                 (i.e. a message, a semaphore, a queue ...) you will prevent this task from runnin
1733:uCOS-III\Source/os_task.c **** *                 arrives.
1734:uCOS-III\Source/os_task.c **** ***************************************************************************************************
1735:uCOS-III\Source/os_task.c **** */
1736:uCOS-III\Source/os_task.c **** 
1737:uCOS-III\Source/os_task.c **** #if OS_CFG_TASK_SUSPEND_EN > 0u
1738:uCOS-III\Source/os_task.c **** void   OSTaskSuspend (OS_TCB  *p_tcb,
1739:uCOS-III\Source/os_task.c ****                       OS_ERR  *p_err)
1740:uCOS-III\Source/os_task.c **** {
1741:uCOS-III\Source/os_task.c **** #ifdef OS_SAFETY_CRITICAL
1742:uCOS-III\Source/os_task.c ****     if (p_err == (OS_ERR *)0) {
1743:uCOS-III\Source/os_task.c ****         OS_SAFETY_CRITICAL_EXCEPTION();
1744:uCOS-III\Source/os_task.c ****         return;
1745:uCOS-III\Source/os_task.c ****     }
1746:uCOS-III\Source/os_task.c **** #endif
1747:uCOS-III\Source/os_task.c **** 
1748:uCOS-III\Source/os_task.c **** #if (OS_CFG_ISR_POST_DEFERRED_EN   == 0u) && \
1749:uCOS-III\Source/os_task.c ****     (OS_CFG_CALLED_FROM_ISR_CHK_EN >  0u)
1750:uCOS-III\Source/os_task.c ****     if (OSIntNestingCtr > (OS_NESTING_CTR)0) {              /* Not allowed to call from an ISR     
1751:uCOS-III\Source/os_task.c ****        *p_err = OS_ERR_TASK_SUSPEND_ISR;
1752:uCOS-III\Source/os_task.c ****         return;
1753:uCOS-III\Source/os_task.c ****     }
1754:uCOS-III\Source/os_task.c **** #endif
1755:uCOS-III\Source/os_task.c **** 
1756:uCOS-III\Source/os_task.c ****     if (p_tcb == &OSIdleTaskTCB) {                          /* Make sure not suspending the idle ta
1757:uCOS-III\Source/os_task.c ****        *p_err = OS_ERR_TASK_SUSPEND_IDLE;
1758:uCOS-III\Source/os_task.c ****         return;
1759:uCOS-III\Source/os_task.c ****     }
1760:uCOS-III\Source/os_task.c **** 
1761:uCOS-III\Source/os_task.c **** #if OS_CFG_ISR_POST_DEFERRED_EN > 0u
1762:uCOS-III\Source/os_task.c ****     if (p_tcb == &OSIntQTaskTCB) {                          /* Not allowed to suspend the ISR handl
1763:uCOS-III\Source/os_task.c ****        *p_err = OS_ERR_TASK_SUSPEND_INT_HANDLER;
1764:uCOS-III\Source/os_task.c ****         return;
1765:uCOS-III\Source/os_task.c ****     }
1766:uCOS-III\Source/os_task.c **** 
1767:uCOS-III\Source/os_task.c ****     if (OSIntNestingCtr > (OS_NESTING_CTR)0) {              /* See if called from an ISR           
1768:uCOS-III\Source/os_task.c ****         OS_IntQPost((OS_OBJ_TYPE)OS_OBJ_TYPE_TASK_SUSPEND,  /* Post to ISR queue                   
1769:uCOS-III\Source/os_task.c ****                     (void      *)p_tcb,
1770:uCOS-III\Source/os_task.c ****                     (void      *)0,
ARM GAS  C:\Users\jorti\AppData\Local\Temp\ccDtGf1z.s 			page 58


1771:uCOS-III\Source/os_task.c ****                     (OS_MSG_SIZE)0,
1772:uCOS-III\Source/os_task.c ****                     (OS_FLAGS   )0,
1773:uCOS-III\Source/os_task.c ****                     (OS_OPT     )0,
1774:uCOS-III\Source/os_task.c ****                     (CPU_TS     )0,
1775:uCOS-III\Source/os_task.c ****                     (OS_ERR    *)p_err);
1776:uCOS-III\Source/os_task.c ****         return;
1777:uCOS-III\Source/os_task.c ****     }
1778:uCOS-III\Source/os_task.c **** #endif
1779:uCOS-III\Source/os_task.c **** 
1780:uCOS-III\Source/os_task.c ****     OS_TaskSuspend(p_tcb, p_err);
1781:uCOS-III\Source/os_task.c **** }
1782:uCOS-III\Source/os_task.c **** #endif
1783:uCOS-III\Source/os_task.c **** 
1784:uCOS-III\Source/os_task.c **** /*$PAGE*/
1785:uCOS-III\Source/os_task.c **** /*
1786:uCOS-III\Source/os_task.c **** ***************************************************************************************************
1787:uCOS-III\Source/os_task.c **** *                                                CHANGE A TASK'S TIME SLICE
1788:uCOS-III\Source/os_task.c **** *
1789:uCOS-III\Source/os_task.c **** * Description: This function is called to change the value of the task's specific time slice.
1790:uCOS-III\Source/os_task.c **** *
1791:uCOS-III\Source/os_task.c **** * Arguments  : p_tcb        is the pointer to the TCB of the task to change. If you specify an NULL
1792:uCOS-III\Source/os_task.c **** *                           task is assumed.
1793:uCOS-III\Source/os_task.c **** *
1794:uCOS-III\Source/os_task.c **** *              time_quanta  is the number of ticks before the CPU is taken away when round-robin sc
1795:uCOS-III\Source/os_task.c **** *
1796:uCOS-III\Source/os_task.c **** *              p_err        is a pointer to an error code returned by this function:
1797:uCOS-III\Source/os_task.c **** *
1798:uCOS-III\Source/os_task.c **** *                               OS_ERR_NONE       upon success
1799:uCOS-III\Source/os_task.c **** *                               OS_ERR_SET_ISR    if you called this function from an ISR
1800:uCOS-III\Source/os_task.c **** *
1801:uCOS-III\Source/os_task.c **** * Returns    : none
1802:uCOS-III\Source/os_task.c **** ***************************************************************************************************
1803:uCOS-III\Source/os_task.c **** */
1804:uCOS-III\Source/os_task.c **** 
1805:uCOS-III\Source/os_task.c **** #if OS_CFG_SCHED_ROUND_ROBIN_EN > 0u
1806:uCOS-III\Source/os_task.c **** void  OSTaskTimeQuantaSet (OS_TCB   *p_tcb,
1807:uCOS-III\Source/os_task.c ****                            OS_TICK   time_quanta,
1808:uCOS-III\Source/os_task.c ****                            OS_ERR   *p_err)
1809:uCOS-III\Source/os_task.c **** {
 1474              		.loc 1 1809 0
 1475              		.cfi_startproc
 1476              		@ args = 0, pretend = 0, frame = 0
 1477              		@ frame_needed = 0, uses_anonymous_args = 0
 1478              	.LVL192:
 1479 0000 70B5     		push	{r4, r5, r6, lr}
 1480              		.cfi_def_cfa_offset 16
 1481              		.cfi_offset 4, -16
 1482              		.cfi_offset 5, -12
 1483              		.cfi_offset 6, -8
 1484              		.cfi_offset 14, -4
 1485 0002 1546     		mov	r5, r2
 1486              	.LVL193:
1810:uCOS-III\Source/os_task.c ****     CPU_SR_ALLOC();
1811:uCOS-III\Source/os_task.c **** 
1812:uCOS-III\Source/os_task.c **** 
1813:uCOS-III\Source/os_task.c **** 
1814:uCOS-III\Source/os_task.c **** #ifdef OS_SAFETY_CRITICAL
ARM GAS  C:\Users\jorti\AppData\Local\Temp\ccDtGf1z.s 			page 59


1815:uCOS-III\Source/os_task.c ****     if (p_err == (OS_ERR *)0) {
1816:uCOS-III\Source/os_task.c ****         OS_SAFETY_CRITICAL_EXCEPTION();
1817:uCOS-III\Source/os_task.c ****         return;
1818:uCOS-III\Source/os_task.c ****     }
1819:uCOS-III\Source/os_task.c **** #endif
1820:uCOS-III\Source/os_task.c **** 
1821:uCOS-III\Source/os_task.c **** #if OS_CFG_CALLED_FROM_ISR_CHK_EN > 0u
1822:uCOS-III\Source/os_task.c ****     if (OSIntNestingCtr > (OS_NESTING_CTR)0) {              /* Can't call this function from an ISR
 1487              		.loc 1 1822 0
 1488 0004 0E4B     		ldr	r3, .L144
 1489 0006 1B78     		ldrb	r3, [r3]	@ zero_extendqisi2
 1490 0008 1BB1     		cbz	r3, .L137
1823:uCOS-III\Source/os_task.c ****        *p_err = OS_ERR_SET_ISR;
 1491              		.loc 1 1823 0
 1492 000a 46F6C653 		movw	r3, #28102
 1493 000e 1380     		strh	r3, [r2]	@ movhi
1824:uCOS-III\Source/os_task.c ****         return;
 1494              		.loc 1 1824 0
 1495 0010 70BD     		pop	{r4, r5, r6, pc}
 1496              	.L137:
 1497 0012 0446     		mov	r4, r0
 1498 0014 0E46     		mov	r6, r1
1825:uCOS-III\Source/os_task.c ****     }
1826:uCOS-III\Source/os_task.c **** #endif
1827:uCOS-III\Source/os_task.c **** 
1828:uCOS-III\Source/os_task.c ****     CPU_CRITICAL_ENTER();
 1499              		.loc 1 1828 0
 1500 0016 FFF7FEFF 		bl	CPU_SR_Save
 1501              	.LVL194:
1829:uCOS-III\Source/os_task.c ****     if (p_tcb == (OS_TCB *)0) {
 1502              		.loc 1 1829 0
 1503 001a 0CB9     		cbnz	r4, .L139
1830:uCOS-III\Source/os_task.c ****         p_tcb = OSTCBCurPtr;
 1504              		.loc 1 1830 0
 1505 001c 094B     		ldr	r3, .L144+4
 1506 001e 1C68     		ldr	r4, [r3]
 1507              	.LVL195:
 1508              	.L139:
1831:uCOS-III\Source/os_task.c ****     }
1832:uCOS-III\Source/os_task.c **** 
1833:uCOS-III\Source/os_task.c ****     if (time_quanta == 0u) {
 1509              		.loc 1 1833 0
 1510 0020 1EB9     		cbnz	r6, .L140
1834:uCOS-III\Source/os_task.c ****         p_tcb->TimeQuanta    = OSSchedRoundRobinDfltTimeQuanta;
 1511              		.loc 1 1834 0
 1512 0022 094B     		ldr	r3, .L144+8
 1513 0024 1B68     		ldr	r3, [r3]
 1514 0026 6365     		str	r3, [r4, #84]
 1515 0028 00E0     		b	.L141
 1516              	.L140:
1835:uCOS-III\Source/os_task.c ****     } else {
1836:uCOS-III\Source/os_task.c ****         p_tcb->TimeQuanta    = time_quanta;
 1517              		.loc 1 1836 0
 1518 002a 6665     		str	r6, [r4, #84]
 1519              	.L141:
1837:uCOS-III\Source/os_task.c ****     }
1838:uCOS-III\Source/os_task.c ****     if (p_tcb->TimeQuanta > p_tcb->TimeQuantaCtr) {
ARM GAS  C:\Users\jorti\AppData\Local\Temp\ccDtGf1z.s 			page 60


 1520              		.loc 1 1838 0
 1521 002c 636D     		ldr	r3, [r4, #84]
 1522 002e A26D     		ldr	r2, [r4, #88]
 1523 0030 9342     		cmp	r3, r2
 1524 0032 00D9     		bls	.L142
1839:uCOS-III\Source/os_task.c ****         p_tcb->TimeQuantaCtr = p_tcb->TimeQuanta;
 1525              		.loc 1 1839 0
 1526 0034 A365     		str	r3, [r4, #88]
 1527              	.L142:
1840:uCOS-III\Source/os_task.c ****     }
1841:uCOS-III\Source/os_task.c ****     CPU_CRITICAL_EXIT();
 1528              		.loc 1 1841 0
 1529 0036 FFF7FEFF 		bl	CPU_SR_Restore
 1530              	.LVL196:
1842:uCOS-III\Source/os_task.c ****    *p_err = OS_ERR_NONE;
 1531              		.loc 1 1842 0
 1532 003a 0023     		movs	r3, #0
 1533 003c 2B80     		strh	r3, [r5]	@ movhi
 1534 003e 70BD     		pop	{r4, r5, r6, pc}
 1535              	.LVL197:
 1536              	.L145:
 1537              		.align	2
 1538              	.L144:
 1539 0040 00000000 		.word	OSIntNestingCtr
 1540 0044 00000000 		.word	OSTCBCurPtr
 1541 0048 00000000 		.word	OSSchedRoundRobinDfltTimeQuanta
 1542              		.cfi_endproc
 1543              	.LFE18:
 1544              		.size	OSTaskTimeQuantaSet, .-OSTaskTimeQuantaSet
 1545              		.section	.text.OS_TaskDbgListAdd,"ax",%progbits
 1546              		.align	2
 1547              		.global	OS_TaskDbgListAdd
 1548              		.thumb
 1549              		.thumb_func
 1550              		.type	OS_TaskDbgListAdd, %function
 1551              	OS_TaskDbgListAdd:
 1552              	.LFB19:
1843:uCOS-III\Source/os_task.c **** }
1844:uCOS-III\Source/os_task.c **** #endif
1845:uCOS-III\Source/os_task.c **** 
1846:uCOS-III\Source/os_task.c **** /*$PAGE*/
1847:uCOS-III\Source/os_task.c **** /*
1848:uCOS-III\Source/os_task.c **** ***************************************************************************************************
1849:uCOS-III\Source/os_task.c **** *                                            ADD/REMOVE TASK TO/FROM DEBUG LIST
1850:uCOS-III\Source/os_task.c **** *
1851:uCOS-III\Source/os_task.c **** * Description: These functions are called by uC/OS-III to add or remove an OS_TCB from the debug li
1852:uCOS-III\Source/os_task.c **** *
1853:uCOS-III\Source/os_task.c **** * Arguments  : p_tcb     is a pointer to the OS_TCB to add/remove
1854:uCOS-III\Source/os_task.c **** *
1855:uCOS-III\Source/os_task.c **** * Returns    : none
1856:uCOS-III\Source/os_task.c **** *
1857:uCOS-III\Source/os_task.c **** * Note(s)    : These functions are INTERNAL to uC/OS-III and your application should not call it.
1858:uCOS-III\Source/os_task.c **** ***************************************************************************************************
1859:uCOS-III\Source/os_task.c **** */
1860:uCOS-III\Source/os_task.c **** 
1861:uCOS-III\Source/os_task.c **** #if OS_CFG_DBG_EN > 0u
1862:uCOS-III\Source/os_task.c **** void  OS_TaskDbgListAdd (OS_TCB  *p_tcb)
ARM GAS  C:\Users\jorti\AppData\Local\Temp\ccDtGf1z.s 			page 61


1863:uCOS-III\Source/os_task.c **** {
 1553              		.loc 1 1863 0
 1554              		.cfi_startproc
 1555              		@ args = 0, pretend = 0, frame = 0
 1556              		@ frame_needed = 0, uses_anonymous_args = 0
 1557              		@ link register save eliminated.
 1558              	.LVL198:
1864:uCOS-III\Source/os_task.c ****     p_tcb->DbgPrevPtr                = (OS_TCB *)0;
 1559              		.loc 1 1864 0
 1560 0000 0023     		movs	r3, #0
 1561 0002 C0F8B430 		str	r3, [r0, #180]
1865:uCOS-III\Source/os_task.c ****     if (OSTaskDbgListPtr == (OS_TCB *)0) {
 1562              		.loc 1 1865 0
 1563 0006 064B     		ldr	r3, .L149
 1564 0008 1B68     		ldr	r3, [r3]
 1565 000a 13B9     		cbnz	r3, .L147
1866:uCOS-III\Source/os_task.c ****         p_tcb->DbgNextPtr            = (OS_TCB *)0;
 1566              		.loc 1 1866 0
 1567 000c C0F8B830 		str	r3, [r0, #184]
 1568 0010 03E0     		b	.L148
 1569              	.L147:
1867:uCOS-III\Source/os_task.c ****     } else {
1868:uCOS-III\Source/os_task.c ****         p_tcb->DbgNextPtr            =  OSTaskDbgListPtr;
 1570              		.loc 1 1868 0
 1571 0012 C0F8B830 		str	r3, [r0, #184]
1869:uCOS-III\Source/os_task.c ****         OSTaskDbgListPtr->DbgPrevPtr =  p_tcb;
 1572              		.loc 1 1869 0
 1573 0016 C3F8B400 		str	r0, [r3, #180]
 1574              	.L148:
1870:uCOS-III\Source/os_task.c ****     }
1871:uCOS-III\Source/os_task.c ****     OSTaskDbgListPtr                 =  p_tcb;
 1575              		.loc 1 1871 0
 1576 001a 014B     		ldr	r3, .L149
 1577 001c 1860     		str	r0, [r3]
 1578 001e 7047     		bx	lr
 1579              	.L150:
 1580              		.align	2
 1581              	.L149:
 1582 0020 00000000 		.word	OSTaskDbgListPtr
 1583              		.cfi_endproc
 1584              	.LFE19:
 1585              		.size	OS_TaskDbgListAdd, .-OS_TaskDbgListAdd
 1586              		.section	.text.OS_TaskDbgListRemove,"ax",%progbits
 1587              		.align	2
 1588              		.global	OS_TaskDbgListRemove
 1589              		.thumb
 1590              		.thumb_func
 1591              		.type	OS_TaskDbgListRemove, %function
 1592              	OS_TaskDbgListRemove:
 1593              	.LFB20:
1872:uCOS-III\Source/os_task.c **** }
1873:uCOS-III\Source/os_task.c **** 
1874:uCOS-III\Source/os_task.c **** 
1875:uCOS-III\Source/os_task.c **** 
1876:uCOS-III\Source/os_task.c **** void  OS_TaskDbgListRemove (OS_TCB  *p_tcb)
1877:uCOS-III\Source/os_task.c **** {
 1594              		.loc 1 1877 0
ARM GAS  C:\Users\jorti\AppData\Local\Temp\ccDtGf1z.s 			page 62


 1595              		.cfi_startproc
 1596              		@ args = 0, pretend = 0, frame = 0
 1597              		@ frame_needed = 0, uses_anonymous_args = 0
 1598              		@ link register save eliminated.
 1599              	.LVL199:
1878:uCOS-III\Source/os_task.c ****     OS_TCB  *p_tcb_next;
1879:uCOS-III\Source/os_task.c ****     OS_TCB  *p_tcb_prev;
1880:uCOS-III\Source/os_task.c **** 
1881:uCOS-III\Source/os_task.c **** 
1882:uCOS-III\Source/os_task.c ****     p_tcb_prev = p_tcb->DbgPrevPtr;
 1600              		.loc 1 1882 0
 1601 0000 D0F8B420 		ldr	r2, [r0, #180]
 1602              	.LVL200:
1883:uCOS-III\Source/os_task.c ****     p_tcb_next = p_tcb->DbgNextPtr;
 1603              		.loc 1 1883 0
 1604 0004 D0F8B830 		ldr	r3, [r0, #184]
 1605              	.LVL201:
1884:uCOS-III\Source/os_task.c **** 
1885:uCOS-III\Source/os_task.c ****     if (p_tcb_prev == (OS_TCB *)0) {
 1606              		.loc 1 1885 0
 1607 0008 4AB9     		cbnz	r2, .L152
1886:uCOS-III\Source/os_task.c ****         OSTaskDbgListPtr = p_tcb_next;
 1608              		.loc 1 1886 0
 1609 000a 0D4A     		ldr	r2, .L156
 1610              	.LVL202:
 1611 000c 1360     		str	r3, [r2]
1887:uCOS-III\Source/os_task.c ****         if (p_tcb_next != (OS_TCB *)0) {
 1612              		.loc 1 1887 0
 1613 000e 13B1     		cbz	r3, .L153
1888:uCOS-III\Source/os_task.c ****             p_tcb_next->DbgPrevPtr = (OS_TCB *)0;
 1614              		.loc 1 1888 0
 1615 0010 0022     		movs	r2, #0
 1616 0012 C3F8B420 		str	r2, [r3, #180]
 1617              	.LVL203:
 1618              	.L153:
1889:uCOS-III\Source/os_task.c ****         }
1890:uCOS-III\Source/os_task.c ****         p_tcb->DbgNextPtr = (OS_TCB *)0;
 1619              		.loc 1 1890 0
 1620 0016 0023     		movs	r3, #0
 1621              	.LVL204:
 1622 0018 C0F8B830 		str	r3, [r0, #184]
 1623 001c 7047     		bx	lr
 1624              	.LVL205:
 1625              	.L152:
1891:uCOS-III\Source/os_task.c **** 
1892:uCOS-III\Source/os_task.c ****     } else if (p_tcb_next == (OS_TCB *)0) {
 1626              		.loc 1 1892 0
 1627 001e 23B9     		cbnz	r3, .L155
1893:uCOS-III\Source/os_task.c ****         p_tcb_prev->DbgNextPtr = (OS_TCB *)0;
 1628              		.loc 1 1893 0
 1629 0020 C2F8B830 		str	r3, [r2, #184]
1894:uCOS-III\Source/os_task.c ****         p_tcb->DbgPrevPtr      = (OS_TCB *)0;
 1630              		.loc 1 1894 0
 1631 0024 C0F8B430 		str	r3, [r0, #180]
 1632 0028 7047     		bx	lr
 1633              	.L155:
1895:uCOS-III\Source/os_task.c **** 
ARM GAS  C:\Users\jorti\AppData\Local\Temp\ccDtGf1z.s 			page 63


1896:uCOS-III\Source/os_task.c ****     } else {
1897:uCOS-III\Source/os_task.c ****         p_tcb_prev->DbgNextPtr =  p_tcb_next;
 1634              		.loc 1 1897 0
 1635 002a C2F8B830 		str	r3, [r2, #184]
1898:uCOS-III\Source/os_task.c ****         p_tcb_next->DbgPrevPtr =  p_tcb_prev;
 1636              		.loc 1 1898 0
 1637 002e C3F8B420 		str	r2, [r3, #180]
1899:uCOS-III\Source/os_task.c ****         p_tcb->DbgNextPtr      = (OS_TCB *)0;
 1638              		.loc 1 1899 0
 1639 0032 0023     		movs	r3, #0
 1640              	.LVL206:
 1641 0034 C0F8B830 		str	r3, [r0, #184]
1900:uCOS-III\Source/os_task.c ****         p_tcb->DbgPrevPtr      = (OS_TCB *)0;
 1642              		.loc 1 1900 0
 1643 0038 C0F8B430 		str	r3, [r0, #180]
 1644 003c 7047     		bx	lr
 1645              	.L157:
 1646 003e 00BF     		.align	2
 1647              	.L156:
 1648 0040 00000000 		.word	OSTaskDbgListPtr
 1649              		.cfi_endproc
 1650              	.LFE20:
 1651              		.size	OS_TaskDbgListRemove, .-OS_TaskDbgListRemove
 1652              		.section	.text.OS_TaskInit,"ax",%progbits
 1653              		.align	2
 1654              		.global	OS_TaskInit
 1655              		.thumb
 1656              		.thumb_func
 1657              		.type	OS_TaskInit, %function
 1658              	OS_TaskInit:
 1659              	.LFB21:
1901:uCOS-III\Source/os_task.c ****     }
1902:uCOS-III\Source/os_task.c **** }
1903:uCOS-III\Source/os_task.c **** #endif
1904:uCOS-III\Source/os_task.c **** 
1905:uCOS-III\Source/os_task.c **** /*$PAGE*/
1906:uCOS-III\Source/os_task.c **** /*
1907:uCOS-III\Source/os_task.c **** ***************************************************************************************************
1908:uCOS-III\Source/os_task.c **** *                                             TASK MANAGER INITIALIZATION
1909:uCOS-III\Source/os_task.c **** *
1910:uCOS-III\Source/os_task.c **** * Description: This function is called by OSInit() to initialize the task management.
1911:uCOS-III\Source/os_task.c **** *
1912:uCOS-III\Source/os_task.c **** 
1913:uCOS-III\Source/os_task.c **** * Argument(s): p_err        is a pointer to a variable that will contain an error code returned by 
1914:uCOS-III\Source/os_task.c **** *
1915:uCOS-III\Source/os_task.c **** *                                OS_ERR_NONE     the call was successful
1916:uCOS-III\Source/os_task.c **** *
1917:uCOS-III\Source/os_task.c **** * Returns    : none
1918:uCOS-III\Source/os_task.c **** *
1919:uCOS-III\Source/os_task.c **** * Note(s)    : This function is INTERNAL to uC/OS-III and your application should not call it.
1920:uCOS-III\Source/os_task.c **** ***************************************************************************************************
1921:uCOS-III\Source/os_task.c **** */
1922:uCOS-III\Source/os_task.c **** 
1923:uCOS-III\Source/os_task.c **** void  OS_TaskInit (OS_ERR  *p_err)
1924:uCOS-III\Source/os_task.c **** {
 1660              		.loc 1 1924 0
 1661              		.cfi_startproc
ARM GAS  C:\Users\jorti\AppData\Local\Temp\ccDtGf1z.s 			page 64


 1662              		@ args = 0, pretend = 0, frame = 0
 1663              		@ frame_needed = 0, uses_anonymous_args = 0
 1664              		@ link register save eliminated.
 1665              	.LVL207:
1925:uCOS-III\Source/os_task.c **** #ifdef OS_SAFETY_CRITICAL
1926:uCOS-III\Source/os_task.c ****     if (p_err == (OS_ERR *)0) {
1927:uCOS-III\Source/os_task.c ****         OS_SAFETY_CRITICAL_EXCEPTION();
1928:uCOS-III\Source/os_task.c ****         return;
1929:uCOS-III\Source/os_task.c ****     }
1930:uCOS-III\Source/os_task.c **** #endif
1931:uCOS-III\Source/os_task.c **** 
1932:uCOS-III\Source/os_task.c **** #if OS_CFG_DBG_EN > 0u
1933:uCOS-III\Source/os_task.c ****     OSTaskDbgListPtr = (OS_TCB      *)0;
 1666              		.loc 1 1933 0
 1667 0000 0023     		movs	r3, #0
 1668 0002 044A     		ldr	r2, .L159
 1669 0004 1360     		str	r3, [r2]
1934:uCOS-III\Source/os_task.c **** #endif
1935:uCOS-III\Source/os_task.c **** 
1936:uCOS-III\Source/os_task.c ****     OSTaskQty        = (OS_OBJ_QTY   )0;                    /* Clear the number of tasks           
 1670              		.loc 1 1936 0
 1671 0006 044A     		ldr	r2, .L159+4
 1672 0008 1380     		strh	r3, [r2]	@ movhi
1937:uCOS-III\Source/os_task.c ****     OSTaskCtxSwCtr   = (OS_CTX_SW_CTR)0;                    /* Clear the context switch counter    
 1673              		.loc 1 1937 0
 1674 000a 044A     		ldr	r2, .L159+8
 1675 000c 1360     		str	r3, [r2]
1938:uCOS-III\Source/os_task.c **** 
1939:uCOS-III\Source/os_task.c ****    *p_err            = OS_ERR_NONE;
 1676              		.loc 1 1939 0
 1677 000e 0380     		strh	r3, [r0]	@ movhi
 1678 0010 7047     		bx	lr
 1679              	.L160:
 1680 0012 00BF     		.align	2
 1681              	.L159:
 1682 0014 00000000 		.word	OSTaskDbgListPtr
 1683 0018 00000000 		.word	OSTaskQty
 1684 001c 00000000 		.word	OSTaskCtxSwCtr
 1685              		.cfi_endproc
 1686              	.LFE21:
 1687              		.size	OS_TaskInit, .-OS_TaskInit
 1688              		.section	.text.OS_TaskInitTCB,"ax",%progbits
 1689              		.align	2
 1690              		.global	OS_TaskInitTCB
 1691              		.thumb
 1692              		.thumb_func
 1693              		.type	OS_TaskInitTCB, %function
 1694              	OS_TaskInitTCB:
 1695              	.LFB22:
1940:uCOS-III\Source/os_task.c **** }
1941:uCOS-III\Source/os_task.c **** 
1942:uCOS-III\Source/os_task.c **** /*$PAGE*/
1943:uCOS-III\Source/os_task.c **** /*
1944:uCOS-III\Source/os_task.c **** ***************************************************************************************************
1945:uCOS-III\Source/os_task.c **** *                                               INITIALIZE TCB FIELDS
1946:uCOS-III\Source/os_task.c **** *
1947:uCOS-III\Source/os_task.c **** * Description: This function is called to initialize a TCB to default values
ARM GAS  C:\Users\jorti\AppData\Local\Temp\ccDtGf1z.s 			page 65


1948:uCOS-III\Source/os_task.c **** *
1949:uCOS-III\Source/os_task.c **** * Arguments  : p_tcb    is a pointer to the TCB to initialize
1950:uCOS-III\Source/os_task.c **** *
1951:uCOS-III\Source/os_task.c **** * Returns    : none
1952:uCOS-III\Source/os_task.c **** *
1953:uCOS-III\Source/os_task.c **** * Note(s)    : This function is INTERNAL to uC/OS-III and your application should not call it.
1954:uCOS-III\Source/os_task.c **** ***************************************************************************************************
1955:uCOS-III\Source/os_task.c **** */
1956:uCOS-III\Source/os_task.c **** 
1957:uCOS-III\Source/os_task.c **** void  OS_TaskInitTCB (OS_TCB  *p_tcb)
1958:uCOS-III\Source/os_task.c **** {
 1696              		.loc 1 1958 0
 1697              		.cfi_startproc
 1698              		@ args = 0, pretend = 0, frame = 0
 1699              		@ frame_needed = 0, uses_anonymous_args = 0
 1700              	.LVL208:
 1701 0000 38B5     		push	{r3, r4, r5, lr}
 1702              		.cfi_def_cfa_offset 16
 1703              		.cfi_offset 3, -16
 1704              		.cfi_offset 4, -12
 1705              		.cfi_offset 5, -8
 1706              		.cfi_offset 14, -4
 1707 0002 0446     		mov	r4, r0
1959:uCOS-III\Source/os_task.c **** #if OS_CFG_TASK_REG_TBL_SIZE > 0u
1960:uCOS-III\Source/os_task.c ****     OS_REG_ID   reg_id;
1961:uCOS-III\Source/os_task.c **** #endif
1962:uCOS-III\Source/os_task.c **** #if defined(OS_CFG_TLS_TBL_SIZE) && (OS_CFG_TLS_TBL_SIZE > 0u)
1963:uCOS-III\Source/os_task.c ****     OS_TLS_ID   id;
1964:uCOS-III\Source/os_task.c **** #endif
1965:uCOS-III\Source/os_task.c **** #if OS_CFG_TASK_PROFILE_EN > 0u
1966:uCOS-III\Source/os_task.c ****     CPU_TS      ts;
1967:uCOS-III\Source/os_task.c **** #endif
1968:uCOS-III\Source/os_task.c **** 
1969:uCOS-III\Source/os_task.c **** 
1970:uCOS-III\Source/os_task.c ****     p_tcb->StkPtr             = (CPU_STK       *)0;
 1708              		.loc 1 1970 0
 1709 0004 0025     		movs	r5, #0
 1710 0006 0560     		str	r5, [r0]
1971:uCOS-III\Source/os_task.c ****     p_tcb->StkLimitPtr        = (CPU_STK       *)0;
 1711              		.loc 1 1971 0
 1712 0008 8560     		str	r5, [r0, #8]
1972:uCOS-III\Source/os_task.c **** 
1973:uCOS-III\Source/os_task.c ****     p_tcb->ExtPtr             = (void          *)0;
 1713              		.loc 1 1973 0
 1714 000a 4560     		str	r5, [r0, #4]
1974:uCOS-III\Source/os_task.c **** 
1975:uCOS-III\Source/os_task.c ****     p_tcb->NextPtr            = (OS_TCB        *)0;
 1715              		.loc 1 1975 0
 1716 000c C560     		str	r5, [r0, #12]
1976:uCOS-III\Source/os_task.c ****     p_tcb->PrevPtr            = (OS_TCB        *)0;
 1717              		.loc 1 1976 0
 1718 000e 0561     		str	r5, [r0, #16]
1977:uCOS-III\Source/os_task.c **** 
1978:uCOS-III\Source/os_task.c ****     p_tcb->TickNextPtr        = (OS_TCB        *)0;
 1719              		.loc 1 1978 0
 1720 0010 4561     		str	r5, [r0, #20]
1979:uCOS-III\Source/os_task.c ****     p_tcb->TickPrevPtr        = (OS_TCB        *)0;
ARM GAS  C:\Users\jorti\AppData\Local\Temp\ccDtGf1z.s 			page 66


 1721              		.loc 1 1979 0
 1722 0012 8561     		str	r5, [r0, #24]
1980:uCOS-III\Source/os_task.c ****     p_tcb->TickSpokePtr       = (OS_TICK_SPOKE *)0;
 1723              		.loc 1 1980 0
 1724 0014 C561     		str	r5, [r0, #28]
1981:uCOS-III\Source/os_task.c **** 
1982:uCOS-III\Source/os_task.c ****     p_tcb->NamePtr            = (CPU_CHAR      *)((void *)"?Task");
 1725              		.loc 1 1982 0
 1726 0016 2B4B     		ldr	r3, .L165
 1727 0018 0362     		str	r3, [r0, #32]
1983:uCOS-III\Source/os_task.c **** 
1984:uCOS-III\Source/os_task.c ****     p_tcb->StkBasePtr         = (CPU_STK       *)0;
 1728              		.loc 1 1984 0
 1729 001a 4562     		str	r5, [r0, #36]
1985:uCOS-III\Source/os_task.c **** 
1986:uCOS-III\Source/os_task.c ****     p_tcb->TaskEntryAddr      = (OS_TASK_PTR    )0;
 1730              		.loc 1 1986 0
 1731 001c 8562     		str	r5, [r0, #40]
1987:uCOS-III\Source/os_task.c ****     p_tcb->TaskEntryArg       = (void          *)0;
 1732              		.loc 1 1987 0
 1733 001e C562     		str	r5, [r0, #44]
1988:uCOS-III\Source/os_task.c **** 
1989:uCOS-III\Source/os_task.c **** #if (OS_CFG_PEND_MULTI_EN > 0u)
1990:uCOS-III\Source/os_task.c ****     p_tcb->PendDataTblPtr     = (OS_PEND_DATA  *)0;
 1734              		.loc 1 1990 0
 1735 0020 0563     		str	r5, [r0, #48]
1991:uCOS-III\Source/os_task.c ****     p_tcb->PendDataTblEntries = (OS_OBJ_QTY     )0u;
 1736              		.loc 1 1991 0
 1737 0022 C587     		strh	r5, [r0, #62]	@ movhi
1992:uCOS-III\Source/os_task.c **** #endif
1993:uCOS-III\Source/os_task.c **** 
1994:uCOS-III\Source/os_task.c ****     p_tcb->TS                 = (CPU_TS         )0u;
 1738              		.loc 1 1994 0
 1739 0024 0564     		str	r5, [r0, #64]
1995:uCOS-III\Source/os_task.c **** 
1996:uCOS-III\Source/os_task.c **** #if (OS_MSG_EN > 0u)
1997:uCOS-III\Source/os_task.c ****     p_tcb->MsgPtr             = (void          *)0;
 1740              		.loc 1 1997 0
 1741 0026 C565     		str	r5, [r0, #92]
1998:uCOS-III\Source/os_task.c ****     p_tcb->MsgSize            = (OS_MSG_SIZE    )0u;
 1742              		.loc 1 1998 0
 1743 0028 A0F86050 		strh	r5, [r0, #96]	@ movhi
1999:uCOS-III\Source/os_task.c **** #endif
2000:uCOS-III\Source/os_task.c **** 
2001:uCOS-III\Source/os_task.c **** #if OS_CFG_TASK_Q_EN > 0u
2002:uCOS-III\Source/os_task.c ****     OS_MsgQInit(&p_tcb->MsgQ,
 1744              		.loc 1 2002 0
 1745 002c 2946     		mov	r1, r5
 1746 002e 6430     		adds	r0, r0, #100
 1747              	.LVL209:
 1748 0030 FFF7FEFF 		bl	OS_MsgQInit
 1749              	.LVL210:
2003:uCOS-III\Source/os_task.c ****                 (OS_MSG_QTY)0u);
2004:uCOS-III\Source/os_task.c **** #if OS_CFG_TASK_PROFILE_EN > 0u
2005:uCOS-III\Source/os_task.c ****     p_tcb->MsgQPendTime       = (CPU_TS         )0u;
 1750              		.loc 1 2005 0
 1751 0034 6567     		str	r5, [r4, #116]
ARM GAS  C:\Users\jorti\AppData\Local\Temp\ccDtGf1z.s 			page 67


2006:uCOS-III\Source/os_task.c ****     p_tcb->MsgQPendTimeMax    = (CPU_TS         )0u;
 1752              		.loc 1 2006 0
 1753 0036 A567     		str	r5, [r4, #120]
2007:uCOS-III\Source/os_task.c **** #endif
2008:uCOS-III\Source/os_task.c **** #endif
2009:uCOS-III\Source/os_task.c **** 
2010:uCOS-III\Source/os_task.c **** #if OS_CFG_FLAG_EN > 0u
2011:uCOS-III\Source/os_task.c ****     p_tcb->FlagsPend          = (OS_FLAGS       )0u;
 1754              		.loc 1 2011 0
 1755 0038 C4F88050 		str	r5, [r4, #128]
2012:uCOS-III\Source/os_task.c ****     p_tcb->FlagsOpt           = (OS_OPT         )0u;
 1756              		.loc 1 2012 0
 1757 003c A4F88850 		strh	r5, [r4, #136]	@ movhi
2013:uCOS-III\Source/os_task.c ****     p_tcb->FlagsRdy           = (OS_FLAGS       )0u;
 1758              		.loc 1 2013 0
 1759 0040 C4F88450 		str	r5, [r4, #132]
 1760              	.LVL211:
2014:uCOS-III\Source/os_task.c **** #endif
2015:uCOS-III\Source/os_task.c **** 
2016:uCOS-III\Source/os_task.c **** #if OS_CFG_TASK_REG_TBL_SIZE > 0u
2017:uCOS-III\Source/os_task.c ****     for (reg_id = 0u; reg_id < OS_CFG_TASK_REG_TBL_SIZE; reg_id++) {
 1761              		.loc 1 2017 0
 1762 0044 07E0     		b	.L162
 1763              	.LVL212:
 1764              	.L163:
2018:uCOS-III\Source/os_task.c ****         p_tcb->RegTbl[reg_id] = (OS_REG)0u;
 1765              		.loc 1 2018 0 discriminator 3
 1766 0046 05F11E03 		add	r3, r5, #30
 1767 004a 04EB8303 		add	r3, r4, r3, lsl #2
 1768 004e 0022     		movs	r2, #0
 1769 0050 5A60     		str	r2, [r3, #4]
2017:uCOS-III\Source/os_task.c ****         p_tcb->RegTbl[reg_id] = (OS_REG)0u;
 1770              		.loc 1 2017 0 discriminator 3
 1771 0052 0135     		adds	r5, r5, #1
 1772              	.LVL213:
 1773 0054 EDB2     		uxtb	r5, r5
 1774              	.LVL214:
 1775              	.L162:
2017:uCOS-III\Source/os_task.c ****         p_tcb->RegTbl[reg_id] = (OS_REG)0u;
 1776              		.loc 1 2017 0 is_stmt 0 discriminator 1
 1777 0056 002D     		cmp	r5, #0
 1778 0058 F5D0     		beq	.L163
2019:uCOS-III\Source/os_task.c ****     }
2020:uCOS-III\Source/os_task.c **** #endif
2021:uCOS-III\Source/os_task.c **** 
2022:uCOS-III\Source/os_task.c **** #if defined(OS_CFG_TLS_TBL_SIZE) && (OS_CFG_TLS_TBL_SIZE > 0u)
2023:uCOS-III\Source/os_task.c ****     for (id = 0u; id < OS_CFG_TLS_TBL_SIZE; id++) {
2024:uCOS-III\Source/os_task.c ****         p_tcb->TLS_Tbl[id]    = (OS_TLS)0;
2025:uCOS-III\Source/os_task.c ****     }
2026:uCOS-III\Source/os_task.c **** #endif
2027:uCOS-III\Source/os_task.c **** 
2028:uCOS-III\Source/os_task.c ****     p_tcb->SemCtr             = (OS_SEM_CTR     )0u;
 1779              		.loc 1 2028 0 is_stmt 1
 1780 005a 0025     		movs	r5, #0
 1781              	.LVL215:
 1782 005c 6564     		str	r5, [r4, #68]
2029:uCOS-III\Source/os_task.c **** #if OS_CFG_TASK_PROFILE_EN > 0u
ARM GAS  C:\Users\jorti\AppData\Local\Temp\ccDtGf1z.s 			page 68


2030:uCOS-III\Source/os_task.c ****     p_tcb->SemPendTime        = (CPU_TS         )0u;
 1783              		.loc 1 2030 0
 1784 005e C4F8A450 		str	r5, [r4, #164]
2031:uCOS-III\Source/os_task.c ****     p_tcb->SemPendTimeMax     = (CPU_TS         )0u;
 1785              		.loc 1 2031 0
 1786 0062 C4F8A850 		str	r5, [r4, #168]
2032:uCOS-III\Source/os_task.c **** #endif
2033:uCOS-III\Source/os_task.c **** 
2034:uCOS-III\Source/os_task.c ****     p_tcb->StkSize            = (CPU_STK_SIZE   )0u;
 1787              		.loc 1 2034 0
 1788 0066 A563     		str	r5, [r4, #56]
2035:uCOS-III\Source/os_task.c **** 
2036:uCOS-III\Source/os_task.c **** 
2037:uCOS-III\Source/os_task.c **** #if OS_CFG_TASK_SUSPEND_EN > 0u
2038:uCOS-III\Source/os_task.c ****     p_tcb->SuspendCtr         = (OS_NESTING_CTR )0u;
 1789              		.loc 1 2038 0
 1790 0068 84F88A50 		strb	r5, [r4, #138]
2039:uCOS-III\Source/os_task.c **** #endif
2040:uCOS-III\Source/os_task.c **** 
2041:uCOS-III\Source/os_task.c **** #if OS_CFG_STAT_TASK_STK_CHK_EN > 0u
2042:uCOS-III\Source/os_task.c ****     p_tcb->StkFree            = (CPU_STK_SIZE   )0u;
 1791              		.loc 1 2042 0
 1792 006c C4F8B050 		str	r5, [r4, #176]
2043:uCOS-III\Source/os_task.c ****     p_tcb->StkUsed            = (CPU_STK_SIZE   )0u;
 1793              		.loc 1 2043 0
 1794 0070 C4F8AC50 		str	r5, [r4, #172]
2044:uCOS-III\Source/os_task.c **** #endif
2045:uCOS-III\Source/os_task.c **** 
2046:uCOS-III\Source/os_task.c ****     p_tcb->Opt                = (OS_OPT         )0u;
 1795              		.loc 1 2046 0
 1796 0074 A587     		strh	r5, [r4, #60]	@ movhi
2047:uCOS-III\Source/os_task.c **** 
2048:uCOS-III\Source/os_task.c ****     p_tcb->TickCtrPrev        = (OS_TICK        )OS_TICK_TH_INIT;
 1797              		.loc 1 2048 0
 1798 0076 4FF00043 		mov	r3, #-2147483648
 1799 007a A364     		str	r3, [r4, #72]
2049:uCOS-III\Source/os_task.c ****     p_tcb->TickCtrMatch       = (OS_TICK        )0u;
 1800              		.loc 1 2049 0
 1801 007c E564     		str	r5, [r4, #76]
2050:uCOS-III\Source/os_task.c ****     p_tcb->TickRemain         = (OS_TICK        )0u;
 1802              		.loc 1 2050 0
 1803 007e 2565     		str	r5, [r4, #80]
2051:uCOS-III\Source/os_task.c **** 
2052:uCOS-III\Source/os_task.c ****     p_tcb->TimeQuanta         = (OS_TICK        )0u;
 1804              		.loc 1 2052 0
 1805 0080 6565     		str	r5, [r4, #84]
2053:uCOS-III\Source/os_task.c ****     p_tcb->TimeQuantaCtr      = (OS_TICK        )0u;
 1806              		.loc 1 2053 0
 1807 0082 A565     		str	r5, [r4, #88]
2054:uCOS-III\Source/os_task.c **** 
2055:uCOS-III\Source/os_task.c **** #if OS_CFG_TASK_PROFILE_EN > 0u
2056:uCOS-III\Source/os_task.c ****     p_tcb->CPUUsage           = (OS_CPU_USAGE   )0u;
 1808              		.loc 1 2056 0
 1809 0084 A4F88C50 		strh	r5, [r4, #140]	@ movhi
2057:uCOS-III\Source/os_task.c ****     p_tcb->CPUUsageMax        = (OS_CPU_USAGE   )0u;
 1810              		.loc 1 2057 0
 1811 0088 A4F88E50 		strh	r5, [r4, #142]	@ movhi
ARM GAS  C:\Users\jorti\AppData\Local\Temp\ccDtGf1z.s 			page 69


2058:uCOS-III\Source/os_task.c ****     p_tcb->CtxSwCtr           = (OS_CTX_SW_CTR  )0u;
 1812              		.loc 1 2058 0
 1813 008c C4F89050 		str	r5, [r4, #144]
2059:uCOS-III\Source/os_task.c ****     p_tcb->CyclesDelta        = (CPU_TS         )0u;
 1814              		.loc 1 2059 0
 1815 0090 C4F89450 		str	r5, [r4, #148]
2060:uCOS-III\Source/os_task.c ****     ts                        = OS_TS_GET();                /* Read the current timestamp and save 
 1816              		.loc 1 2060 0
 1817 0094 FFF7FEFF 		bl	CPU_TS_TmrRd
 1818              	.LVL216:
2061:uCOS-III\Source/os_task.c ****     p_tcb->CyclesStart        = ts;
 1819              		.loc 1 2061 0
 1820 0098 C4F89800 		str	r0, [r4, #152]
2062:uCOS-III\Source/os_task.c ****     p_tcb->CyclesTotal        = (OS_CYCLES      )0u;
 1821              		.loc 1 2062 0
 1822 009c C4F89C50 		str	r5, [r4, #156]
2063:uCOS-III\Source/os_task.c **** #endif
2064:uCOS-III\Source/os_task.c **** #ifdef CPU_CFG_INT_DIS_MEAS_EN
2065:uCOS-III\Source/os_task.c ****     p_tcb->IntDisTimeMax      = (CPU_TS         )0u;
2066:uCOS-III\Source/os_task.c **** #endif
2067:uCOS-III\Source/os_task.c **** #if OS_CFG_SCHED_LOCK_TIME_MEAS_EN > 0u
2068:uCOS-III\Source/os_task.c ****     p_tcb->SchedLockTimeMax   = (CPU_TS         )0u;
2069:uCOS-III\Source/os_task.c **** #endif
2070:uCOS-III\Source/os_task.c **** 
2071:uCOS-III\Source/os_task.c ****     p_tcb->PendOn             = (OS_STATE       )OS_TASK_PEND_ON_NOTHING;
 1823              		.loc 1 2071 0
 1824 00a0 84F83450 		strb	r5, [r4, #52]
2072:uCOS-III\Source/os_task.c ****     p_tcb->PendStatus         = (OS_STATUS      )OS_STATUS_PEND_OK;
 1825              		.loc 1 2072 0
 1826 00a4 84F83550 		strb	r5, [r4, #53]
2073:uCOS-III\Source/os_task.c ****     p_tcb->TaskState          = (OS_STATE       )OS_TASK_STATE_RDY;
 1827              		.loc 1 2073 0
 1828 00a8 84F83650 		strb	r5, [r4, #54]
2074:uCOS-III\Source/os_task.c **** 
2075:uCOS-III\Source/os_task.c ****     p_tcb->Prio               = (OS_PRIO        )OS_PRIO_INIT;
 1829              		.loc 1 2075 0
 1830 00ac 0823     		movs	r3, #8
 1831 00ae 84F83730 		strb	r3, [r4, #55]
2076:uCOS-III\Source/os_task.c **** 
2077:uCOS-III\Source/os_task.c **** #if OS_CFG_DBG_EN > 0u
2078:uCOS-III\Source/os_task.c ****     p_tcb->DbgPrevPtr         = (OS_TCB        *)0;
 1832              		.loc 1 2078 0
 1833 00b2 C4F8B450 		str	r5, [r4, #180]
2079:uCOS-III\Source/os_task.c ****     p_tcb->DbgNextPtr         = (OS_TCB        *)0;
 1834              		.loc 1 2079 0
 1835 00b6 C4F8B850 		str	r5, [r4, #184]
2080:uCOS-III\Source/os_task.c ****     p_tcb->DbgNamePtr         = (CPU_CHAR      *)((void *)" ");
 1836              		.loc 1 2080 0
 1837 00ba 034B     		ldr	r3, .L165+4
 1838 00bc C4F8BC30 		str	r3, [r4, #188]
 1839 00c0 38BD     		pop	{r3, r4, r5, pc}
 1840              	.LVL217:
 1841              	.L166:
 1842 00c2 00BF     		.align	2
 1843              	.L165:
 1844 00c4 00000000 		.word	.LC0
 1845 00c8 08000000 		.word	.LC1
ARM GAS  C:\Users\jorti\AppData\Local\Temp\ccDtGf1z.s 			page 70


 1846              		.cfi_endproc
 1847              	.LFE22:
 1848              		.size	OS_TaskInitTCB, .-OS_TaskInitTCB
 1849              		.section	.text.OSTaskCreate,"ax",%progbits
 1850              		.align	2
 1851              		.global	OSTaskCreate
 1852              		.thumb
 1853              		.thumb_func
 1854              		.type	OSTaskCreate, %function
 1855              	OSTaskCreate:
 1856              	.LFB2:
 262:uCOS-III\Source/os_task.c ****     CPU_STK_SIZE   i;
 1857              		.loc 1 262 0
 1858              		.cfi_startproc
 1859              		@ args = 36, pretend = 0, frame = 0
 1860              		@ frame_needed = 0, uses_anonymous_args = 0
 1861              	.LVL218:
 1862 0000 2DE9F04E 		push	{r4, r5, r6, r7, r9, r10, fp, lr}
 1863              		.cfi_def_cfa_offset 32
 1864              		.cfi_offset 4, -32
 1865              		.cfi_offset 5, -28
 1866              		.cfi_offset 6, -24
 1867              		.cfi_offset 7, -20
 1868              		.cfi_offset 9, -16
 1869              		.cfi_offset 10, -12
 1870              		.cfi_offset 11, -8
 1871              		.cfi_offset 14, -4
 1872 0004 82B0     		sub	sp, sp, #8
 1873              		.cfi_def_cfa_offset 40
 1874 0006 9DF82860 		ldrb	r6, [sp, #40]	@ zero_extendqisi2
 1875 000a BDF84470 		ldrh	r7, [sp, #68]
 1876              	.LVL219:
 292:uCOS-III\Source/os_task.c ****        *p_err = OS_ERR_TASK_CREATE_ISR;
 1877              		.loc 1 292 0
 1878 000e 604D     		ldr	r5, .L187
 1879 0010 2D78     		ldrb	r5, [r5]	@ zero_extendqisi2
 1880 0012 25B1     		cbz	r5, .L168
 293:uCOS-III\Source/os_task.c ****         return;
 1881              		.loc 1 293 0
 1882 0014 47F24A13 		movw	r3, #29002
 1883              	.LVL220:
 1884 0018 129A     		ldr	r2, [sp, #72]
 1885              	.LVL221:
 1886 001a 1380     		strh	r3, [r2]	@ movhi
 294:uCOS-III\Source/os_task.c ****     }
 1887              		.loc 1 294 0
 1888 001c B4E0     		b	.L167
 1889              	.LVL222:
 1890              	.L168:
 299:uCOS-III\Source/os_task.c ****        *p_err = OS_ERR_TCB_INVALID;
 1891              		.loc 1 299 0
 1892 001e 20B9     		cbnz	r0, .L170
 300:uCOS-III\Source/os_task.c ****         return;
 1893              		.loc 1 300 0
 1894 0020 47F2AD13 		movw	r3, #29101
 1895              	.LVL223:
 1896 0024 129A     		ldr	r2, [sp, #72]
ARM GAS  C:\Users\jorti\AppData\Local\Temp\ccDtGf1z.s 			page 71


 1897              	.LVL224:
 1898 0026 1380     		strh	r3, [r2]	@ movhi
 301:uCOS-III\Source/os_task.c ****     }
 1899              		.loc 1 301 0
 1900 0028 AEE0     		b	.L167
 1901              	.LVL225:
 1902              	.L170:
 303:uCOS-III\Source/os_task.c ****        *p_err = OS_ERR_TASK_INVALID;
 1903              		.loc 1 303 0
 1904 002a 22B9     		cbnz	r2, .L171
 304:uCOS-III\Source/os_task.c ****         return;
 1905              		.loc 1 304 0
 1906 002c 47F24F13 		movw	r3, #29007
 1907              	.LVL226:
 1908 0030 129A     		ldr	r2, [sp, #72]
 1909              	.LVL227:
 1910 0032 1380     		strh	r3, [r2]	@ movhi
 305:uCOS-III\Source/os_task.c ****     }
 1911              		.loc 1 305 0
 1912 0034 A8E0     		b	.L167
 1913              	.LVL228:
 1914              	.L171:
 307:uCOS-III\Source/os_task.c ****        *p_err = OS_ERR_STK_INVALID;
 1915              		.loc 1 307 0
 1916 0036 0B9C     		ldr	r4, [sp, #44]
 1917 0038 24B9     		cbnz	r4, .L172
 308:uCOS-III\Source/os_task.c ****         return;
 1918              		.loc 1 308 0
 1919 003a 46F62F63 		movw	r3, #28207
 1920              	.LVL229:
 1921 003e 129A     		ldr	r2, [sp, #72]
 1922              	.LVL230:
 1923 0040 1380     		strh	r3, [r2]	@ movhi
 309:uCOS-III\Source/os_task.c ****     }
 1924              		.loc 1 309 0
 1925 0042 A1E0     		b	.L167
 1926              	.LVL231:
 1927              	.L172:
 311:uCOS-III\Source/os_task.c ****        *p_err = OS_ERR_STK_SIZE_INVALID;
 1928              		.loc 1 311 0
 1929 0044 534D     		ldr	r5, .L187+4
 1930 0046 2D68     		ldr	r5, [r5]
 1931 0048 0D9C     		ldr	r4, [sp, #52]
 1932 004a A542     		cmp	r5, r4
 1933 004c 04D9     		bls	.L173
 312:uCOS-III\Source/os_task.c ****         return;
 1934              		.loc 1 312 0
 1935 004e 46F63063 		movw	r3, #28208
 1936              	.LVL232:
 1937 0052 129A     		ldr	r2, [sp, #72]
 1938              	.LVL233:
 1939 0054 1380     		strh	r3, [r2]	@ movhi
 313:uCOS-III\Source/os_task.c ****     }
 1940              		.loc 1 313 0
 1941 0056 97E0     		b	.L167
 1942              	.LVL234:
 1943              	.L173:
ARM GAS  C:\Users\jorti\AppData\Local\Temp\ccDtGf1z.s 			page 72


 315:uCOS-III\Source/os_task.c ****        *p_err = OS_ERR_STK_LIMIT_INVALID;
 1944              		.loc 1 315 0
 1945 0058 0D9C     		ldr	r4, [sp, #52]
 1946 005a 0C9D     		ldr	r5, [sp, #48]
 1947 005c AC42     		cmp	r4, r5
 1948 005e 04D8     		bhi	.L174
 316:uCOS-III\Source/os_task.c ****         return;
 1949              		.loc 1 316 0
 1950 0060 46F63163 		movw	r3, #28209
 1951              	.LVL235:
 1952 0064 129A     		ldr	r2, [sp, #72]
 1953              	.LVL236:
 1954 0066 1380     		strh	r3, [r2]	@ movhi
 317:uCOS-III\Source/os_task.c ****     }
 1955              		.loc 1 317 0
 1956 0068 8EE0     		b	.L167
 1957              	.LVL237:
 1958              	.L174:
 319:uCOS-III\Source/os_task.c ****        *p_err = OS_ERR_PRIO_INVALID;
 1959              		.loc 1 319 0
 1960 006a 072E     		cmp	r6, #7
 1961 006c 04D9     		bls	.L175
 320:uCOS-III\Source/os_task.c ****         return;
 1962              		.loc 1 320 0
 1963 006e 46F27323 		movw	r3, #25203
 1964              	.LVL238:
 1965 0072 129A     		ldr	r2, [sp, #72]
 1966              	.LVL239:
 1967 0074 1380     		strh	r3, [r2]	@ movhi
 321:uCOS-III\Source/os_task.c ****     }
 1968              		.loc 1 321 0
 1969 0076 87E0     		b	.L167
 1970              	.LVL240:
 1971              	.L175:
 334:uCOS-III\Source/os_task.c ****         if (p_tcb != &OSIdleTaskTCB) {
 1972              		.loc 1 334 0
 1973 0078 072E     		cmp	r6, #7
 1974 007a 07D1     		bne	.L176
 335:uCOS-III\Source/os_task.c ****            *p_err = OS_ERR_PRIO_INVALID;                    /* Not allowed to use same priority as 
 1975              		.loc 1 335 0
 1976 007c 464D     		ldr	r5, .L187+8
 1977 007e A842     		cmp	r0, r5
 1978 0080 04D0     		beq	.L176
 336:uCOS-III\Source/os_task.c ****             return;
 1979              		.loc 1 336 0
 1980 0082 46F27323 		movw	r3, #25203
 1981              	.LVL241:
 1982 0086 129A     		ldr	r2, [sp, #72]
 1983              	.LVL242:
 1984 0088 1380     		strh	r3, [r2]	@ movhi
 337:uCOS-III\Source/os_task.c ****         }
 1985              		.loc 1 337 0
 1986 008a 7DE0     		b	.L167
 1987              	.LVL243:
 1988              	.L176:
 1989 008c 9946     		mov	r9, r3
 1990 008e 1546     		mov	r5, r2
ARM GAS  C:\Users\jorti\AppData\Local\Temp\ccDtGf1z.s 			page 73


 1991 0090 8A46     		mov	r10, r1
 1992 0092 8346     		mov	fp, r0
 341:uCOS-III\Source/os_task.c **** 
 1993              		.loc 1 341 0
 1994 0094 FFF7FEFF 		bl	OS_TaskInitTCB
 1995              	.LVL244:
 343:uCOS-III\Source/os_task.c ****                                                             /* --------------- CLEAR THE TASK'S STA
 1996              		.loc 1 343 0
 1997 0098 0023     		movs	r3, #0
 1998 009a 129A     		ldr	r2, [sp, #72]
 1999 009c 1380     		strh	r3, [r2]	@ movhi
 345:uCOS-III\Source/os_task.c ****         if ((opt & OS_OPT_TASK_STK_CLR) != (OS_OPT)0) {     /* See if stack needs to be cleared    
 2000              		.loc 1 345 0
 2001 009e 17F0010F 		tst	r7, #1
 2002 00a2 0ED0     		beq	.L177
 346:uCOS-III\Source/os_task.c ****             p_sp = p_stk_base;
 2003              		.loc 1 346 0
 2004 00a4 07F00203 		and	r3, r7, #2
 2005 00a8 9BB2     		uxth	r3, r3
 2006 00aa 2BB9     		cbnz	r3, .L185
 2007 00ac 09E0     		b	.L177
 2008              	.LVL245:
 2009              	.L179:
 349:uCOS-III\Source/os_task.c ****                 p_sp++;
 2010              		.loc 1 349 0 discriminator 3
 2011 00ae 0021     		movs	r1, #0
 2012 00b0 42F8041B 		str	r1, [r2], #4
 2013              	.LVL246:
 348:uCOS-III\Source/os_task.c ****                *p_sp = (CPU_STK)0;                          /* Clear from bottom of stack and up!  
 2014              		.loc 1 348 0 discriminator 3
 2015 00b4 0133     		adds	r3, r3, #1
 2016              	.LVL247:
 2017 00b6 01E0     		b	.L178
 2018              	.LVL248:
 2019              	.L185:
 2020 00b8 0B9A     		ldr	r2, [sp, #44]
 2021 00ba 0023     		movs	r3, #0
 2022              	.L178:
 2023              	.LVL249:
 348:uCOS-III\Source/os_task.c ****                *p_sp = (CPU_STK)0;                          /* Clear from bottom of stack and up!  
 2024              		.loc 1 348 0 is_stmt 0 discriminator 1
 2025 00bc 0D99     		ldr	r1, [sp, #52]
 2026 00be 8B42     		cmp	r3, r1
 2027 00c0 F5D3     		bcc	.L179
 2028              	.LVL250:
 2029              	.L177:
 356:uCOS-III\Source/os_task.c **** #else
 2030              		.loc 1 356 0 is_stmt 1
 2031 00c2 0B9B     		ldr	r3, [sp, #44]
 2032 00c4 0C9A     		ldr	r2, [sp, #48]
 2033 00c6 03EB8204 		add	r4, r3, r2, lsl #2
 2034              	.LVL251:
 361:uCOS-III\Source/os_task.c ****                          p_arg,
 2035              		.loc 1 361 0
 2036 00ca 0197     		str	r7, [sp, #4]
 2037 00cc 0D9B     		ldr	r3, [sp, #52]
 2038 00ce 0093     		str	r3, [sp]
ARM GAS  C:\Users\jorti\AppData\Local\Temp\ccDtGf1z.s 			page 74


 2039 00d0 2346     		mov	r3, r4
 2040 00d2 0B9A     		ldr	r2, [sp, #44]
 2041 00d4 4946     		mov	r1, r9
 2042 00d6 2846     		mov	r0, r5
 2043 00d8 FFF7FEFF 		bl	OSTaskStkInit
 2044              	.LVL252:
 369:uCOS-III\Source/os_task.c ****     p_tcb->TaskEntryArg  = p_arg;                           /* Save task entry argument            
 2045              		.loc 1 369 0
 2046 00dc CBF82850 		str	r5, [fp, #40]
 370:uCOS-III\Source/os_task.c **** 
 2047              		.loc 1 370 0
 2048 00e0 CBF82C90 		str	r9, [fp, #44]
 372:uCOS-III\Source/os_task.c **** 
 2049              		.loc 1 372 0
 2050 00e4 CBF820A0 		str	r10, [fp, #32]
 374:uCOS-III\Source/os_task.c **** 
 2051              		.loc 1 374 0
 2052 00e8 8BF83760 		strb	r6, [fp, #55]
 376:uCOS-III\Source/os_task.c ****     p_tcb->StkLimitPtr   = p_stk_limit;                     /* Save the stack limit pointer        
 2053              		.loc 1 376 0
 2054 00ec CBF80000 		str	r0, [fp]
 377:uCOS-III\Source/os_task.c **** 
 2055              		.loc 1 377 0
 2056 00f0 CBF80840 		str	r4, [fp, #8]
 379:uCOS-III\Source/os_task.c **** #if OS_CFG_SCHED_ROUND_ROBIN_EN > 0u
 2057              		.loc 1 379 0
 2058 00f4 0F9B     		ldr	r3, [sp, #60]
 2059 00f6 CBF85430 		str	r3, [fp, #84]
 381:uCOS-III\Source/os_task.c ****         p_tcb->TimeQuantaCtr = OSSchedRoundRobinDfltTimeQuanta;
 2060              		.loc 1 381 0
 2061 00fa 23B9     		cbnz	r3, .L180
 382:uCOS-III\Source/os_task.c ****     } else {
 2062              		.loc 1 382 0
 2063 00fc 274B     		ldr	r3, .L187+12
 2064 00fe 1B68     		ldr	r3, [r3]
 2065 0100 CBF85830 		str	r3, [fp, #88]
 2066 0104 02E0     		b	.L181
 2067              	.L180:
 384:uCOS-III\Source/os_task.c ****     }
 2068              		.loc 1 384 0
 2069 0106 0F9B     		ldr	r3, [sp, #60]
 2070 0108 CBF85830 		str	r3, [fp, #88]
 2071              	.L181:
 387:uCOS-III\Source/os_task.c ****     p_tcb->StkBasePtr    = p_stk_base;                      /* Save pointer to the base address of 
 2072              		.loc 1 387 0
 2073 010c 109B     		ldr	r3, [sp, #64]
 2074 010e CBF80430 		str	r3, [fp, #4]
 388:uCOS-III\Source/os_task.c ****     p_tcb->StkSize       = stk_size;                        /* Save the stack size (in number of CP
 2075              		.loc 1 388 0
 2076 0112 0B9B     		ldr	r3, [sp, #44]
 2077 0114 CBF82430 		str	r3, [fp, #36]
 389:uCOS-III\Source/os_task.c ****     p_tcb->Opt           = opt;                             /* Save task options                   
 2078              		.loc 1 389 0
 2079 0118 0D9B     		ldr	r3, [sp, #52]
 2080 011a CBF83830 		str	r3, [fp, #56]
 390:uCOS-III\Source/os_task.c **** 
 2081              		.loc 1 390 0
ARM GAS  C:\Users\jorti\AppData\Local\Temp\ccDtGf1z.s 			page 75


 2082 011e ABF83C70 		strh	r7, [fp, #60]	@ movhi
 2083              	.LVL253:
 393:uCOS-III\Source/os_task.c ****         p_tcb->RegTbl[reg_nbr] = (OS_REG)0;
 2084              		.loc 1 393 0
 2085 0122 0023     		movs	r3, #0
 2086 0124 07E0     		b	.L182
 2087              	.LVL254:
 2088              	.L183:
 394:uCOS-III\Source/os_task.c ****     }
 2089              		.loc 1 394 0 discriminator 3
 2090 0126 03F11E02 		add	r2, r3, #30
 2091 012a 0BEB8202 		add	r2, fp, r2, lsl #2
 2092 012e 0021     		movs	r1, #0
 2093 0130 5160     		str	r1, [r2, #4]
 393:uCOS-III\Source/os_task.c ****         p_tcb->RegTbl[reg_nbr] = (OS_REG)0;
 2094              		.loc 1 393 0 discriminator 3
 2095 0132 0133     		adds	r3, r3, #1
 2096              	.LVL255:
 2097 0134 DBB2     		uxtb	r3, r3
 2098              	.LVL256:
 2099              	.L182:
 393:uCOS-III\Source/os_task.c ****         p_tcb->RegTbl[reg_nbr] = (OS_REG)0;
 2100              		.loc 1 393 0 is_stmt 0 discriminator 1
 2101 0136 002B     		cmp	r3, #0
 2102 0138 F5D0     		beq	.L183
 399:uCOS-III\Source/os_task.c ****                 q_size);
 2103              		.loc 1 399 0 is_stmt 1
 2104 013a BDF83810 		ldrh	r1, [sp, #56]
 2105 013e 0BF16400 		add	r0, fp, #100
 2106              	.LVL257:
 2107 0142 FFF7FEFF 		bl	OS_MsgQInit
 2108              	.LVL258:
 405:uCOS-III\Source/os_task.c **** 
 2109              		.loc 1 405 0
 2110 0146 5846     		mov	r0, fp
 2111 0148 FFF7FEFF 		bl	OSTaskCreateHook
 2112              	.LVL259:
 414:uCOS-III\Source/os_task.c ****     OS_PrioInsert(p_tcb->Prio);
 2113              		.loc 1 414 0
 2114 014c FFF7FEFF 		bl	CPU_SR_Save
 2115              	.LVL260:
 2116 0150 0446     		mov	r4, r0
 2117              	.LVL261:
 415:uCOS-III\Source/os_task.c ****     OS_RdyListInsertTail(p_tcb);
 2118              		.loc 1 415 0
 2119 0152 9BF83700 		ldrb	r0, [fp, #55]	@ zero_extendqisi2
 2120              	.LVL262:
 2121 0156 FFF7FEFF 		bl	OS_PrioInsert
 2122              	.LVL263:
 416:uCOS-III\Source/os_task.c **** 
 2123              		.loc 1 416 0
 2124 015a 5846     		mov	r0, fp
 2125 015c FFF7FEFF 		bl	OS_RdyListInsertTail
 2126              	.LVL264:
 419:uCOS-III\Source/os_task.c **** #endif
 2127              		.loc 1 419 0
 2128 0160 5846     		mov	r0, fp
ARM GAS  C:\Users\jorti\AppData\Local\Temp\ccDtGf1z.s 			page 76


 2129 0162 FFF7FEFF 		bl	OS_TaskDbgListAdd
 2130              	.LVL265:
 422:uCOS-III\Source/os_task.c **** 
 2131              		.loc 1 422 0
 2132 0166 0E4A     		ldr	r2, .L187+16
 2133 0168 1388     		ldrh	r3, [r2]
 2134 016a 0133     		adds	r3, r3, #1
 2135 016c 1380     		strh	r3, [r2]	@ movhi
 424:uCOS-III\Source/os_task.c ****         OS_CRITICAL_EXIT();
 2136              		.loc 1 424 0
 2137 016e 0D4B     		ldr	r3, .L187+20
 2138 0170 1B78     		ldrb	r3, [r3]	@ zero_extendqisi2
 2139 0172 012B     		cmp	r3, #1
 2140 0174 03D0     		beq	.L184
 425:uCOS-III\Source/os_task.c ****         return;
 2141              		.loc 1 425 0
 2142 0176 2046     		mov	r0, r4
 2143 0178 FFF7FEFF 		bl	CPU_SR_Restore
 2144              	.LVL266:
 426:uCOS-III\Source/os_task.c ****     }
 2145              		.loc 1 426 0
 2146 017c 04E0     		b	.L167
 2147              	.L184:
 429:uCOS-III\Source/os_task.c **** 
 2148              		.loc 1 429 0
 2149 017e 2046     		mov	r0, r4
 2150 0180 FFF7FEFF 		bl	CPU_SR_Restore
 2151              	.LVL267:
 431:uCOS-III\Source/os_task.c **** }
 2152              		.loc 1 431 0
 2153 0184 FFF7FEFF 		bl	OSSched
 2154              	.LVL268:
 2155              	.L167:
 432:uCOS-III\Source/os_task.c **** 
 2156              		.loc 1 432 0
 2157 0188 02B0     		add	sp, sp, #8
 2158              		.cfi_def_cfa_offset 32
 2159              		@ sp needed
 2160 018a BDE8F08E 		pop	{r4, r5, r6, r7, r9, r10, fp, pc}
 2161              	.LVL269:
 2162              	.L188:
 2163 018e 00BF     		.align	2
 2164              	.L187:
 2165 0190 00000000 		.word	OSIntNestingCtr
 2166 0194 00000000 		.word	OSCfg_StkSizeMin
 2167 0198 00000000 		.word	OSIdleTaskTCB
 2168 019c 00000000 		.word	OSSchedRoundRobinDfltTimeQuanta
 2169 01a0 00000000 		.word	OSTaskQty
 2170 01a4 00000000 		.word	OSRunning
 2171              		.cfi_endproc
 2172              	.LFE2:
 2173              		.size	OSTaskCreate, .-OSTaskCreate
 2174              		.section	.text.OSTaskDel,"ax",%progbits
 2175              		.align	2
 2176              		.global	OSTaskDel
 2177              		.thumb
 2178              		.thumb_func
ARM GAS  C:\Users\jorti\AppData\Local\Temp\ccDtGf1z.s 			page 77


 2179              		.type	OSTaskDel, %function
 2180              	OSTaskDel:
 2181              	.LFB3:
 462:uCOS-III\Source/os_task.c ****     CPU_SR_ALLOC();
 2182              		.loc 1 462 0
 2183              		.cfi_startproc
 2184              		@ args = 0, pretend = 0, frame = 0
 2185              		@ frame_needed = 0, uses_anonymous_args = 0
 2186              	.LVL270:
 2187 0000 70B5     		push	{r4, r5, r6, lr}
 2188              		.cfi_def_cfa_offset 16
 2189              		.cfi_offset 4, -16
 2190              		.cfi_offset 5, -12
 2191              		.cfi_offset 6, -8
 2192              		.cfi_offset 14, -4
 2193 0002 0D46     		mov	r5, r1
 2194              	.LVL271:
 475:uCOS-III\Source/os_task.c ****        *p_err = OS_ERR_TASK_DEL_ISR;
 2195              		.loc 1 475 0
 2196 0004 2D4B     		ldr	r3, .L202
 2197 0006 1B78     		ldrb	r3, [r3]	@ zero_extendqisi2
 2198 0008 1BB1     		cbz	r3, .L190
 476:uCOS-III\Source/os_task.c ****         return;
 2199              		.loc 1 476 0
 2200 000a 47F24E13 		movw	r3, #29006
 2201 000e 0B80     		strh	r3, [r1]	@ movhi
 477:uCOS-III\Source/os_task.c ****     }
 2202              		.loc 1 477 0
 2203 0010 70BD     		pop	{r4, r5, r6, pc}
 2204              	.L190:
 2205 0012 0446     		mov	r4, r0
 481:uCOS-III\Source/os_task.c ****        *p_err = OS_ERR_TASK_DEL_IDLE;
 2206              		.loc 1 481 0
 2207 0014 2A4B     		ldr	r3, .L202+4
 2208 0016 9842     		cmp	r0, r3
 2209 0018 03D1     		bne	.L192
 482:uCOS-III\Source/os_task.c ****         return;
 2210              		.loc 1 482 0
 2211 001a 47F24C13 		movw	r3, #29004
 2212 001e 0B80     		strh	r3, [r1]	@ movhi
 483:uCOS-III\Source/os_task.c ****     }
 2213              		.loc 1 483 0
 2214 0020 70BD     		pop	{r4, r5, r6, pc}
 2215              	.L192:
 493:uCOS-III\Source/os_task.c ****         CPU_CRITICAL_ENTER();
 2216              		.loc 1 493 0
 2217 0022 28B9     		cbnz	r0, .L193
 494:uCOS-III\Source/os_task.c ****         p_tcb  = OSTCBCurPtr;                               /* Yes.                                
 2218              		.loc 1 494 0
 2219 0024 FFF7FEFF 		bl	CPU_SR_Save
 2220              	.LVL272:
 495:uCOS-III\Source/os_task.c ****         CPU_CRITICAL_EXIT();
 2221              		.loc 1 495 0
 2222 0028 264B     		ldr	r3, .L202+8
 2223 002a 1C68     		ldr	r4, [r3]
 2224              	.LVL273:
 496:uCOS-III\Source/os_task.c ****     }
ARM GAS  C:\Users\jorti\AppData\Local\Temp\ccDtGf1z.s 			page 78


 2225              		.loc 1 496 0
 2226 002c FFF7FEFF 		bl	CPU_SR_Restore
 2227              	.LVL274:
 2228              	.L193:
 499:uCOS-III\Source/os_task.c ****     switch (p_tcb->TaskState) {
 2229              		.loc 1 499 0
 2230 0030 FFF7FEFF 		bl	CPU_SR_Save
 2231              	.LVL275:
 2232 0034 0646     		mov	r6, r0
 2233              	.LVL276:
 500:uCOS-III\Source/os_task.c ****         case OS_TASK_STATE_RDY:
 2234              		.loc 1 500 0
 2235 0036 94F83630 		ldrb	r3, [r4, #54]	@ zero_extendqisi2
 2236 003a 072B     		cmp	r3, #7
 2237 003c 1CD8     		bhi	.L194
 2238 003e DFE803F0 		tbb	[pc, r3]
 2239              	.L196:
 2240 0042 04       		.byte	(.L195-.L196)/2
 2241 0043 08       		.byte	(.L197-.L196)/2
 2242 0044 0C       		.byte	(.L198-.L196)/2
 2243 0045 0C       		.byte	(.L198-.L196)/2
 2244 0046 21       		.byte	(.L199-.L196)/2
 2245 0047 08       		.byte	(.L197-.L196)/2
 2246 0048 0C       		.byte	(.L198-.L196)/2
 2247 0049 0C       		.byte	(.L198-.L196)/2
 2248              		.p2align 1
 2249              	.L195:
 502:uCOS-III\Source/os_task.c ****              break;
 2250              		.loc 1 502 0
 2251 004a 2046     		mov	r0, r4
 2252              	.LVL277:
 2253 004c FFF7FEFF 		bl	OS_RdyListRemove
 2254              	.LVL278:
 503:uCOS-III\Source/os_task.c **** 
 2255              		.loc 1 503 0
 2256 0050 18E0     		b	.L199
 2257              	.LVL279:
 2258              	.L197:
 510:uCOS-III\Source/os_task.c ****              break;
 2259              		.loc 1 510 0
 2260 0052 2046     		mov	r0, r4
 2261              	.LVL280:
 2262 0054 FFF7FEFF 		bl	OS_TickListRemove
 2263              	.LVL281:
 511:uCOS-III\Source/os_task.c **** 
 2264              		.loc 1 511 0
 2265 0058 14E0     		b	.L199
 2266              	.LVL282:
 2267              	.L198:
 517:uCOS-III\Source/os_task.c ****              switch (p_tcb->PendOn) {                       /* See what we are pending on          
 2268              		.loc 1 517 0
