ARM GAS  C:\Users\roman\AppData\Local\Temp\ccV1ZXzS.s 			page 1


   1              		.syntax unified
   2              		.cpu cortex-m3
   3              		.fpu softvfp
   4              		.eabi_attribute 20, 1
   5              		.eabi_attribute 21, 1
   6              		.eabi_attribute 23, 3
   7              		.eabi_attribute 24, 1
   8              		.eabi_attribute 25, 1
   9              		.eabi_attribute 26, 1
  10              		.eabi_attribute 30, 1
  11              		.eabi_attribute 34, 1
  12              		.eabi_attribute 18, 4
  13              		.thumb
  14              		.syntax unified
  15              		.file	"probe_rs232_os.c"
  16              		.text
  17              	.Ltext0:
  18              		.cfi_sections	.debug_frame
  19              		.section	.text.ProbeRS232_OS_Task,"ax",%progbits
  20              		.align	2
  21              		.thumb
  22              		.thumb_func
  23              		.type	ProbeRS232_OS_Task, %function
  24              	ProbeRS232_OS_Task:
  25              	.LFB4:
  26              		.file 1 "uC-Probe\\Target\\Communication\\Generic\\RS-232\\OS\\uCOS-III\\probe_rs232_os.c"
   1:uC-Probe\Target\Communication\Generic\RS-232\OS\uCOS-III/probe_rs232_os.c **** /*
   2:uC-Probe\Target\Communication\Generic\RS-232\OS\uCOS-III/probe_rs232_os.c **** ***************************************************************************************************
   3:uC-Probe\Target\Communication\Generic\RS-232\OS\uCOS-III/probe_rs232_os.c **** *                                       uC/Probe Communication
   4:uC-Probe\Target\Communication\Generic\RS-232\OS\uCOS-III/probe_rs232_os.c **** *
   5:uC-Probe\Target\Communication\Generic\RS-232\OS\uCOS-III/probe_rs232_os.c **** *                         (c) Copyright 2007-2008; Micrium, Inc.; Weston, FL
   6:uC-Probe\Target\Communication\Generic\RS-232\OS\uCOS-III/probe_rs232_os.c **** *
   7:uC-Probe\Target\Communication\Generic\RS-232\OS\uCOS-III/probe_rs232_os.c **** *               All rights reserved.  Protected by international copyright laws.
   8:uC-Probe\Target\Communication\Generic\RS-232\OS\uCOS-III/probe_rs232_os.c **** *               Knowledge of the source code may NOT be used to develop a similar product.
   9:uC-Probe\Target\Communication\Generic\RS-232\OS\uCOS-III/probe_rs232_os.c **** *               Please help us continue to provide the Embedded community with the finest
  10:uC-Probe\Target\Communication\Generic\RS-232\OS\uCOS-III/probe_rs232_os.c **** *               software available.  Your honesty is greatly appreciated.
  11:uC-Probe\Target\Communication\Generic\RS-232\OS\uCOS-III/probe_rs232_os.c **** ***************************************************************************************************
  12:uC-Probe\Target\Communication\Generic\RS-232\OS\uCOS-III/probe_rs232_os.c **** */
  13:uC-Probe\Target\Communication\Generic\RS-232\OS\uCOS-III/probe_rs232_os.c **** 
  14:uC-Probe\Target\Communication\Generic\RS-232\OS\uCOS-III/probe_rs232_os.c **** /*
  15:uC-Probe\Target\Communication\Generic\RS-232\OS\uCOS-III/probe_rs232_os.c **** ***************************************************************************************************
  16:uC-Probe\Target\Communication\Generic\RS-232\OS\uCOS-III/probe_rs232_os.c **** *
  17:uC-Probe\Target\Communication\Generic\RS-232\OS\uCOS-III/probe_rs232_os.c **** *                                        COMMUNICATION: RS-232
  18:uC-Probe\Target\Communication\Generic\RS-232\OS\uCOS-III/probe_rs232_os.c **** *                                        Micrium uC/OS-III PORT
  19:uC-Probe\Target\Communication\Generic\RS-232\OS\uCOS-III/probe_rs232_os.c **** *
  20:uC-Probe\Target\Communication\Generic\RS-232\OS\uCOS-III/probe_rs232_os.c **** * Filename      : probe_rs232_os.c
  21:uC-Probe\Target\Communication\Generic\RS-232\OS\uCOS-III/probe_rs232_os.c **** * Version       : V2.30
  22:uC-Probe\Target\Communication\Generic\RS-232\OS\uCOS-III/probe_rs232_os.c **** * Programmer(s) : BAN
  23:uC-Probe\Target\Communication\Generic\RS-232\OS\uCOS-III/probe_rs232_os.c **** *                 FT
  24:uC-Probe\Target\Communication\Generic\RS-232\OS\uCOS-III/probe_rs232_os.c **** ***************************************************************************************************
  25:uC-Probe\Target\Communication\Generic\RS-232\OS\uCOS-III/probe_rs232_os.c **** * Note(s)       : (1) This file is the uC/OS-III layer for the uC/Probe RS-232 Communication Module
  26:uC-Probe\Target\Communication\Generic\RS-232\OS\uCOS-III/probe_rs232_os.c **** *
  27:uC-Probe\Target\Communication\Generic\RS-232\OS\uCOS-III/probe_rs232_os.c **** *                 (2) Assumes uC/OS-II V3.00 is included in the project build.
  28:uC-Probe\Target\Communication\Generic\RS-232\OS\uCOS-III/probe_rs232_os.c **** ***************************************************************************************************
  29:uC-Probe\Target\Communication\Generic\RS-232\OS\uCOS-III/probe_rs232_os.c **** */
  30:uC-Probe\Target\Communication\Generic\RS-232\OS\uCOS-III/probe_rs232_os.c **** 
  31:uC-Probe\Target\Communication\Generic\RS-232\OS\uCOS-III/probe_rs232_os.c **** 
ARM GAS  C:\Users\roman\AppData\Local\Temp\ccV1ZXzS.s 			page 2


  32:uC-Probe\Target\Communication\Generic\RS-232\OS\uCOS-III/probe_rs232_os.c **** /*
  33:uC-Probe\Target\Communication\Generic\RS-232\OS\uCOS-III/probe_rs232_os.c **** ***************************************************************************************************
  34:uC-Probe\Target\Communication\Generic\RS-232\OS\uCOS-III/probe_rs232_os.c **** *                                            INCLUDE FILES
  35:uC-Probe\Target\Communication\Generic\RS-232\OS\uCOS-III/probe_rs232_os.c **** ***************************************************************************************************
  36:uC-Probe\Target\Communication\Generic\RS-232\OS\uCOS-III/probe_rs232_os.c **** */
  37:uC-Probe\Target\Communication\Generic\RS-232\OS\uCOS-III/probe_rs232_os.c **** 
  38:uC-Probe\Target\Communication\Generic\RS-232\OS\uCOS-III/probe_rs232_os.c **** #include  <probe_com.h>
  39:uC-Probe\Target\Communication\Generic\RS-232\OS\uCOS-III/probe_rs232_os.c **** #include  <probe_rs232.h>
  40:uC-Probe\Target\Communication\Generic\RS-232\OS\uCOS-III/probe_rs232_os.c **** #include  <os.h>
  41:uC-Probe\Target\Communication\Generic\RS-232\OS\uCOS-III/probe_rs232_os.c **** 
  42:uC-Probe\Target\Communication\Generic\RS-232\OS\uCOS-III/probe_rs232_os.c **** 
  43:uC-Probe\Target\Communication\Generic\RS-232\OS\uCOS-III/probe_rs232_os.c **** /*
  44:uC-Probe\Target\Communication\Generic\RS-232\OS\uCOS-III/probe_rs232_os.c **** ***************************************************************************************************
  45:uC-Probe\Target\Communication\Generic\RS-232\OS\uCOS-III/probe_rs232_os.c **** *                                               ENABLE
  46:uC-Probe\Target\Communication\Generic\RS-232\OS\uCOS-III/probe_rs232_os.c **** *
  47:uC-Probe\Target\Communication\Generic\RS-232\OS\uCOS-III/probe_rs232_os.c **** * Note(s) : (1) See 'probe_rs232.h  ENABLE'.
  48:uC-Probe\Target\Communication\Generic\RS-232\OS\uCOS-III/probe_rs232_os.c **** ***************************************************************************************************
  49:uC-Probe\Target\Communication\Generic\RS-232\OS\uCOS-III/probe_rs232_os.c **** */
  50:uC-Probe\Target\Communication\Generic\RS-232\OS\uCOS-III/probe_rs232_os.c **** 
  51:uC-Probe\Target\Communication\Generic\RS-232\OS\uCOS-III/probe_rs232_os.c **** #if (PROBE_COM_CFG_RS232_EN == DEF_ENABLED)                     /* See Note #1.                    
  52:uC-Probe\Target\Communication\Generic\RS-232\OS\uCOS-III/probe_rs232_os.c **** 
  53:uC-Probe\Target\Communication\Generic\RS-232\OS\uCOS-III/probe_rs232_os.c **** 
  54:uC-Probe\Target\Communication\Generic\RS-232\OS\uCOS-III/probe_rs232_os.c **** /*
  55:uC-Probe\Target\Communication\Generic\RS-232\OS\uCOS-III/probe_rs232_os.c **** ***************************************************************************************************
  56:uC-Probe\Target\Communication\Generic\RS-232\OS\uCOS-III/probe_rs232_os.c **** *                                            LOCAL DEFINES
  57:uC-Probe\Target\Communication\Generic\RS-232\OS\uCOS-III/probe_rs232_os.c **** ***************************************************************************************************
  58:uC-Probe\Target\Communication\Generic\RS-232\OS\uCOS-III/probe_rs232_os.c **** */
  59:uC-Probe\Target\Communication\Generic\RS-232\OS\uCOS-III/probe_rs232_os.c **** 
  60:uC-Probe\Target\Communication\Generic\RS-232\OS\uCOS-III/probe_rs232_os.c **** #define  PROBE_RS232_TASK_STK_LIMIT_PCT_FULL             90u
  61:uC-Probe\Target\Communication\Generic\RS-232\OS\uCOS-III/probe_rs232_os.c **** #define  PROBE_RS232_TASK_STK_LIMIT             ((PROBE_RS232_CFG_TASK_STK_SIZE * (100u - PROBE_RS2
  62:uC-Probe\Target\Communication\Generic\RS-232\OS\uCOS-III/probe_rs232_os.c **** 
  63:uC-Probe\Target\Communication\Generic\RS-232\OS\uCOS-III/probe_rs232_os.c **** /*
  64:uC-Probe\Target\Communication\Generic\RS-232\OS\uCOS-III/probe_rs232_os.c **** ***************************************************************************************************
  65:uC-Probe\Target\Communication\Generic\RS-232\OS\uCOS-III/probe_rs232_os.c **** *                                           LOCAL CONSTANTS
  66:uC-Probe\Target\Communication\Generic\RS-232\OS\uCOS-III/probe_rs232_os.c **** ***************************************************************************************************
  67:uC-Probe\Target\Communication\Generic\RS-232\OS\uCOS-III/probe_rs232_os.c **** */
  68:uC-Probe\Target\Communication\Generic\RS-232\OS\uCOS-III/probe_rs232_os.c **** 
  69:uC-Probe\Target\Communication\Generic\RS-232\OS\uCOS-III/probe_rs232_os.c **** 
  70:uC-Probe\Target\Communication\Generic\RS-232\OS\uCOS-III/probe_rs232_os.c **** /*
  71:uC-Probe\Target\Communication\Generic\RS-232\OS\uCOS-III/probe_rs232_os.c **** ***************************************************************************************************
  72:uC-Probe\Target\Communication\Generic\RS-232\OS\uCOS-III/probe_rs232_os.c **** *                                          LOCAL DATA TYPES
  73:uC-Probe\Target\Communication\Generic\RS-232\OS\uCOS-III/probe_rs232_os.c **** ***************************************************************************************************
  74:uC-Probe\Target\Communication\Generic\RS-232\OS\uCOS-III/probe_rs232_os.c **** */
  75:uC-Probe\Target\Communication\Generic\RS-232\OS\uCOS-III/probe_rs232_os.c **** 
  76:uC-Probe\Target\Communication\Generic\RS-232\OS\uCOS-III/probe_rs232_os.c **** 
  77:uC-Probe\Target\Communication\Generic\RS-232\OS\uCOS-III/probe_rs232_os.c **** /*
  78:uC-Probe\Target\Communication\Generic\RS-232\OS\uCOS-III/probe_rs232_os.c **** ***************************************************************************************************
  79:uC-Probe\Target\Communication\Generic\RS-232\OS\uCOS-III/probe_rs232_os.c **** *                                            LOCAL TABLES
  80:uC-Probe\Target\Communication\Generic\RS-232\OS\uCOS-III/probe_rs232_os.c **** ***************************************************************************************************
  81:uC-Probe\Target\Communication\Generic\RS-232\OS\uCOS-III/probe_rs232_os.c **** */
  82:uC-Probe\Target\Communication\Generic\RS-232\OS\uCOS-III/probe_rs232_os.c **** 
  83:uC-Probe\Target\Communication\Generic\RS-232\OS\uCOS-III/probe_rs232_os.c **** 
  84:uC-Probe\Target\Communication\Generic\RS-232\OS\uCOS-III/probe_rs232_os.c **** /*
  85:uC-Probe\Target\Communication\Generic\RS-232\OS\uCOS-III/probe_rs232_os.c **** ***************************************************************************************************
  86:uC-Probe\Target\Communication\Generic\RS-232\OS\uCOS-III/probe_rs232_os.c **** *                                       LOCAL GLOBAL VARIABLES
  87:uC-Probe\Target\Communication\Generic\RS-232\OS\uCOS-III/probe_rs232_os.c **** ***************************************************************************************************
  88:uC-Probe\Target\Communication\Generic\RS-232\OS\uCOS-III/probe_rs232_os.c **** */
ARM GAS  C:\Users\roman\AppData\Local\Temp\ccV1ZXzS.s 			page 3


  89:uC-Probe\Target\Communication\Generic\RS-232\OS\uCOS-III/probe_rs232_os.c **** 
  90:uC-Probe\Target\Communication\Generic\RS-232\OS\uCOS-III/probe_rs232_os.c **** #if (PROBE_RS232_CFG_PARSE_TASK_EN == DEF_ENABLED)
  91:uC-Probe\Target\Communication\Generic\RS-232\OS\uCOS-III/probe_rs232_os.c **** static  CPU_STK  ProbeRS232_OS_TaskStk[PROBE_RS232_CFG_TASK_STK_SIZE];  /* Probe RS-232 task stack.
  92:uC-Probe\Target\Communication\Generic\RS-232\OS\uCOS-III/probe_rs232_os.c **** static  OS_TCB   ProbeRS232_OS_TaskTCB;
  93:uC-Probe\Target\Communication\Generic\RS-232\OS\uCOS-III/probe_rs232_os.c **** 
  94:uC-Probe\Target\Communication\Generic\RS-232\OS\uCOS-III/probe_rs232_os.c **** static  OS_SEM   ProbeRS232_OS_Sem;                                     /* Packet receive signal.  
  95:uC-Probe\Target\Communication\Generic\RS-232\OS\uCOS-III/probe_rs232_os.c **** #endif
  96:uC-Probe\Target\Communication\Generic\RS-232\OS\uCOS-III/probe_rs232_os.c **** 
  97:uC-Probe\Target\Communication\Generic\RS-232\OS\uCOS-III/probe_rs232_os.c **** 
  98:uC-Probe\Target\Communication\Generic\RS-232\OS\uCOS-III/probe_rs232_os.c **** /*
  99:uC-Probe\Target\Communication\Generic\RS-232\OS\uCOS-III/probe_rs232_os.c **** ***************************************************************************************************
 100:uC-Probe\Target\Communication\Generic\RS-232\OS\uCOS-III/probe_rs232_os.c **** *                                      LOCAL FUNCTION PROTOTYPES
 101:uC-Probe\Target\Communication\Generic\RS-232\OS\uCOS-III/probe_rs232_os.c **** ***************************************************************************************************
 102:uC-Probe\Target\Communication\Generic\RS-232\OS\uCOS-III/probe_rs232_os.c **** */
 103:uC-Probe\Target\Communication\Generic\RS-232\OS\uCOS-III/probe_rs232_os.c **** 
 104:uC-Probe\Target\Communication\Generic\RS-232\OS\uCOS-III/probe_rs232_os.c **** #if (PROBE_RS232_CFG_PARSE_TASK_EN == DEF_ENABLED)
 105:uC-Probe\Target\Communication\Generic\RS-232\OS\uCOS-III/probe_rs232_os.c **** static  void  ProbeRS232_OS_Task(void *p_arg);                          /* Probe RS-232 task.      
 106:uC-Probe\Target\Communication\Generic\RS-232\OS\uCOS-III/probe_rs232_os.c **** #endif
 107:uC-Probe\Target\Communication\Generic\RS-232\OS\uCOS-III/probe_rs232_os.c **** 
 108:uC-Probe\Target\Communication\Generic\RS-232\OS\uCOS-III/probe_rs232_os.c **** 
 109:uC-Probe\Target\Communication\Generic\RS-232\OS\uCOS-III/probe_rs232_os.c **** /*
 110:uC-Probe\Target\Communication\Generic\RS-232\OS\uCOS-III/probe_rs232_os.c **** ***************************************************************************************************
 111:uC-Probe\Target\Communication\Generic\RS-232\OS\uCOS-III/probe_rs232_os.c **** *                                     LOCAL CONFIGURATION ERRORS
 112:uC-Probe\Target\Communication\Generic\RS-232\OS\uCOS-III/probe_rs232_os.c **** ***************************************************************************************************
 113:uC-Probe\Target\Communication\Generic\RS-232\OS\uCOS-III/probe_rs232_os.c **** */
 114:uC-Probe\Target\Communication\Generic\RS-232\OS\uCOS-III/probe_rs232_os.c **** 
 115:uC-Probe\Target\Communication\Generic\RS-232\OS\uCOS-III/probe_rs232_os.c **** #if     (PROBE_RS232_CFG_PARSE_TASK_EN == DEF_ENABLED)
 116:uC-Probe\Target\Communication\Generic\RS-232\OS\uCOS-III/probe_rs232_os.c **** #if     (OS_CFG_SEM_EN < 1)
 117:uC-Probe\Target\Communication\Generic\RS-232\OS\uCOS-III/probe_rs232_os.c **** #error  "OS_CFG_SEM_EN          illegally #define'd in 'os_cfg.h'   "
 118:uC-Probe\Target\Communication\Generic\RS-232\OS\uCOS-III/probe_rs232_os.c **** #error  "                       [MUST be  > 0]                      "
 119:uC-Probe\Target\Communication\Generic\RS-232\OS\uCOS-III/probe_rs232_os.c **** #endif
 120:uC-Probe\Target\Communication\Generic\RS-232\OS\uCOS-III/probe_rs232_os.c **** #endif
 121:uC-Probe\Target\Communication\Generic\RS-232\OS\uCOS-III/probe_rs232_os.c **** 
 122:uC-Probe\Target\Communication\Generic\RS-232\OS\uCOS-III/probe_rs232_os.c **** 
 123:uC-Probe\Target\Communication\Generic\RS-232\OS\uCOS-III/probe_rs232_os.c **** /*
 124:uC-Probe\Target\Communication\Generic\RS-232\OS\uCOS-III/probe_rs232_os.c **** ***************************************************************************************************
 125:uC-Probe\Target\Communication\Generic\RS-232\OS\uCOS-III/probe_rs232_os.c **** *                                         ProbeRS232_OS_Init()
 126:uC-Probe\Target\Communication\Generic\RS-232\OS\uCOS-III/probe_rs232_os.c **** *
 127:uC-Probe\Target\Communication\Generic\RS-232\OS\uCOS-III/probe_rs232_os.c **** * Description : Create RTOS objects for RS-232 communication.
 128:uC-Probe\Target\Communication\Generic\RS-232\OS\uCOS-III/probe_rs232_os.c **** *
 129:uC-Probe\Target\Communication\Generic\RS-232\OS\uCOS-III/probe_rs232_os.c **** * Argument(s) : none.
 130:uC-Probe\Target\Communication\Generic\RS-232\OS\uCOS-III/probe_rs232_os.c **** *
 131:uC-Probe\Target\Communication\Generic\RS-232\OS\uCOS-III/probe_rs232_os.c **** * Return(s)   : DEF_OK,   if OS initialization successful.
 132:uC-Probe\Target\Communication\Generic\RS-232\OS\uCOS-III/probe_rs232_os.c **** *               DEF_FAIL, otherwise.
 133:uC-Probe\Target\Communication\Generic\RS-232\OS\uCOS-III/probe_rs232_os.c **** *
 134:uC-Probe\Target\Communication\Generic\RS-232\OS\uCOS-III/probe_rs232_os.c **** * Caller(s)   : ProbeRS232_Init().
 135:uC-Probe\Target\Communication\Generic\RS-232\OS\uCOS-III/probe_rs232_os.c **** *
 136:uC-Probe\Target\Communication\Generic\RS-232\OS\uCOS-III/probe_rs232_os.c **** * Note(s)     : none.
 137:uC-Probe\Target\Communication\Generic\RS-232\OS\uCOS-III/probe_rs232_os.c **** ***************************************************************************************************
 138:uC-Probe\Target\Communication\Generic\RS-232\OS\uCOS-III/probe_rs232_os.c **** */
 139:uC-Probe\Target\Communication\Generic\RS-232\OS\uCOS-III/probe_rs232_os.c **** 
 140:uC-Probe\Target\Communication\Generic\RS-232\OS\uCOS-III/probe_rs232_os.c **** #if (PROBE_RS232_CFG_PARSE_TASK_EN == DEF_ENABLED)
 141:uC-Probe\Target\Communication\Generic\RS-232\OS\uCOS-III/probe_rs232_os.c **** CPU_BOOLEAN  ProbeRS232_OS_Init (void)
 142:uC-Probe\Target\Communication\Generic\RS-232\OS\uCOS-III/probe_rs232_os.c **** {
 143:uC-Probe\Target\Communication\Generic\RS-232\OS\uCOS-III/probe_rs232_os.c ****     OS_ERR  os_err;
 144:uC-Probe\Target\Communication\Generic\RS-232\OS\uCOS-III/probe_rs232_os.c **** 
 145:uC-Probe\Target\Communication\Generic\RS-232\OS\uCOS-III/probe_rs232_os.c **** 
ARM GAS  C:\Users\roman\AppData\Local\Temp\ccV1ZXzS.s 			page 4


 146:uC-Probe\Target\Communication\Generic\RS-232\OS\uCOS-III/probe_rs232_os.c ****     OSSemCreate((OS_SEM     *)&ProbeRS232_OS_Sem,
 147:uC-Probe\Target\Communication\Generic\RS-232\OS\uCOS-III/probe_rs232_os.c ****                 (CPU_CHAR   *)"Probe RS-232",
 148:uC-Probe\Target\Communication\Generic\RS-232\OS\uCOS-III/probe_rs232_os.c ****                 (OS_SEM_CTR  ) 0,
 149:uC-Probe\Target\Communication\Generic\RS-232\OS\uCOS-III/probe_rs232_os.c ****                 (OS_ERR     *)&os_err);
 150:uC-Probe\Target\Communication\Generic\RS-232\OS\uCOS-III/probe_rs232_os.c **** 
 151:uC-Probe\Target\Communication\Generic\RS-232\OS\uCOS-III/probe_rs232_os.c ****     if (os_err != OS_ERR_NONE) {
 152:uC-Probe\Target\Communication\Generic\RS-232\OS\uCOS-III/probe_rs232_os.c ****         return (DEF_FAIL);
 153:uC-Probe\Target\Communication\Generic\RS-232\OS\uCOS-III/probe_rs232_os.c ****     }
 154:uC-Probe\Target\Communication\Generic\RS-232\OS\uCOS-III/probe_rs232_os.c **** 
 155:uC-Probe\Target\Communication\Generic\RS-232\OS\uCOS-III/probe_rs232_os.c **** 
 156:uC-Probe\Target\Communication\Generic\RS-232\OS\uCOS-III/probe_rs232_os.c ****     OSTaskCreate((OS_TCB     *)&ProbeRS232_OS_TaskTCB,
 157:uC-Probe\Target\Communication\Generic\RS-232\OS\uCOS-III/probe_rs232_os.c ****                  (CPU_CHAR   *)"Probe RS232",
 158:uC-Probe\Target\Communication\Generic\RS-232\OS\uCOS-III/probe_rs232_os.c ****                  (OS_TASK_PTR ) ProbeRS232_OS_Task,
 159:uC-Probe\Target\Communication\Generic\RS-232\OS\uCOS-III/probe_rs232_os.c ****                  (void       *) 0,
 160:uC-Probe\Target\Communication\Generic\RS-232\OS\uCOS-III/probe_rs232_os.c ****                  (OS_PRIO     ) PROBE_RS232_CFG_TASK_PRIO,
 161:uC-Probe\Target\Communication\Generic\RS-232\OS\uCOS-III/probe_rs232_os.c ****                  (CPU_STK    *)&ProbeRS232_OS_TaskStk[0],
 162:uC-Probe\Target\Communication\Generic\RS-232\OS\uCOS-III/probe_rs232_os.c ****                  (CPU_STK_SIZE) PROBE_RS232_TASK_STK_LIMIT,
 163:uC-Probe\Target\Communication\Generic\RS-232\OS\uCOS-III/probe_rs232_os.c ****                  (CPU_STK_SIZE) PROBE_RS232_CFG_TASK_STK_SIZE,
 164:uC-Probe\Target\Communication\Generic\RS-232\OS\uCOS-III/probe_rs232_os.c ****                  (OS_MSG_QTY  ) 0u,
 165:uC-Probe\Target\Communication\Generic\RS-232\OS\uCOS-III/probe_rs232_os.c ****                  (OS_TICK     ) 0u,
 166:uC-Probe\Target\Communication\Generic\RS-232\OS\uCOS-III/probe_rs232_os.c ****                  (void       *) 0,
 167:uC-Probe\Target\Communication\Generic\RS-232\OS\uCOS-III/probe_rs232_os.c ****                  (OS_OPT      )(OS_OPT_TASK_STK_CHK | OS_OPT_TASK_STK_CLR),
 168:uC-Probe\Target\Communication\Generic\RS-232\OS\uCOS-III/probe_rs232_os.c ****                  (OS_ERR     *)&os_err);
 169:uC-Probe\Target\Communication\Generic\RS-232\OS\uCOS-III/probe_rs232_os.c **** 
 170:uC-Probe\Target\Communication\Generic\RS-232\OS\uCOS-III/probe_rs232_os.c ****     if (os_err != OS_ERR_NONE) {
 171:uC-Probe\Target\Communication\Generic\RS-232\OS\uCOS-III/probe_rs232_os.c ****         return (DEF_FAIL);
 172:uC-Probe\Target\Communication\Generic\RS-232\OS\uCOS-III/probe_rs232_os.c ****     }
 173:uC-Probe\Target\Communication\Generic\RS-232\OS\uCOS-III/probe_rs232_os.c **** 
 174:uC-Probe\Target\Communication\Generic\RS-232\OS\uCOS-III/probe_rs232_os.c ****     return (DEF_OK);
 175:uC-Probe\Target\Communication\Generic\RS-232\OS\uCOS-III/probe_rs232_os.c **** }
 176:uC-Probe\Target\Communication\Generic\RS-232\OS\uCOS-III/probe_rs232_os.c **** #endif
 177:uC-Probe\Target\Communication\Generic\RS-232\OS\uCOS-III/probe_rs232_os.c **** 
 178:uC-Probe\Target\Communication\Generic\RS-232\OS\uCOS-III/probe_rs232_os.c **** 
 179:uC-Probe\Target\Communication\Generic\RS-232\OS\uCOS-III/probe_rs232_os.c **** /*
 180:uC-Probe\Target\Communication\Generic\RS-232\OS\uCOS-III/probe_rs232_os.c **** ***************************************************************************************************
 181:uC-Probe\Target\Communication\Generic\RS-232\OS\uCOS-III/probe_rs232_os.c **** *                                       ProbeRS232_OS_Pend()
 182:uC-Probe\Target\Communication\Generic\RS-232\OS\uCOS-III/probe_rs232_os.c **** *
 183:uC-Probe\Target\Communication\Generic\RS-232\OS\uCOS-III/probe_rs232_os.c **** * Description : Wait for a packet to be received.
 184:uC-Probe\Target\Communication\Generic\RS-232\OS\uCOS-III/probe_rs232_os.c **** *
 185:uC-Probe\Target\Communication\Generic\RS-232\OS\uCOS-III/probe_rs232_os.c **** * Argument(s) : none.
 186:uC-Probe\Target\Communication\Generic\RS-232\OS\uCOS-III/probe_rs232_os.c **** *
 187:uC-Probe\Target\Communication\Generic\RS-232\OS\uCOS-III/probe_rs232_os.c **** * Return(s)   : none.
 188:uC-Probe\Target\Communication\Generic\RS-232\OS\uCOS-III/probe_rs232_os.c **** *
 189:uC-Probe\Target\Communication\Generic\RS-232\OS\uCOS-III/probe_rs232_os.c **** * Caller(s)   : ProbeRS232_Task().
 190:uC-Probe\Target\Communication\Generic\RS-232\OS\uCOS-III/probe_rs232_os.c **** *
 191:uC-Probe\Target\Communication\Generic\RS-232\OS\uCOS-III/probe_rs232_os.c **** * Note(s)     : none.
 192:uC-Probe\Target\Communication\Generic\RS-232\OS\uCOS-III/probe_rs232_os.c **** ***************************************************************************************************
 193:uC-Probe\Target\Communication\Generic\RS-232\OS\uCOS-III/probe_rs232_os.c **** */
 194:uC-Probe\Target\Communication\Generic\RS-232\OS\uCOS-III/probe_rs232_os.c **** 
 195:uC-Probe\Target\Communication\Generic\RS-232\OS\uCOS-III/probe_rs232_os.c **** #if (PROBE_RS232_CFG_PARSE_TASK_EN == DEF_ENABLED)
 196:uC-Probe\Target\Communication\Generic\RS-232\OS\uCOS-III/probe_rs232_os.c **** void  ProbeRS232_OS_Pend (void)
 197:uC-Probe\Target\Communication\Generic\RS-232\OS\uCOS-III/probe_rs232_os.c **** {
 198:uC-Probe\Target\Communication\Generic\RS-232\OS\uCOS-III/probe_rs232_os.c ****     OS_ERR  os_err;
 199:uC-Probe\Target\Communication\Generic\RS-232\OS\uCOS-III/probe_rs232_os.c **** 
 200:uC-Probe\Target\Communication\Generic\RS-232\OS\uCOS-III/probe_rs232_os.c **** 
 201:uC-Probe\Target\Communication\Generic\RS-232\OS\uCOS-III/probe_rs232_os.c ****     OSSemPend((OS_SEM  *)&ProbeRS232_OS_Sem,                    /* Wait for a packet to be received
 202:uC-Probe\Target\Communication\Generic\RS-232\OS\uCOS-III/probe_rs232_os.c ****               (OS_TICK  ) 0u,                                   /* ... without timeout.            
ARM GAS  C:\Users\roman\AppData\Local\Temp\ccV1ZXzS.s 			page 5


 203:uC-Probe\Target\Communication\Generic\RS-232\OS\uCOS-III/probe_rs232_os.c ****               (OS_OPT   ) OS_OPT_PEND_BLOCKING,
 204:uC-Probe\Target\Communication\Generic\RS-232\OS\uCOS-III/probe_rs232_os.c ****               (CPU_TS  *) 0u,
 205:uC-Probe\Target\Communication\Generic\RS-232\OS\uCOS-III/probe_rs232_os.c ****               (OS_ERR  *)&os_err);
 206:uC-Probe\Target\Communication\Generic\RS-232\OS\uCOS-III/probe_rs232_os.c **** 
 207:uC-Probe\Target\Communication\Generic\RS-232\OS\uCOS-III/probe_rs232_os.c ****    (void)&os_err;
 208:uC-Probe\Target\Communication\Generic\RS-232\OS\uCOS-III/probe_rs232_os.c **** }
 209:uC-Probe\Target\Communication\Generic\RS-232\OS\uCOS-III/probe_rs232_os.c **** #endif
 210:uC-Probe\Target\Communication\Generic\RS-232\OS\uCOS-III/probe_rs232_os.c **** 
 211:uC-Probe\Target\Communication\Generic\RS-232\OS\uCOS-III/probe_rs232_os.c **** 
 212:uC-Probe\Target\Communication\Generic\RS-232\OS\uCOS-III/probe_rs232_os.c **** /*
 213:uC-Probe\Target\Communication\Generic\RS-232\OS\uCOS-III/probe_rs232_os.c **** ***************************************************************************************************
 214:uC-Probe\Target\Communication\Generic\RS-232\OS\uCOS-III/probe_rs232_os.c **** *                                       ProbeRS232_OS_Post()
 215:uC-Probe\Target\Communication\Generic\RS-232\OS\uCOS-III/probe_rs232_os.c **** *
 216:uC-Probe\Target\Communication\Generic\RS-232\OS\uCOS-III/probe_rs232_os.c **** * Description : Notify a pending task that a packet has been receieved.
 217:uC-Probe\Target\Communication\Generic\RS-232\OS\uCOS-III/probe_rs232_os.c **** *
 218:uC-Probe\Target\Communication\Generic\RS-232\OS\uCOS-III/probe_rs232_os.c **** * Argument(s) : none.
 219:uC-Probe\Target\Communication\Generic\RS-232\OS\uCOS-III/probe_rs232_os.c **** *
 220:uC-Probe\Target\Communication\Generic\RS-232\OS\uCOS-III/probe_rs232_os.c **** * Return(s)   : none.
 221:uC-Probe\Target\Communication\Generic\RS-232\OS\uCOS-III/probe_rs232_os.c **** *
 222:uC-Probe\Target\Communication\Generic\RS-232\OS\uCOS-III/probe_rs232_os.c **** * Caller(s)   : ProbeRS232_RxPkt().
 223:uC-Probe\Target\Communication\Generic\RS-232\OS\uCOS-III/probe_rs232_os.c **** *
 224:uC-Probe\Target\Communication\Generic\RS-232\OS\uCOS-III/probe_rs232_os.c **** * Note(s)     : none.
 225:uC-Probe\Target\Communication\Generic\RS-232\OS\uCOS-III/probe_rs232_os.c **** ***************************************************************************************************
 226:uC-Probe\Target\Communication\Generic\RS-232\OS\uCOS-III/probe_rs232_os.c **** */
 227:uC-Probe\Target\Communication\Generic\RS-232\OS\uCOS-III/probe_rs232_os.c **** 
 228:uC-Probe\Target\Communication\Generic\RS-232\OS\uCOS-III/probe_rs232_os.c **** #if (PROBE_RS232_CFG_PARSE_TASK_EN == DEF_ENABLED)
 229:uC-Probe\Target\Communication\Generic\RS-232\OS\uCOS-III/probe_rs232_os.c **** void  ProbeRS232_OS_Post (void)
 230:uC-Probe\Target\Communication\Generic\RS-232\OS\uCOS-III/probe_rs232_os.c **** {
 231:uC-Probe\Target\Communication\Generic\RS-232\OS\uCOS-III/probe_rs232_os.c ****     OS_ERR  os_err;
 232:uC-Probe\Target\Communication\Generic\RS-232\OS\uCOS-III/probe_rs232_os.c **** 
 233:uC-Probe\Target\Communication\Generic\RS-232\OS\uCOS-III/probe_rs232_os.c **** 
 234:uC-Probe\Target\Communication\Generic\RS-232\OS\uCOS-III/probe_rs232_os.c ****     OSSemPost((OS_SEM *)&ProbeRS232_OS_Sem,                         /* A packet has been received. 
 235:uC-Probe\Target\Communication\Generic\RS-232\OS\uCOS-III/probe_rs232_os.c ****               (OS_OPT  )OS_OPT_POST_FIFO,
 236:uC-Probe\Target\Communication\Generic\RS-232\OS\uCOS-III/probe_rs232_os.c ****               (OS_ERR *)&os_err);
 237:uC-Probe\Target\Communication\Generic\RS-232\OS\uCOS-III/probe_rs232_os.c **** 
 238:uC-Probe\Target\Communication\Generic\RS-232\OS\uCOS-III/probe_rs232_os.c ****    (void)&os_err;
 239:uC-Probe\Target\Communication\Generic\RS-232\OS\uCOS-III/probe_rs232_os.c **** }
 240:uC-Probe\Target\Communication\Generic\RS-232\OS\uCOS-III/probe_rs232_os.c **** #endif
 241:uC-Probe\Target\Communication\Generic\RS-232\OS\uCOS-III/probe_rs232_os.c **** 
 242:uC-Probe\Target\Communication\Generic\RS-232\OS\uCOS-III/probe_rs232_os.c **** 
 243:uC-Probe\Target\Communication\Generic\RS-232\OS\uCOS-III/probe_rs232_os.c **** /*
 244:uC-Probe\Target\Communication\Generic\RS-232\OS\uCOS-III/probe_rs232_os.c **** ***************************************************************************************************
 245:uC-Probe\Target\Communication\Generic\RS-232\OS\uCOS-III/probe_rs232_os.c **** ***************************************************************************************************
 246:uC-Probe\Target\Communication\Generic\RS-232\OS\uCOS-III/probe_rs232_os.c **** *                                           LOCAL FUNCTIONS
 247:uC-Probe\Target\Communication\Generic\RS-232\OS\uCOS-III/probe_rs232_os.c **** ***************************************************************************************************
 248:uC-Probe\Target\Communication\Generic\RS-232\OS\uCOS-III/probe_rs232_os.c **** ***************************************************************************************************
 249:uC-Probe\Target\Communication\Generic\RS-232\OS\uCOS-III/probe_rs232_os.c **** */
 250:uC-Probe\Target\Communication\Generic\RS-232\OS\uCOS-III/probe_rs232_os.c **** 
 251:uC-Probe\Target\Communication\Generic\RS-232\OS\uCOS-III/probe_rs232_os.c **** /*
 252:uC-Probe\Target\Communication\Generic\RS-232\OS\uCOS-III/probe_rs232_os.c **** ***************************************************************************************************
 253:uC-Probe\Target\Communication\Generic\RS-232\OS\uCOS-III/probe_rs232_os.c **** *                                         ProbeRS232_OS_Task()
 254:uC-Probe\Target\Communication\Generic\RS-232\OS\uCOS-III/probe_rs232_os.c **** *
 255:uC-Probe\Target\Communication\Generic\RS-232\OS\uCOS-III/probe_rs232_os.c **** * Description : Task which waits for packets to be received, formalates responses, and begins trans
 256:uC-Probe\Target\Communication\Generic\RS-232\OS\uCOS-III/probe_rs232_os.c **** *
 257:uC-Probe\Target\Communication\Generic\RS-232\OS\uCOS-III/probe_rs232_os.c **** * Argument(s) : p_arg       Argument passed to ProbeRS232_OS_Task() by 'OSTaskCreate()'.
 258:uC-Probe\Target\Communication\Generic\RS-232\OS\uCOS-III/probe_rs232_os.c **** *
 259:uC-Probe\Target\Communication\Generic\RS-232\OS\uCOS-III/probe_rs232_os.c **** * Return(s)   : none.
ARM GAS  C:\Users\roman\AppData\Local\Temp\ccV1ZXzS.s 			page 6


 260:uC-Probe\Target\Communication\Generic\RS-232\OS\uCOS-III/probe_rs232_os.c **** *
 261:uC-Probe\Target\Communication\Generic\RS-232\OS\uCOS-III/probe_rs232_os.c **** * Caller(s)   : This is a task.
 262:uC-Probe\Target\Communication\Generic\RS-232\OS\uCOS-III/probe_rs232_os.c **** *
 263:uC-Probe\Target\Communication\Generic\RS-232\OS\uCOS-III/probe_rs232_os.c **** * Note(s)     : none.
 264:uC-Probe\Target\Communication\Generic\RS-232\OS\uCOS-III/probe_rs232_os.c **** ***************************************************************************************************
 265:uC-Probe\Target\Communication\Generic\RS-232\OS\uCOS-III/probe_rs232_os.c **** */
 266:uC-Probe\Target\Communication\Generic\RS-232\OS\uCOS-III/probe_rs232_os.c **** 
 267:uC-Probe\Target\Communication\Generic\RS-232\OS\uCOS-III/probe_rs232_os.c **** #if (PROBE_RS232_CFG_PARSE_TASK_EN == DEF_ENABLED)
 268:uC-Probe\Target\Communication\Generic\RS-232\OS\uCOS-III/probe_rs232_os.c **** static  void  ProbeRS232_OS_Task (void *p_arg)
 269:uC-Probe\Target\Communication\Generic\RS-232\OS\uCOS-III/probe_rs232_os.c **** {
  27              		.loc 1 269 0
  28              		.cfi_startproc
  29              		@ args = 0, pretend = 0, frame = 0
  30              		@ frame_needed = 0, uses_anonymous_args = 0
  31              	.LVL0:
  32 0000 08B5     		push	{r3, lr}
  33              		.cfi_def_cfa_offset 8
  34              		.cfi_offset 3, -8
  35              		.cfi_offset 14, -4
 270:uC-Probe\Target\Communication\Generic\RS-232\OS\uCOS-III/probe_rs232_os.c ****    (void)&p_arg;
 271:uC-Probe\Target\Communication\Generic\RS-232\OS\uCOS-III/probe_rs232_os.c ****     ProbeRS232_Task();
  36              		.loc 1 271 0
  37 0002 FFF7FEFF 		bl	ProbeRS232_Task
  38              	.LVL1:
  39 0006 08BD     		pop	{r3, pc}
  40              		.cfi_endproc
  41              	.LFE4:
  42              		.size	ProbeRS232_OS_Task, .-ProbeRS232_OS_Task
  43              		.section	.text.ProbeRS232_OS_Init,"ax",%progbits
  44              		.align	2
  45              		.global	ProbeRS232_OS_Init
  46              		.thumb
  47              		.thumb_func
  48              		.type	ProbeRS232_OS_Init, %function
  49              	ProbeRS232_OS_Init:
  50              	.LFB1:
 142:uC-Probe\Target\Communication\Generic\RS-232\OS\uCOS-III/probe_rs232_os.c ****     OS_ERR  os_err;
  51              		.loc 1 142 0
  52              		.cfi_startproc
  53              		@ args = 0, pretend = 0, frame = 8
  54              		@ frame_needed = 0, uses_anonymous_args = 0
  55 0000 00B5     		push	{lr}
  56              		.cfi_def_cfa_offset 4
  57              		.cfi_offset 14, -4
  58 0002 8DB0     		sub	sp, sp, #52
  59              		.cfi_def_cfa_offset 56
 146:uC-Probe\Target\Communication\Generic\RS-232\OS\uCOS-III/probe_rs232_os.c ****                 (CPU_CHAR   *)"Probe RS-232",
  60              		.loc 1 146 0
  61 0004 0DF12E03 		add	r3, sp, #46
  62 0008 0022     		movs	r2, #0
  63 000a 1549     		ldr	r1, .L8
  64 000c 1548     		ldr	r0, .L8+4
  65 000e FFF7FEFF 		bl	OSSemCreate
  66              	.LVL2:
 151:uC-Probe\Target\Communication\Generic\RS-232\OS\uCOS-III/probe_rs232_os.c ****         return (DEF_FAIL);
  67              		.loc 1 151 0
  68 0012 BDF82E30 		ldrh	r3, [sp, #46]
ARM GAS  C:\Users\roman\AppData\Local\Temp\ccV1ZXzS.s 			page 7


  69 0016 E3B9     		cbnz	r3, .L5
 156:uC-Probe\Target\Communication\Generic\RS-232\OS\uCOS-III/probe_rs232_os.c ****                  (CPU_CHAR   *)"Probe RS232",
  70              		.loc 1 156 0
  71 0018 1248     		ldr	r0, .L8+4
  72 001a 0DF12E03 		add	r3, sp, #46
  73 001e 0893     		str	r3, [sp, #32]
  74 0020 0323     		movs	r3, #3
  75 0022 0793     		str	r3, [sp, #28]
  76 0024 0023     		movs	r3, #0
  77 0026 0693     		str	r3, [sp, #24]
  78 0028 0593     		str	r3, [sp, #20]
  79 002a 0493     		str	r3, [sp, #16]
  80 002c 8022     		movs	r2, #128
  81 002e 0392     		str	r2, [sp, #12]
  82 0030 0C22     		movs	r2, #12
  83 0032 0292     		str	r2, [sp, #8]
  84 0034 00F1E802 		add	r2, r0, #232
  85 0038 0192     		str	r2, [sp, #4]
  86 003a 0422     		movs	r2, #4
  87 003c 0092     		str	r2, [sp]
  88 003e 0A4A     		ldr	r2, .L8+8
  89 0040 0A49     		ldr	r1, .L8+12
  90 0042 2830     		adds	r0, r0, #40
  91 0044 FFF7FEFF 		bl	OSTaskCreate
  92              	.LVL3:
 170:uC-Probe\Target\Communication\Generic\RS-232\OS\uCOS-III/probe_rs232_os.c ****         return (DEF_FAIL);
  93              		.loc 1 170 0
  94 0048 BDF82E30 		ldrh	r3, [sp, #46]
  95 004c 1BB1     		cbz	r3, .L6
 171:uC-Probe\Target\Communication\Generic\RS-232\OS\uCOS-III/probe_rs232_os.c ****     }
  96              		.loc 1 171 0
  97 004e 0020     		movs	r0, #0
  98 0050 02E0     		b	.L4
  99              	.L5:
 152:uC-Probe\Target\Communication\Generic\RS-232\OS\uCOS-III/probe_rs232_os.c ****     }
 100              		.loc 1 152 0
 101 0052 0020     		movs	r0, #0
 102 0054 00E0     		b	.L4
 103              	.L6:
 174:uC-Probe\Target\Communication\Generic\RS-232\OS\uCOS-III/probe_rs232_os.c **** }
 104              		.loc 1 174 0
 105 0056 0120     		movs	r0, #1
 106              	.L4:
 175:uC-Probe\Target\Communication\Generic\RS-232\OS\uCOS-III/probe_rs232_os.c **** #endif
 107              		.loc 1 175 0
 108 0058 0DB0     		add	sp, sp, #52
 109              		.cfi_def_cfa_offset 4
 110              		@ sp needed
 111 005a 5DF804FB 		ldr	pc, [sp], #4
 112              	.L9:
 113 005e 00BF     		.align	2
 114              	.L8:
 115 0060 00000000 		.word	.LC0
 116 0064 00000000 		.word	.LANCHOR0
 117 0068 00000000 		.word	ProbeRS232_OS_Task
 118 006c 10000000 		.word	.LC1
 119              		.cfi_endproc
ARM GAS  C:\Users\roman\AppData\Local\Temp\ccV1ZXzS.s 			page 8


 120              	.LFE1:
 121              		.size	ProbeRS232_OS_Init, .-ProbeRS232_OS_Init
 122              		.section	.text.ProbeRS232_OS_Pend,"ax",%progbits
 123              		.align	2
 124              		.global	ProbeRS232_OS_Pend
 125              		.thumb
 126              		.thumb_func
 127              		.type	ProbeRS232_OS_Pend, %function
 128              	ProbeRS232_OS_Pend:
 129              	.LFB2:
 197:uC-Probe\Target\Communication\Generic\RS-232\OS\uCOS-III/probe_rs232_os.c ****     OS_ERR  os_err;
 130              		.loc 1 197 0
 131              		.cfi_startproc
 132              		@ args = 0, pretend = 0, frame = 8
 133              		@ frame_needed = 0, uses_anonymous_args = 0
 134 0000 00B5     		push	{lr}
 135              		.cfi_def_cfa_offset 4
 136              		.cfi_offset 14, -4
 137 0002 85B0     		sub	sp, sp, #20
 138              		.cfi_def_cfa_offset 24
 201:uC-Probe\Target\Communication\Generic\RS-232\OS\uCOS-III/probe_rs232_os.c ****               (OS_TICK  ) 0u,                                   /* ... without timeout.            
 139              		.loc 1 201 0
 140 0004 0DF10E03 		add	r3, sp, #14
 141 0008 0093     		str	r3, [sp]
 142 000a 0023     		movs	r3, #0
 143 000c 1A46     		mov	r2, r3
 144 000e 1946     		mov	r1, r3
 145 0010 0248     		ldr	r0, .L12
 146 0012 FFF7FEFF 		bl	OSSemPend
 147              	.LVL4:
 208:uC-Probe\Target\Communication\Generic\RS-232\OS\uCOS-III/probe_rs232_os.c **** #endif
 148              		.loc 1 208 0
 149 0016 05B0     		add	sp, sp, #20
 150              		.cfi_def_cfa_offset 4
 151              		@ sp needed
 152 0018 5DF804FB 		ldr	pc, [sp], #4
 153              	.L13:
 154              		.align	2
 155              	.L12:
 156 001c 00000000 		.word	.LANCHOR0
 157              		.cfi_endproc
 158              	.LFE2:
 159              		.size	ProbeRS232_OS_Pend, .-ProbeRS232_OS_Pend
 160              		.section	.text.ProbeRS232_OS_Post,"ax",%progbits
 161              		.align	2
 162              		.global	ProbeRS232_OS_Post
 163              		.thumb
 164              		.thumb_func
 165              		.type	ProbeRS232_OS_Post, %function
 166              	ProbeRS232_OS_Post:
 167              	.LFB3:
 230:uC-Probe\Target\Communication\Generic\RS-232\OS\uCOS-III/probe_rs232_os.c ****     OS_ERR  os_err;
 168              		.loc 1 230 0
 169              		.cfi_startproc
 170              		@ args = 0, pretend = 0, frame = 8
 171              		@ frame_needed = 0, uses_anonymous_args = 0
 172 0000 00B5     		push	{lr}
ARM GAS  C:\Users\roman\AppData\Local\Temp\ccV1ZXzS.s 			page 9


 173              		.cfi_def_cfa_offset 4
 174              		.cfi_offset 14, -4
 175 0002 83B0     		sub	sp, sp, #12
 176              		.cfi_def_cfa_offset 16
 234:uC-Probe\Target\Communication\Generic\RS-232\OS\uCOS-III/probe_rs232_os.c ****               (OS_OPT  )OS_OPT_POST_FIFO,
 177              		.loc 1 234 0
 178 0004 0DF10602 		add	r2, sp, #6
 179 0008 0021     		movs	r1, #0
 180 000a 0348     		ldr	r0, .L16
 181 000c FFF7FEFF 		bl	OSSemPost
 182              	.LVL5:
 239:uC-Probe\Target\Communication\Generic\RS-232\OS\uCOS-III/probe_rs232_os.c **** #endif
 183              		.loc 1 239 0
 184 0010 03B0     		add	sp, sp, #12
 185              		.cfi_def_cfa_offset 4
 186              		@ sp needed
 187 0012 5DF804FB 		ldr	pc, [sp], #4
 188              	.L17:
 189 0016 00BF     		.align	2
 190              	.L16:
 191 0018 00000000 		.word	.LANCHOR0
 192              		.cfi_endproc
 193              	.LFE3:
 194              		.size	ProbeRS232_OS_Post, .-ProbeRS232_OS_Post
 195              		.section	.rodata.str1.4,"aMS",%progbits,1
 196              		.align	2
 197              	.LC0:
 198 0000 50726F62 		.ascii	"Probe RS-232\000"
 198      65205253 
 198      2D323332 
 198      00
 199 000d 000000   		.space	3
 200              	.LC1:
 201 0010 50726F62 		.ascii	"Probe RS232\000"
 201      65205253 
 201      32333200 
 202              		.bss
 203              		.align	2
 204              		.set	.LANCHOR0,. + 0
 205              		.type	ProbeRS232_OS_Sem, %object
 206              		.size	ProbeRS232_OS_Sem, 40
 207              	ProbeRS232_OS_Sem:
 208 0000 00000000 		.space	40
 208      00000000 
 208      00000000 
 208      00000000 
 208      00000000 
 209              		.type	ProbeRS232_OS_TaskTCB, %object
 210              		.size	ProbeRS232_OS_TaskTCB, 192
 211              	ProbeRS232_OS_TaskTCB:
 212 0028 00000000 		.space	192
 212      00000000 
 212      00000000 
 212      00000000 
 212      00000000 
 213              		.type	ProbeRS232_OS_TaskStk, %object
 214              		.size	ProbeRS232_OS_TaskStk, 512
ARM GAS  C:\Users\roman\AppData\Local\Temp\ccV1ZXzS.s 			page 10


 215              	ProbeRS232_OS_TaskStk:
 216 00e8 00000000 		.space	512
 216      00000000 
 216      00000000 
 216      00000000 
 216      00000000 
 217              		.text
 218              	.Letext0:
 219              		.file 2 ".\\uC-CPU\\ARM-Cortex-M3\\GNU/cpu.h"
 220              		.file 3 ".\\uC-CPU/cpu_core.h"
 221              		.file 4 ".\\uCOS-III\\Source/os_type.h"
 222              		.file 5 ".\\uCOS-III\\Source/os.h"
 223              		.file 6 ".\\uC-Probe\\Target\\Communication\\Generic\\RS-232\\Source/probe_rs232.h"